
.//core_mark.elf:     file format elf32-sparc


Disassembly of section .text:

00000000 <_start>:
       0:	90 10 21 00 	mov  0x100, %o0
       4:	d0 a0 00 80 	sta  %o0, [ %g0 ] #ASI_N
       8:	9c 10 30 00 	mov  -4096, %sp
       c:	bc 10 00 00 	mov  %g0, %fp
      10:	a0 10 20 01 	mov  1, %l0
      14:	81 94 20 00 	mov  %l0, %wim
      18:	21 00 00 04 	sethi  %hi(0x1000), %l0
      1c:	a0 14 20 e0 	or  %l0, 0xe0, %l0	! 10e0 <window_underflow_trap_handler+0x7c>
      20:	81 88 00 10 	mov  %l0, %psr
      24:	21 00 00 08 	sethi  %hi(0x2000), %l0
      28:	a0 14 20 00 	mov  %l0, %l0	! 2000 <trap_table_base>
      2c:	81 9c 20 00 	mov  %l0, %tbr
      30:	40 00 0e b3 	call  3afc <ajit_main>
      34:	01 00 00 00 	nop 
      38:	91 d0 20 00 	ta  0
	...

00001000 <window_overflow_trap_handler>:
    1000:	a7 50 00 00 	rd  %wim, %l3
    1004:	a9 2c e0 07 	sll  %l3, 7, %l4
    1008:	a7 34 e0 01 	srl  %l3, 1, %l3
    100c:	a6 14 c0 14 	or  %l3, %l4, %l3
    1010:	a6 0c e0 ff 	and  %l3, 0xff, %l3
    1014:	81 90 00 00 	mov  %g0, %wim
    1018:	01 00 00 00 	nop 
    101c:	01 00 00 00 	nop 
    1020:	01 00 00 00 	nop 
    1024:	81 e0 00 00 	save 
    1028:	e0 3b a0 00 	std  %l0, [ %sp ]
    102c:	e4 3b a0 08 	std  %l2, [ %sp + 8 ]
    1030:	e8 3b a0 10 	std  %l4, [ %sp + 0x10 ]
    1034:	ec 3b a0 18 	std  %l6, [ %sp + 0x18 ]
    1038:	f0 3b a0 20 	std  %i0, [ %sp + 0x20 ]
    103c:	f4 3b a0 28 	std  %i2, [ %sp + 0x28 ]
    1040:	f8 3b a0 30 	std  %i4, [ %sp + 0x30 ]
    1044:	fc 3b a0 38 	std  %fp, [ %sp + 0x38 ]
    1048:	81 e8 00 00 	restore 
    104c:	81 90 00 13 	mov  %l3, %wim
    1050:	01 00 00 00 	nop 
    1054:	01 00 00 00 	nop 
    1058:	01 00 00 00 	nop 
    105c:	81 c4 40 00 	jmp  %l1
    1060:	81 cc 80 00 	rett  %l2

00001064 <window_underflow_trap_handler>:
    1064:	a7 50 00 00 	rd  %wim, %l3
    1068:	a9 34 e0 07 	srl  %l3, 7, %l4
    106c:	a7 2c e0 01 	sll  %l3, 1, %l3
    1070:	a6 14 c0 14 	or  %l3, %l4, %l3
    1074:	a6 0c e0 ff 	and  %l3, 0xff, %l3
    1078:	81 90 00 00 	mov  %g0, %wim
    107c:	01 00 00 00 	nop 
    1080:	01 00 00 00 	nop 
    1084:	01 00 00 00 	nop 
    1088:	81 e8 00 00 	restore 
    108c:	81 e8 00 00 	restore 
    1090:	e0 1b a0 00 	ldd  [ %sp ], %l0
    1094:	e4 1b a0 08 	ldd  [ %sp + 8 ], %l2
    1098:	e8 1b a0 10 	ldd  [ %sp + 0x10 ], %l4
    109c:	ec 1b a0 18 	ldd  [ %sp + 0x18 ], %l6
    10a0:	f0 1b a0 20 	ldd  [ %sp + 0x20 ], %i0
    10a4:	f4 1b a0 28 	ldd  [ %sp + 0x28 ], %i2
    10a8:	f8 1b a0 30 	ldd  [ %sp + 0x30 ], %i4
    10ac:	fc 1b a0 38 	ldd  [ %sp + 0x38 ], %fp
    10b0:	81 e0 00 00 	save 
    10b4:	81 e0 00 00 	save 
    10b8:	81 90 00 13 	mov  %l3, %wim
    10bc:	01 00 00 00 	nop 
    10c0:	01 00 00 00 	nop 
    10c4:	01 00 00 00 	nop 
    10c8:	81 c4 40 00 	jmp  %l1
    10cc:	81 cc 80 00 	rett  %l2
    10d0:	01 00 00 00 	nop 
    10d4:	01 00 00 00 	nop 
    10d8:	01 00 00 00 	nop 
    10dc:	01 00 00 00 	nop 
    10e0:	01 00 00 00 	nop 
    10e4:	01 00 00 00 	nop 
    10e8:	01 00 00 00 	nop 
    10ec:	01 00 00 00 	nop 
    10f0:	01 00 00 00 	nop 
    10f4:	01 00 00 00 	nop 
    10f8:	01 00 00 00 	nop 
    10fc:	01 00 00 00 	nop 
    1100:	01 00 00 00 	nop 
    1104:	01 00 00 00 	nop 
    1108:	01 00 00 00 	nop 
    110c:	01 00 00 00 	nop 
    1110:	01 00 00 00 	nop 
    1114:	01 00 00 00 	nop 
    1118:	01 00 00 00 	nop 
    111c:	01 00 00 00 	nop 
    1120:	01 00 00 00 	nop 
    1124:	01 00 00 00 	nop 
    1128:	01 00 00 00 	nop 
    112c:	01 00 00 00 	nop 
    1130:	01 00 00 00 	nop 
    1134:	01 00 00 00 	nop 
    1138:	01 00 00 00 	nop 
    113c:	01 00 00 00 	nop 
    1140:	01 00 00 00 	nop 
    1144:	01 00 00 00 	nop 
    1148:	01 00 00 00 	nop 
    114c:	01 00 00 00 	nop 
    1150:	01 00 00 00 	nop 
    1154:	01 00 00 00 	nop 
    1158:	01 00 00 00 	nop 
    115c:	01 00 00 00 	nop 
    1160:	01 00 00 00 	nop 
    1164:	01 00 00 00 	nop 
    1168:	01 00 00 00 	nop 
    116c:	01 00 00 00 	nop 
    1170:	01 00 00 00 	nop 
    1174:	01 00 00 00 	nop 
    1178:	01 00 00 00 	nop 
    117c:	01 00 00 00 	nop 
    1180:	01 00 00 00 	nop 
    1184:	01 00 00 00 	nop 
    1188:	01 00 00 00 	nop 
    118c:	01 00 00 00 	nop 
    1190:	01 00 00 00 	nop 
    1194:	01 00 00 00 	nop 
    1198:	01 00 00 00 	nop 
    119c:	01 00 00 00 	nop 
    11a0:	01 00 00 00 	nop 
    11a4:	01 00 00 00 	nop 
    11a8:	01 00 00 00 	nop 
    11ac:	01 00 00 00 	nop 
    11b0:	01 00 00 00 	nop 
    11b4:	01 00 00 00 	nop 
    11b8:	01 00 00 00 	nop 
    11bc:	01 00 00 00 	nop 
    11c0:	01 00 00 00 	nop 
    11c4:	01 00 00 00 	nop 
    11c8:	01 00 00 00 	nop 
    11cc:	01 00 00 00 	nop 
    11d0:	01 00 00 00 	nop 
    11d4:	01 00 00 00 	nop 
    11d8:	01 00 00 00 	nop 
    11dc:	01 00 00 00 	nop 
    11e0:	01 00 00 00 	nop 
    11e4:	01 00 00 00 	nop 
    11e8:	01 00 00 00 	nop 
    11ec:	01 00 00 00 	nop 
    11f0:	01 00 00 00 	nop 
    11f4:	01 00 00 00 	nop 
    11f8:	01 00 00 00 	nop 
    11fc:	01 00 00 00 	nop 
    1200:	01 00 00 00 	nop 
    1204:	01 00 00 00 	nop 
    1208:	01 00 00 00 	nop 
    120c:	01 00 00 00 	nop 
    1210:	01 00 00 00 	nop 
    1214:	01 00 00 00 	nop 
    1218:	01 00 00 00 	nop 
    121c:	01 00 00 00 	nop 
    1220:	01 00 00 00 	nop 
    1224:	01 00 00 00 	nop 
    1228:	01 00 00 00 	nop 
    122c:	01 00 00 00 	nop 
    1230:	01 00 00 00 	nop 
    1234:	01 00 00 00 	nop 
    1238:	01 00 00 00 	nop 
    123c:	01 00 00 00 	nop 
    1240:	01 00 00 00 	nop 
    1244:	01 00 00 00 	nop 
    1248:	01 00 00 00 	nop 
    124c:	01 00 00 00 	nop 
    1250:	01 00 00 00 	nop 
    1254:	01 00 00 00 	nop 
    1258:	01 00 00 00 	nop 
    125c:	01 00 00 00 	nop 
    1260:	01 00 00 00 	nop 
    1264:	01 00 00 00 	nop 
    1268:	01 00 00 00 	nop 
    126c:	01 00 00 00 	nop 
    1270:	01 00 00 00 	nop 
    1274:	01 00 00 00 	nop 
    1278:	01 00 00 00 	nop 
    127c:	01 00 00 00 	nop 
    1280:	01 00 00 00 	nop 
    1284:	01 00 00 00 	nop 
    1288:	01 00 00 00 	nop 
    128c:	01 00 00 00 	nop 
    1290:	01 00 00 00 	nop 
    1294:	01 00 00 00 	nop 
    1298:	01 00 00 00 	nop 
    129c:	01 00 00 00 	nop 
    12a0:	01 00 00 00 	nop 
    12a4:	01 00 00 00 	nop 
    12a8:	01 00 00 00 	nop 
    12ac:	01 00 00 00 	nop 
    12b0:	01 00 00 00 	nop 
    12b4:	01 00 00 00 	nop 
    12b8:	01 00 00 00 	nop 
    12bc:	01 00 00 00 	nop 
    12c0:	01 00 00 00 	nop 
    12c4:	01 00 00 00 	nop 
    12c8:	01 00 00 00 	nop 
    12cc:	01 00 00 00 	nop 
    12d0:	01 00 00 00 	nop 
    12d4:	01 00 00 00 	nop 
    12d8:	01 00 00 00 	nop 
    12dc:	01 00 00 00 	nop 
    12e0:	01 00 00 00 	nop 
    12e4:	01 00 00 00 	nop 
    12e8:	01 00 00 00 	nop 
    12ec:	01 00 00 00 	nop 
    12f0:	01 00 00 00 	nop 
    12f4:	01 00 00 00 	nop 
    12f8:	01 00 00 00 	nop 
    12fc:	01 00 00 00 	nop 
    1300:	01 00 00 00 	nop 
    1304:	01 00 00 00 	nop 
    1308:	01 00 00 00 	nop 
    130c:	01 00 00 00 	nop 
    1310:	01 00 00 00 	nop 
    1314:	01 00 00 00 	nop 
    1318:	01 00 00 00 	nop 
    131c:	01 00 00 00 	nop 
    1320:	01 00 00 00 	nop 
    1324:	01 00 00 00 	nop 
    1328:	01 00 00 00 	nop 
    132c:	01 00 00 00 	nop 
    1330:	01 00 00 00 	nop 
    1334:	01 00 00 00 	nop 
    1338:	01 00 00 00 	nop 
    133c:	01 00 00 00 	nop 
    1340:	01 00 00 00 	nop 
    1344:	01 00 00 00 	nop 
    1348:	01 00 00 00 	nop 
    134c:	01 00 00 00 	nop 
    1350:	01 00 00 00 	nop 
    1354:	01 00 00 00 	nop 
    1358:	01 00 00 00 	nop 
    135c:	01 00 00 00 	nop 
    1360:	01 00 00 00 	nop 
    1364:	01 00 00 00 	nop 
    1368:	01 00 00 00 	nop 
    136c:	01 00 00 00 	nop 
    1370:	01 00 00 00 	nop 
    1374:	01 00 00 00 	nop 
    1378:	01 00 00 00 	nop 
    137c:	01 00 00 00 	nop 
    1380:	01 00 00 00 	nop 
    1384:	01 00 00 00 	nop 
    1388:	01 00 00 00 	nop 
    138c:	01 00 00 00 	nop 
    1390:	01 00 00 00 	nop 
    1394:	01 00 00 00 	nop 
    1398:	01 00 00 00 	nop 
    139c:	01 00 00 00 	nop 
    13a0:	01 00 00 00 	nop 
    13a4:	01 00 00 00 	nop 
    13a8:	01 00 00 00 	nop 
    13ac:	01 00 00 00 	nop 
    13b0:	01 00 00 00 	nop 
    13b4:	01 00 00 00 	nop 
    13b8:	01 00 00 00 	nop 
    13bc:	01 00 00 00 	nop 
    13c0:	01 00 00 00 	nop 
    13c4:	01 00 00 00 	nop 
    13c8:	01 00 00 00 	nop 
    13cc:	01 00 00 00 	nop 
    13d0:	01 00 00 00 	nop 
    13d4:	01 00 00 00 	nop 
    13d8:	01 00 00 00 	nop 
    13dc:	01 00 00 00 	nop 
    13e0:	01 00 00 00 	nop 
    13e4:	01 00 00 00 	nop 
    13e8:	01 00 00 00 	nop 
    13ec:	01 00 00 00 	nop 
    13f0:	01 00 00 00 	nop 
    13f4:	01 00 00 00 	nop 
    13f8:	01 00 00 00 	nop 
    13fc:	01 00 00 00 	nop 
    1400:	01 00 00 00 	nop 
    1404:	01 00 00 00 	nop 
    1408:	01 00 00 00 	nop 
    140c:	01 00 00 00 	nop 
    1410:	01 00 00 00 	nop 
    1414:	01 00 00 00 	nop 
    1418:	01 00 00 00 	nop 
    141c:	01 00 00 00 	nop 
    1420:	01 00 00 00 	nop 
    1424:	01 00 00 00 	nop 
    1428:	01 00 00 00 	nop 
    142c:	01 00 00 00 	nop 
    1430:	01 00 00 00 	nop 
    1434:	01 00 00 00 	nop 
    1438:	01 00 00 00 	nop 
    143c:	01 00 00 00 	nop 
    1440:	01 00 00 00 	nop 
    1444:	01 00 00 00 	nop 
    1448:	01 00 00 00 	nop 
    144c:	01 00 00 00 	nop 
    1450:	01 00 00 00 	nop 
    1454:	01 00 00 00 	nop 
    1458:	01 00 00 00 	nop 
    145c:	01 00 00 00 	nop 
    1460:	01 00 00 00 	nop 
    1464:	01 00 00 00 	nop 
    1468:	01 00 00 00 	nop 
    146c:	01 00 00 00 	nop 
    1470:	01 00 00 00 	nop 
    1474:	01 00 00 00 	nop 
    1478:	01 00 00 00 	nop 
    147c:	01 00 00 00 	nop 
    1480:	01 00 00 00 	nop 
    1484:	01 00 00 00 	nop 
    1488:	01 00 00 00 	nop 
    148c:	01 00 00 00 	nop 
    1490:	01 00 00 00 	nop 
    1494:	01 00 00 00 	nop 
    1498:	01 00 00 00 	nop 
    149c:	01 00 00 00 	nop 
    14a0:	01 00 00 00 	nop 
    14a4:	01 00 00 00 	nop 
    14a8:	01 00 00 00 	nop 
    14ac:	01 00 00 00 	nop 
    14b0:	01 00 00 00 	nop 
    14b4:	01 00 00 00 	nop 
    14b8:	01 00 00 00 	nop 
    14bc:	01 00 00 00 	nop 
    14c0:	01 00 00 00 	nop 
    14c4:	01 00 00 00 	nop 
    14c8:	01 00 00 00 	nop 
    14cc:	01 00 00 00 	nop 
    14d0:	01 00 00 00 	nop 
    14d4:	01 00 00 00 	nop 
    14d8:	01 00 00 00 	nop 
    14dc:	01 00 00 00 	nop 
    14e0:	01 00 00 00 	nop 
    14e4:	01 00 00 00 	nop 
    14e8:	01 00 00 00 	nop 
    14ec:	01 00 00 00 	nop 
    14f0:	01 00 00 00 	nop 
    14f4:	01 00 00 00 	nop 
    14f8:	01 00 00 00 	nop 
    14fc:	01 00 00 00 	nop 
    1500:	01 00 00 00 	nop 
    1504:	01 00 00 00 	nop 
    1508:	01 00 00 00 	nop 
    150c:	01 00 00 00 	nop 
    1510:	01 00 00 00 	nop 
    1514:	01 00 00 00 	nop 
    1518:	01 00 00 00 	nop 
    151c:	01 00 00 00 	nop 
    1520:	01 00 00 00 	nop 
    1524:	01 00 00 00 	nop 
    1528:	01 00 00 00 	nop 
    152c:	01 00 00 00 	nop 
    1530:	01 00 00 00 	nop 
    1534:	01 00 00 00 	nop 
    1538:	01 00 00 00 	nop 
    153c:	01 00 00 00 	nop 
    1540:	01 00 00 00 	nop 
    1544:	01 00 00 00 	nop 
    1548:	01 00 00 00 	nop 
    154c:	01 00 00 00 	nop 
    1550:	01 00 00 00 	nop 
    1554:	01 00 00 00 	nop 
    1558:	01 00 00 00 	nop 
    155c:	01 00 00 00 	nop 
    1560:	01 00 00 00 	nop 
    1564:	01 00 00 00 	nop 
    1568:	01 00 00 00 	nop 
    156c:	01 00 00 00 	nop 
    1570:	01 00 00 00 	nop 
    1574:	01 00 00 00 	nop 
    1578:	01 00 00 00 	nop 
    157c:	01 00 00 00 	nop 
    1580:	01 00 00 00 	nop 
    1584:	01 00 00 00 	nop 
    1588:	01 00 00 00 	nop 
    158c:	01 00 00 00 	nop 
    1590:	01 00 00 00 	nop 
    1594:	01 00 00 00 	nop 
    1598:	01 00 00 00 	nop 
    159c:	01 00 00 00 	nop 
    15a0:	01 00 00 00 	nop 
    15a4:	01 00 00 00 	nop 
    15a8:	01 00 00 00 	nop 
    15ac:	01 00 00 00 	nop 
    15b0:	01 00 00 00 	nop 
    15b4:	01 00 00 00 	nop 
    15b8:	01 00 00 00 	nop 
    15bc:	01 00 00 00 	nop 
    15c0:	01 00 00 00 	nop 
    15c4:	01 00 00 00 	nop 
    15c8:	01 00 00 00 	nop 
    15cc:	01 00 00 00 	nop 
    15d0:	01 00 00 00 	nop 
    15d4:	01 00 00 00 	nop 
    15d8:	01 00 00 00 	nop 
    15dc:	01 00 00 00 	nop 
    15e0:	01 00 00 00 	nop 
    15e4:	01 00 00 00 	nop 
    15e8:	01 00 00 00 	nop 
    15ec:	01 00 00 00 	nop 
    15f0:	01 00 00 00 	nop 
    15f4:	01 00 00 00 	nop 
    15f8:	01 00 00 00 	nop 
    15fc:	01 00 00 00 	nop 
    1600:	01 00 00 00 	nop 
    1604:	01 00 00 00 	nop 
    1608:	01 00 00 00 	nop 
    160c:	01 00 00 00 	nop 
    1610:	01 00 00 00 	nop 
    1614:	01 00 00 00 	nop 
    1618:	01 00 00 00 	nop 
    161c:	01 00 00 00 	nop 
    1620:	01 00 00 00 	nop 
    1624:	01 00 00 00 	nop 
    1628:	01 00 00 00 	nop 
    162c:	01 00 00 00 	nop 
    1630:	01 00 00 00 	nop 
    1634:	01 00 00 00 	nop 
    1638:	01 00 00 00 	nop 
    163c:	01 00 00 00 	nop 
    1640:	01 00 00 00 	nop 
    1644:	01 00 00 00 	nop 
    1648:	01 00 00 00 	nop 
    164c:	01 00 00 00 	nop 
    1650:	01 00 00 00 	nop 
    1654:	01 00 00 00 	nop 
    1658:	01 00 00 00 	nop 
    165c:	01 00 00 00 	nop 
    1660:	01 00 00 00 	nop 
    1664:	01 00 00 00 	nop 
    1668:	01 00 00 00 	nop 
    166c:	01 00 00 00 	nop 
    1670:	01 00 00 00 	nop 
    1674:	01 00 00 00 	nop 
    1678:	01 00 00 00 	nop 
    167c:	01 00 00 00 	nop 
    1680:	01 00 00 00 	nop 
    1684:	01 00 00 00 	nop 
    1688:	01 00 00 00 	nop 
    168c:	01 00 00 00 	nop 
    1690:	01 00 00 00 	nop 
    1694:	01 00 00 00 	nop 
    1698:	01 00 00 00 	nop 
    169c:	01 00 00 00 	nop 
    16a0:	01 00 00 00 	nop 
    16a4:	01 00 00 00 	nop 
    16a8:	01 00 00 00 	nop 
    16ac:	01 00 00 00 	nop 
    16b0:	01 00 00 00 	nop 
    16b4:	01 00 00 00 	nop 
    16b8:	01 00 00 00 	nop 
    16bc:	01 00 00 00 	nop 
    16c0:	01 00 00 00 	nop 
    16c4:	01 00 00 00 	nop 
    16c8:	01 00 00 00 	nop 
    16cc:	01 00 00 00 	nop 
    16d0:	01 00 00 00 	nop 
    16d4:	01 00 00 00 	nop 
    16d8:	01 00 00 00 	nop 
    16dc:	01 00 00 00 	nop 
    16e0:	01 00 00 00 	nop 
    16e4:	01 00 00 00 	nop 
    16e8:	01 00 00 00 	nop 
    16ec:	01 00 00 00 	nop 
    16f0:	01 00 00 00 	nop 
    16f4:	01 00 00 00 	nop 
    16f8:	01 00 00 00 	nop 
    16fc:	01 00 00 00 	nop 
    1700:	01 00 00 00 	nop 
    1704:	01 00 00 00 	nop 
    1708:	01 00 00 00 	nop 
    170c:	01 00 00 00 	nop 
    1710:	01 00 00 00 	nop 
    1714:	01 00 00 00 	nop 
    1718:	01 00 00 00 	nop 
    171c:	01 00 00 00 	nop 
    1720:	01 00 00 00 	nop 
    1724:	01 00 00 00 	nop 
    1728:	01 00 00 00 	nop 
    172c:	01 00 00 00 	nop 
    1730:	01 00 00 00 	nop 
    1734:	01 00 00 00 	nop 
    1738:	01 00 00 00 	nop 
    173c:	01 00 00 00 	nop 
    1740:	01 00 00 00 	nop 
    1744:	01 00 00 00 	nop 
    1748:	01 00 00 00 	nop 
    174c:	01 00 00 00 	nop 
    1750:	01 00 00 00 	nop 
    1754:	01 00 00 00 	nop 
    1758:	01 00 00 00 	nop 
    175c:	01 00 00 00 	nop 
    1760:	01 00 00 00 	nop 
    1764:	01 00 00 00 	nop 
    1768:	01 00 00 00 	nop 
    176c:	01 00 00 00 	nop 
    1770:	01 00 00 00 	nop 
    1774:	01 00 00 00 	nop 
    1778:	01 00 00 00 	nop 
    177c:	01 00 00 00 	nop 
    1780:	01 00 00 00 	nop 
    1784:	01 00 00 00 	nop 
    1788:	01 00 00 00 	nop 
    178c:	01 00 00 00 	nop 
    1790:	01 00 00 00 	nop 
    1794:	01 00 00 00 	nop 
    1798:	01 00 00 00 	nop 
    179c:	01 00 00 00 	nop 
    17a0:	01 00 00 00 	nop 
    17a4:	01 00 00 00 	nop 
    17a8:	01 00 00 00 	nop 
    17ac:	01 00 00 00 	nop 
    17b0:	01 00 00 00 	nop 
    17b4:	01 00 00 00 	nop 
    17b8:	01 00 00 00 	nop 
    17bc:	01 00 00 00 	nop 
    17c0:	01 00 00 00 	nop 
    17c4:	01 00 00 00 	nop 
    17c8:	01 00 00 00 	nop 
    17cc:	01 00 00 00 	nop 
    17d0:	01 00 00 00 	nop 
    17d4:	01 00 00 00 	nop 
    17d8:	01 00 00 00 	nop 
    17dc:	01 00 00 00 	nop 
    17e0:	01 00 00 00 	nop 
    17e4:	01 00 00 00 	nop 
    17e8:	01 00 00 00 	nop 
    17ec:	01 00 00 00 	nop 
    17f0:	01 00 00 00 	nop 
    17f4:	01 00 00 00 	nop 
    17f8:	01 00 00 00 	nop 
    17fc:	01 00 00 00 	nop 
    1800:	01 00 00 00 	nop 
    1804:	01 00 00 00 	nop 
    1808:	01 00 00 00 	nop 
    180c:	01 00 00 00 	nop 
    1810:	01 00 00 00 	nop 
    1814:	01 00 00 00 	nop 
    1818:	01 00 00 00 	nop 
    181c:	01 00 00 00 	nop 
    1820:	01 00 00 00 	nop 
    1824:	01 00 00 00 	nop 
    1828:	01 00 00 00 	nop 
    182c:	01 00 00 00 	nop 
    1830:	01 00 00 00 	nop 
    1834:	01 00 00 00 	nop 
    1838:	01 00 00 00 	nop 
    183c:	01 00 00 00 	nop 
    1840:	01 00 00 00 	nop 
    1844:	01 00 00 00 	nop 
    1848:	01 00 00 00 	nop 
    184c:	01 00 00 00 	nop 
    1850:	01 00 00 00 	nop 
    1854:	01 00 00 00 	nop 
    1858:	01 00 00 00 	nop 
    185c:	01 00 00 00 	nop 
    1860:	01 00 00 00 	nop 
    1864:	01 00 00 00 	nop 
    1868:	01 00 00 00 	nop 
    186c:	01 00 00 00 	nop 
    1870:	01 00 00 00 	nop 
    1874:	01 00 00 00 	nop 
    1878:	01 00 00 00 	nop 
    187c:	01 00 00 00 	nop 
    1880:	01 00 00 00 	nop 
    1884:	01 00 00 00 	nop 
    1888:	01 00 00 00 	nop 
    188c:	01 00 00 00 	nop 
    1890:	01 00 00 00 	nop 
    1894:	01 00 00 00 	nop 
    1898:	01 00 00 00 	nop 
    189c:	01 00 00 00 	nop 
    18a0:	01 00 00 00 	nop 
    18a4:	01 00 00 00 	nop 
    18a8:	01 00 00 00 	nop 
    18ac:	01 00 00 00 	nop 
    18b0:	01 00 00 00 	nop 
    18b4:	01 00 00 00 	nop 
    18b8:	01 00 00 00 	nop 
    18bc:	01 00 00 00 	nop 
    18c0:	01 00 00 00 	nop 
    18c4:	01 00 00 00 	nop 
    18c8:	01 00 00 00 	nop 
    18cc:	01 00 00 00 	nop 
    18d0:	01 00 00 00 	nop 
    18d4:	01 00 00 00 	nop 
    18d8:	01 00 00 00 	nop 
    18dc:	01 00 00 00 	nop 
    18e0:	01 00 00 00 	nop 
    18e4:	01 00 00 00 	nop 
    18e8:	01 00 00 00 	nop 
    18ec:	01 00 00 00 	nop 
    18f0:	01 00 00 00 	nop 
    18f4:	01 00 00 00 	nop 
    18f8:	01 00 00 00 	nop 
    18fc:	01 00 00 00 	nop 
    1900:	01 00 00 00 	nop 
    1904:	01 00 00 00 	nop 
    1908:	01 00 00 00 	nop 
    190c:	01 00 00 00 	nop 
    1910:	01 00 00 00 	nop 
    1914:	01 00 00 00 	nop 
    1918:	01 00 00 00 	nop 
    191c:	01 00 00 00 	nop 
    1920:	01 00 00 00 	nop 
    1924:	01 00 00 00 	nop 
    1928:	01 00 00 00 	nop 
    192c:	01 00 00 00 	nop 
    1930:	01 00 00 00 	nop 
    1934:	01 00 00 00 	nop 
    1938:	01 00 00 00 	nop 
    193c:	01 00 00 00 	nop 
    1940:	01 00 00 00 	nop 
    1944:	01 00 00 00 	nop 
    1948:	01 00 00 00 	nop 
    194c:	01 00 00 00 	nop 
    1950:	01 00 00 00 	nop 
    1954:	01 00 00 00 	nop 
    1958:	01 00 00 00 	nop 
    195c:	01 00 00 00 	nop 
    1960:	01 00 00 00 	nop 
    1964:	01 00 00 00 	nop 
    1968:	01 00 00 00 	nop 
    196c:	01 00 00 00 	nop 
    1970:	01 00 00 00 	nop 
    1974:	01 00 00 00 	nop 
    1978:	01 00 00 00 	nop 
    197c:	01 00 00 00 	nop 
    1980:	01 00 00 00 	nop 
    1984:	01 00 00 00 	nop 
    1988:	01 00 00 00 	nop 
    198c:	01 00 00 00 	nop 
    1990:	01 00 00 00 	nop 
    1994:	01 00 00 00 	nop 
    1998:	01 00 00 00 	nop 
    199c:	01 00 00 00 	nop 
    19a0:	01 00 00 00 	nop 
    19a4:	01 00 00 00 	nop 
    19a8:	01 00 00 00 	nop 
    19ac:	01 00 00 00 	nop 
    19b0:	01 00 00 00 	nop 
    19b4:	01 00 00 00 	nop 
    19b8:	01 00 00 00 	nop 
    19bc:	01 00 00 00 	nop 
    19c0:	01 00 00 00 	nop 
    19c4:	01 00 00 00 	nop 
    19c8:	01 00 00 00 	nop 
    19cc:	01 00 00 00 	nop 
    19d0:	01 00 00 00 	nop 
    19d4:	01 00 00 00 	nop 
    19d8:	01 00 00 00 	nop 
    19dc:	01 00 00 00 	nop 
    19e0:	01 00 00 00 	nop 
    19e4:	01 00 00 00 	nop 
    19e8:	01 00 00 00 	nop 
    19ec:	01 00 00 00 	nop 
    19f0:	01 00 00 00 	nop 
    19f4:	01 00 00 00 	nop 
    19f8:	01 00 00 00 	nop 
    19fc:	01 00 00 00 	nop 
    1a00:	01 00 00 00 	nop 
    1a04:	01 00 00 00 	nop 
    1a08:	01 00 00 00 	nop 
    1a0c:	01 00 00 00 	nop 
    1a10:	01 00 00 00 	nop 
    1a14:	01 00 00 00 	nop 
    1a18:	01 00 00 00 	nop 
    1a1c:	01 00 00 00 	nop 
    1a20:	01 00 00 00 	nop 
    1a24:	01 00 00 00 	nop 
    1a28:	01 00 00 00 	nop 
    1a2c:	01 00 00 00 	nop 
    1a30:	01 00 00 00 	nop 
    1a34:	01 00 00 00 	nop 
    1a38:	01 00 00 00 	nop 
    1a3c:	01 00 00 00 	nop 
    1a40:	01 00 00 00 	nop 
    1a44:	01 00 00 00 	nop 
    1a48:	01 00 00 00 	nop 
    1a4c:	01 00 00 00 	nop 
    1a50:	01 00 00 00 	nop 
    1a54:	01 00 00 00 	nop 
    1a58:	01 00 00 00 	nop 
    1a5c:	01 00 00 00 	nop 
    1a60:	01 00 00 00 	nop 
    1a64:	01 00 00 00 	nop 
    1a68:	01 00 00 00 	nop 
    1a6c:	01 00 00 00 	nop 
    1a70:	01 00 00 00 	nop 
    1a74:	01 00 00 00 	nop 
    1a78:	01 00 00 00 	nop 
    1a7c:	01 00 00 00 	nop 
    1a80:	01 00 00 00 	nop 
    1a84:	01 00 00 00 	nop 
    1a88:	01 00 00 00 	nop 
    1a8c:	01 00 00 00 	nop 
    1a90:	01 00 00 00 	nop 
    1a94:	01 00 00 00 	nop 
    1a98:	01 00 00 00 	nop 
    1a9c:	01 00 00 00 	nop 
    1aa0:	01 00 00 00 	nop 
    1aa4:	01 00 00 00 	nop 
    1aa8:	01 00 00 00 	nop 
    1aac:	01 00 00 00 	nop 
    1ab0:	01 00 00 00 	nop 
    1ab4:	01 00 00 00 	nop 
    1ab8:	01 00 00 00 	nop 
    1abc:	01 00 00 00 	nop 
    1ac0:	01 00 00 00 	nop 
    1ac4:	01 00 00 00 	nop 
    1ac8:	01 00 00 00 	nop 
    1acc:	01 00 00 00 	nop 
    1ad0:	01 00 00 00 	nop 
    1ad4:	01 00 00 00 	nop 
    1ad8:	01 00 00 00 	nop 
    1adc:	01 00 00 00 	nop 
    1ae0:	01 00 00 00 	nop 
    1ae4:	01 00 00 00 	nop 
    1ae8:	01 00 00 00 	nop 
    1aec:	01 00 00 00 	nop 
    1af0:	01 00 00 00 	nop 
    1af4:	01 00 00 00 	nop 
    1af8:	01 00 00 00 	nop 
    1afc:	01 00 00 00 	nop 
    1b00:	01 00 00 00 	nop 
    1b04:	01 00 00 00 	nop 
    1b08:	01 00 00 00 	nop 
    1b0c:	01 00 00 00 	nop 
    1b10:	01 00 00 00 	nop 
    1b14:	01 00 00 00 	nop 
    1b18:	01 00 00 00 	nop 
    1b1c:	01 00 00 00 	nop 
    1b20:	01 00 00 00 	nop 
    1b24:	01 00 00 00 	nop 
    1b28:	01 00 00 00 	nop 
    1b2c:	01 00 00 00 	nop 
    1b30:	01 00 00 00 	nop 
    1b34:	01 00 00 00 	nop 
    1b38:	01 00 00 00 	nop 
    1b3c:	01 00 00 00 	nop 
    1b40:	01 00 00 00 	nop 
    1b44:	01 00 00 00 	nop 
    1b48:	01 00 00 00 	nop 
    1b4c:	01 00 00 00 	nop 
    1b50:	01 00 00 00 	nop 
    1b54:	01 00 00 00 	nop 
    1b58:	01 00 00 00 	nop 
    1b5c:	01 00 00 00 	nop 
    1b60:	01 00 00 00 	nop 
    1b64:	01 00 00 00 	nop 
    1b68:	01 00 00 00 	nop 
    1b6c:	01 00 00 00 	nop 
    1b70:	01 00 00 00 	nop 
    1b74:	01 00 00 00 	nop 
    1b78:	01 00 00 00 	nop 
    1b7c:	01 00 00 00 	nop 
    1b80:	01 00 00 00 	nop 
    1b84:	01 00 00 00 	nop 
    1b88:	01 00 00 00 	nop 
    1b8c:	01 00 00 00 	nop 
    1b90:	01 00 00 00 	nop 
    1b94:	01 00 00 00 	nop 
    1b98:	01 00 00 00 	nop 
    1b9c:	01 00 00 00 	nop 
    1ba0:	01 00 00 00 	nop 
    1ba4:	01 00 00 00 	nop 
    1ba8:	01 00 00 00 	nop 
    1bac:	01 00 00 00 	nop 
    1bb0:	01 00 00 00 	nop 
    1bb4:	01 00 00 00 	nop 
    1bb8:	01 00 00 00 	nop 
    1bbc:	01 00 00 00 	nop 
    1bc0:	01 00 00 00 	nop 
    1bc4:	01 00 00 00 	nop 
    1bc8:	01 00 00 00 	nop 
    1bcc:	01 00 00 00 	nop 
    1bd0:	01 00 00 00 	nop 
    1bd4:	01 00 00 00 	nop 
    1bd8:	01 00 00 00 	nop 
    1bdc:	01 00 00 00 	nop 
    1be0:	01 00 00 00 	nop 
    1be4:	01 00 00 00 	nop 
    1be8:	01 00 00 00 	nop 
    1bec:	01 00 00 00 	nop 
    1bf0:	01 00 00 00 	nop 
    1bf4:	01 00 00 00 	nop 
    1bf8:	01 00 00 00 	nop 
    1bfc:	01 00 00 00 	nop 
    1c00:	01 00 00 00 	nop 
    1c04:	01 00 00 00 	nop 
    1c08:	01 00 00 00 	nop 
    1c0c:	01 00 00 00 	nop 
    1c10:	01 00 00 00 	nop 
    1c14:	01 00 00 00 	nop 
    1c18:	01 00 00 00 	nop 
    1c1c:	01 00 00 00 	nop 
    1c20:	01 00 00 00 	nop 
    1c24:	01 00 00 00 	nop 
    1c28:	01 00 00 00 	nop 
    1c2c:	01 00 00 00 	nop 
    1c30:	01 00 00 00 	nop 
    1c34:	01 00 00 00 	nop 
    1c38:	01 00 00 00 	nop 
    1c3c:	01 00 00 00 	nop 
    1c40:	01 00 00 00 	nop 
    1c44:	01 00 00 00 	nop 
    1c48:	01 00 00 00 	nop 
    1c4c:	01 00 00 00 	nop 
    1c50:	01 00 00 00 	nop 
    1c54:	01 00 00 00 	nop 
    1c58:	01 00 00 00 	nop 
    1c5c:	01 00 00 00 	nop 
    1c60:	01 00 00 00 	nop 
    1c64:	01 00 00 00 	nop 
    1c68:	01 00 00 00 	nop 
    1c6c:	01 00 00 00 	nop 
    1c70:	01 00 00 00 	nop 
    1c74:	01 00 00 00 	nop 
    1c78:	01 00 00 00 	nop 
    1c7c:	01 00 00 00 	nop 
    1c80:	01 00 00 00 	nop 
    1c84:	01 00 00 00 	nop 
    1c88:	01 00 00 00 	nop 
    1c8c:	01 00 00 00 	nop 
    1c90:	01 00 00 00 	nop 
    1c94:	01 00 00 00 	nop 
    1c98:	01 00 00 00 	nop 
    1c9c:	01 00 00 00 	nop 
    1ca0:	01 00 00 00 	nop 
    1ca4:	01 00 00 00 	nop 
    1ca8:	01 00 00 00 	nop 
    1cac:	01 00 00 00 	nop 
    1cb0:	01 00 00 00 	nop 
    1cb4:	01 00 00 00 	nop 
    1cb8:	01 00 00 00 	nop 
    1cbc:	01 00 00 00 	nop 
    1cc0:	01 00 00 00 	nop 
    1cc4:	01 00 00 00 	nop 
    1cc8:	01 00 00 00 	nop 
    1ccc:	01 00 00 00 	nop 
    1cd0:	01 00 00 00 	nop 
    1cd4:	01 00 00 00 	nop 
    1cd8:	01 00 00 00 	nop 
    1cdc:	01 00 00 00 	nop 
    1ce0:	01 00 00 00 	nop 
    1ce4:	01 00 00 00 	nop 
    1ce8:	01 00 00 00 	nop 
    1cec:	01 00 00 00 	nop 
    1cf0:	01 00 00 00 	nop 
    1cf4:	01 00 00 00 	nop 
    1cf8:	01 00 00 00 	nop 
    1cfc:	01 00 00 00 	nop 
    1d00:	01 00 00 00 	nop 
    1d04:	01 00 00 00 	nop 
    1d08:	01 00 00 00 	nop 
    1d0c:	01 00 00 00 	nop 
    1d10:	01 00 00 00 	nop 
    1d14:	01 00 00 00 	nop 
    1d18:	01 00 00 00 	nop 
    1d1c:	01 00 00 00 	nop 
    1d20:	01 00 00 00 	nop 
    1d24:	01 00 00 00 	nop 
    1d28:	01 00 00 00 	nop 
    1d2c:	01 00 00 00 	nop 
    1d30:	01 00 00 00 	nop 
    1d34:	01 00 00 00 	nop 
    1d38:	01 00 00 00 	nop 
    1d3c:	01 00 00 00 	nop 
    1d40:	01 00 00 00 	nop 
    1d44:	01 00 00 00 	nop 
    1d48:	01 00 00 00 	nop 
    1d4c:	01 00 00 00 	nop 
    1d50:	01 00 00 00 	nop 
    1d54:	01 00 00 00 	nop 
    1d58:	01 00 00 00 	nop 
    1d5c:	01 00 00 00 	nop 
    1d60:	01 00 00 00 	nop 
    1d64:	01 00 00 00 	nop 
    1d68:	01 00 00 00 	nop 
    1d6c:	01 00 00 00 	nop 
    1d70:	01 00 00 00 	nop 
    1d74:	01 00 00 00 	nop 
    1d78:	01 00 00 00 	nop 
    1d7c:	01 00 00 00 	nop 
    1d80:	01 00 00 00 	nop 
    1d84:	01 00 00 00 	nop 
    1d88:	01 00 00 00 	nop 
    1d8c:	01 00 00 00 	nop 
    1d90:	01 00 00 00 	nop 
    1d94:	01 00 00 00 	nop 
    1d98:	01 00 00 00 	nop 
    1d9c:	01 00 00 00 	nop 
    1da0:	01 00 00 00 	nop 
    1da4:	01 00 00 00 	nop 
    1da8:	01 00 00 00 	nop 
    1dac:	01 00 00 00 	nop 
    1db0:	01 00 00 00 	nop 
    1db4:	01 00 00 00 	nop 
    1db8:	01 00 00 00 	nop 
    1dbc:	01 00 00 00 	nop 
    1dc0:	01 00 00 00 	nop 
    1dc4:	01 00 00 00 	nop 
    1dc8:	01 00 00 00 	nop 
    1dcc:	01 00 00 00 	nop 
    1dd0:	01 00 00 00 	nop 
    1dd4:	01 00 00 00 	nop 
    1dd8:	01 00 00 00 	nop 
    1ddc:	01 00 00 00 	nop 
    1de0:	01 00 00 00 	nop 
    1de4:	01 00 00 00 	nop 
    1de8:	01 00 00 00 	nop 
    1dec:	01 00 00 00 	nop 
    1df0:	01 00 00 00 	nop 
    1df4:	01 00 00 00 	nop 
    1df8:	01 00 00 00 	nop 
    1dfc:	01 00 00 00 	nop 
    1e00:	01 00 00 00 	nop 
    1e04:	01 00 00 00 	nop 
    1e08:	01 00 00 00 	nop 
    1e0c:	01 00 00 00 	nop 
    1e10:	01 00 00 00 	nop 
    1e14:	01 00 00 00 	nop 
    1e18:	01 00 00 00 	nop 
    1e1c:	01 00 00 00 	nop 
    1e20:	01 00 00 00 	nop 
    1e24:	01 00 00 00 	nop 
    1e28:	01 00 00 00 	nop 
    1e2c:	01 00 00 00 	nop 
    1e30:	01 00 00 00 	nop 
    1e34:	01 00 00 00 	nop 
    1e38:	01 00 00 00 	nop 
    1e3c:	01 00 00 00 	nop 
    1e40:	01 00 00 00 	nop 
    1e44:	01 00 00 00 	nop 
    1e48:	01 00 00 00 	nop 
    1e4c:	01 00 00 00 	nop 
    1e50:	01 00 00 00 	nop 
    1e54:	01 00 00 00 	nop 
    1e58:	01 00 00 00 	nop 
    1e5c:	01 00 00 00 	nop 
    1e60:	01 00 00 00 	nop 
    1e64:	01 00 00 00 	nop 
    1e68:	01 00 00 00 	nop 
    1e6c:	01 00 00 00 	nop 
    1e70:	01 00 00 00 	nop 
    1e74:	01 00 00 00 	nop 
    1e78:	01 00 00 00 	nop 
    1e7c:	01 00 00 00 	nop 
    1e80:	01 00 00 00 	nop 
    1e84:	01 00 00 00 	nop 
    1e88:	01 00 00 00 	nop 
    1e8c:	01 00 00 00 	nop 
    1e90:	01 00 00 00 	nop 
    1e94:	01 00 00 00 	nop 
    1e98:	01 00 00 00 	nop 
    1e9c:	01 00 00 00 	nop 
    1ea0:	01 00 00 00 	nop 
    1ea4:	01 00 00 00 	nop 
    1ea8:	01 00 00 00 	nop 
    1eac:	01 00 00 00 	nop 
    1eb0:	01 00 00 00 	nop 
    1eb4:	01 00 00 00 	nop 
    1eb8:	01 00 00 00 	nop 
    1ebc:	01 00 00 00 	nop 
    1ec0:	01 00 00 00 	nop 
    1ec4:	01 00 00 00 	nop 
    1ec8:	01 00 00 00 	nop 
    1ecc:	01 00 00 00 	nop 
    1ed0:	01 00 00 00 	nop 
    1ed4:	01 00 00 00 	nop 
    1ed8:	01 00 00 00 	nop 
    1edc:	01 00 00 00 	nop 
    1ee0:	01 00 00 00 	nop 
    1ee4:	01 00 00 00 	nop 
    1ee8:	01 00 00 00 	nop 
    1eec:	01 00 00 00 	nop 
    1ef0:	01 00 00 00 	nop 
    1ef4:	01 00 00 00 	nop 
    1ef8:	01 00 00 00 	nop 
    1efc:	01 00 00 00 	nop 
    1f00:	01 00 00 00 	nop 
    1f04:	01 00 00 00 	nop 
    1f08:	01 00 00 00 	nop 
    1f0c:	01 00 00 00 	nop 
    1f10:	01 00 00 00 	nop 
    1f14:	01 00 00 00 	nop 
    1f18:	01 00 00 00 	nop 
    1f1c:	01 00 00 00 	nop 
    1f20:	01 00 00 00 	nop 
    1f24:	01 00 00 00 	nop 
    1f28:	01 00 00 00 	nop 
    1f2c:	01 00 00 00 	nop 
    1f30:	01 00 00 00 	nop 
    1f34:	01 00 00 00 	nop 
    1f38:	01 00 00 00 	nop 
    1f3c:	01 00 00 00 	nop 
    1f40:	01 00 00 00 	nop 
    1f44:	01 00 00 00 	nop 
    1f48:	01 00 00 00 	nop 
    1f4c:	01 00 00 00 	nop 
    1f50:	01 00 00 00 	nop 
    1f54:	01 00 00 00 	nop 
    1f58:	01 00 00 00 	nop 
    1f5c:	01 00 00 00 	nop 
    1f60:	01 00 00 00 	nop 
    1f64:	01 00 00 00 	nop 
    1f68:	01 00 00 00 	nop 
    1f6c:	01 00 00 00 	nop 
    1f70:	01 00 00 00 	nop 
    1f74:	01 00 00 00 	nop 
    1f78:	01 00 00 00 	nop 
    1f7c:	01 00 00 00 	nop 
    1f80:	01 00 00 00 	nop 
    1f84:	01 00 00 00 	nop 
    1f88:	01 00 00 00 	nop 
    1f8c:	01 00 00 00 	nop 
    1f90:	01 00 00 00 	nop 
    1f94:	01 00 00 00 	nop 
    1f98:	01 00 00 00 	nop 
    1f9c:	01 00 00 00 	nop 
    1fa0:	01 00 00 00 	nop 
    1fa4:	01 00 00 00 	nop 
    1fa8:	01 00 00 00 	nop 
    1fac:	01 00 00 00 	nop 
    1fb0:	01 00 00 00 	nop 
    1fb4:	01 00 00 00 	nop 
    1fb8:	01 00 00 00 	nop 
    1fbc:	01 00 00 00 	nop 
    1fc0:	01 00 00 00 	nop 
    1fc4:	01 00 00 00 	nop 
    1fc8:	01 00 00 00 	nop 
    1fcc:	01 00 00 00 	nop 
    1fd0:	01 00 00 00 	nop 
    1fd4:	01 00 00 00 	nop 
    1fd8:	01 00 00 00 	nop 
    1fdc:	01 00 00 00 	nop 
    1fe0:	01 00 00 00 	nop 
    1fe4:	01 00 00 00 	nop 
    1fe8:	01 00 00 00 	nop 
    1fec:	01 00 00 00 	nop 
    1ff0:	01 00 00 00 	nop 
    1ff4:	01 00 00 00 	nop 
    1ff8:	01 00 00 00 	nop 
    1ffc:	01 00 00 00 	nop 

00002000 <trap_table_base>:
    2000:	91 d0 20 00 	ta  0
    2004:	01 00 00 00 	nop 
    2008:	01 00 00 00 	nop 
    200c:	01 00 00 00 	nop 

00002010 <HW_trap_0x01>:
    2010:	91 d0 20 00 	ta  0
    2014:	01 00 00 00 	nop 
    2018:	01 00 00 00 	nop 
    201c:	01 00 00 00 	nop 

00002020 <HW_trap_0x02>:
    2020:	91 d0 20 00 	ta  0
    2024:	01 00 00 00 	nop 
    2028:	01 00 00 00 	nop 
    202c:	01 00 00 00 	nop 

00002030 <HW_trap_0x03>:
    2030:	91 d0 20 00 	ta  0
    2034:	01 00 00 00 	nop 
    2038:	01 00 00 00 	nop 
    203c:	01 00 00 00 	nop 

00002040 <HW_trap_0x04>:
    2040:	91 d0 20 00 	ta  0
    2044:	01 00 00 00 	nop 
    2048:	01 00 00 00 	nop 
    204c:	01 00 00 00 	nop 

00002050 <HW_trap_0x05>:
    2050:	10 bf fb ec 	b  1000 <window_overflow_trap_handler>
    2054:	01 00 00 00 	nop 
    2058:	01 00 00 00 	nop 
    205c:	01 00 00 00 	nop 

00002060 <HW_trap_0x06>:
    2060:	10 bf fc 01 	b  1064 <window_underflow_trap_handler>
    2064:	01 00 00 00 	nop 
    2068:	01 00 00 00 	nop 
    206c:	01 00 00 00 	nop 

00002070 <HW_trap_0x07>:
    2070:	91 d0 20 00 	ta  0
    2074:	01 00 00 00 	nop 
    2078:	01 00 00 00 	nop 
    207c:	01 00 00 00 	nop 

00002080 <HW_trap_0x08>:
    2080:	91 d0 20 00 	ta  0
    2084:	01 00 00 00 	nop 
    2088:	01 00 00 00 	nop 
    208c:	01 00 00 00 	nop 

00002090 <HW_trap_0x09>:
    2090:	91 d0 20 00 	ta  0
    2094:	01 00 00 00 	nop 
    2098:	01 00 00 00 	nop 
    209c:	01 00 00 00 	nop 

000020a0 <HW_trap_0x0a>:
    20a0:	91 d0 20 00 	ta  0
    20a4:	01 00 00 00 	nop 
    20a8:	01 00 00 00 	nop 
    20ac:	01 00 00 00 	nop 

000020b0 <HW_trap_0x0b>:
    20b0:	91 d0 20 00 	ta  0
    20b4:	01 00 00 00 	nop 
    20b8:	01 00 00 00 	nop 
    20bc:	01 00 00 00 	nop 

000020c0 <HW_trap_0x0c>:
    20c0:	91 d0 20 00 	ta  0
    20c4:	01 00 00 00 	nop 
    20c8:	01 00 00 00 	nop 
    20cc:	01 00 00 00 	nop 

000020d0 <HW_trap_0x0d>:
    20d0:	91 d0 20 00 	ta  0
    20d4:	01 00 00 00 	nop 
    20d8:	01 00 00 00 	nop 
    20dc:	01 00 00 00 	nop 

000020e0 <HW_trap_0x0e>:
    20e0:	91 d0 20 00 	ta  0
    20e4:	01 00 00 00 	nop 
    20e8:	01 00 00 00 	nop 
    20ec:	01 00 00 00 	nop 

000020f0 <HW_trap_0x0f>:
    20f0:	91 d0 20 00 	ta  0
    20f4:	01 00 00 00 	nop 
    20f8:	01 00 00 00 	nop 
    20fc:	01 00 00 00 	nop 

00002100 <HW_trap_0x10>:
    2100:	91 d0 20 00 	ta  0
    2104:	01 00 00 00 	nop 
    2108:	01 00 00 00 	nop 
    210c:	01 00 00 00 	nop 

00002110 <HW_trap_0x11>:
    2110:	91 d0 20 00 	ta  0
    2114:	01 00 00 00 	nop 
    2118:	01 00 00 00 	nop 
    211c:	01 00 00 00 	nop 

00002120 <HW_trap_0x12>:
    2120:	91 d0 20 00 	ta  0
    2124:	01 00 00 00 	nop 
    2128:	01 00 00 00 	nop 
    212c:	01 00 00 00 	nop 

00002130 <HW_trap_0x13>:
    2130:	91 d0 20 00 	ta  0
    2134:	01 00 00 00 	nop 
    2138:	01 00 00 00 	nop 
    213c:	01 00 00 00 	nop 

00002140 <HW_trap_0x14>:
    2140:	91 d0 20 00 	ta  0
    2144:	01 00 00 00 	nop 
    2148:	01 00 00 00 	nop 
    214c:	01 00 00 00 	nop 

00002150 <HW_trap_0x15>:
    2150:	91 d0 20 00 	ta  0
    2154:	01 00 00 00 	nop 
    2158:	01 00 00 00 	nop 
    215c:	01 00 00 00 	nop 

00002160 <HW_trap_0x16>:
    2160:	91 d0 20 00 	ta  0
    2164:	01 00 00 00 	nop 
    2168:	01 00 00 00 	nop 
    216c:	01 00 00 00 	nop 

00002170 <HW_trap_0x17>:
    2170:	91 d0 20 00 	ta  0
    2174:	01 00 00 00 	nop 
    2178:	01 00 00 00 	nop 
    217c:	01 00 00 00 	nop 

00002180 <HW_trap_0x18>:
    2180:	91 d0 20 00 	ta  0
    2184:	01 00 00 00 	nop 
    2188:	01 00 00 00 	nop 
    218c:	01 00 00 00 	nop 

00002190 <HW_trap_0x19>:
    2190:	91 d0 20 00 	ta  0
    2194:	01 00 00 00 	nop 
    2198:	01 00 00 00 	nop 
    219c:	01 00 00 00 	nop 

000021a0 <HW_trap_0x1a>:
    21a0:	91 d0 20 00 	ta  0
    21a4:	01 00 00 00 	nop 
    21a8:	01 00 00 00 	nop 
    21ac:	01 00 00 00 	nop 

000021b0 <HW_trap_0x1b>:
    21b0:	91 d0 20 00 	ta  0
    21b4:	01 00 00 00 	nop 
    21b8:	01 00 00 00 	nop 
    21bc:	01 00 00 00 	nop 

000021c0 <HW_trap_0x1c>:
    21c0:	91 d0 20 00 	ta  0
    21c4:	01 00 00 00 	nop 
    21c8:	01 00 00 00 	nop 
    21cc:	01 00 00 00 	nop 

000021d0 <HW_trap_0x1d>:
    21d0:	91 d0 20 00 	ta  0
    21d4:	01 00 00 00 	nop 
    21d8:	01 00 00 00 	nop 
    21dc:	01 00 00 00 	nop 

000021e0 <HW_trap_0x1e>:
    21e0:	91 d0 20 00 	ta  0
    21e4:	01 00 00 00 	nop 
    21e8:	01 00 00 00 	nop 
    21ec:	01 00 00 00 	nop 

000021f0 <HW_trap_0x1f>:
    21f0:	91 d0 20 00 	ta  0
    21f4:	01 00 00 00 	nop 
    21f8:	01 00 00 00 	nop 
    21fc:	01 00 00 00 	nop 

00002200 <HW_trap_0x20>:
    2200:	91 d0 20 00 	ta  0
    2204:	01 00 00 00 	nop 
    2208:	01 00 00 00 	nop 
    220c:	01 00 00 00 	nop 

00002210 <HW_trap_0x21>:
    2210:	91 d0 20 00 	ta  0
    2214:	01 00 00 00 	nop 
    2218:	01 00 00 00 	nop 
    221c:	01 00 00 00 	nop 

00002220 <HW_trap_0x22>:
    2220:	91 d0 20 00 	ta  0
    2224:	01 00 00 00 	nop 
    2228:	01 00 00 00 	nop 
    222c:	01 00 00 00 	nop 

00002230 <HW_trap_0x23>:
    2230:	91 d0 20 00 	ta  0
    2234:	01 00 00 00 	nop 
    2238:	01 00 00 00 	nop 
    223c:	01 00 00 00 	nop 

00002240 <HW_trap_0x24>:
    2240:	91 d0 20 00 	ta  0
    2244:	01 00 00 00 	nop 
    2248:	01 00 00 00 	nop 
    224c:	01 00 00 00 	nop 

00002250 <HW_trap_0x25>:
    2250:	91 d0 20 00 	ta  0
    2254:	01 00 00 00 	nop 
    2258:	01 00 00 00 	nop 
    225c:	01 00 00 00 	nop 

00002260 <HW_trap_0x26>:
    2260:	91 d0 20 00 	ta  0
    2264:	01 00 00 00 	nop 
    2268:	01 00 00 00 	nop 
    226c:	01 00 00 00 	nop 

00002270 <HW_trap_0x27>:
    2270:	91 d0 20 00 	ta  0
    2274:	01 00 00 00 	nop 
    2278:	01 00 00 00 	nop 
    227c:	01 00 00 00 	nop 

00002280 <HW_trap_0x28>:
    2280:	91 d0 20 00 	ta  0
    2284:	01 00 00 00 	nop 
    2288:	01 00 00 00 	nop 
    228c:	01 00 00 00 	nop 

00002290 <HW_trap_0x29>:
    2290:	91 d0 20 00 	ta  0
    2294:	01 00 00 00 	nop 
    2298:	01 00 00 00 	nop 
    229c:	01 00 00 00 	nop 

000022a0 <HW_trap_0x2a>:
    22a0:	91 d0 20 00 	ta  0
    22a4:	01 00 00 00 	nop 
    22a8:	01 00 00 00 	nop 
    22ac:	01 00 00 00 	nop 

000022b0 <HW_trap_0x2b>:
    22b0:	91 d0 20 00 	ta  0
    22b4:	01 00 00 00 	nop 
    22b8:	01 00 00 00 	nop 
    22bc:	01 00 00 00 	nop 

000022c0 <HW_trap_0x2c>:
    22c0:	91 d0 20 00 	ta  0
    22c4:	01 00 00 00 	nop 
    22c8:	01 00 00 00 	nop 
    22cc:	01 00 00 00 	nop 

000022d0 <HW_trap_0x2d>:
    22d0:	91 d0 20 00 	ta  0
    22d4:	01 00 00 00 	nop 
    22d8:	01 00 00 00 	nop 
    22dc:	01 00 00 00 	nop 

000022e0 <HW_trap_0x2e>:
    22e0:	91 d0 20 00 	ta  0
    22e4:	01 00 00 00 	nop 
    22e8:	01 00 00 00 	nop 
    22ec:	01 00 00 00 	nop 

000022f0 <HW_trap_0x2f>:
    22f0:	91 d0 20 00 	ta  0
    22f4:	01 00 00 00 	nop 
    22f8:	01 00 00 00 	nop 
    22fc:	01 00 00 00 	nop 

00002300 <HW_trap_0x30>:
    2300:	91 d0 20 00 	ta  0
    2304:	01 00 00 00 	nop 
    2308:	01 00 00 00 	nop 
    230c:	01 00 00 00 	nop 

00002310 <HW_trap_0x31>:
    2310:	91 d0 20 00 	ta  0
    2314:	01 00 00 00 	nop 
    2318:	01 00 00 00 	nop 
    231c:	01 00 00 00 	nop 

00002320 <HW_trap_0x32>:
    2320:	91 d0 20 00 	ta  0
    2324:	01 00 00 00 	nop 
    2328:	01 00 00 00 	nop 
    232c:	01 00 00 00 	nop 

00002330 <HW_trap_0x33>:
    2330:	91 d0 20 00 	ta  0
    2334:	01 00 00 00 	nop 
    2338:	01 00 00 00 	nop 
    233c:	01 00 00 00 	nop 

00002340 <HW_trap_0x34>:
    2340:	91 d0 20 00 	ta  0
    2344:	01 00 00 00 	nop 
    2348:	01 00 00 00 	nop 
    234c:	01 00 00 00 	nop 

00002350 <HW_trap_0x35>:
    2350:	91 d0 20 00 	ta  0
    2354:	01 00 00 00 	nop 
    2358:	01 00 00 00 	nop 
    235c:	01 00 00 00 	nop 

00002360 <HW_trap_0x36>:
    2360:	91 d0 20 00 	ta  0
    2364:	01 00 00 00 	nop 
    2368:	01 00 00 00 	nop 
    236c:	01 00 00 00 	nop 

00002370 <HW_trap_0x37>:
    2370:	91 d0 20 00 	ta  0
    2374:	01 00 00 00 	nop 
    2378:	01 00 00 00 	nop 
    237c:	01 00 00 00 	nop 

00002380 <HW_trap_0x38>:
    2380:	91 d0 20 00 	ta  0
    2384:	01 00 00 00 	nop 
    2388:	01 00 00 00 	nop 
    238c:	01 00 00 00 	nop 

00002390 <HW_trap_0x39>:
    2390:	91 d0 20 00 	ta  0
    2394:	01 00 00 00 	nop 
    2398:	01 00 00 00 	nop 
    239c:	01 00 00 00 	nop 

000023a0 <HW_trap_0x3a>:
    23a0:	91 d0 20 00 	ta  0
    23a4:	01 00 00 00 	nop 
    23a8:	01 00 00 00 	nop 
    23ac:	01 00 00 00 	nop 

000023b0 <HW_trap_0x3b>:
    23b0:	91 d0 20 00 	ta  0
    23b4:	01 00 00 00 	nop 
    23b8:	01 00 00 00 	nop 
    23bc:	01 00 00 00 	nop 

000023c0 <HW_trap_0x3c>:
    23c0:	91 d0 20 00 	ta  0
    23c4:	01 00 00 00 	nop 
    23c8:	01 00 00 00 	nop 
    23cc:	01 00 00 00 	nop 

000023d0 <HW_trap_0x3d>:
    23d0:	91 d0 20 00 	ta  0
    23d4:	01 00 00 00 	nop 
    23d8:	01 00 00 00 	nop 
    23dc:	01 00 00 00 	nop 

000023e0 <HW_trap_0x3e>:
    23e0:	91 d0 20 00 	ta  0
    23e4:	01 00 00 00 	nop 
    23e8:	01 00 00 00 	nop 
    23ec:	01 00 00 00 	nop 

000023f0 <HW_trap_0x3f>:
    23f0:	91 d0 20 00 	ta  0
    23f4:	01 00 00 00 	nop 
    23f8:	01 00 00 00 	nop 
    23fc:	01 00 00 00 	nop 

00002400 <HW_trap_0x40>:
    2400:	91 d0 20 00 	ta  0
    2404:	01 00 00 00 	nop 
    2408:	01 00 00 00 	nop 
    240c:	01 00 00 00 	nop 

00002410 <HW_trap_0x41>:
    2410:	91 d0 20 00 	ta  0
    2414:	01 00 00 00 	nop 
    2418:	01 00 00 00 	nop 
    241c:	01 00 00 00 	nop 

00002420 <HW_trap_0x42>:
    2420:	91 d0 20 00 	ta  0
    2424:	01 00 00 00 	nop 
    2428:	01 00 00 00 	nop 
    242c:	01 00 00 00 	nop 

00002430 <HW_trap_0x43>:
    2430:	91 d0 20 00 	ta  0
    2434:	01 00 00 00 	nop 
    2438:	01 00 00 00 	nop 
    243c:	01 00 00 00 	nop 

00002440 <HW_trap_0x44>:
    2440:	91 d0 20 00 	ta  0
    2444:	01 00 00 00 	nop 
    2448:	01 00 00 00 	nop 
    244c:	01 00 00 00 	nop 

00002450 <HW_trap_0x45>:
    2450:	91 d0 20 00 	ta  0
    2454:	01 00 00 00 	nop 
    2458:	01 00 00 00 	nop 
    245c:	01 00 00 00 	nop 

00002460 <HW_trap_0x46>:
    2460:	91 d0 20 00 	ta  0
    2464:	01 00 00 00 	nop 
    2468:	01 00 00 00 	nop 
    246c:	01 00 00 00 	nop 

00002470 <HW_trap_0x47>:
    2470:	91 d0 20 00 	ta  0
    2474:	01 00 00 00 	nop 
    2478:	01 00 00 00 	nop 
    247c:	01 00 00 00 	nop 

00002480 <HW_trap_0x48>:
    2480:	91 d0 20 00 	ta  0
    2484:	01 00 00 00 	nop 
    2488:	01 00 00 00 	nop 
    248c:	01 00 00 00 	nop 

00002490 <HW_trap_0x49>:
    2490:	91 d0 20 00 	ta  0
    2494:	01 00 00 00 	nop 
    2498:	01 00 00 00 	nop 
    249c:	01 00 00 00 	nop 

000024a0 <HW_trap_0x4a>:
    24a0:	91 d0 20 00 	ta  0
    24a4:	01 00 00 00 	nop 
    24a8:	01 00 00 00 	nop 
    24ac:	01 00 00 00 	nop 

000024b0 <HW_trap_0x4b>:
    24b0:	91 d0 20 00 	ta  0
    24b4:	01 00 00 00 	nop 
    24b8:	01 00 00 00 	nop 
    24bc:	01 00 00 00 	nop 

000024c0 <HW_trap_0x4c>:
    24c0:	91 d0 20 00 	ta  0
    24c4:	01 00 00 00 	nop 
    24c8:	01 00 00 00 	nop 
    24cc:	01 00 00 00 	nop 

000024d0 <HW_trap_0x4d>:
    24d0:	91 d0 20 00 	ta  0
    24d4:	01 00 00 00 	nop 
    24d8:	01 00 00 00 	nop 
    24dc:	01 00 00 00 	nop 

000024e0 <HW_trap_0x4e>:
    24e0:	91 d0 20 00 	ta  0
    24e4:	01 00 00 00 	nop 
    24e8:	01 00 00 00 	nop 
    24ec:	01 00 00 00 	nop 

000024f0 <HW_trap_0x4f>:
    24f0:	91 d0 20 00 	ta  0
    24f4:	01 00 00 00 	nop 
    24f8:	01 00 00 00 	nop 
    24fc:	01 00 00 00 	nop 

00002500 <HW_trap_0x50>:
    2500:	91 d0 20 00 	ta  0
    2504:	01 00 00 00 	nop 
    2508:	01 00 00 00 	nop 
    250c:	01 00 00 00 	nop 

00002510 <HW_trap_0x51>:
    2510:	91 d0 20 00 	ta  0
    2514:	01 00 00 00 	nop 
    2518:	01 00 00 00 	nop 
    251c:	01 00 00 00 	nop 

00002520 <HW_trap_0x52>:
    2520:	91 d0 20 00 	ta  0
    2524:	01 00 00 00 	nop 
    2528:	01 00 00 00 	nop 
    252c:	01 00 00 00 	nop 

00002530 <HW_trap_0x53>:
    2530:	91 d0 20 00 	ta  0
    2534:	01 00 00 00 	nop 
    2538:	01 00 00 00 	nop 
    253c:	01 00 00 00 	nop 

00002540 <HW_trap_0x54>:
    2540:	91 d0 20 00 	ta  0
    2544:	01 00 00 00 	nop 
    2548:	01 00 00 00 	nop 
    254c:	01 00 00 00 	nop 

00002550 <HW_trap_0x55>:
    2550:	91 d0 20 00 	ta  0
    2554:	01 00 00 00 	nop 
    2558:	01 00 00 00 	nop 
    255c:	01 00 00 00 	nop 

00002560 <HW_trap_0x56>:
    2560:	91 d0 20 00 	ta  0
    2564:	01 00 00 00 	nop 
    2568:	01 00 00 00 	nop 
    256c:	01 00 00 00 	nop 

00002570 <HW_trap_0x57>:
    2570:	91 d0 20 00 	ta  0
    2574:	01 00 00 00 	nop 
    2578:	01 00 00 00 	nop 
    257c:	01 00 00 00 	nop 

00002580 <HW_trap_0x58>:
    2580:	91 d0 20 00 	ta  0
    2584:	01 00 00 00 	nop 
    2588:	01 00 00 00 	nop 
    258c:	01 00 00 00 	nop 

00002590 <HW_trap_0x59>:
    2590:	91 d0 20 00 	ta  0
    2594:	01 00 00 00 	nop 
    2598:	01 00 00 00 	nop 
    259c:	01 00 00 00 	nop 

000025a0 <HW_trap_0x5a>:
    25a0:	91 d0 20 00 	ta  0
    25a4:	01 00 00 00 	nop 
    25a8:	01 00 00 00 	nop 
    25ac:	01 00 00 00 	nop 

000025b0 <HW_trap_0x5b>:
    25b0:	91 d0 20 00 	ta  0
    25b4:	01 00 00 00 	nop 
    25b8:	01 00 00 00 	nop 
    25bc:	01 00 00 00 	nop 

000025c0 <HW_trap_0x5c>:
    25c0:	91 d0 20 00 	ta  0
    25c4:	01 00 00 00 	nop 
    25c8:	01 00 00 00 	nop 
    25cc:	01 00 00 00 	nop 

000025d0 <HW_trap_0x5d>:
    25d0:	91 d0 20 00 	ta  0
    25d4:	01 00 00 00 	nop 
    25d8:	01 00 00 00 	nop 
    25dc:	01 00 00 00 	nop 

000025e0 <HW_trap_0x5e>:
    25e0:	91 d0 20 00 	ta  0
    25e4:	01 00 00 00 	nop 
    25e8:	01 00 00 00 	nop 
    25ec:	01 00 00 00 	nop 

000025f0 <HW_trap_0x5f>:
    25f0:	91 d0 20 00 	ta  0
    25f4:	01 00 00 00 	nop 
    25f8:	01 00 00 00 	nop 
    25fc:	01 00 00 00 	nop 

00002600 <HW_trap_0x60>:
    2600:	91 d0 20 00 	ta  0
    2604:	01 00 00 00 	nop 
    2608:	01 00 00 00 	nop 
    260c:	01 00 00 00 	nop 

00002610 <HW_trap_0x61>:
    2610:	91 d0 20 00 	ta  0
    2614:	01 00 00 00 	nop 
    2618:	01 00 00 00 	nop 
    261c:	01 00 00 00 	nop 

00002620 <HW_trap_0x62>:
    2620:	91 d0 20 00 	ta  0
    2624:	01 00 00 00 	nop 
    2628:	01 00 00 00 	nop 
    262c:	01 00 00 00 	nop 

00002630 <HW_trap_0x63>:
    2630:	91 d0 20 00 	ta  0
    2634:	01 00 00 00 	nop 
    2638:	01 00 00 00 	nop 
    263c:	01 00 00 00 	nop 

00002640 <HW_trap_0x64>:
    2640:	91 d0 20 00 	ta  0
    2644:	01 00 00 00 	nop 
    2648:	01 00 00 00 	nop 
    264c:	01 00 00 00 	nop 

00002650 <HW_trap_0x65>:
    2650:	91 d0 20 00 	ta  0
    2654:	01 00 00 00 	nop 
    2658:	01 00 00 00 	nop 
    265c:	01 00 00 00 	nop 

00002660 <HW_trap_0x66>:
    2660:	91 d0 20 00 	ta  0
    2664:	01 00 00 00 	nop 
    2668:	01 00 00 00 	nop 
    266c:	01 00 00 00 	nop 

00002670 <HW_trap_0x67>:
    2670:	91 d0 20 00 	ta  0
    2674:	01 00 00 00 	nop 
    2678:	01 00 00 00 	nop 
    267c:	01 00 00 00 	nop 

00002680 <HW_trap_0x68>:
    2680:	91 d0 20 00 	ta  0
    2684:	01 00 00 00 	nop 
    2688:	01 00 00 00 	nop 
    268c:	01 00 00 00 	nop 

00002690 <HW_trap_0x69>:
    2690:	91 d0 20 00 	ta  0
    2694:	01 00 00 00 	nop 
    2698:	01 00 00 00 	nop 
    269c:	01 00 00 00 	nop 

000026a0 <HW_trap_0x6a>:
    26a0:	91 d0 20 00 	ta  0
    26a4:	01 00 00 00 	nop 
    26a8:	01 00 00 00 	nop 
    26ac:	01 00 00 00 	nop 

000026b0 <HW_trap_0x6b>:
    26b0:	91 d0 20 00 	ta  0
    26b4:	01 00 00 00 	nop 
    26b8:	01 00 00 00 	nop 
    26bc:	01 00 00 00 	nop 

000026c0 <HW_trap_0x6c>:
    26c0:	91 d0 20 00 	ta  0
    26c4:	01 00 00 00 	nop 
    26c8:	01 00 00 00 	nop 
    26cc:	01 00 00 00 	nop 

000026d0 <HW_trap_0x6d>:
    26d0:	91 d0 20 00 	ta  0
    26d4:	01 00 00 00 	nop 
    26d8:	01 00 00 00 	nop 
    26dc:	01 00 00 00 	nop 

000026e0 <HW_trap_0x6e>:
    26e0:	91 d0 20 00 	ta  0
    26e4:	01 00 00 00 	nop 
    26e8:	01 00 00 00 	nop 
    26ec:	01 00 00 00 	nop 

000026f0 <HW_trap_0x6f>:
    26f0:	91 d0 20 00 	ta  0
    26f4:	01 00 00 00 	nop 
    26f8:	01 00 00 00 	nop 
    26fc:	01 00 00 00 	nop 

00002700 <HW_trap_0x70>:
    2700:	91 d0 20 00 	ta  0
    2704:	01 00 00 00 	nop 
    2708:	01 00 00 00 	nop 
    270c:	01 00 00 00 	nop 

00002710 <HW_trap_0x71>:
    2710:	91 d0 20 00 	ta  0
    2714:	01 00 00 00 	nop 
    2718:	01 00 00 00 	nop 
    271c:	01 00 00 00 	nop 

00002720 <HW_trap_0x72>:
    2720:	91 d0 20 00 	ta  0
    2724:	01 00 00 00 	nop 
    2728:	01 00 00 00 	nop 
    272c:	01 00 00 00 	nop 

00002730 <HW_trap_0x73>:
    2730:	91 d0 20 00 	ta  0
    2734:	01 00 00 00 	nop 
    2738:	01 00 00 00 	nop 
    273c:	01 00 00 00 	nop 

00002740 <HW_trap_0x74>:
    2740:	91 d0 20 00 	ta  0
    2744:	01 00 00 00 	nop 
    2748:	01 00 00 00 	nop 
    274c:	01 00 00 00 	nop 

00002750 <HW_trap_0x75>:
    2750:	91 d0 20 00 	ta  0
    2754:	01 00 00 00 	nop 
    2758:	01 00 00 00 	nop 
    275c:	01 00 00 00 	nop 

00002760 <HW_trap_0x76>:
    2760:	91 d0 20 00 	ta  0
    2764:	01 00 00 00 	nop 
    2768:	01 00 00 00 	nop 
    276c:	01 00 00 00 	nop 

00002770 <HW_trap_0x77>:
    2770:	91 d0 20 00 	ta  0
    2774:	01 00 00 00 	nop 
    2778:	01 00 00 00 	nop 
    277c:	01 00 00 00 	nop 

00002780 <HW_trap_0x78>:
    2780:	91 d0 20 00 	ta  0
    2784:	01 00 00 00 	nop 
    2788:	01 00 00 00 	nop 
    278c:	01 00 00 00 	nop 

00002790 <HW_trap_0x79>:
    2790:	91 d0 20 00 	ta  0
    2794:	01 00 00 00 	nop 
    2798:	01 00 00 00 	nop 
    279c:	01 00 00 00 	nop 

000027a0 <HW_trap_0x7a>:
    27a0:	91 d0 20 00 	ta  0
    27a4:	01 00 00 00 	nop 
    27a8:	01 00 00 00 	nop 
    27ac:	01 00 00 00 	nop 

000027b0 <HW_trap_0x7b>:
    27b0:	91 d0 20 00 	ta  0
    27b4:	01 00 00 00 	nop 
    27b8:	01 00 00 00 	nop 
    27bc:	01 00 00 00 	nop 

000027c0 <HW_trap_0x7c>:
    27c0:	91 d0 20 00 	ta  0
    27c4:	01 00 00 00 	nop 
    27c8:	01 00 00 00 	nop 
    27cc:	01 00 00 00 	nop 

000027d0 <HW_trap_0x7d>:
    27d0:	91 d0 20 00 	ta  0
    27d4:	01 00 00 00 	nop 
    27d8:	01 00 00 00 	nop 
    27dc:	01 00 00 00 	nop 

000027e0 <HW_trap_0x7e>:
    27e0:	91 d0 20 00 	ta  0
    27e4:	01 00 00 00 	nop 
    27e8:	01 00 00 00 	nop 
    27ec:	01 00 00 00 	nop 

000027f0 <HW_trap_0x7f>:
    27f0:	91 d0 20 00 	ta  0
    27f4:	01 00 00 00 	nop 
    27f8:	01 00 00 00 	nop 
    27fc:	01 00 00 00 	nop 

00002800 <SW_trap_0x80>:
    2800:	91 d0 20 00 	ta  0
    2804:	01 00 00 00 	nop 
    2808:	01 00 00 00 	nop 
    280c:	01 00 00 00 	nop 

00002810 <SW_trap_0x81>:
    2810:	91 d0 20 00 	ta  0
    2814:	01 00 00 00 	nop 
    2818:	01 00 00 00 	nop 
    281c:	01 00 00 00 	nop 

00002820 <SW_trap_0x82>:
    2820:	91 d0 20 00 	ta  0
    2824:	01 00 00 00 	nop 
    2828:	01 00 00 00 	nop 
    282c:	01 00 00 00 	nop 

00002830 <SW_trap_0x83>:
    2830:	91 d0 20 00 	ta  0
    2834:	01 00 00 00 	nop 
    2838:	01 00 00 00 	nop 
    283c:	01 00 00 00 	nop 

00002840 <SW_trap_0x84>:
    2840:	91 d0 20 00 	ta  0
    2844:	01 00 00 00 	nop 
    2848:	01 00 00 00 	nop 
    284c:	01 00 00 00 	nop 

00002850 <SW_trap_0x85>:
    2850:	91 d0 20 00 	ta  0
    2854:	01 00 00 00 	nop 
    2858:	01 00 00 00 	nop 
    285c:	01 00 00 00 	nop 

00002860 <SW_trap_0x86>:
    2860:	91 d0 20 00 	ta  0
    2864:	01 00 00 00 	nop 
    2868:	01 00 00 00 	nop 
    286c:	01 00 00 00 	nop 

00002870 <SW_trap_0x87>:
    2870:	91 d0 20 00 	ta  0
    2874:	01 00 00 00 	nop 
    2878:	01 00 00 00 	nop 
    287c:	01 00 00 00 	nop 

00002880 <SW_trap_0x88>:
    2880:	91 d0 20 00 	ta  0
    2884:	01 00 00 00 	nop 
    2888:	01 00 00 00 	nop 
    288c:	01 00 00 00 	nop 

00002890 <SW_trap_0x89>:
    2890:	91 d0 20 00 	ta  0
    2894:	01 00 00 00 	nop 
    2898:	01 00 00 00 	nop 
    289c:	01 00 00 00 	nop 

000028a0 <SW_trap_0x8a>:
    28a0:	91 d0 20 00 	ta  0
    28a4:	01 00 00 00 	nop 
    28a8:	01 00 00 00 	nop 
    28ac:	01 00 00 00 	nop 

000028b0 <SW_trap_0x8b>:
    28b0:	91 d0 20 00 	ta  0
    28b4:	01 00 00 00 	nop 
    28b8:	01 00 00 00 	nop 
    28bc:	01 00 00 00 	nop 

000028c0 <SW_trap_0x8c>:
    28c0:	91 d0 20 00 	ta  0
    28c4:	01 00 00 00 	nop 
    28c8:	01 00 00 00 	nop 
    28cc:	01 00 00 00 	nop 

000028d0 <SW_trap_0x8d>:
    28d0:	91 d0 20 00 	ta  0
    28d4:	01 00 00 00 	nop 
    28d8:	01 00 00 00 	nop 
    28dc:	01 00 00 00 	nop 

000028e0 <SW_trap_0x8e>:
    28e0:	91 d0 20 00 	ta  0
    28e4:	01 00 00 00 	nop 
    28e8:	01 00 00 00 	nop 
    28ec:	01 00 00 00 	nop 

000028f0 <SW_trap_0x8f>:
    28f0:	91 d0 20 00 	ta  0
    28f4:	01 00 00 00 	nop 
    28f8:	01 00 00 00 	nop 
    28fc:	01 00 00 00 	nop 

00002900 <SW_trap_0x90>:
    2900:	91 d0 20 00 	ta  0
    2904:	01 00 00 00 	nop 
    2908:	01 00 00 00 	nop 
    290c:	01 00 00 00 	nop 

00002910 <SW_trap_0x91>:
    2910:	91 d0 20 00 	ta  0
    2914:	01 00 00 00 	nop 
    2918:	01 00 00 00 	nop 
    291c:	01 00 00 00 	nop 

00002920 <SW_trap_0x92>:
    2920:	91 d0 20 00 	ta  0
    2924:	01 00 00 00 	nop 
    2928:	01 00 00 00 	nop 
    292c:	01 00 00 00 	nop 

00002930 <SW_trap_0x93>:
    2930:	91 d0 20 00 	ta  0
    2934:	01 00 00 00 	nop 
    2938:	01 00 00 00 	nop 
    293c:	01 00 00 00 	nop 

00002940 <SW_trap_0x94>:
    2940:	91 d0 20 00 	ta  0
    2944:	01 00 00 00 	nop 
    2948:	01 00 00 00 	nop 
    294c:	01 00 00 00 	nop 

00002950 <SW_trap_0x95>:
    2950:	91 d0 20 00 	ta  0
    2954:	01 00 00 00 	nop 
    2958:	01 00 00 00 	nop 
    295c:	01 00 00 00 	nop 

00002960 <SW_trap_0x96>:
    2960:	91 d0 20 00 	ta  0
    2964:	01 00 00 00 	nop 
    2968:	01 00 00 00 	nop 
    296c:	01 00 00 00 	nop 

00002970 <SW_trap_0x97>:
    2970:	91 d0 20 00 	ta  0
    2974:	01 00 00 00 	nop 
    2978:	01 00 00 00 	nop 
    297c:	01 00 00 00 	nop 

00002980 <SW_trap_0x98>:
    2980:	91 d0 20 00 	ta  0
    2984:	01 00 00 00 	nop 
    2988:	01 00 00 00 	nop 
    298c:	01 00 00 00 	nop 

00002990 <SW_trap_0x99>:
    2990:	91 d0 20 00 	ta  0
    2994:	01 00 00 00 	nop 
    2998:	01 00 00 00 	nop 
    299c:	01 00 00 00 	nop 

000029a0 <SW_trap_0x9a>:
    29a0:	91 d0 20 00 	ta  0
    29a4:	01 00 00 00 	nop 
    29a8:	01 00 00 00 	nop 
    29ac:	01 00 00 00 	nop 

000029b0 <SW_trap_0x9b>:
    29b0:	91 d0 20 00 	ta  0
    29b4:	01 00 00 00 	nop 
    29b8:	01 00 00 00 	nop 
    29bc:	01 00 00 00 	nop 

000029c0 <SW_trap_0x9c>:
    29c0:	91 d0 20 00 	ta  0
    29c4:	01 00 00 00 	nop 
    29c8:	01 00 00 00 	nop 
    29cc:	01 00 00 00 	nop 

000029d0 <SW_trap_0x9d>:
    29d0:	91 d0 20 00 	ta  0
    29d4:	01 00 00 00 	nop 
    29d8:	01 00 00 00 	nop 
    29dc:	01 00 00 00 	nop 

000029e0 <SW_trap_0x9e>:
    29e0:	91 d0 20 00 	ta  0
    29e4:	01 00 00 00 	nop 
    29e8:	01 00 00 00 	nop 
    29ec:	01 00 00 00 	nop 

000029f0 <SW_trap_0x9f>:
    29f0:	91 d0 20 00 	ta  0
    29f4:	01 00 00 00 	nop 
    29f8:	01 00 00 00 	nop 
    29fc:	01 00 00 00 	nop 

00002a00 <SW_trap_0xa0>:
    2a00:	91 d0 20 00 	ta  0
    2a04:	01 00 00 00 	nop 
    2a08:	01 00 00 00 	nop 
    2a0c:	01 00 00 00 	nop 

00002a10 <SW_trap_0xa1>:
    2a10:	91 d0 20 00 	ta  0
    2a14:	01 00 00 00 	nop 
    2a18:	01 00 00 00 	nop 
    2a1c:	01 00 00 00 	nop 

00002a20 <SW_trap_0xa2>:
    2a20:	91 d0 20 00 	ta  0
    2a24:	01 00 00 00 	nop 
    2a28:	01 00 00 00 	nop 
    2a2c:	01 00 00 00 	nop 

00002a30 <SW_trap_0xa3>:
    2a30:	91 d0 20 00 	ta  0
    2a34:	01 00 00 00 	nop 
    2a38:	01 00 00 00 	nop 
    2a3c:	01 00 00 00 	nop 

00002a40 <SW_trap_0xa4>:
    2a40:	91 d0 20 00 	ta  0
    2a44:	01 00 00 00 	nop 
    2a48:	01 00 00 00 	nop 
    2a4c:	01 00 00 00 	nop 

00002a50 <SW_trap_0xa5>:
    2a50:	91 d0 20 00 	ta  0
    2a54:	01 00 00 00 	nop 
    2a58:	01 00 00 00 	nop 
    2a5c:	01 00 00 00 	nop 

00002a60 <SW_trap_0xa6>:
    2a60:	91 d0 20 00 	ta  0
    2a64:	01 00 00 00 	nop 
    2a68:	01 00 00 00 	nop 
    2a6c:	01 00 00 00 	nop 

00002a70 <SW_trap_0xa7>:
    2a70:	91 d0 20 00 	ta  0
    2a74:	01 00 00 00 	nop 
    2a78:	01 00 00 00 	nop 
    2a7c:	01 00 00 00 	nop 

00002a80 <SW_trap_0xa8>:
    2a80:	91 d0 20 00 	ta  0
    2a84:	01 00 00 00 	nop 
    2a88:	01 00 00 00 	nop 
    2a8c:	01 00 00 00 	nop 

00002a90 <SW_trap_0xa9>:
    2a90:	91 d0 20 00 	ta  0
    2a94:	01 00 00 00 	nop 
    2a98:	01 00 00 00 	nop 
    2a9c:	01 00 00 00 	nop 

00002aa0 <SW_trap_0xaa>:
    2aa0:	91 d0 20 00 	ta  0
    2aa4:	01 00 00 00 	nop 
    2aa8:	01 00 00 00 	nop 
    2aac:	01 00 00 00 	nop 

00002ab0 <SW_trap_0xab>:
    2ab0:	91 d0 20 00 	ta  0
    2ab4:	01 00 00 00 	nop 
    2ab8:	01 00 00 00 	nop 
    2abc:	01 00 00 00 	nop 

00002ac0 <SW_trap_0xac>:
    2ac0:	91 d0 20 00 	ta  0
    2ac4:	01 00 00 00 	nop 
    2ac8:	01 00 00 00 	nop 
    2acc:	01 00 00 00 	nop 

00002ad0 <SW_trap_0xad>:
    2ad0:	91 d0 20 00 	ta  0
    2ad4:	01 00 00 00 	nop 
    2ad8:	01 00 00 00 	nop 
    2adc:	01 00 00 00 	nop 

00002ae0 <SW_trap_0xae>:
    2ae0:	91 d0 20 00 	ta  0
    2ae4:	01 00 00 00 	nop 
    2ae8:	01 00 00 00 	nop 
    2aec:	01 00 00 00 	nop 

00002af0 <SW_trap_0xaf>:
    2af0:	91 d0 20 00 	ta  0
    2af4:	01 00 00 00 	nop 
    2af8:	01 00 00 00 	nop 
    2afc:	01 00 00 00 	nop 

00002b00 <SW_trap_0xb0>:
    2b00:	91 d0 20 00 	ta  0
    2b04:	01 00 00 00 	nop 
    2b08:	01 00 00 00 	nop 
    2b0c:	01 00 00 00 	nop 

00002b10 <SW_trap_0xb1>:
    2b10:	91 d0 20 00 	ta  0
    2b14:	01 00 00 00 	nop 
    2b18:	01 00 00 00 	nop 
    2b1c:	01 00 00 00 	nop 

00002b20 <SW_trap_0xb2>:
    2b20:	91 d0 20 00 	ta  0
    2b24:	01 00 00 00 	nop 
    2b28:	01 00 00 00 	nop 
    2b2c:	01 00 00 00 	nop 

00002b30 <SW_trap_0xb3>:
    2b30:	91 d0 20 00 	ta  0
    2b34:	01 00 00 00 	nop 
    2b38:	01 00 00 00 	nop 
    2b3c:	01 00 00 00 	nop 

00002b40 <SW_trap_0xb4>:
    2b40:	91 d0 20 00 	ta  0
    2b44:	01 00 00 00 	nop 
    2b48:	01 00 00 00 	nop 
    2b4c:	01 00 00 00 	nop 

00002b50 <SW_trap_0xb5>:
    2b50:	91 d0 20 00 	ta  0
    2b54:	01 00 00 00 	nop 
    2b58:	01 00 00 00 	nop 
    2b5c:	01 00 00 00 	nop 

00002b60 <SW_trap_0xb6>:
    2b60:	91 d0 20 00 	ta  0
    2b64:	01 00 00 00 	nop 
    2b68:	01 00 00 00 	nop 
    2b6c:	01 00 00 00 	nop 

00002b70 <SW_trap_0xb7>:
    2b70:	91 d0 20 00 	ta  0
    2b74:	01 00 00 00 	nop 
    2b78:	01 00 00 00 	nop 
    2b7c:	01 00 00 00 	nop 

00002b80 <SW_trap_0xb8>:
    2b80:	91 d0 20 00 	ta  0
    2b84:	01 00 00 00 	nop 
    2b88:	01 00 00 00 	nop 
    2b8c:	01 00 00 00 	nop 

00002b90 <SW_trap_0xb9>:
    2b90:	91 d0 20 00 	ta  0
    2b94:	01 00 00 00 	nop 
    2b98:	01 00 00 00 	nop 
    2b9c:	01 00 00 00 	nop 

00002ba0 <SW_trap_0xba>:
    2ba0:	91 d0 20 00 	ta  0
    2ba4:	01 00 00 00 	nop 
    2ba8:	01 00 00 00 	nop 
    2bac:	01 00 00 00 	nop 

00002bb0 <SW_trap_0xbb>:
    2bb0:	91 d0 20 00 	ta  0
    2bb4:	01 00 00 00 	nop 
    2bb8:	01 00 00 00 	nop 
    2bbc:	01 00 00 00 	nop 

00002bc0 <SW_trap_0xbc>:
    2bc0:	91 d0 20 00 	ta  0
    2bc4:	01 00 00 00 	nop 
    2bc8:	01 00 00 00 	nop 
    2bcc:	01 00 00 00 	nop 

00002bd0 <SW_trap_0xbd>:
    2bd0:	91 d0 20 00 	ta  0
    2bd4:	01 00 00 00 	nop 
    2bd8:	01 00 00 00 	nop 
    2bdc:	01 00 00 00 	nop 

00002be0 <SW_trap_0xbe>:
    2be0:	91 d0 20 00 	ta  0
    2be4:	01 00 00 00 	nop 
    2be8:	01 00 00 00 	nop 
    2bec:	01 00 00 00 	nop 

00002bf0 <SW_trap_0xbf>:
    2bf0:	91 d0 20 00 	ta  0
    2bf4:	01 00 00 00 	nop 
    2bf8:	01 00 00 00 	nop 
    2bfc:	01 00 00 00 	nop 

00002c00 <SW_trap_0xc0>:
    2c00:	91 d0 20 00 	ta  0
    2c04:	01 00 00 00 	nop 
    2c08:	01 00 00 00 	nop 
    2c0c:	01 00 00 00 	nop 

00002c10 <SW_trap_0xc1>:
    2c10:	91 d0 20 00 	ta  0
    2c14:	01 00 00 00 	nop 
    2c18:	01 00 00 00 	nop 
    2c1c:	01 00 00 00 	nop 

00002c20 <SW_trap_0xc2>:
    2c20:	91 d0 20 00 	ta  0
    2c24:	01 00 00 00 	nop 
    2c28:	01 00 00 00 	nop 
    2c2c:	01 00 00 00 	nop 

00002c30 <SW_trap_0xc3>:
    2c30:	91 d0 20 00 	ta  0
    2c34:	01 00 00 00 	nop 
    2c38:	01 00 00 00 	nop 
    2c3c:	01 00 00 00 	nop 

00002c40 <SW_trap_0xc4>:
    2c40:	91 d0 20 00 	ta  0
    2c44:	01 00 00 00 	nop 
    2c48:	01 00 00 00 	nop 
    2c4c:	01 00 00 00 	nop 

00002c50 <SW_trap_0xc5>:
    2c50:	91 d0 20 00 	ta  0
    2c54:	01 00 00 00 	nop 
    2c58:	01 00 00 00 	nop 
    2c5c:	01 00 00 00 	nop 

00002c60 <SW_trap_0xc6>:
    2c60:	91 d0 20 00 	ta  0
    2c64:	01 00 00 00 	nop 
    2c68:	01 00 00 00 	nop 
    2c6c:	01 00 00 00 	nop 

00002c70 <SW_trap_0xc7>:
    2c70:	91 d0 20 00 	ta  0
    2c74:	01 00 00 00 	nop 
    2c78:	01 00 00 00 	nop 
    2c7c:	01 00 00 00 	nop 

00002c80 <SW_trap_0xc8>:
    2c80:	91 d0 20 00 	ta  0
    2c84:	01 00 00 00 	nop 
    2c88:	01 00 00 00 	nop 
    2c8c:	01 00 00 00 	nop 

00002c90 <SW_trap_0xc9>:
    2c90:	91 d0 20 00 	ta  0
    2c94:	01 00 00 00 	nop 
    2c98:	01 00 00 00 	nop 
    2c9c:	01 00 00 00 	nop 

00002ca0 <SW_trap_0xca>:
    2ca0:	91 d0 20 00 	ta  0
    2ca4:	01 00 00 00 	nop 
    2ca8:	01 00 00 00 	nop 
    2cac:	01 00 00 00 	nop 

00002cb0 <SW_trap_0xcb>:
    2cb0:	91 d0 20 00 	ta  0
    2cb4:	01 00 00 00 	nop 
    2cb8:	01 00 00 00 	nop 
    2cbc:	01 00 00 00 	nop 

00002cc0 <SW_trap_0xcc>:
    2cc0:	91 d0 20 00 	ta  0
    2cc4:	01 00 00 00 	nop 
    2cc8:	01 00 00 00 	nop 
    2ccc:	01 00 00 00 	nop 

00002cd0 <SW_trap_0xcd>:
    2cd0:	91 d0 20 00 	ta  0
    2cd4:	01 00 00 00 	nop 
    2cd8:	01 00 00 00 	nop 
    2cdc:	01 00 00 00 	nop 

00002ce0 <SW_trap_0xce>:
    2ce0:	91 d0 20 00 	ta  0
    2ce4:	01 00 00 00 	nop 
    2ce8:	01 00 00 00 	nop 
    2cec:	01 00 00 00 	nop 

00002cf0 <SW_trap_0xcf>:
    2cf0:	91 d0 20 00 	ta  0
    2cf4:	01 00 00 00 	nop 
    2cf8:	01 00 00 00 	nop 
    2cfc:	01 00 00 00 	nop 

00002d00 <SW_trap_0xd0>:
    2d00:	91 d0 20 00 	ta  0
    2d04:	01 00 00 00 	nop 
    2d08:	01 00 00 00 	nop 
    2d0c:	01 00 00 00 	nop 

00002d10 <SW_trap_0xd1>:
    2d10:	91 d0 20 00 	ta  0
    2d14:	01 00 00 00 	nop 
    2d18:	01 00 00 00 	nop 
    2d1c:	01 00 00 00 	nop 

00002d20 <SW_trap_0xd2>:
    2d20:	91 d0 20 00 	ta  0
    2d24:	01 00 00 00 	nop 
    2d28:	01 00 00 00 	nop 
    2d2c:	01 00 00 00 	nop 

00002d30 <SW_trap_0xd3>:
    2d30:	91 d0 20 00 	ta  0
    2d34:	01 00 00 00 	nop 
    2d38:	01 00 00 00 	nop 
    2d3c:	01 00 00 00 	nop 

00002d40 <SW_trap_0xd4>:
    2d40:	91 d0 20 00 	ta  0
    2d44:	01 00 00 00 	nop 
    2d48:	01 00 00 00 	nop 
    2d4c:	01 00 00 00 	nop 

00002d50 <SW_trap_0xd5>:
    2d50:	91 d0 20 00 	ta  0
    2d54:	01 00 00 00 	nop 
    2d58:	01 00 00 00 	nop 
    2d5c:	01 00 00 00 	nop 

00002d60 <SW_trap_0xd6>:
    2d60:	91 d0 20 00 	ta  0
    2d64:	01 00 00 00 	nop 
    2d68:	01 00 00 00 	nop 
    2d6c:	01 00 00 00 	nop 

00002d70 <SW_trap_0xd7>:
    2d70:	91 d0 20 00 	ta  0
    2d74:	01 00 00 00 	nop 
    2d78:	01 00 00 00 	nop 
    2d7c:	01 00 00 00 	nop 

00002d80 <SW_trap_0xd8>:
    2d80:	91 d0 20 00 	ta  0
    2d84:	01 00 00 00 	nop 
    2d88:	01 00 00 00 	nop 
    2d8c:	01 00 00 00 	nop 

00002d90 <SW_trap_0xd9>:
    2d90:	91 d0 20 00 	ta  0
    2d94:	01 00 00 00 	nop 
    2d98:	01 00 00 00 	nop 
    2d9c:	01 00 00 00 	nop 

00002da0 <SW_trap_0xda>:
    2da0:	91 d0 20 00 	ta  0
    2da4:	01 00 00 00 	nop 
    2da8:	01 00 00 00 	nop 
    2dac:	01 00 00 00 	nop 

00002db0 <SW_trap_0xdb>:
    2db0:	91 d0 20 00 	ta  0
    2db4:	01 00 00 00 	nop 
    2db8:	01 00 00 00 	nop 
    2dbc:	01 00 00 00 	nop 

00002dc0 <SW_trap_0xdc>:
    2dc0:	91 d0 20 00 	ta  0
    2dc4:	01 00 00 00 	nop 
    2dc8:	01 00 00 00 	nop 
    2dcc:	01 00 00 00 	nop 

00002dd0 <SW_trap_0xdd>:
    2dd0:	91 d0 20 00 	ta  0
    2dd4:	01 00 00 00 	nop 
    2dd8:	01 00 00 00 	nop 
    2ddc:	01 00 00 00 	nop 

00002de0 <SW_trap_0xde>:
    2de0:	91 d0 20 00 	ta  0
    2de4:	01 00 00 00 	nop 
    2de8:	01 00 00 00 	nop 
    2dec:	01 00 00 00 	nop 

00002df0 <SW_trap_0xdf>:
    2df0:	91 d0 20 00 	ta  0
    2df4:	01 00 00 00 	nop 
    2df8:	01 00 00 00 	nop 
    2dfc:	01 00 00 00 	nop 

00002e00 <SW_trap_0xe0>:
    2e00:	91 d0 20 00 	ta  0
    2e04:	01 00 00 00 	nop 
    2e08:	01 00 00 00 	nop 
    2e0c:	01 00 00 00 	nop 

00002e10 <SW_trap_0xe1>:
    2e10:	91 d0 20 00 	ta  0
    2e14:	01 00 00 00 	nop 
    2e18:	01 00 00 00 	nop 
    2e1c:	01 00 00 00 	nop 

00002e20 <SW_trap_0xe2>:
    2e20:	91 d0 20 00 	ta  0
    2e24:	01 00 00 00 	nop 
    2e28:	01 00 00 00 	nop 
    2e2c:	01 00 00 00 	nop 

00002e30 <SW_trap_0xe3>:
    2e30:	91 d0 20 00 	ta  0
    2e34:	01 00 00 00 	nop 
    2e38:	01 00 00 00 	nop 
    2e3c:	01 00 00 00 	nop 

00002e40 <SW_trap_0xe4>:
    2e40:	91 d0 20 00 	ta  0
    2e44:	01 00 00 00 	nop 
    2e48:	01 00 00 00 	nop 
    2e4c:	01 00 00 00 	nop 

00002e50 <SW_trap_0xe5>:
    2e50:	91 d0 20 00 	ta  0
    2e54:	01 00 00 00 	nop 
    2e58:	01 00 00 00 	nop 
    2e5c:	01 00 00 00 	nop 

00002e60 <SW_trap_0xe6>:
    2e60:	91 d0 20 00 	ta  0
    2e64:	01 00 00 00 	nop 
    2e68:	01 00 00 00 	nop 
    2e6c:	01 00 00 00 	nop 

00002e70 <SW_trap_0xe7>:
    2e70:	91 d0 20 00 	ta  0
    2e74:	01 00 00 00 	nop 
    2e78:	01 00 00 00 	nop 
    2e7c:	01 00 00 00 	nop 

00002e80 <SW_trap_0xe8>:
    2e80:	91 d0 20 00 	ta  0
    2e84:	01 00 00 00 	nop 
    2e88:	01 00 00 00 	nop 
    2e8c:	01 00 00 00 	nop 

00002e90 <SW_trap_0xe9>:
    2e90:	91 d0 20 00 	ta  0
    2e94:	01 00 00 00 	nop 
    2e98:	01 00 00 00 	nop 
    2e9c:	01 00 00 00 	nop 

00002ea0 <SW_trap_0xea>:
    2ea0:	91 d0 20 00 	ta  0
    2ea4:	01 00 00 00 	nop 
    2ea8:	01 00 00 00 	nop 
    2eac:	01 00 00 00 	nop 

00002eb0 <SW_trap_0xeb>:
    2eb0:	91 d0 20 00 	ta  0
    2eb4:	01 00 00 00 	nop 
    2eb8:	01 00 00 00 	nop 
    2ebc:	01 00 00 00 	nop 

00002ec0 <SW_trap_0xec>:
    2ec0:	91 d0 20 00 	ta  0
    2ec4:	01 00 00 00 	nop 
    2ec8:	01 00 00 00 	nop 
    2ecc:	01 00 00 00 	nop 

00002ed0 <SW_trap_0xed>:
    2ed0:	91 d0 20 00 	ta  0
    2ed4:	01 00 00 00 	nop 
    2ed8:	01 00 00 00 	nop 
    2edc:	01 00 00 00 	nop 

00002ee0 <SW_trap_0xee>:
    2ee0:	91 d0 20 00 	ta  0
    2ee4:	01 00 00 00 	nop 
    2ee8:	01 00 00 00 	nop 
    2eec:	01 00 00 00 	nop 

00002ef0 <SW_trap_0xef>:
    2ef0:	91 d0 20 00 	ta  0
    2ef4:	01 00 00 00 	nop 
    2ef8:	01 00 00 00 	nop 
    2efc:	01 00 00 00 	nop 

00002f00 <SW_trap_0xf0>:
    2f00:	91 d0 20 00 	ta  0
    2f04:	01 00 00 00 	nop 
    2f08:	01 00 00 00 	nop 
    2f0c:	01 00 00 00 	nop 

00002f10 <SW_trap_0xf1>:
    2f10:	91 d0 20 00 	ta  0
    2f14:	01 00 00 00 	nop 
    2f18:	01 00 00 00 	nop 
    2f1c:	01 00 00 00 	nop 

00002f20 <SW_trap_0xf2>:
    2f20:	91 d0 20 00 	ta  0
    2f24:	01 00 00 00 	nop 
    2f28:	01 00 00 00 	nop 
    2f2c:	01 00 00 00 	nop 

00002f30 <SW_trap_0xf3>:
    2f30:	91 d0 20 00 	ta  0
    2f34:	01 00 00 00 	nop 
    2f38:	01 00 00 00 	nop 
    2f3c:	01 00 00 00 	nop 

00002f40 <SW_trap_0xf4>:
    2f40:	91 d0 20 00 	ta  0
    2f44:	01 00 00 00 	nop 
    2f48:	01 00 00 00 	nop 
    2f4c:	01 00 00 00 	nop 

00002f50 <SW_trap_0xf5>:
    2f50:	91 d0 20 00 	ta  0
    2f54:	01 00 00 00 	nop 
    2f58:	01 00 00 00 	nop 
    2f5c:	01 00 00 00 	nop 

00002f60 <SW_trap_0xf6>:
    2f60:	91 d0 20 00 	ta  0
    2f64:	01 00 00 00 	nop 
    2f68:	01 00 00 00 	nop 
    2f6c:	01 00 00 00 	nop 

00002f70 <SW_trap_0xf7>:
    2f70:	91 d0 20 00 	ta  0
    2f74:	01 00 00 00 	nop 
    2f78:	01 00 00 00 	nop 
    2f7c:	01 00 00 00 	nop 

00002f80 <SW_trap_0xf8>:
    2f80:	91 d0 20 00 	ta  0
    2f84:	01 00 00 00 	nop 
    2f88:	01 00 00 00 	nop 
    2f8c:	01 00 00 00 	nop 

00002f90 <SW_trap_0xf9>:
    2f90:	91 d0 20 00 	ta  0
    2f94:	01 00 00 00 	nop 
    2f98:	01 00 00 00 	nop 
    2f9c:	01 00 00 00 	nop 

00002fa0 <SW_trap_0xfa>:
    2fa0:	91 d0 20 00 	ta  0
    2fa4:	01 00 00 00 	nop 
    2fa8:	01 00 00 00 	nop 
    2fac:	01 00 00 00 	nop 

00002fb0 <SW_trap_0xfb>:
    2fb0:	91 d0 20 00 	ta  0
    2fb4:	01 00 00 00 	nop 
    2fb8:	01 00 00 00 	nop 
    2fbc:	01 00 00 00 	nop 

00002fc0 <SW_trap_0xfc>:
    2fc0:	91 d0 20 00 	ta  0
    2fc4:	01 00 00 00 	nop 
    2fc8:	01 00 00 00 	nop 
    2fcc:	01 00 00 00 	nop 

00002fd0 <SW_trap_0xfd>:
    2fd0:	91 d0 20 00 	ta  0
    2fd4:	01 00 00 00 	nop 
    2fd8:	01 00 00 00 	nop 
    2fdc:	01 00 00 00 	nop 

00002fe0 <SW_trap_0xfe>:
    2fe0:	91 d0 20 00 	ta  0
    2fe4:	01 00 00 00 	nop 
    2fe8:	01 00 00 00 	nop 
    2fec:	01 00 00 00 	nop 
    2ff0:	01 00 00 00 	nop 
    2ff4:	01 00 00 00 	nop 
    2ff8:	01 00 00 00 	nop 
    2ffc:	01 00 00 00 	nop 

00003000 <cmp_idx>:
    3000:	80 a2 a0 00 	cmp  %o2, 0
    3004:	22 80 00 06 	be,a   301c <cmp_idx+0x1c>
    3008:	c2 12 00 00 	lduh  [ %o0 ], %g1
    300c:	d0 52 20 02 	ldsh  [ %o0 + 2 ], %o0
    3010:	c2 52 60 02 	ldsh  [ %o1 + 2 ], %g1
    3014:	81 c3 e0 08 	retl 
    3018:	90 22 00 01 	sub  %o0, %g1, %o0
    301c:	85 28 60 10 	sll  %g1, 0x10, %g2
    3020:	82 08 7f 00 	and  %g1, -256, %g1
    3024:	87 30 a0 18 	srl  %g2, 0x18, %g3
    3028:	82 10 c0 01 	or  %g3, %g1, %g1
    302c:	c2 32 00 00 	sth  %g1, [ %o0 ]
    3030:	c2 12 40 00 	lduh  [ %o1 ], %g1
    3034:	89 28 60 10 	sll  %g1, 0x10, %g4
    3038:	82 08 7f 00 	and  %g1, -256, %g1
    303c:	95 31 20 18 	srl  %g4, 0x18, %o2
    3040:	82 12 80 01 	or  %o2, %g1, %g1
    3044:	d0 52 20 02 	ldsh  [ %o0 + 2 ], %o0
    3048:	c2 32 40 00 	sth  %g1, [ %o1 ]
    304c:	c2 52 60 02 	ldsh  [ %o1 + 2 ], %g1
    3050:	81 c3 e0 08 	retl 
    3054:	90 22 00 01 	sub  %o0, %g1, %o0

00003058 <core_list_mergesort.constprop.1>:
    3058:	9d e3 bf a0 	save  %sp, -96, %sp
    305c:	80 a6 20 00 	cmp  %i0, 0
    3060:	02 80 00 2f 	be  311c <core_list_mergesort.constprop.1+0xc4>
    3064:	86 10 20 01 	mov  1, %g3
    3068:	9a 10 20 00 	clr  %o5
    306c:	88 10 20 00 	clr  %g4
    3070:	b6 10 20 00 	clr  %i3
    3074:	b6 06 e0 01 	inc  %i3
    3078:	84 10 00 18 	mov  %i0, %g2
    307c:	82 10 20 00 	clr  %g1
    3080:	c4 00 80 00 	ld  [ %g2 ], %g2
    3084:	80 a0 a0 00 	cmp  %g2, 0
    3088:	02 80 00 05 	be  309c <core_list_mergesort.constprop.1+0x44>
    308c:	82 00 60 01 	inc  %g1
    3090:	80 a0 40 03 	cmp  %g1, %g3
    3094:	26 bf ff fc 	bl,a   3084 <core_list_mergesort.constprop.1+0x2c>
    3098:	c4 00 80 00 	ld  [ %g2 ], %g2
    309c:	b8 10 00 18 	mov  %i0, %i4
    30a0:	ba 10 00 03 	mov  %g3, %i5
    30a4:	80 a0 60 00 	cmp  %g1, 0
    30a8:	02 80 00 10 	be  30e8 <core_list_mergesort.constprop.1+0x90>
    30ac:	b0 10 00 02 	mov  %g2, %i0
    30b0:	80 a6 20 00 	cmp  %i0, 0
    30b4:	12 80 00 1f 	bne  3130 <core_list_mergesort.constprop.1+0xd8>
    30b8:	80 a7 60 00 	cmp  %i5, 0
    30bc:	b4 10 00 1c 	mov  %i4, %i2
    30c0:	82 00 7f ff 	add  %g1, -1, %g1
    30c4:	f8 07 00 00 	ld  [ %i4 ], %i4
    30c8:	80 a1 20 00 	cmp  %g4, 0
    30cc:	22 80 00 17 	be,a   3128 <core_list_mergesort.constprop.1+0xd0>
    30d0:	9a 10 00 1a 	mov  %i2, %o5
    30d4:	f4 21 00 00 	st  %i2, [ %g4 ]
    30d8:	88 10 00 1a 	mov  %i2, %g4
    30dc:	80 a0 60 00 	cmp  %g1, 0
    30e0:	12 bf ff f5 	bne  30b4 <core_list_mergesort.constprop.1+0x5c>
    30e4:	80 a6 20 00 	cmp  %i0, 0
    30e8:	80 a6 20 00 	cmp  %i0, 0
    30ec:	12 80 00 2a 	bne  3194 <core_list_mergesort.constprop.1+0x13c>
    30f0:	80 a7 60 00 	cmp  %i5, 0
    30f4:	80 a6 20 00 	cmp  %i0, 0
    30f8:	32 bf ff e0 	bne,a   3078 <core_list_mergesort.constprop.1+0x20>
    30fc:	b6 06 e0 01 	inc  %i3
    3100:	80 a6 e0 01 	cmp  %i3, 1
    3104:	02 80 00 28 	be  31a4 <core_list_mergesort.constprop.1+0x14c>
    3108:	c0 21 00 00 	clr  [ %g4 ]
    310c:	b0 10 00 0d 	mov  %o5, %i0
    3110:	80 a6 20 00 	cmp  %i0, 0
    3114:	12 bf ff d5 	bne  3068 <core_list_mergesort.constprop.1+0x10>
    3118:	86 00 c0 03 	add  %g3, %g3, %g3
    311c:	c0 20 20 00 	clr  [ %g0 ]
    3120:	81 c7 e0 08 	ret 
    3124:	81 e8 00 00 	restore 
    3128:	10 bf ff ed 	b  30dc <core_list_mergesort.constprop.1+0x84>
    312c:	88 10 00 1a 	mov  %i2, %g4
    3130:	02 bf ff e4 	be  30c0 <core_list_mergesort.constprop.1+0x68>
    3134:	b4 10 00 1c 	mov  %i4, %i2
    3138:	f4 07 20 04 	ld  [ %i4 + 4 ], %i2
    313c:	c4 06 20 04 	ld  [ %i0 + 4 ], %g2
    3140:	f2 16 80 00 	lduh  [ %i2 ], %i1
    3144:	9f 2e 60 10 	sll  %i1, 0x10, %o7
    3148:	b2 0e 7f 00 	and  %i1, -256, %i1
    314c:	9f 33 e0 18 	srl  %o7, 0x18, %o7
    3150:	b2 13 c0 19 	or  %o7, %i1, %i1
    3154:	f2 36 80 00 	sth  %i1, [ %i2 ]
    3158:	f2 10 80 00 	lduh  [ %g2 ], %i1
    315c:	9f 2e 60 10 	sll  %i1, 0x10, %o7
    3160:	b2 0e 7f 00 	and  %i1, -256, %i1
    3164:	9f 33 e0 18 	srl  %o7, 0x18, %o7
    3168:	b2 13 c0 19 	or  %o7, %i1, %i1
    316c:	f2 30 80 00 	sth  %i1, [ %g2 ]
    3170:	f4 56 a0 02 	ldsh  [ %i2 + 2 ], %i2
    3174:	c4 50 a0 02 	ldsh  [ %g2 + 2 ], %g2
    3178:	b2 26 80 02 	sub  %i2, %g2, %i1
    317c:	80 a6 60 00 	cmp  %i1, 0
    3180:	04 bf ff cf 	ble  30bc <core_list_mergesort.constprop.1+0x64>
    3184:	b4 10 00 18 	mov  %i0, %i2
    3188:	ba 07 7f ff 	add  %i5, -1, %i5
    318c:	10 bf ff cf 	b  30c8 <core_list_mergesort.constprop.1+0x70>
    3190:	f0 06 00 00 	ld  [ %i0 ], %i0
    3194:	04 bf ff d9 	ble  30f8 <core_list_mergesort.constprop.1+0xa0>
    3198:	80 a6 20 00 	cmp  %i0, 0
    319c:	10 bf ff fb 	b  3188 <core_list_mergesort.constprop.1+0x130>
    31a0:	b4 10 00 18 	mov  %i0, %i2
    31a4:	81 c7 e0 08 	ret 
    31a8:	91 e8 00 0d 	restore  %g0, %o5, %o0

000031ac <calc_func>:
    31ac:	9d e3 bf a0 	save  %sp, -96, %sp
    31b0:	fa 16 00 00 	lduh  [ %i0 ], %i5
    31b4:	80 8f 60 80 	btst  0x80, %i5
    31b8:	12 80 00 2e 	bne  3270 <calc_func+0xc4>
    31bc:	83 2f 60 10 	sll  %i5, 0x10, %g1
    31c0:	83 38 60 13 	sra  %g1, 0x13, %g1
    31c4:	84 8f 60 07 	andcc  %i5, 7, %g2
    31c8:	82 08 60 0f 	and  %g1, 0xf, %g1
    31cc:	93 28 60 04 	sll  %g1, 4, %o1
    31d0:	92 12 40 01 	or  %o1, %g1, %o1
    31d4:	02 80 00 17 	be  3230 <calc_func+0x84>
    31d8:	98 10 00 09 	mov  %o1, %o4
    31dc:	80 a0 a0 01 	cmp  %g2, 1
    31e0:	02 80 00 28 	be  3280 <calc_func+0xd4>
    31e4:	b8 10 00 1d 	mov  %i5, %i4
    31e8:	d2 16 60 38 	lduh  [ %i1 + 0x38 ], %o1
    31ec:	40 00 08 0f 	call  5228 <crcu8>
    31f0:	90 0f 20 ff 	and  %i4, 0xff, %o0
    31f4:	83 2f 20 10 	sll  %i4, 0x10, %g1
    31f8:	87 2a 20 10 	sll  %o0, 0x10, %g3
    31fc:	91 30 60 18 	srl  %g1, 0x18, %o0
    3200:	40 00 08 0a 	call  5228 <crcu8>
    3204:	93 30 e0 10 	srl  %g3, 0x10, %o1
    3208:	d0 36 60 38 	sth  %o0, [ %i1 + 0x38 ]
    320c:	88 0f 20 7f 	and  %i4, 0x7f, %g4
    3210:	90 0f 7f 00 	and  %i5, -256, %o0
    3214:	82 10 00 04 	mov  %g4, %g1
    3218:	94 12 20 80 	or  %o0, 0x80, %o2
    321c:	96 12 80 04 	or  %o2, %g4, %o3
    3220:	d6 36 00 00 	sth  %o3, [ %i0 ]
    3224:	b0 08 60 7f 	and  %g1, 0x7f, %i0
    3228:	81 c7 e0 08 	ret 
    322c:	81 e8 00 00 	restore 
    3230:	80 a2 60 21 	cmp  %o1, 0x21
    3234:	24 80 00 02 	ble,a   323c <calc_func+0x90>
    3238:	98 10 20 22 	mov  0x22, %o4
    323c:	d0 06 60 18 	ld  [ %i1 + 0x18 ], %o0
    3240:	d2 06 60 14 	ld  [ %i1 + 0x14 ], %o1
    3244:	d4 56 40 00 	ldsh  [ %i1 ], %o2
    3248:	d6 56 60 02 	ldsh  [ %i1 + 2 ], %o3
    324c:	98 0b 20 ff 	and  %o4, 0xff, %o4
    3250:	40 00 07 73 	call  501c <core_bench_state>
    3254:	da 16 60 38 	lduh  [ %i1 + 0x38 ], %o5
    3258:	c2 16 60 3e 	lduh  [ %i1 + 0x3e ], %g1
    325c:	80 a0 60 00 	cmp  %g1, 0
    3260:	12 bf ff e2 	bne  31e8 <calc_func+0x3c>
    3264:	b8 10 00 08 	mov  %o0, %i4
    3268:	10 bf ff e0 	b  31e8 <calc_func+0x3c>
    326c:	d0 36 60 3e 	sth  %o0, [ %i1 + 0x3e ]
    3270:	82 0f 60 7f 	and  %i5, 0x7f, %g1
    3274:	b0 08 60 7f 	and  %g1, 0x7f, %i0
    3278:	81 c7 e0 08 	ret 
    327c:	81 e8 00 00 	restore 
    3280:	90 06 60 28 	add  %i1, 0x28, %o0
    3284:	40 00 06 07 	call  4aa0 <core_bench_matrix>
    3288:	d4 16 60 38 	lduh  [ %i1 + 0x38 ], %o2
    328c:	c2 16 60 3c 	lduh  [ %i1 + 0x3c ], %g1
    3290:	80 a0 60 00 	cmp  %g1, 0
    3294:	12 bf ff d5 	bne  31e8 <calc_func+0x3c>
    3298:	b8 10 00 08 	mov  %o0, %i4
    329c:	10 bf ff d3 	b  31e8 <calc_func+0x3c>
    32a0:	d0 36 60 3c 	sth  %o0, [ %i1 + 0x3c ]

000032a4 <cmp_complex>:
    32a4:	9d e3 bf a0 	save  %sp, -96, %sp
    32a8:	92 10 00 1a 	mov  %i2, %o1
    32ac:	7f ff ff c0 	call  31ac <calc_func>
    32b0:	90 10 00 18 	mov  %i0, %o0
    32b4:	92 10 00 1a 	mov  %i2, %o1
    32b8:	ba 10 00 08 	mov  %o0, %i5
    32bc:	7f ff ff bc 	call  31ac <calc_func>
    32c0:	90 10 00 19 	mov  %i1, %o0
    32c4:	83 2f 60 10 	sll  %i5, 0x10, %g1
    32c8:	91 2a 20 10 	sll  %o0, 0x10, %o0
    32cc:	85 38 60 10 	sra  %g1, 0x10, %g2
    32d0:	b1 3a 20 10 	sra  %o0, 0x10, %i0
    32d4:	b0 20 80 18 	sub  %g2, %i0, %i0
    32d8:	81 c7 e0 08 	ret 
    32dc:	81 e8 00 00 	restore 

000032e0 <copy_info>:
    32e0:	c4 12 40 00 	lduh  [ %o1 ], %g2
    32e4:	c2 12 60 02 	lduh  [ %o1 + 2 ], %g1
    32e8:	c4 32 00 00 	sth  %g2, [ %o0 ]
    32ec:	81 c3 e0 08 	retl 
    32f0:	c2 32 20 02 	sth  %g1, [ %o0 + 2 ]

000032f4 <core_list_init>:
    32f4:	9d e3 bf a0 	save  %sp, -96, %sp
    32f8:	81 80 20 00 	mov  %g0, %y
    32fc:	01 00 00 00 	nop 
    3300:	01 00 00 00 	nop 
    3304:	01 00 00 00 	nop 
    3308:	b0 76 20 14 	udiv  %i0, 0x14, %i0
    330c:	c0 26 40 00 	clr  [ %i1 ]
    3310:	b6 06 3f fe 	add  %i0, -2, %i3
    3314:	83 2e e0 03 	sll  %i3, 3, %g1
    3318:	ba 06 40 01 	add  %i1, %g1, %i5
    331c:	fa 26 60 04 	st  %i5, [ %i1 + 4 ]
    3320:	05 3f ff e0 	sethi  %hi(0xffff8000), %g2
    3324:	c0 37 60 02 	clrh  [ %i5 + 2 ]
    3328:	86 10 a0 80 	or  %g2, 0x80, %g3
    332c:	c6 36 40 01 	sth  %g3, [ %i1 + %g1 ]
    3330:	89 2e e0 02 	sll  %i3, 2, %g4
    3334:	82 06 60 10 	add  %i1, 0x10, %g1
    3338:	b0 07 40 04 	add  %i5, %g4, %i0
    333c:	86 06 60 08 	add  %i1, 8, %g3
    3340:	b8 07 60 04 	add  %i5, 4, %i4
    3344:	80 a7 40 01 	cmp  %i5, %g1
    3348:	08 80 00 06 	bleu  3360 <core_list_init+0x6c>
    334c:	84 10 20 00 	clr  %g2
    3350:	88 07 60 08 	add  %i5, 8, %g4
    3354:	80 a6 00 04 	cmp  %i0, %g4
    3358:	38 80 00 41 	bgu,a   345c <core_list_init+0x168>
    335c:	c6 26 40 00 	st  %g3, [ %i1 ]
    3360:	80 a6 e0 00 	cmp  %i3, 0
    3364:	02 80 00 21 	be  33e8 <core_list_init+0xf4>
    3368:	01 00 00 00 	nop 
    336c:	17 00 00 1f 	sethi  %hi(0x7c00), %o3
    3370:	94 10 00 1a 	mov  %i2, %o2
    3374:	82 10 20 00 	clr  %g1
    3378:	96 12 e3 ff 	or  %o3, 0x3ff, %o3
    337c:	88 00 e0 08 	add  %g3, 8, %g4
    3380:	80 a7 40 04 	cmp  %i5, %g4
    3384:	28 80 00 16 	bleu,a   33dc <core_list_init+0xe8>
    3388:	82 00 60 01 	inc  %g1
    338c:	9e 07 20 04 	add  %i4, 4, %o7
    3390:	80 a6 00 0f 	cmp  %i0, %o7
    3394:	28 80 00 12 	bleu,a   33dc <core_list_init+0xe8>
    3398:	82 00 60 01 	inc  %g1
    339c:	c4 20 c0 00 	st  %g2, [ %g3 ]
    33a0:	f8 20 e0 04 	st  %i4, [ %g3 + 4 ]
    33a4:	c6 26 40 00 	st  %g3, [ %i1 ]
    33a8:	9a 08 60 07 	and  %g1, 7, %o5
    33ac:	98 18 40 0a 	xor  %g1, %o2, %o4
    33b0:	d6 37 20 02 	sth  %o3, [ %i4 + 2 ]
    33b4:	98 0b 20 0f 	and  %o4, 0xf, %o4
    33b8:	84 10 00 03 	mov  %g3, %g2
    33bc:	99 2b 20 03 	sll  %o4, 3, %o4
    33c0:	86 10 00 04 	mov  %g4, %g3
    33c4:	88 13 00 0d 	or  %o4, %o5, %g4
    33c8:	9b 29 20 08 	sll  %g4, 8, %o5
    33cc:	88 13 40 04 	or  %o5, %g4, %g4
    33d0:	c8 37 00 00 	sth  %g4, [ %i4 ]
    33d4:	b8 10 00 0f 	mov  %o7, %i4
    33d8:	82 00 60 01 	inc  %g1
    33dc:	80 a6 c0 01 	cmp  %i3, %g1
    33e0:	32 bf ff e8 	bne,a   3380 <core_list_init+0x8c>
    33e4:	88 00 e0 08 	add  %g3, 8, %g4
    33e8:	81 80 20 00 	mov  %g0, %y
    33ec:	01 00 00 00 	nop 
    33f0:	01 00 00 00 	nop 
    33f4:	01 00 00 00 	nop 
    33f8:	ba 76 e0 05 	udiv  %i3, 5, %i5
    33fc:	82 10 20 01 	mov  1, %g1
    3400:	37 00 00 0f 	sethi  %hi(0x3c00), %i3
    3404:	88 10 20 02 	mov  2, %g4
    3408:	10 80 00 06 	b  3420 <core_list_init+0x12c>
    340c:	b0 16 e3 ff 	or  %i3, 0x3ff, %i0
    3410:	c2 30 a0 02 	sth  %g1, [ %g2 + 2 ]
    3414:	88 01 20 01 	inc  %g4
    3418:	82 00 60 01 	inc  %g1
    341c:	84 10 00 03 	mov  %g3, %g2
    3420:	c6 00 80 00 	ld  [ %g2 ], %g3
    3424:	80 a0 e0 00 	cmp  %g3, 0
    3428:	02 80 00 0b 	be  3454 <core_list_init+0x160>
    342c:	80 a7 40 01 	cmp  %i5, %g1
    3430:	18 bf ff f8 	bgu  3410 <core_list_init+0x11c>
    3434:	c4 00 a0 04 	ld  [ %g2 + 4 ], %g2
    3438:	b8 09 20 07 	and  %g4, 7, %i4
    343c:	b9 2f 20 08 	sll  %i4, 8, %i4
    3440:	b6 18 40 1a 	xor  %g1, %i2, %i3
    3444:	b6 17 00 1b 	or  %i4, %i3, %i3
    3448:	b8 0e c0 18 	and  %i3, %i0, %i4
    344c:	10 bf ff f2 	b  3414 <core_list_init+0x120>
    3450:	f8 30 a0 02 	sth  %i4, [ %g2 + 2 ]
    3454:	7f ff ff 01 	call  3058 <core_list_mergesort.constprop.1>
    3458:	91 e8 00 19 	restore  %g0, %i1, %o0
    345c:	f8 26 60 0c 	st  %i4, [ %i1 + 0xc ]
    3460:	c0 26 60 08 	clr  [ %i1 + 8 ]
    3464:	b8 10 3f ff 	mov  -1, %i4
    3468:	84 10 00 03 	mov  %g3, %g2
    346c:	f8 37 60 04 	sth  %i4, [ %i5 + 4 ]
    3470:	07 00 00 1f 	sethi  %hi(0x7c00), %g3
    3474:	b8 10 e3 ff 	or  %g3, 0x3ff, %i4	! 7fff <__ajit_ta_0__+0x14f>
    3478:	86 10 00 01 	mov  %g1, %g3
    347c:	f8 37 60 06 	sth  %i4, [ %i5 + 6 ]
    3480:	10 bf ff b8 	b  3360 <core_list_init+0x6c>
    3484:	b8 10 00 04 	mov  %g4, %i4

00003488 <core_list_insert_new>:
    3488:	c2 02 80 00 	ld  [ %o2 ], %g1
    348c:	84 00 60 08 	add  %g1, 8, %g2
    3490:	80 a0 80 0c 	cmp  %g2, %o4
    3494:	3a 80 00 17 	bcc,a   34f0 <core_list_insert_new+0x68>
    3498:	82 10 20 00 	clr  %g1
    349c:	c6 02 c0 00 	ld  [ %o3 ], %g3
    34a0:	88 00 e0 04 	add  %g3, 4, %g4
    34a4:	80 a3 40 04 	cmp  %o5, %g4
    34a8:	28 80 00 12 	bleu,a   34f0 <core_list_insert_new+0x68>
    34ac:	82 10 20 00 	clr  %g1
    34b0:	c4 22 80 00 	st  %g2, [ %o2 ]
    34b4:	d4 02 00 00 	ld  [ %o0 ], %o2
    34b8:	d4 20 40 00 	st  %o2, [ %g1 ]
    34bc:	c2 22 00 00 	st  %g1, [ %o0 ]
    34c0:	d0 02 c0 00 	ld  [ %o3 ], %o0
    34c4:	d0 20 60 04 	st  %o0, [ %g1 + 4 ]
    34c8:	d8 02 c0 00 	ld  [ %o3 ], %o4
    34cc:	9a 03 20 04 	add  %o4, 4, %o5
    34d0:	da 22 c0 00 	st  %o5, [ %o3 ]
    34d4:	90 10 00 01 	mov  %g1, %o0
    34d8:	d6 12 40 00 	lduh  [ %o1 ], %o3
    34dc:	c4 00 60 04 	ld  [ %g1 + 4 ], %g2
    34e0:	d2 12 60 02 	lduh  [ %o1 + 2 ], %o1
    34e4:	d6 30 80 00 	sth  %o3, [ %g2 ]
    34e8:	81 c3 e0 08 	retl 
    34ec:	d2 30 a0 02 	sth  %o1, [ %g2 + 2 ]
    34f0:	81 c3 e0 08 	retl 
    34f4:	90 10 00 01 	mov  %g1, %o0

000034f8 <core_list_remove>:
    34f8:	c2 02 00 00 	ld  [ %o0 ], %g1
    34fc:	c4 02 20 04 	ld  [ %o0 + 4 ], %g2
    3500:	c8 00 60 04 	ld  [ %g1 + 4 ], %g4
    3504:	c6 00 40 00 	ld  [ %g1 ], %g3
    3508:	c8 22 20 04 	st  %g4, [ %o0 + 4 ]
    350c:	c6 22 00 00 	st  %g3, [ %o0 ]
    3510:	c4 20 60 04 	st  %g2, [ %g1 + 4 ]
    3514:	c0 20 40 00 	clr  [ %g1 ]
    3518:	81 c3 e0 08 	retl 
    351c:	90 10 00 01 	mov  %g1, %o0

00003520 <core_list_undo_remove>:
    3520:	c4 02 20 04 	ld  [ %o0 + 4 ], %g2
    3524:	c8 02 60 04 	ld  [ %o1 + 4 ], %g4
    3528:	c6 02 40 00 	ld  [ %o1 ], %g3
    352c:	c8 22 20 04 	st  %g4, [ %o0 + 4 ]
    3530:	c6 22 00 00 	st  %g3, [ %o0 ]
    3534:	c4 22 60 04 	st  %g2, [ %o1 + 4 ]
    3538:	81 c3 e0 08 	retl 
    353c:	d0 22 40 00 	st  %o0, [ %o1 ]

00003540 <core_list_find>:
    3540:	c4 52 60 02 	ldsh  [ %o1 + 2 ], %g2
    3544:	80 a0 a0 00 	cmp  %g2, 0
    3548:	06 80 00 14 	bl  3598 <core_list_find+0x58>
    354c:	80 a2 20 00 	cmp  %o0, 0
    3550:	02 80 00 23 	be  35dc <core_list_find+0x9c>
    3554:	01 00 00 00 	nop 
    3558:	c2 02 20 04 	ld  [ %o0 + 4 ], %g1
    355c:	c2 50 60 02 	ldsh  [ %g1 + 2 ], %g1
    3560:	80 a0 80 01 	cmp  %g2, %g1
    3564:	32 80 00 08 	bne,a   3584 <core_list_find+0x44>
    3568:	d0 02 00 00 	ld  [ %o0 ], %o0
    356c:	30 80 00 1c 	b,a   35dc <core_list_find+0x9c>
    3570:	c2 50 60 02 	ldsh  [ %g1 + 2 ], %g1
    3574:	80 a0 80 01 	cmp  %g2, %g1
    3578:	02 80 00 19 	be  35dc <core_list_find+0x9c>
    357c:	01 00 00 00 	nop 
    3580:	d0 02 00 00 	ld  [ %o0 ], %o0
    3584:	80 a2 20 00 	cmp  %o0, 0
    3588:	32 bf ff fa 	bne,a   3570 <core_list_find+0x30>
    358c:	c2 02 20 04 	ld  [ %o0 + 4 ], %g1
    3590:	81 c3 e0 08 	retl 
    3594:	01 00 00 00 	nop 
    3598:	02 80 00 11 	be  35dc <core_list_find+0x9c>
    359c:	01 00 00 00 	nop 
    35a0:	c6 52 40 00 	ldsh  [ %o1 ], %g3
    35a4:	c2 02 20 04 	ld  [ %o0 + 4 ], %g1
    35a8:	c2 08 60 01 	ldub  [ %g1 + 1 ], %g1
    35ac:	80 a0 40 03 	cmp  %g1, %g3
    35b0:	32 80 00 08 	bne,a   35d0 <core_list_find+0x90>
    35b4:	d0 02 00 00 	ld  [ %o0 ], %o0
    35b8:	30 80 00 09 	b,a   35dc <core_list_find+0x9c>
    35bc:	c2 08 60 01 	ldub  [ %g1 + 1 ], %g1
    35c0:	80 a0 40 03 	cmp  %g1, %g3
    35c4:	02 80 00 06 	be  35dc <core_list_find+0x9c>
    35c8:	01 00 00 00 	nop 
    35cc:	d0 02 00 00 	ld  [ %o0 ], %o0
    35d0:	80 a2 20 00 	cmp  %o0, 0
    35d4:	32 bf ff fa 	bne,a   35bc <core_list_find+0x7c>
    35d8:	c2 02 20 04 	ld  [ %o0 + 4 ], %g1
    35dc:	81 c3 e0 08 	retl 
    35e0:	01 00 00 00 	nop 

000035e4 <core_list_reverse>:
    35e4:	80 a2 20 00 	cmp  %o0, 0
    35e8:	02 80 00 0c 	be  3618 <core_list_reverse+0x34>
    35ec:	84 10 20 00 	clr  %g2
    35f0:	10 80 00 04 	b  3600 <core_list_reverse+0x1c>
    35f4:	c2 02 00 00 	ld  [ %o0 ], %g1
    35f8:	90 10 00 01 	mov  %g1, %o0
    35fc:	c2 02 00 00 	ld  [ %o0 ], %g1
    3600:	c4 22 00 00 	st  %g2, [ %o0 ]
    3604:	80 a0 60 00 	cmp  %g1, 0
    3608:	12 bf ff fc 	bne  35f8 <core_list_reverse+0x14>
    360c:	84 10 00 08 	mov  %o0, %g2
    3610:	81 c3 e0 08 	retl 
    3614:	01 00 00 00 	nop 
    3618:	81 c3 e0 08 	retl 
    361c:	90 10 20 00 	clr  %o0	! 0 <_start>

00003620 <core_list_mergesort>:
    3620:	9d e3 bf a0 	save  %sp, -96, %sp
    3624:	80 a6 20 00 	cmp  %i0, 0
    3628:	02 80 00 2d 	be  36dc <core_list_mergesort+0xbc>
    362c:	b6 10 20 01 	mov  1, %i3
    3630:	a2 10 00 18 	mov  %i0, %l1
    3634:	a6 10 20 00 	clr  %l3
    3638:	a0 10 20 00 	clr  %l0
    363c:	b0 10 20 00 	clr  %i0
    3640:	a6 04 e0 01 	inc  %l3
    3644:	ba 10 00 11 	mov  %l1, %i5
    3648:	b8 10 20 00 	clr  %i4
    364c:	fa 07 40 00 	ld  [ %i5 ], %i5
    3650:	80 a7 60 00 	cmp  %i5, 0
    3654:	02 80 00 05 	be  3668 <core_list_mergesort+0x48>
    3658:	b8 07 20 01 	inc  %i4
    365c:	80 a6 c0 1c 	cmp  %i3, %i4
    3660:	34 bf ff fc 	bg,a   3650 <core_list_mergesort+0x30>
    3664:	fa 07 40 00 	ld  [ %i5 ], %i5
    3668:	80 a7 20 00 	cmp  %i4, 0
    366c:	02 80 00 10 	be  36ac <core_list_mergesort+0x8c>
    3670:	a4 10 00 1b 	mov  %i3, %l2
    3674:	80 a7 60 00 	cmp  %i5, 0
    3678:	12 80 00 1e 	bne  36f0 <core_list_mergesort+0xd0>
    367c:	80 a4 a0 00 	cmp  %l2, 0
    3680:	82 10 00 11 	mov  %l1, %g1
    3684:	b8 07 3f ff 	add  %i4, -1, %i4
    3688:	e2 04 40 00 	ld  [ %l1 ], %l1
    368c:	80 a4 20 00 	cmp  %l0, 0
    3690:	22 80 00 16 	be,a   36e8 <core_list_mergesort+0xc8>
    3694:	b0 10 00 01 	mov  %g1, %i0
    3698:	c2 24 00 00 	st  %g1, [ %l0 ]
    369c:	a0 10 00 01 	mov  %g1, %l0
    36a0:	80 a7 20 00 	cmp  %i4, 0
    36a4:	12 bf ff f5 	bne  3678 <core_list_mergesort+0x58>
    36a8:	80 a7 60 00 	cmp  %i5, 0
    36ac:	80 a7 60 00 	cmp  %i5, 0
    36b0:	12 80 00 1c 	bne  3720 <core_list_mergesort+0x100>
    36b4:	80 a4 a0 00 	cmp  %l2, 0
    36b8:	a2 97 60 00 	orcc  %i5, 0, %l1
    36bc:	32 bf ff e2 	bne,a   3644 <core_list_mergesort+0x24>
    36c0:	a6 04 e0 01 	inc  %l3
    36c4:	80 a4 e0 01 	cmp  %l3, 1
    36c8:	02 80 00 06 	be  36e0 <core_list_mergesort+0xc0>
    36cc:	c0 24 00 00 	clr  [ %l0 ]
    36d0:	80 a6 20 00 	cmp  %i0, 0
    36d4:	12 bf ff d7 	bne  3630 <core_list_mergesort+0x10>
    36d8:	b6 06 c0 1b 	add  %i3, %i3, %i3
    36dc:	c0 20 20 00 	clr  [ %g0 ]
    36e0:	81 c7 e0 08 	ret 
    36e4:	81 e8 00 00 	restore 
    36e8:	10 bf ff ee 	b  36a0 <core_list_mergesort+0x80>
    36ec:	a0 10 00 01 	mov  %g1, %l0
    36f0:	02 bf ff e5 	be  3684 <core_list_mergesort+0x64>
    36f4:	82 10 00 11 	mov  %l1, %g1
    36f8:	d0 04 60 04 	ld  [ %l1 + 4 ], %o0
    36fc:	d2 07 60 04 	ld  [ %i5 + 4 ], %o1
    3700:	9f c6 40 00 	call  %i1
    3704:	94 10 00 1a 	mov  %i2, %o2
    3708:	80 a2 20 00 	cmp  %o0, 0
    370c:	04 bf ff dd 	ble  3680 <core_list_mergesort+0x60>
    3710:	82 10 00 1d 	mov  %i5, %g1
    3714:	a4 04 bf ff 	add  %l2, -1, %l2
    3718:	10 bf ff dd 	b  368c <core_list_mergesort+0x6c>
    371c:	fa 07 40 00 	ld  [ %i5 ], %i5
    3720:	24 bf ff e7 	ble,a   36bc <core_list_mergesort+0x9c>
    3724:	a2 97 60 00 	orcc  %i5, 0, %l1
    3728:	10 bf ff fb 	b  3714 <core_list_mergesort+0xf4>
    372c:	82 10 00 1d 	mov  %i5, %g1

00003730 <core_bench_list>:
    3730:	9d e3 bf a0 	save  %sp, -96, %sp
    3734:	da 56 20 04 	ldsh  [ %i0 + 4 ], %o5
    3738:	80 a3 60 00 	cmp  %o5, 0
    373c:	04 80 00 c6 	ble  3a54 <core_bench_list+0x324>
    3740:	fa 06 20 24 	ld  [ %i0 + 0x24 ], %i5
    3744:	b4 10 00 19 	mov  %i1, %i2
    3748:	88 10 20 00 	clr  %g4
    374c:	98 10 20 00 	clr  %o4
    3750:	9e 10 20 00 	clr  %o7
    3754:	b8 10 20 00 	clr  %i4
    3758:	b7 2e a0 10 	sll  %i2, 0x10, %i3
    375c:	82 09 20 ff 	and  %g4, 0xff, %g1
    3760:	87 3e e0 10 	sra  %i3, 0x10, %g3
    3764:	80 a0 e0 00 	cmp  %g3, 0
    3768:	06 80 00 84 	bl  3978 <core_bench_list+0x248>
    376c:	a0 10 00 01 	mov  %g1, %l0
    3770:	80 a7 60 00 	cmp  %i5, 0
    3774:	22 80 00 96 	be,a   39cc <core_bench_list+0x29c>
    3778:	c2 07 40 00 	ld  [ %i5 ], %g1
    377c:	c2 07 60 04 	ld  [ %i5 + 4 ], %g1
    3780:	d4 50 60 02 	ldsh  [ %g1 + 2 ], %o2
    3784:	80 a0 c0 0a 	cmp  %g3, %o2
    3788:	12 80 00 08 	bne  37a8 <core_bench_list+0x78>
    378c:	82 10 00 1d 	mov  %i5, %g1
    3790:	10 80 00 0e 	b  37c8 <core_bench_list+0x98>
    3794:	86 10 20 00 	clr  %g3
    3798:	d0 52 e0 02 	ldsh  [ %o3 + 2 ], %o0
    379c:	80 a0 c0 08 	cmp  %g3, %o0
    37a0:	22 80 00 0a 	be,a   37c8 <core_bench_list+0x98>
    37a4:	86 10 20 00 	clr  %g3
    37a8:	c2 00 40 00 	ld  [ %g1 ], %g1
    37ac:	80 a0 60 00 	cmp  %g1, 0
    37b0:	32 bf ff fa 	bne,a   3798 <core_bench_list+0x68>
    37b4:	d6 00 60 04 	ld  [ %g1 + 4 ], %o3
    37b8:	82 10 20 00 	clr  %g1
    37bc:	10 80 00 03 	b  37c8 <core_bench_list+0x98>
    37c0:	86 10 20 00 	clr  %g3
    37c4:	ba 10 00 02 	mov  %g2, %i5
    37c8:	c4 07 40 00 	ld  [ %i5 ], %g2
    37cc:	c6 27 40 00 	st  %g3, [ %i5 ]
    37d0:	80 a0 a0 00 	cmp  %g2, 0
    37d4:	12 bf ff fc 	bne  37c4 <core_bench_list+0x94>
    37d8:	86 10 00 1d 	mov  %i5, %g3
    37dc:	80 a0 60 00 	cmp  %g1, 0
    37e0:	22 80 00 7b 	be,a   39cc <core_bench_list+0x29c>
    37e4:	c2 07 40 00 	ld  [ %i5 ], %g1
    37e8:	d2 00 60 04 	ld  [ %g1 + 4 ], %o1
    37ec:	d4 12 40 00 	lduh  [ %o1 ], %o2
    37f0:	80 8a a0 01 	btst  1, %o2
    37f4:	02 80 00 05 	be  3808 <core_bench_list+0xd8>
    37f8:	9e 03 e0 01 	inc  %o7
    37fc:	97 32 a0 09 	srl  %o2, 9, %o3
    3800:	90 0a e0 01 	and  %o3, 1, %o0
    3804:	b8 02 00 1c 	add  %o0, %i4, %i4
    3808:	c4 00 40 00 	ld  [ %g1 ], %g2
    380c:	80 a0 a0 00 	cmp  %g2, 0
    3810:	02 80 00 08 	be  3830 <core_bench_list+0x100>
    3814:	80 a6 e0 00 	cmp  %i3, 0
    3818:	c6 00 80 00 	ld  [ %g2 ], %g3
    381c:	c6 20 40 00 	st  %g3, [ %g1 ]
    3820:	c2 07 40 00 	ld  [ %i5 ], %g1
    3824:	c2 20 80 00 	st  %g1, [ %g2 ]
    3828:	c4 27 40 00 	st  %g2, [ %i5 ]
    382c:	80 a6 e0 00 	cmp  %i3, 0
    3830:	06 80 00 04 	bl  3840 <core_bench_list+0x110>
    3834:	88 01 20 01 	inc  %g4
    3838:	b4 06 a0 01 	inc  %i2
    383c:	b7 2e a0 10 	sll  %i2, 0x10, %i3
    3840:	83 29 20 10 	sll  %g4, 0x10, %g1
    3844:	83 38 60 10 	sra  %g1, 0x10, %g1
    3848:	80 a0 40 0d 	cmp  %g1, %o5
    384c:	12 bf ff c5 	bne  3760 <core_bench_list+0x30>
    3850:	82 09 20 ff 	and  %g4, 0xff, %g1
    3854:	9b 2b e0 02 	sll  %o7, 2, %o5
    3858:	98 23 40 0c 	sub  %o5, %o4, %o4
    385c:	b8 03 00 1c 	add  %o4, %i4, %i4
    3860:	80 a6 60 00 	cmp  %i1, 0
    3864:	04 80 00 07 	ble  3880 <core_bench_list+0x150>
    3868:	90 10 00 1d 	mov  %i5, %o0
    386c:	94 10 00 18 	mov  %i0, %o2
    3870:	31 00 00 0c 	sethi  %hi(0x3000), %i0
    3874:	7f ff ff 6b 	call  3620 <core_list_mergesort>
    3878:	92 16 22 a4 	or  %i0, 0x2a4, %o1	! 32a4 <cmp_complex>
    387c:	ba 10 00 08 	mov  %o0, %i5
    3880:	c2 07 40 00 	ld  [ %i5 ], %g1
    3884:	f4 00 40 00 	ld  [ %g1 ], %i2
    3888:	d0 00 60 04 	ld  [ %g1 + 4 ], %o0
    388c:	f2 06 a0 04 	ld  [ %i2 + 4 ], %i1
    3890:	d2 06 80 00 	ld  [ %i2 ], %o1
    3894:	f2 20 60 04 	st  %i1, [ %g1 + 4 ]
    3898:	d2 20 40 00 	st  %o1, [ %g1 ]
    389c:	d0 26 a0 04 	st  %o0, [ %i2 + 4 ]
    38a0:	c0 26 80 00 	clr  [ %i2 ]
    38a4:	b7 3e e0 10 	sra  %i3, 0x10, %i3
    38a8:	80 a6 e0 00 	cmp  %i3, 0
    38ac:	06 80 00 59 	bl  3a10 <core_bench_list+0x2e0>
    38b0:	82 10 00 1d 	mov  %i5, %g1
    38b4:	de 00 60 04 	ld  [ %g1 + 4 ], %o7
    38b8:	d4 53 e0 02 	ldsh  [ %o7 + 2 ], %o2
    38bc:	80 a6 c0 0a 	cmp  %i3, %o2
    38c0:	22 80 00 49 	be,a   39e4 <core_bench_list+0x2b4>
    38c4:	b0 10 00 01 	mov  %g1, %i0
    38c8:	c2 00 40 00 	ld  [ %g1 ], %g1
    38cc:	80 a0 60 00 	cmp  %g1, 0
    38d0:	32 bf ff fa 	bne,a   38b8 <core_bench_list+0x188>
    38d4:	de 00 60 04 	ld  [ %g1 + 4 ], %o7
    38d8:	c2 07 40 00 	ld  [ %i5 ], %g1
    38dc:	b0 90 60 00 	orcc  %g1, 0, %i0
    38e0:	22 80 00 0e 	be,a   3918 <core_bench_list+0x1e8>
    38e4:	c6 00 60 04 	ld  [ %g1 + 4 ], %g3
    38e8:	97 2f 20 10 	sll  %i4, 0x10, %o3
    38ec:	c2 07 60 04 	ld  [ %i5 + 4 ], %g1
    38f0:	93 32 e0 10 	srl  %o3, 0x10, %o1
    38f4:	40 00 06 99 	call  5358 <crc16>
    38f8:	d0 50 40 00 	ldsh  [ %g1 ], %o0
    38fc:	f0 06 00 00 	ld  [ %i0 ], %i0
    3900:	80 a6 20 00 	cmp  %i0, 0
    3904:	12 80 00 38 	bne  39e4 <core_bench_list+0x2b4>
    3908:	b8 10 00 08 	mov  %o0, %i4
    390c:	d0 06 a0 04 	ld  [ %i2 + 4 ], %o0
    3910:	c2 07 40 00 	ld  [ %i5 ], %g1
    3914:	c6 00 60 04 	ld  [ %g1 + 4 ], %g3
    3918:	c4 00 40 00 	ld  [ %g1 ], %g2
    391c:	c6 26 a0 04 	st  %g3, [ %i2 + 4 ]
    3920:	c4 26 80 00 	st  %g2, [ %i2 ]
    3924:	d0 20 60 04 	st  %o0, [ %g1 + 4 ]
    3928:	f4 20 40 00 	st  %i2, [ %g1 ]
    392c:	7f ff fd cb 	call  3058 <core_list_mergesort.constprop.1>
    3930:	90 10 00 1d 	mov  %i5, %o0
    3934:	e0 02 00 00 	ld  [ %o0 ], %l0
    3938:	80 a4 20 00 	cmp  %l0, 0
    393c:	02 80 00 0b 	be  3968 <core_bench_list+0x238>
    3940:	b2 10 00 08 	mov  %o0, %i1
    3944:	c2 06 60 04 	ld  [ %i1 + 4 ], %g1
    3948:	b9 2f 20 10 	sll  %i4, 0x10, %i4
    394c:	d0 50 40 00 	ldsh  [ %g1 ], %o0
    3950:	40 00 06 82 	call  5358 <crc16>
    3954:	93 37 20 10 	srl  %i4, 0x10, %o1
    3958:	e0 04 00 00 	ld  [ %l0 ], %l0
    395c:	80 a4 20 00 	cmp  %l0, 0
    3960:	12 bf ff f9 	bne  3944 <core_bench_list+0x214>
    3964:	b8 10 00 08 	mov  %o0, %i4
    3968:	89 2f 20 10 	sll  %i4, 0x10, %g4
    396c:	b1 31 20 10 	srl  %g4, 0x10, %i0
    3970:	81 c7 e0 08 	ret 
    3974:	81 e8 00 00 	restore 
    3978:	80 a7 60 00 	cmp  %i5, 0
    397c:	02 80 00 13 	be  39c8 <core_bench_list+0x298>
    3980:	90 10 00 01 	mov  %g1, %o0
    3984:	c2 07 60 04 	ld  [ %i5 + 4 ], %g1
    3988:	c2 08 60 01 	ldub  [ %g1 + 1 ], %g1
    398c:	80 a0 40 08 	cmp  %g1, %o0
    3990:	12 80 00 08 	bne  39b0 <core_bench_list+0x280>
    3994:	82 10 00 1d 	mov  %i5, %g1
    3998:	10 bf ff 8c 	b  37c8 <core_bench_list+0x98>
    399c:	86 10 20 00 	clr  %g3
    39a0:	d2 08 a0 01 	ldub  [ %g2 + 1 ], %o1
    39a4:	80 a2 40 08 	cmp  %o1, %o0
    39a8:	02 bf ff 88 	be  37c8 <core_bench_list+0x98>
    39ac:	86 10 20 00 	clr  %g3
    39b0:	c2 00 40 00 	ld  [ %g1 ], %g1
    39b4:	80 a0 60 00 	cmp  %g1, 0
    39b8:	32 bf ff fa 	bne,a   39a0 <core_bench_list+0x270>
    39bc:	c4 00 60 04 	ld  [ %g1 + 4 ], %g2
    39c0:	10 bf ff 82 	b  37c8 <core_bench_list+0x98>
    39c4:	86 10 20 00 	clr  %g3
    39c8:	c2 07 40 00 	ld  [ %i5 ], %g1
    39cc:	98 03 20 01 	inc  %o4
    39d0:	c2 00 60 04 	ld  [ %g1 + 4 ], %g1
    39d4:	c2 48 40 00 	ldsb  [ %g1 ], %g1
    39d8:	82 08 60 01 	and  %g1, 1, %g1
    39dc:	10 bf ff 94 	b  382c <core_bench_list+0xfc>
    39e0:	b8 00 40 1c 	add  %g1, %i4, %i4
    39e4:	97 2f 20 10 	sll  %i4, 0x10, %o3
    39e8:	c2 07 60 04 	ld  [ %i5 + 4 ], %g1
    39ec:	93 32 e0 10 	srl  %o3, 0x10, %o1
    39f0:	40 00 06 5a 	call  5358 <crc16>
    39f4:	d0 50 40 00 	ldsh  [ %g1 ], %o0
    39f8:	f0 06 00 00 	ld  [ %i0 ], %i0
    39fc:	80 a6 20 00 	cmp  %i0, 0
    3a00:	12 bf ff f9 	bne  39e4 <core_bench_list+0x2b4>
    3a04:	b8 10 00 08 	mov  %o0, %i4
    3a08:	10 bf ff c2 	b  3910 <core_bench_list+0x1e0>
    3a0c:	d0 06 a0 04 	ld  [ %i2 + 4 ], %o0
    3a10:	a0 0c 20 ff 	and  %l0, 0xff, %l0
    3a14:	b0 10 00 1d 	mov  %i5, %i0
    3a18:	c2 06 20 04 	ld  [ %i0 + 4 ], %g1
    3a1c:	c2 08 60 01 	ldub  [ %g1 + 1 ], %g1
    3a20:	80 a0 40 10 	cmp  %g1, %l0
    3a24:	02 bf ff f1 	be  39e8 <core_bench_list+0x2b8>
    3a28:	97 2f 20 10 	sll  %i4, 0x10, %o3
    3a2c:	f0 06 00 00 	ld  [ %i0 ], %i0
    3a30:	80 a6 20 00 	cmp  %i0, 0
    3a34:	32 bf ff fa 	bne,a   3a1c <core_bench_list+0x2ec>
    3a38:	c2 06 20 04 	ld  [ %i0 + 4 ], %g1
    3a3c:	c2 07 40 00 	ld  [ %i5 ], %g1
    3a40:	b0 90 60 00 	orcc  %g1, 0, %i0
    3a44:	32 bf ff ab 	bne,a   38f0 <core_bench_list+0x1c0>
    3a48:	c2 07 60 04 	ld  [ %i5 + 4 ], %g1
    3a4c:	10 bf ff b3 	b  3918 <core_bench_list+0x1e8>
    3a50:	c6 00 60 04 	ld  [ %g1 + 4 ], %g3
    3a54:	b8 10 20 00 	clr  %i4
    3a58:	a0 10 20 00 	clr  %l0
    3a5c:	10 bf ff 81 	b  3860 <core_bench_list+0x130>
    3a60:	b7 2e 60 10 	sll  %i1, 0x10, %i3

00003a64 <iterate>:
    3a64:	9d e3 bf a0 	save  %sp, -96, %sp
    3a68:	11 00 00 80 	sethi  %hi(0x20000), %o0
    3a6c:	f8 06 20 1c 	ld  [ %i0 + 0x1c ], %i4
    3a70:	c0 36 20 38 	clrh  [ %i0 + 0x38 ]
    3a74:	c0 36 20 3a 	clrh  [ %i0 + 0x3a ]
    3a78:	c0 36 20 3c 	clrh  [ %i0 + 0x3c ]
    3a7c:	c0 36 20 3e 	clrh  [ %i0 + 0x3e ]
    3a80:	90 12 20 20 	or  %o0, 0x20, %o0
    3a84:	40 00 09 49 	call  5fa8 <ee_printf>
    3a88:	92 10 00 1c 	mov  %i4, %o1
    3a8c:	80 a7 20 00 	cmp  %i4, 0
    3a90:	02 80 00 19 	be  3af4 <iterate+0x90>
    3a94:	ba 10 20 00 	clr  %i5
    3a98:	92 10 20 01 	mov  1, %o1
    3a9c:	7f ff ff 25 	call  3730 <core_bench_list>
    3aa0:	90 10 00 18 	mov  %i0, %o0
    3aa4:	83 2a 20 10 	sll  %o0, 0x10, %g1
    3aa8:	d2 16 20 38 	lduh  [ %i0 + 0x38 ], %o1
    3aac:	40 00 05 f9 	call  5290 <crcu16>
    3ab0:	91 30 60 10 	srl  %g1, 0x10, %o0
    3ab4:	92 10 3f ff 	mov  -1, %o1
    3ab8:	d0 36 20 38 	sth  %o0, [ %i0 + 0x38 ]
    3abc:	7f ff ff 1d 	call  3730 <core_bench_list>
    3ac0:	90 10 00 18 	mov  %i0, %o0
    3ac4:	85 2a 20 10 	sll  %o0, 0x10, %g2
    3ac8:	d2 16 20 38 	lduh  [ %i0 + 0x38 ], %o1
    3acc:	40 00 05 f1 	call  5290 <crcu16>
    3ad0:	91 30 a0 10 	srl  %g2, 0x10, %o0
    3ad4:	80 a7 60 00 	cmp  %i5, 0
    3ad8:	12 80 00 03 	bne  3ae4 <iterate+0x80>
    3adc:	d0 36 20 38 	sth  %o0, [ %i0 + 0x38 ]
    3ae0:	d0 36 20 3a 	sth  %o0, [ %i0 + 0x3a ]
    3ae4:	ba 07 60 01 	inc  %i5
    3ae8:	80 a7 40 1c 	cmp  %i5, %i4
    3aec:	12 bf ff ec 	bne  3a9c <iterate+0x38>
    3af0:	92 10 20 01 	mov  1, %o1
    3af4:	81 c7 e0 08 	ret 
    3af8:	91 e8 20 00 	restore  %g0, 0, %o0

00003afc <ajit_main>:
    3afc:	9d e3 bf 40 	save  %sp, -192, %sp
    3b00:	40 00 04 21 	call  4b84 <portable_init>
    3b04:	90 07 bf fa 	add  %fp, -6, %o0
    3b08:	40 00 05 aa 	call  51b0 <get_seed_32>
    3b0c:	90 10 20 01 	mov  1, %o0
    3b10:	d0 37 bf b8 	sth  %o0, [ %fp + -72 ]
    3b14:	40 00 05 a7 	call  51b0 <get_seed_32>
    3b18:	90 10 20 02 	mov  2, %o0
    3b1c:	d0 37 bf ba 	sth  %o0, [ %fp + -70 ]
    3b20:	40 00 05 a4 	call  51b0 <get_seed_32>
    3b24:	90 10 20 03 	mov  3, %o0
    3b28:	d0 37 bf bc 	sth  %o0, [ %fp + -68 ]
    3b2c:	40 00 05 a1 	call  51b0 <get_seed_32>
    3b30:	90 10 20 04 	mov  4, %o0
    3b34:	d0 27 bf d4 	st  %o0, [ %fp + -44 ]
    3b38:	40 00 05 9e 	call  51b0 <get_seed_32>
    3b3c:	90 10 20 05 	mov  5, %o0
    3b40:	80 a2 20 00 	cmp  %o0, 0
    3b44:	02 80 00 04 	be  3b54 <ajit_main+0x58>
    3b48:	82 10 20 07 	mov  7, %g1
    3b4c:	10 80 00 03 	b  3b58 <ajit_main+0x5c>
    3b50:	d0 27 bf d8 	st  %o0, [ %fp + -40 ]
    3b54:	c2 27 bf d8 	st  %g1, [ %fp + -40 ]
    3b58:	c2 07 bf b8 	ld  [ %fp + -72 ], %g1
    3b5c:	80 a0 60 00 	cmp  %g1, 0
    3b60:	12 80 00 0b 	bne  3b8c <ajit_main+0x90>
    3b64:	03 00 00 40 	sethi  %hi(0x10000), %g1
    3b68:	c2 57 bf bc 	ldsh  [ %fp + -68 ], %g1
    3b6c:	80 a0 60 00 	cmp  %g1, 0
    3b70:	12 80 00 16 	bne  3bc8 <ajit_main+0xcc>
    3b74:	82 10 27 d0 	mov  0x7d0, %g1
    3b78:	82 10 20 66 	mov  0x66, %g1
    3b7c:	c0 37 bf ba 	clrh  [ %fp + -70 ]
    3b80:	c0 37 bf b8 	clrh  [ %fp + -72 ]
    3b84:	c2 37 bf bc 	sth  %g1, [ %fp + -68 ]
    3b88:	03 00 00 40 	sethi  %hi(0x10000), %g1
    3b8c:	c4 07 bf b8 	ld  [ %fp + -72 ], %g2
    3b90:	80 a0 80 01 	cmp  %g2, %g1
    3b94:	12 80 00 0d 	bne  3bc8 <ajit_main+0xcc>
    3b98:	82 10 27 d0 	mov  0x7d0, %g1
    3b9c:	c2 57 bf bc 	ldsh  [ %fp + -68 ], %g1
    3ba0:	80 a0 60 00 	cmp  %g1, 0
    3ba4:	12 80 00 09 	bne  3bc8 <ajit_main+0xcc>
    3ba8:	82 10 27 d0 	mov  0x7d0, %g1
    3bac:	86 10 20 66 	mov  0x66, %g3
    3bb0:	03 00 00 0d 	sethi  %hi(0x3400), %g1
    3bb4:	c6 37 bf bc 	sth  %g3, [ %fp + -68 ]
    3bb8:	82 10 60 15 	or  %g1, 0x15, %g1
    3bbc:	c2 37 bf b8 	sth  %g1, [ %fp + -72 ]
    3bc0:	c2 37 bf ba 	sth  %g1, [ %fp + -70 ]
    3bc4:	82 10 27 d0 	mov  0x7d0, %g1
    3bc8:	c0 37 bf f8 	clrh  [ %fp + -8 ]
    3bcc:	c2 27 bf d0 	st  %g1, [ %fp + -48 ]
    3bd0:	03 00 00 81 	sethi  %hi(0x20400), %g1
    3bd4:	82 10 63 10 	or  %g1, 0x310, %g1	! 20710 <static_memblk>
    3bd8:	c2 27 bf c0 	st  %g1, [ %fp + -64 ]
    3bdc:	c2 07 bf d8 	ld  [ %fp + -40 ], %g1
    3be0:	88 08 60 01 	and  %g1, 1, %g4
    3be4:	80 88 60 02 	btst  2, %g1
    3be8:	02 80 00 03 	be  3bf4 <ajit_main+0xf8>
    3bec:	90 10 00 04 	mov  %g4, %o0
    3bf0:	90 01 20 01 	add  %g4, 1, %o0
    3bf4:	80 88 60 04 	btst  4, %g1
    3bf8:	32 80 00 02 	bne,a   3c00 <ajit_main+0x104>
    3bfc:	90 02 20 01 	inc  %o0
    3c00:	93 2a 20 10 	sll  %o0, 0x10, %o1
    3c04:	f8 07 bf d8 	ld  [ %fp + -40 ], %i4
    3c08:	81 80 20 00 	mov  %g0, %y
    3c0c:	83 32 60 10 	srl  %o1, 0x10, %g1
    3c10:	f6 07 bf d0 	ld  [ %fp + -48 ], %i3
    3c14:	01 00 00 00 	nop 
    3c18:	01 00 00 00 	nop 
    3c1c:	b6 76 c0 01 	udiv  %i3, %g1, %i3
    3c20:	82 10 20 00 	clr  %g1
    3c24:	a2 07 bf c4 	add  %fp, -60, %l1
    3c28:	f6 27 bf d0 	st  %i3, [ %fp + -48 ]
    3c2c:	9a 10 20 00 	clr  %o5
    3c30:	ba 10 20 01 	mov  1, %i5
    3c34:	95 2f 40 01 	sll  %i5, %g1, %o2
    3c38:	80 8a 80 1c 	btst  %o2, %i4
    3c3c:	12 80 02 46 	bne  4554 <ajit_main+0xa58>
    3c40:	97 2b 60 10 	sll  %o5, 0x10, %o3
    3c44:	82 00 60 01 	inc  %g1
    3c48:	80 a0 60 03 	cmp  %g1, 3
    3c4c:	12 bf ff fa 	bne  3c34 <ajit_main+0x138>
    3c50:	a2 04 60 04 	add  %l1, 4, %l1
    3c54:	c2 07 bf d8 	ld  [ %fp + -40 ], %g1
    3c58:	80 88 60 01 	btst  1, %g1
    3c5c:	02 80 00 09 	be  3c80 <ajit_main+0x184>
    3c60:	80 88 60 02 	btst  2, %g1
    3c64:	d0 07 bf d0 	ld  [ %fp + -48 ], %o0
    3c68:	d2 07 bf c4 	ld  [ %fp + -60 ], %o1
    3c6c:	7f ff fd a2 	call  32f4 <core_list_init>
    3c70:	d4 57 bf b8 	ldsh  [ %fp + -72 ], %o2
    3c74:	c2 07 bf d8 	ld  [ %fp + -40 ], %g1
    3c78:	d0 27 bf dc 	st  %o0, [ %fp + -36 ]
    3c7c:	80 88 60 02 	btst  2, %g1
    3c80:	02 80 00 0b 	be  3cac <ajit_main+0x1b0>
    3c84:	c2 07 bf d8 	ld  [ %fp + -40 ], %g1
    3c88:	c2 57 bf b8 	ldsh  [ %fp + -72 ], %g1
    3c8c:	e4 57 bf ba 	ldsh  [ %fp + -70 ], %l2
    3c90:	d0 07 bf d0 	ld  [ %fp + -48 ], %o0
    3c94:	d2 07 bf c8 	ld  [ %fp + -56 ], %o1
    3c98:	a7 2c a0 10 	sll  %l2, 0x10, %l3
    3c9c:	94 14 c0 01 	or  %l3, %g1, %o2
    3ca0:	40 00 02 3a 	call  4588 <core_init_matrix>
    3ca4:	96 07 bf e0 	add  %fp, -32, %o3
    3ca8:	c2 07 bf d8 	ld  [ %fp + -40 ], %g1
    3cac:	80 88 60 04 	btst  4, %g1
    3cb0:	02 80 00 07 	be  3ccc <ajit_main+0x1d0>
    3cb4:	c2 07 bf d4 	ld  [ %fp + -44 ], %g1
    3cb8:	d0 07 bf d0 	ld  [ %fp + -48 ], %o0
    3cbc:	d2 57 bf b8 	ldsh  [ %fp + -72 ], %o1
    3cc0:	40 00 03 e7 	call  4c5c <core_init_state>
    3cc4:	d4 07 bf cc 	ld  [ %fp + -52 ], %o2
    3cc8:	c2 07 bf d4 	ld  [ %fp + -44 ], %g1
    3ccc:	80 a0 60 00 	cmp  %g1, 0
    3cd0:	12 80 00 37 	bne  3dac <ajit_main+0x2b0>
    3cd4:	82 10 20 01 	mov  1, %g1
    3cd8:	29 00 00 81 	sethi  %hi(0x20400), %l4
    3cdc:	c2 27 bf d4 	st  %g1, [ %fp + -44 ]
    3ce0:	c2 07 bf d4 	ld  [ %fp + -44 ], %g1
    3ce4:	aa 00 40 01 	add  %g1, %g1, %l5
    3ce8:	83 28 60 03 	sll  %g1, 3, %g1
    3cec:	82 05 40 01 	add  %l5, %g1, %g1
    3cf0:	40 00 03 83 	call  4afc <start_time>
    3cf4:	c2 27 bf d4 	st  %g1, [ %fp + -44 ]
    3cf8:	7f ff ff 5b 	call  3a64 <iterate>
    3cfc:	90 07 bf b8 	add  %fp, -72, %o0
    3d00:	40 00 03 86 	call  4b18 <stop_time>
    3d04:	01 00 00 00 	nop 
    3d08:	40 00 03 8b 	call  4b34 <get_time>
    3d0c:	01 00 00 00 	nop 
    3d10:	40 00 03 8f 	call  4b4c <time_in_secs>
    3d14:	01 00 00 00 	nop 
    3d18:	d1 1d 22 78 	ldd  [ %l4 + 0x278 ], %f8
    3d1c:	81 a8 0a c8 	fcmped  %f0, %f8
    3d20:	01 00 00 00 	nop 
    3d24:	09 bf ff f0 	fbl  3ce4 <ajit_main+0x1e8>
    3d28:	c2 07 bf d4 	ld  [ %fp + -44 ], %g1
    3d2c:	03 00 00 81 	sethi  %hi(0x20400), %g1
    3d30:	c5 18 62 80 	ldd  [ %g1 + 0x280 ], %f2	! 20680 <state_known_crc+0x66c>
    3d34:	81 a8 0a c2 	fcmped  %f0, %f2
    3d38:	01 00 00 00 	nop 
    3d3c:	17 80 00 06 	fbge  3d54 <ajit_main+0x258>
    3d40:	31 20 00 00 	sethi  %hi(0x80000000), %i0
    3d44:	81 a0 1a 40 	fdtoi  %f0, %f0
    3d48:	c1 27 bf ac 	st  %f0, [ %fp + -84 ]
    3d4c:	10 80 00 08 	b  3d6c <ajit_main+0x270>
    3d50:	c2 07 bf ac 	ld  [ %fp + -84 ], %g1
    3d54:	c9 18 62 80 	ldd  [ %g1 + 0x280 ], %f4
    3d58:	c2 07 bf ac 	ld  [ %fp + -84 ], %g1
    3d5c:	8d a0 08 c4 	fsubd  %f0, %f4, %f6
    3d60:	82 18 40 18 	xor  %g1, %i0, %g1
    3d64:	93 a0 1a 46 	fdtoi  %f6, %f9
    3d68:	d3 27 bf ac 	st  %f9, [ %fp + -84 ]
    3d6c:	80 a0 60 00 	cmp  %g1, 0
    3d70:	22 80 00 02 	be,a   3d78 <ajit_main+0x27c>
    3d74:	82 10 20 01 	mov  1, %g1
    3d78:	b2 10 20 0a 	mov  0xa, %i1
    3d7c:	07 00 00 80 	sethi  %hi(0x20000), %g3
    3d80:	81 80 20 00 	mov  %g0, %y
    3d84:	01 00 00 00 	nop 
    3d88:	01 00 00 00 	nop 
    3d8c:	01 00 00 00 	nop 
    3d90:	84 76 40 01 	udiv  %i1, %g1, %g2
    3d94:	c2 07 bf d4 	ld  [ %fp + -44 ], %g1
    3d98:	90 10 e0 38 	or  %g3, 0x38, %o0
    3d9c:	88 00 a0 01 	add  %g2, 1, %g4
    3da0:	92 59 00 01 	smul  %g4, %g1, %o1
    3da4:	40 00 08 81 	call  5fa8 <ee_printf>
    3da8:	d2 27 bf d4 	st  %o1, [ %fp + -44 ]
    3dac:	40 00 03 54 	call  4afc <start_time>
    3db0:	01 00 00 00 	nop 
    3db4:	40 00 04 ff 	call  51b0 <get_seed_32>
    3db8:	90 10 20 04 	mov  4, %o0	! 4 <_start+0x4>
    3dbc:	d0 27 bf d4 	st  %o0, [ %fp + -44 ]
    3dc0:	7f ff ff 29 	call  3a64 <iterate>
    3dc4:	90 07 bf b8 	add  %fp, -72, %o0
    3dc8:	40 00 03 54 	call  4b18 <stop_time>
    3dcc:	01 00 00 00 	nop 
    3dd0:	40 00 03 59 	call  4b34 <get_time>
    3dd4:	01 00 00 00 	nop 
    3dd8:	92 10 20 00 	clr  %o1	! 0 <_start>
    3ddc:	b4 10 00 08 	mov  %o0, %i2
    3de0:	40 00 05 5e 	call  5358 <crc16>
    3de4:	d0 57 bf b8 	ldsh  [ %fp + -72 ], %o0
    3de8:	93 2a 20 10 	sll  %o0, 0x10, %o1
    3dec:	d0 57 bf ba 	ldsh  [ %fp + -70 ], %o0
    3df0:	40 00 05 5a 	call  5358 <crc16>
    3df4:	93 32 60 10 	srl  %o1, 0x10, %o1
    3df8:	b9 2a 20 10 	sll  %o0, 0x10, %i4
    3dfc:	d0 57 bf bc 	ldsh  [ %fp + -68 ], %o0
    3e00:	40 00 05 56 	call  5358 <crc16>
    3e04:	93 37 20 10 	srl  %i4, 0x10, %o1
    3e08:	b7 2a 20 10 	sll  %o0, 0x10, %i3
    3e0c:	d0 57 bf d2 	ldsh  [ %fp + -46 ], %o0
    3e10:	40 00 05 52 	call  5358 <crc16>
    3e14:	93 36 e0 10 	srl  %i3, 0x10, %o1
    3e18:	83 2a 20 10 	sll  %o0, 0x10, %g1
    3e1c:	a4 10 00 08 	mov  %o0, %l2
    3e20:	11 00 00 1e 	sethi  %hi(0x7800), %o0
    3e24:	83 30 60 10 	srl  %g1, 0x10, %g1
    3e28:	ba 12 23 05 	or  %o0, 0x305, %i5
    3e2c:	80 a0 40 1d 	cmp  %g1, %i5
    3e30:	02 80 00 21 	be  3eb4 <ajit_main+0x3b8>
    3e34:	15 00 00 1e 	sethi  %hi(0x7800), %o2
    3e38:	96 12 a3 05 	or  %o2, 0x305, %o3	! 7b05 <__ajit_set_mmu_default_cacheable_bit__+0x9>
    3e3c:	80 a0 40 0b 	cmp  %g1, %o3
    3e40:	18 80 00 0d 	bgu  3e74 <ajit_main+0x378>
    3e44:	29 00 00 22 	sethi  %hi(0x8800), %l4
    3e48:	19 00 00 06 	sethi  %hi(0x1800), %o4
    3e4c:	9a 13 20 f2 	or  %o4, 0xf2, %o5	! 18f2 <window_underflow_trap_handler+0x88e>
    3e50:	80 a0 40 0d 	cmp  %g1, %o5
    3e54:	02 80 00 28 	be  3ef4 <ajit_main+0x3f8>
    3e58:	1f 00 00 13 	sethi  %hi(0x4c00), %o7
    3e5c:	a0 13 e2 af 	or  %o7, 0x2af, %l0	! 4eaf <core_state_transition+0x133>
    3e60:	80 a0 40 10 	cmp  %g1, %l0
    3e64:	32 80 00 ab 	bne,a   4110 <ajit_main+0x614>
    3e68:	b2 10 3f ff 	mov  -1, %i1
    3e6c:	10 80 00 18 	b  3ecc <ajit_main+0x3d0>
    3e70:	23 00 00 80 	sethi  %hi(0x20000), %l1
    3e74:	aa 15 22 02 	or  %l4, 0x202, %l5
    3e78:	80 a0 40 15 	cmp  %g1, %l5
    3e7c:	02 80 00 08 	be  3e9c <ajit_main+0x3a0>
    3e80:	31 00 00 3a 	sethi  %hi(0xe800), %i0
    3e84:	84 16 21 f5 	or  %i0, 0x1f5, %g2	! e9f5 <__ajit_ta_0__+0x6b45>
    3e88:	80 a0 40 02 	cmp  %g1, %g2
    3e8c:	32 80 00 a1 	bne,a   4110 <ajit_main+0x614>
    3e90:	b2 10 3f ff 	mov  -1, %i1
    3e94:	10 80 00 13 	b  3ee0 <ajit_main+0x3e4>
    3e98:	07 00 00 80 	sethi  %hi(0x20000), %g3
    3e9c:	b2 10 20 00 	clr  %i1
    3ea0:	09 00 00 80 	sethi  %hi(0x20000), %g4
    3ea4:	40 00 08 41 	call  5fa8 <ee_printf>
    3ea8:	90 11 20 58 	or  %g4, 0x58, %o0	! 20058 <state_known_crc+0x44>
    3eac:	10 80 01 b1 	b  4570 <ajit_main+0xa74>
    3eb0:	03 00 00 81 	sethi  %hi(0x20400), %g1
    3eb4:	13 00 00 80 	sethi  %hi(0x20000), %o1
    3eb8:	b2 10 20 01 	mov  1, %i1
    3ebc:	40 00 08 3b 	call  5fa8 <ee_printf>
    3ec0:	90 12 60 88 	or  %o1, 0x88, %o0
    3ec4:	10 80 01 ab 	b  4570 <ajit_main+0xa74>
    3ec8:	03 00 00 81 	sethi  %hi(0x20400), %g1
    3ecc:	b2 10 20 02 	mov  2, %i1
    3ed0:	40 00 08 36 	call  5fa8 <ee_printf>
    3ed4:	90 14 60 b8 	or  %l1, 0xb8, %o0
    3ed8:	10 80 01 a6 	b  4570 <ajit_main+0xa74>
    3edc:	03 00 00 81 	sethi  %hi(0x20400), %g1
    3ee0:	b2 10 20 03 	mov  3, %i1
    3ee4:	40 00 08 31 	call  5fa8 <ee_printf>
    3ee8:	90 10 e0 f0 	or  %g3, 0xf0, %o0
    3eec:	10 80 01 a1 	b  4570 <ajit_main+0xa74>
    3ef0:	03 00 00 81 	sethi  %hi(0x20400), %g1
    3ef4:	27 00 00 80 	sethi  %hi(0x20000), %l3
    3ef8:	b2 10 20 04 	mov  4, %i1
    3efc:	40 00 08 2b 	call  5fa8 <ee_printf>
    3f00:	90 14 e1 20 	or  %l3, 0x120, %o0
    3f04:	10 80 01 9b 	b  4570 <ajit_main+0xa74>
    3f08:	03 00 00 81 	sethi  %hi(0x20400), %g1
    3f0c:	11 00 00 80 	sethi  %hi(0x20000), %o0
    3f10:	3b 00 00 80 	sethi  %hi(0x20000), %i5
    3f14:	15 00 00 80 	sethi  %hi(0x20000), %o2
    3f18:	b7 2e 60 10 	sll  %i1, 0x10, %i3
    3f1c:	23 00 00 80 	sethi  %hi(0x20000), %l1
    3f20:	a6 12 a1 b8 	or  %o2, 0x1b8, %l3
    3f24:	b7 3e e0 10 	sra  %i3, 0x10, %i3
    3f28:	aa 12 21 50 	or  %o0, 0x150, %l5
    3f2c:	21 00 00 80 	sethi  %hi(0x20000), %l0
    3f30:	a8 17 61 80 	or  %i5, 0x180, %l4
    3f34:	97 2f 20 10 	sll  %i4, 0x10, %o3
    3f38:	bb 32 e0 10 	srl  %o3, 0x10, %i5
    3f3c:	99 2f 60 02 	sll  %i5, 2, %o4
    3f40:	83 2f 60 06 	sll  %i5, 6, %g1
    3f44:	82 03 00 01 	add  %o4, %g1, %g1
    3f48:	82 07 80 01 	add  %fp, %g1, %g1
    3f4c:	c0 30 7f f8 	clrh  [ %g1 + -8 ]
    3f50:	c2 00 7f d8 	ld  [ %g1 + -40 ], %g1
    3f54:	80 88 60 01 	btst  1, %g1
    3f58:	02 80 00 1d 	be  3fcc <ajit_main+0x4d0>
    3f5c:	85 2f 60 02 	sll  %i5, 2, %g2
    3f60:	9a 14 60 00 	mov  %l1, %o5
    3f64:	84 06 c0 1b 	add  %i3, %i3, %g2
    3f68:	9f 2f 60 02 	sll  %i5, 2, %o7
    3f6c:	83 2f 60 06 	sll  %i5, 6, %g1
    3f70:	c8 13 40 02 	lduh  [ %o5 + %g2 ], %g4
    3f74:	c6 13 40 02 	lduh  [ %o5 + %g2 ], %g3
    3f78:	82 03 c0 01 	add  %o7, %g1, %g1
    3f7c:	82 07 80 01 	add  %fp, %g1, %g1
    3f80:	d2 10 7f f2 	lduh  [ %g1 + -14 ], %o1
    3f84:	80 a2 40 04 	cmp  %o1, %g4
    3f88:	02 80 00 10 	be  3fc8 <ajit_main+0x4cc>
    3f8c:	c2 10 7f f2 	lduh  [ %g1 + -14 ], %g1
    3f90:	95 28 60 10 	sll  %g1, 0x10, %o2
    3f94:	97 28 e0 10 	sll  %g3, 0x10, %o3
    3f98:	90 10 00 15 	mov  %l5, %o0
    3f9c:	95 32 a0 10 	srl  %o2, 0x10, %o2
    3fa0:	92 10 00 1d 	mov  %i5, %o1
    3fa4:	40 00 08 01 	call  5fa8 <ee_printf>
    3fa8:	97 32 e0 10 	srl  %o3, 0x10, %o3
    3fac:	91 2f 60 02 	sll  %i5, 2, %o0
    3fb0:	83 2f 60 06 	sll  %i5, 6, %g1
    3fb4:	82 02 00 01 	add  %o0, %g1, %g1
    3fb8:	82 07 80 01 	add  %fp, %g1, %g1
    3fbc:	d8 10 7f f8 	lduh  [ %g1 + -8 ], %o4
    3fc0:	9a 03 20 01 	add  %o4, 1, %o5
    3fc4:	da 30 7f f8 	sth  %o5, [ %g1 + -8 ]
    3fc8:	85 2f 60 02 	sll  %i5, 2, %g2
    3fcc:	83 2f 60 06 	sll  %i5, 6, %g1
    3fd0:	82 00 80 01 	add  %g2, %g1, %g1
    3fd4:	82 07 80 01 	add  %fp, %g1, %g1
    3fd8:	c2 00 7f d8 	ld  [ %g1 + -40 ], %g1
    3fdc:	80 88 60 02 	btst  2, %g1
    3fe0:	02 80 00 1d 	be  4054 <ajit_main+0x558>
    3fe4:	93 2f 60 02 	sll  %i5, 2, %o1
    3fe8:	86 14 20 0a 	or  %l0, 0xa, %g3
    3fec:	92 06 c0 1b 	add  %i3, %i3, %o1
    3ff0:	9f 2f 60 02 	sll  %i5, 2, %o7
    3ff4:	83 2f 60 06 	sll  %i5, 6, %g1
    3ff8:	c8 10 c0 09 	lduh  [ %g3 + %o1 ], %g4
    3ffc:	d6 10 c0 09 	lduh  [ %g3 + %o1 ], %o3
    4000:	82 03 c0 01 	add  %o7, %g1, %g1
    4004:	82 07 80 01 	add  %fp, %g1, %g1
    4008:	d4 10 7f f4 	lduh  [ %g1 + -12 ], %o2
    400c:	80 a2 80 04 	cmp  %o2, %g4
    4010:	02 80 00 10 	be  4050 <ajit_main+0x554>
    4014:	c2 10 7f f4 	lduh  [ %g1 + -12 ], %g1
    4018:	99 28 60 10 	sll  %g1, 0x10, %o4
    401c:	9b 2a e0 10 	sll  %o3, 0x10, %o5
    4020:	90 10 00 14 	mov  %l4, %o0
    4024:	92 10 00 1d 	mov  %i5, %o1
    4028:	95 33 20 10 	srl  %o4, 0x10, %o2
    402c:	40 00 07 df 	call  5fa8 <ee_printf>
    4030:	97 33 60 10 	srl  %o5, 0x10, %o3
    4034:	91 2f 60 02 	sll  %i5, 2, %o0
    4038:	83 2f 60 06 	sll  %i5, 6, %g1
    403c:	82 02 00 01 	add  %o0, %g1, %g1
    4040:	82 07 80 01 	add  %fp, %g1, %g1
    4044:	c4 10 7f f8 	lduh  [ %g1 + -8 ], %g2
    4048:	86 00 a0 01 	add  %g2, 1, %g3
    404c:	c6 30 7f f8 	sth  %g3, [ %g1 + -8 ]
    4050:	93 2f 60 02 	sll  %i5, 2, %o1
    4054:	83 2f 60 06 	sll  %i5, 6, %g1
    4058:	82 02 40 01 	add  %o1, %g1, %g1
    405c:	82 07 80 01 	add  %fp, %g1, %g1
    4060:	c2 00 7f d8 	ld  [ %g1 + -40 ], %g1
    4064:	80 88 60 04 	btst  4, %g1
    4068:	22 80 00 1d 	be,a   40dc <ajit_main+0x5e0>
    406c:	83 2f 60 02 	sll  %i5, 2, %g1
    4070:	82 06 c0 1b 	add  %i3, %i3, %g1
    4074:	89 2f 60 06 	sll  %i5, 6, %g4
    4078:	15 00 00 80 	sethi  %hi(0x20000), %o2
    407c:	96 02 40 04 	add  %o1, %g4, %o3
    4080:	98 12 a0 14 	or  %o2, 0x14, %o4
    4084:	9a 07 80 0b 	add  %fp, %o3, %o5
    4088:	d0 13 00 01 	lduh  [ %o4 + %g1 ], %o0
    408c:	c4 13 7f f6 	lduh  [ %o5 + -10 ], %g2
    4090:	c6 13 7f f6 	lduh  [ %o5 + -10 ], %g3
    4094:	80 a0 80 08 	cmp  %g2, %o0
    4098:	02 80 00 10 	be  40d8 <ajit_main+0x5dc>
    409c:	c2 13 00 01 	lduh  [ %o4 + %g1 ], %g1
    40a0:	89 28 60 10 	sll  %g1, 0x10, %g4
    40a4:	9f 28 e0 10 	sll  %g3, 0x10, %o7
    40a8:	92 10 00 1d 	mov  %i5, %o1
    40ac:	97 31 20 10 	srl  %g4, 0x10, %o3
    40b0:	95 33 e0 10 	srl  %o7, 0x10, %o2
    40b4:	40 00 07 bd 	call  5fa8 <ee_printf>
    40b8:	90 10 00 13 	mov  %l3, %o0
    40bc:	93 2f 60 02 	sll  %i5, 2, %o1
    40c0:	83 2f 60 06 	sll  %i5, 6, %g1
    40c4:	82 02 40 01 	add  %o1, %g1, %g1
    40c8:	82 07 80 01 	add  %fp, %g1, %g1
    40cc:	d6 10 7f f8 	lduh  [ %g1 + -8 ], %o3
    40d0:	94 02 e0 01 	add  %o3, 1, %o2
    40d4:	d4 30 7f f8 	sth  %o2, [ %g1 + -8 ]
    40d8:	83 2f 60 02 	sll  %i5, 2, %g1
    40dc:	b8 07 20 01 	inc  %i4
    40e0:	bb 2f 60 06 	sll  %i5, 6, %i5
    40e4:	99 2f 20 10 	sll  %i4, 0x10, %o4
    40e8:	9a 00 40 1d 	add  %g1, %i5, %o5
    40ec:	03 00 00 81 	sethi  %hi(0x20400), %g1
    40f0:	91 33 20 10 	srl  %o4, 0x10, %o0
    40f4:	84 07 80 0d 	add  %fp, %o5, %g2
    40f8:	c2 00 62 bc 	ld  [ %g1 + 0x2bc ], %g1
    40fc:	c6 10 bf f8 	lduh  [ %g2 + -8 ], %g3
    4100:	80 a2 00 01 	cmp  %o0, %g1
    4104:	0a bf ff 8c 	bcs  3f34 <ajit_main+0x438>
    4108:	b0 00 c0 18 	add  %g3, %i0, %i0
    410c:	30 80 00 02 	b,a   4114 <ajit_main+0x618>
    4110:	b0 10 3f ff 	mov  -1, %i0
    4114:	40 00 04 ce 	call  544c <check_data_types>
    4118:	23 00 00 80 	sethi  %hi(0x20000), %l1
    411c:	d2 07 bf d0 	ld  [ %fp + -48 ], %o1
    4120:	b8 0a 20 ff 	and  %o0, 0xff, %i4
    4124:	40 00 07 a1 	call  5fa8 <ee_printf>
    4128:	90 14 61 e8 	or  %l1, 0x1e8, %o0
    412c:	92 10 00 1a 	mov  %i2, %o1
    4130:	37 00 00 80 	sethi  %hi(0x20000), %i3
    4134:	40 00 07 9d 	call  5fa8 <ee_printf>
    4138:	90 16 e2 00 	or  %i3, 0x200, %o0	! 20200 <state_known_crc+0x1ec>
    413c:	40 00 02 84 	call  4b4c <time_in_secs>
    4140:	90 10 00 1a 	mov  %i2, %o0
    4144:	c4 1f bf a0 	ldd  [ %fp + -96 ], %g2
    4148:	2b 00 00 80 	sethi  %hi(0x20000), %l5
    414c:	c1 3f bf a0 	std  %f0, [ %fp + -96 ]
    4150:	92 10 00 02 	mov  %g2, %o1
    4154:	94 10 00 03 	mov  %g3, %o2
    4158:	40 00 07 94 	call  5fa8 <ee_printf>
    415c:	90 15 62 18 	or  %l5, 0x218, %o0
    4160:	40 00 02 7b 	call  4b4c <time_in_secs>
    4164:	90 10 00 1a 	mov  %i2, %o0
    4168:	03 00 00 81 	sethi  %hi(0x20400), %g1
    416c:	b0 06 00 1c 	add  %i0, %i4, %i0
    4170:	d5 18 62 88 	ldd  [ %g1 + 0x288 ], %f10
    4174:	81 a8 0a ca 	fcmped  %f0, %f10
    4178:	01 00 00 00 	nop 
    417c:	1d 80 00 1c 	fbule  41ec <ajit_main+0x6f0>
    4180:	a6 10 00 18 	mov  %i0, %l3
    4184:	03 00 00 81 	sethi  %hi(0x20400), %g1
    4188:	c3 07 bf ac 	ld  [ %fp + -84 ], %f1
    418c:	e0 00 62 bc 	ld  [ %g1 + 0x2bc ], %l0
    4190:	c2 07 bf d4 	ld  [ %fp + -44 ], %g1
    4194:	99 a0 19 01 	fitod  %f1, %f12
    4198:	82 5c 00 01 	smul  %l0, %g1, %g1
    419c:	80 a0 60 00 	cmp  %g1, 0
    41a0:	c2 27 bf ac 	st  %g1, [ %fp + -84 ]
    41a4:	16 80 00 07 	bge  41c0 <ajit_main+0x6c4>
    41a8:	d9 3f bf b0 	std  %f12, [ %fp + -80 ]
    41ac:	e1 1f bf b0 	ldd  [ %fp + -80 ], %f16
    41b0:	03 00 00 81 	sethi  %hi(0x20400), %g1
    41b4:	dd 18 62 90 	ldd  [ %g1 + 0x290 ], %f14	! 20690 <state_known_crc+0x67c>
    41b8:	a5 a4 08 4e 	faddd  %f16, %f14, %f18
    41bc:	e5 3f bf b0 	std  %f18, [ %fp + -80 ]
    41c0:	40 00 02 63 	call  4b4c <time_in_secs>
    41c4:	90 10 00 1a 	mov  %i2, %o0
    41c8:	c4 1f bf a0 	ldd  [ %fp + -96 ], %g2
    41cc:	29 00 00 80 	sethi  %hi(0x20000), %l4
    41d0:	e9 1f bf b0 	ldd  [ %fp + -80 ], %f20
    41d4:	92 10 00 02 	mov  %g2, %o1
    41d8:	90 15 22 30 	or  %l4, 0x230, %o0
    41dc:	ad a5 09 c0 	fdivd  %f20, %f0, %f22
    41e0:	ed 3f bf a0 	std  %f22, [ %fp + -96 ]
    41e4:	40 00 07 71 	call  5fa8 <ee_printf>
    41e8:	94 10 00 03 	mov  %g3, %o2
    41ec:	40 00 02 58 	call  4b4c <time_in_secs>
    41f0:	90 10 00 1a 	mov  %i2, %o0
    41f4:	03 00 00 81 	sethi  %hi(0x20400), %g1
    41f8:	f1 18 62 98 	ldd  [ %g1 + 0x298 ], %f24	! 20698 <state_known_crc+0x684>
    41fc:	81 a8 0a d8 	fcmped  %f0, %f24
    4200:	01 00 00 00 	nop 
    4204:	19 80 00 06 	fbuge  421c <ajit_main+0x720>
    4208:	01 00 00 00 	nop 
    420c:	1f 00 00 80 	sethi  %hi(0x20000), %o7
    4210:	90 13 e2 48 	or  %o7, 0x248, %o0	! 20248 <state_known_crc+0x234>
    4214:	40 00 07 65 	call  5fa8 <ee_printf>
    4218:	a6 06 20 01 	add  %i0, 1, %l3
    421c:	03 00 00 81 	sethi  %hi(0x20400), %g1
    4220:	13 00 00 80 	sethi  %hi(0x20000), %o1
    4224:	c8 00 62 bc 	ld  [ %g1 + 0x2bc ], %g4
    4228:	c2 07 bf d4 	ld  [ %fp + -44 ], %g1
    422c:	90 12 62 88 	or  %o1, 0x288, %o0
    4230:	40 00 07 5e 	call  5fa8 <ee_printf>
    4234:	92 59 00 01 	smul  %g4, %g1, %o1
    4238:	17 00 00 80 	sethi  %hi(0x20000), %o3
    423c:	15 00 00 80 	sethi  %hi(0x20000), %o2
    4240:	90 12 e2 a0 	or  %o3, 0x2a0, %o0
    4244:	40 00 07 59 	call  5fa8 <ee_printf>
    4248:	92 12 a2 b8 	or  %o2, 0x2b8, %o1
    424c:	19 00 00 80 	sethi  %hi(0x20000), %o4
    4250:	3b 00 00 80 	sethi  %hi(0x20000), %i5
    4254:	92 13 22 e8 	or  %o4, 0x2e8, %o1
    4258:	40 00 07 54 	call  5fa8 <ee_printf>
    425c:	90 17 62 d0 	or  %i5, 0x2d0, %o0
    4260:	1b 00 00 80 	sethi  %hi(0x20000), %o5
    4264:	05 00 00 80 	sethi  %hi(0x20000), %g2
    4268:	90 13 63 50 	or  %o5, 0x350, %o0
    426c:	40 00 07 4f 	call  5fa8 <ee_printf>
    4270:	92 10 a3 68 	or  %g2, 0x368, %o1
    4274:	a5 2c a0 10 	sll  %l2, 0x10, %l2
    4278:	11 00 00 80 	sethi  %hi(0x20000), %o0
    427c:	93 34 a0 10 	srl  %l2, 0x10, %o1
    4280:	40 00 07 4a 	call  5fa8 <ee_printf>
    4284:	90 12 23 70 	or  %o0, 0x370, %o0
    4288:	c2 07 bf d8 	ld  [ %fp + -40 ], %g1
    428c:	80 88 60 01 	btst  1, %g1
    4290:	02 80 00 1c 	be  4300 <ajit_main+0x804>
    4294:	80 88 60 02 	btst  2, %g1
    4298:	03 00 00 81 	sethi  %hi(0x20400), %g1
    429c:	c2 00 62 bc 	ld  [ %g1 + 0x2bc ], %g1	! 206bc <default_num_contexts>
    42a0:	80 a0 60 00 	cmp  %g1, 0
    42a4:	02 80 00 15 	be  42f8 <ajit_main+0x7fc>
    42a8:	07 00 00 80 	sethi  %hi(0x20000), %g3
    42ac:	aa 10 20 00 	clr  %l5
    42b0:	b8 10 e3 90 	or  %g3, 0x390, %i4
    42b4:	31 00 00 81 	sethi  %hi(0x20400), %i0
    42b8:	a3 2d 60 10 	sll  %l5, 0x10, %l1
    42bc:	93 34 60 10 	srl  %l1, 0x10, %o1
    42c0:	90 10 00 1c 	mov  %i4, %o0
    42c4:	b7 2a 60 02 	sll  %o1, 2, %i3
    42c8:	83 2a 60 06 	sll  %o1, 6, %g1
    42cc:	82 06 c0 01 	add  %i3, %g1, %g1
    42d0:	82 07 80 01 	add  %fp, %g1, %g1
    42d4:	40 00 07 35 	call  5fa8 <ee_printf>
    42d8:	d4 10 7f f2 	lduh  [ %g1 + -14 ], %o2
    42dc:	aa 05 60 01 	inc  %l5
    42e0:	c2 06 22 bc 	ld  [ %i0 + 0x2bc ], %g1
    42e4:	a1 2d 60 10 	sll  %l5, 0x10, %l0
    42e8:	a9 34 20 10 	srl  %l0, 0x10, %l4
    42ec:	80 a5 00 01 	cmp  %l4, %g1
    42f0:	0a bf ff f3 	bcs  42bc <ajit_main+0x7c0>
    42f4:	a3 2d 60 10 	sll  %l5, 0x10, %l1
    42f8:	c2 07 bf d8 	ld  [ %fp + -40 ], %g1
    42fc:	80 88 60 02 	btst  2, %g1
    4300:	02 80 00 1b 	be  436c <ajit_main+0x870>
    4304:	c2 07 bf d8 	ld  [ %fp + -40 ], %g1
    4308:	03 00 00 81 	sethi  %hi(0x20400), %g1
    430c:	c2 00 62 bc 	ld  [ %g1 + 0x2bc ], %g1	! 206bc <default_num_contexts>
    4310:	80 a0 60 00 	cmp  %g1, 0
    4314:	02 80 00 15 	be  4368 <ajit_main+0x86c>
    4318:	1f 00 00 80 	sethi  %hi(0x20000), %o7
    431c:	ba 10 20 00 	clr  %i5
    4320:	a4 13 e3 b0 	or  %o7, 0x3b0, %l2
    4324:	39 00 00 81 	sethi  %hi(0x20400), %i4
    4328:	89 2f 60 10 	sll  %i5, 0x10, %g4
    432c:	93 31 20 10 	srl  %g4, 0x10, %o1
    4330:	90 10 00 12 	mov  %l2, %o0
    4334:	97 2a 60 02 	sll  %o1, 2, %o3
    4338:	83 2a 60 06 	sll  %o1, 6, %g1
    433c:	82 02 c0 01 	add  %o3, %g1, %g1
    4340:	82 07 80 01 	add  %fp, %g1, %g1
    4344:	40 00 07 19 	call  5fa8 <ee_printf>
    4348:	d4 10 7f f4 	lduh  [ %g1 + -12 ], %o2
    434c:	c2 07 22 bc 	ld  [ %i4 + 0x2bc ], %g1
    4350:	ba 07 60 01 	inc  %i5
    4354:	93 2f 60 10 	sll  %i5, 0x10, %o1
    4358:	95 32 60 10 	srl  %o1, 0x10, %o2
    435c:	80 a2 80 01 	cmp  %o2, %g1
    4360:	0a bf ff f3 	bcs  432c <ajit_main+0x830>
    4364:	89 2f 60 10 	sll  %i5, 0x10, %g4
    4368:	c2 07 bf d8 	ld  [ %fp + -40 ], %g1
    436c:	80 88 60 04 	btst  4, %g1
    4370:	02 80 00 0b 	be  439c <ajit_main+0x8a0>
    4374:	03 00 00 81 	sethi  %hi(0x20400), %g1
    4378:	19 00 00 80 	sethi  %hi(0x20000), %o4
    437c:	c2 00 62 bc 	ld  [ %g1 + 0x2bc ], %g1
    4380:	b6 10 20 00 	clr  %i3
    4384:	b0 13 23 d0 	or  %o4, 0x3d0, %i0
    4388:	80 a0 60 00 	cmp  %g1, 0
    438c:	12 80 00 0d 	bne  43c0 <ajit_main+0x8c4>
    4390:	23 00 00 81 	sethi  %hi(0x20400), %l1
    4394:	10 80 00 2e 	b  444c <ajit_main+0x950>
    4398:	83 2c e0 10 	sll  %l3, 0x10, %g1
    439c:	2b 00 00 80 	sethi  %hi(0x20000), %l5
    43a0:	c2 00 62 bc 	ld  [ %g1 + 0x2bc ], %g1
    43a4:	b8 10 20 00 	clr  %i4
    43a8:	a0 15 63 f0 	or  %l5, 0x3f0, %l0
    43ac:	80 a0 60 00 	cmp  %g1, 0
    43b0:	12 80 00 16 	bne  4408 <ajit_main+0x90c>
    43b4:	29 00 00 81 	sethi  %hi(0x20400), %l4
    43b8:	10 80 00 25 	b  444c <ajit_main+0x950>
    43bc:	83 2c e0 10 	sll  %l3, 0x10, %g1
    43c0:	9b 2e e0 10 	sll  %i3, 0x10, %o5
    43c4:	93 33 60 10 	srl  %o5, 0x10, %o1
    43c8:	90 10 00 18 	mov  %i0, %o0
    43cc:	85 2a 60 02 	sll  %o1, 2, %g2
    43d0:	83 2a 60 06 	sll  %o1, 6, %g1
    43d4:	82 00 80 01 	add  %g2, %g1, %g1
    43d8:	82 07 80 01 	add  %fp, %g1, %g1
    43dc:	40 00 06 f3 	call  5fa8 <ee_printf>
    43e0:	d4 10 7f f6 	lduh  [ %g1 + -10 ], %o2
    43e4:	c2 04 62 bc 	ld  [ %l1 + 0x2bc ], %g1
    43e8:	b6 06 e0 01 	inc  %i3
    43ec:	91 2e e0 10 	sll  %i3, 0x10, %o0
    43f0:	87 32 20 10 	srl  %o0, 0x10, %g3
    43f4:	80 a0 c0 01 	cmp  %g3, %g1
    43f8:	0a bf ff f3 	bcs  43c4 <ajit_main+0x8c8>
    43fc:	9b 2e e0 10 	sll  %i3, 0x10, %o5
    4400:	10 bf ff e7 	b  439c <ajit_main+0x8a0>
    4404:	03 00 00 81 	sethi  %hi(0x20400), %g1
    4408:	9f 2f 20 10 	sll  %i4, 0x10, %o7
    440c:	93 33 e0 10 	srl  %o7, 0x10, %o1
    4410:	90 10 00 10 	mov  %l0, %o0
    4414:	a5 2a 60 02 	sll  %o1, 2, %l2
    4418:	83 2a 60 06 	sll  %o1, 6, %g1
    441c:	82 04 80 01 	add  %l2, %g1, %g1
    4420:	82 07 80 01 	add  %fp, %g1, %g1
    4424:	40 00 06 e1 	call  5fa8 <ee_printf>
    4428:	d4 10 7f f0 	lduh  [ %g1 + -16 ], %o2
    442c:	b8 07 20 01 	inc  %i4
    4430:	c2 05 22 bc 	ld  [ %l4 + 0x2bc ], %g1
    4434:	89 2f 20 10 	sll  %i4, 0x10, %g4
    4438:	97 31 20 10 	srl  %g4, 0x10, %o3
    443c:	80 a2 c0 01 	cmp  %o3, %g1
    4440:	0a bf ff f3 	bcs  440c <ajit_main+0x910>
    4444:	9f 2f 20 10 	sll  %i4, 0x10, %o7
    4448:	83 2c e0 10 	sll  %l3, 0x10, %g1
    444c:	80 a0 60 00 	cmp  %g1, 0
    4450:	12 80 00 30 	bne  4510 <ajit_main+0xa14>
    4454:	83 2c e0 10 	sll  %l3, 0x10, %g1
    4458:	3b 00 00 81 	sethi  %hi(0x20400), %i5
    445c:	40 00 06 d3 	call  5fa8 <ee_printf>
    4460:	90 17 60 10 	or  %i5, 0x10, %o0	! 20410 <state_known_crc+0x3fc>
    4464:	93 2e 60 10 	sll  %i1, 0x10, %o1
    4468:	95 3a 60 10 	sra  %o1, 0x10, %o2
    446c:	80 a2 a0 03 	cmp  %o2, 3
    4470:	12 80 00 35 	bne  4544 <ajit_main+0xa48>
    4474:	03 00 00 81 	sethi  %hi(0x20400), %g1
    4478:	c7 07 bf ac 	ld  [ %fp + -84 ], %f3
    447c:	d8 00 62 bc 	ld  [ %g1 + 0x2bc ], %o4
    4480:	c2 07 bf d4 	ld  [ %fp + -44 ], %g1
    4484:	b5 a0 19 03 	fitod  %f3, %f26
    4488:	82 5b 00 01 	smul  %o4, %g1, %g1
    448c:	c2 27 bf ac 	st  %g1, [ %fp + -84 ]
    4490:	80 a0 60 00 	cmp  %g1, 0
    4494:	16 80 00 07 	bge  44b0 <ajit_main+0x9b4>
    4498:	f5 3f bf b0 	std  %f26, [ %fp + -80 ]
    449c:	fd 1f bf b0 	ldd  [ %fp + -80 ], %f30
    44a0:	03 00 00 81 	sethi  %hi(0x20400), %g1
    44a4:	f9 18 62 90 	ldd  [ %g1 + 0x290 ], %f28	! 20690 <state_known_crc+0x67c>
    44a8:	91 a7 88 5c 	faddd  %f30, %f28, %f8
    44ac:	d1 3f bf b0 	std  %f8, [ %fp + -80 ]
    44b0:	40 00 01 a7 	call  4b4c <time_in_secs>
    44b4:	90 10 00 1a 	mov  %i2, %o0
    44b8:	c4 1f bf a0 	ldd  [ %fp + -96 ], %g2
    44bc:	31 00 00 81 	sethi  %hi(0x20400), %i0
    44c0:	c5 1f bf b0 	ldd  [ %fp + -80 ], %f2
    44c4:	1b 00 00 80 	sethi  %hi(0x20000), %o5
    44c8:	92 10 00 02 	mov  %g2, %o1
    44cc:	81 a0 89 c0 	fdivd  %f2, %f0, %f0
    44d0:	94 10 00 03 	mov  %g3, %o2
    44d4:	23 00 00 80 	sethi  %hi(0x20000), %l1
    44d8:	90 16 20 60 	or  %i0, 0x60, %o0
    44dc:	c1 3f bf a0 	std  %f0, [ %fp + -96 ]
    44e0:	98 13 62 e8 	or  %o5, 0x2e8, %o4
    44e4:	40 00 06 b1 	call  5fa8 <ee_printf>
    44e8:	96 14 62 b8 	or  %l1, 0x2b8, %o3
    44ec:	05 00 00 81 	sethi  %hi(0x20400), %g2
    44f0:	37 00 00 80 	sethi  %hi(0x20000), %i3
    44f4:	90 10 a0 80 	or  %g2, 0x80, %o0
    44f8:	40 00 06 ac 	call  5fa8 <ee_printf>
    44fc:	92 16 e3 68 	or  %i3, 0x368, %o1
    4500:	11 00 00 81 	sethi  %hi(0x20400), %o0
    4504:	40 00 06 a9 	call  5fa8 <ee_printf>
    4508:	90 12 20 58 	or  %o0, 0x58, %o0	! 20458 <state_known_crc+0x444>
    450c:	30 80 00 0e 	b,a   4544 <ajit_main+0xa48>
    4510:	80 a0 60 00 	cmp  %g1, 0
    4514:	04 80 00 06 	ble  452c <ajit_main+0xa30>
    4518:	b3 2c e0 10 	sll  %l3, 0x10, %i1
    451c:	35 00 00 81 	sethi  %hi(0x20400), %i2
    4520:	40 00 06 a2 	call  5fa8 <ee_printf>
    4524:	90 16 a0 88 	or  %i2, 0x88, %o0	! 20488 <state_known_crc+0x474>
    4528:	b3 2c e0 10 	sll  %l3, 0x10, %i1
    452c:	80 a6 60 00 	cmp  %i1, 0
    4530:	16 80 00 05 	bge  4544 <ajit_main+0xa48>
    4534:	01 00 00 00 	nop 
    4538:	27 00 00 81 	sethi  %hi(0x20400), %l3
    453c:	40 00 06 9b 	call  5fa8 <ee_printf>
    4540:	90 14 e0 a0 	or  %l3, 0xa0, %o0	! 204a0 <state_known_crc+0x48c>
    4544:	40 00 01 a9 	call  4be8 <portable_fini>
    4548:	90 07 bf fa 	add  %fp, -6, %o0
    454c:	81 c7 e0 08 	ret 
    4550:	81 e8 00 00 	restore 
    4554:	f4 07 bf c0 	ld  [ %fp + -64 ], %i2
    4558:	99 32 e0 10 	srl  %o3, 0x10, %o4
    455c:	9a 03 60 01 	inc  %o5
    4560:	9e 5b 00 1b 	smul  %o4, %i3, %o7
    4564:	a0 06 80 0f 	add  %i2, %o7, %l0
    4568:	10 bf fd b7 	b  3c44 <ajit_main+0x148>
    456c:	e0 24 40 00 	st  %l0, [ %l1 ]
    4570:	c2 00 62 bc 	ld  [ %g1 + 0x2bc ], %g1
    4574:	b0 10 20 00 	clr  %i0
    4578:	80 a0 60 00 	cmp  %g1, 0
    457c:	12 bf fe 64 	bne  3f0c <ajit_main+0x410>
    4580:	b8 10 20 00 	clr  %i4
    4584:	30 bf fe e4 	b,a   4114 <ajit_main+0x618>

00004588 <core_init_matrix>:
    4588:	9d e3 bf a0 	save  %sp, -96, %sp
    458c:	80 a6 a0 00 	cmp  %i2, 0
    4590:	22 80 00 02 	be,a   4598 <core_init_matrix+0x10>
    4594:	b4 10 20 01 	mov  1, %i2
    4598:	80 a6 20 00 	cmp  %i0, 0
    459c:	22 80 00 39 	be,a   4680 <core_init_matrix+0xf8>
    45a0:	b2 06 7f ff 	add  %i1, -1, %i1
    45a4:	82 10 20 00 	clr  %g1
    45a8:	82 00 60 01 	inc  %g1
    45ac:	84 58 40 01 	smul  %g1, %g1, %g2
    45b0:	87 28 a0 03 	sll  %g2, 3, %g3
    45b4:	80 a6 00 03 	cmp  %i0, %g3
    45b8:	38 bf ff fd 	bgu,a   45ac <core_init_matrix+0x24>
    45bc:	82 00 60 01 	inc  %g1
    45c0:	b0 00 7f ff 	add  %g1, -1, %i0
    45c4:	88 06 7f ff 	add  %i1, -1, %g4
    45c8:	b8 5e 00 18 	smul  %i0, %i0, %i4
    45cc:	80 a6 20 00 	cmp  %i0, 0
    45d0:	ba 09 3f fc 	and  %g4, -4, %i5
    45d4:	96 07 00 1c 	add  %i4, %i4, %o3
    45d8:	98 07 60 04 	add  %i5, 4, %o4
    45dc:	12 80 00 2e 	bne  4694 <core_init_matrix+0x10c>
    45e0:	9a 03 00 0b 	add  %o4, %o3, %o5
    45e4:	10 80 00 1e 	b  465c <core_init_matrix+0xd4>
    45e8:	82 03 40 0b 	add  %o5, %o3, %g1
    45ec:	b4 58 40 1a 	smul  %g1, %i2, %i2
    45f0:	87 3e a0 1f 	sra  %i2, 0x1f, %g3
    45f4:	87 30 e0 10 	srl  %g3, 0x10, %g3
    45f8:	b4 06 80 03 	add  %i2, %g3, %i2
    45fc:	b4 0e 80 19 	and  %i2, %i1, %i2
    4600:	b4 26 80 03 	sub  %i2, %g3, %i2
    4604:	86 06 80 01 	add  %i2, %g1, %g3
    4608:	c6 37 00 02 	sth  %g3, [ %i4 + %g2 ]
    460c:	86 00 c0 01 	add  %g3, %g1, %g3
    4610:	82 00 60 01 	inc  %g1
    4614:	86 08 e0 ff 	and  %g3, 0xff, %g3
    4618:	c6 37 40 02 	sth  %g3, [ %i5 + %g2 ]
    461c:	86 20 40 04 	sub  %g1, %g4, %g3
    4620:	80 a6 00 03 	cmp  %i0, %g3
    4624:	18 bf ff f2 	bgu  45ec <core_init_matrix+0x64>
    4628:	84 00 a0 02 	add  %g2, 2, %g2
    462c:	9e 03 e0 01 	inc  %o7
    4630:	80 a6 00 0f 	cmp  %i0, %o7
    4634:	08 80 00 09 	bleu  4658 <core_init_matrix+0xd0>
    4638:	88 10 00 01 	mov  %g1, %g4
    463c:	84 5b c0 18 	smul  %o7, %i0, %g2
    4640:	82 10 00 04 	mov  %g4, %g1
    4644:	86 00 80 02 	add  %g2, %g2, %g3
    4648:	84 10 20 00 	clr  %g2
    464c:	b8 03 40 03 	add  %o5, %g3, %i4
    4650:	10 bf ff e7 	b  45ec <core_init_matrix+0x64>
    4654:	ba 03 00 03 	add  %o4, %g3, %i5
    4658:	82 03 40 0b 	add  %o5, %o3, %g1
    465c:	82 00 7f ff 	add  %g1, -1, %g1
    4660:	f0 26 c0 00 	st  %i0, [ %i3 ]
    4664:	d8 26 e0 04 	st  %o4, [ %i3 + 4 ]
    4668:	82 08 7f fc 	and  %g1, -4, %g1
    466c:	da 26 e0 08 	st  %o5, [ %i3 + 8 ]
    4670:	82 00 60 04 	add  %g1, 4, %g1
    4674:	c2 26 e0 0c 	st  %g1, [ %i3 + 0xc ]
    4678:	81 c7 e0 08 	ret 
    467c:	81 e8 00 00 	restore 
    4680:	9a 0e 7f fc 	and  %i1, -4, %o5
    4684:	96 10 20 02 	mov  2, %o3
    4688:	b0 10 3f ff 	mov  -1, %i0
    468c:	98 03 60 04 	add  %o5, 4, %o4
    4690:	9a 03 60 06 	add  %o5, 6, %o5
    4694:	33 00 00 3f 	sethi  %hi(0xfc00), %i1
    4698:	9e 10 20 00 	clr  %o7
    469c:	88 10 20 01 	mov  1, %g4
    46a0:	10 bf ff e7 	b  463c <core_init_matrix+0xb4>
    46a4:	b2 16 63 ff 	or  %i1, 0x3ff, %i1

000046a8 <matrix_sum>:
    46a8:	9d e3 bf a0 	save  %sp, -96, %sp
    46ac:	80 a6 20 00 	cmp  %i0, 0
    46b0:	02 80 00 1d 	be  4724 <matrix_sum+0x7c>
    46b4:	b7 2e 20 02 	sll  %i0, 2, %i3
    46b8:	9e 10 20 00 	clr  %o7
    46bc:	88 10 20 00 	clr  %g4
    46c0:	ba 10 20 00 	clr  %i5
    46c4:	10 80 00 16 	b  471c <matrix_sum+0x74>
    46c8:	86 10 20 00 	clr  %g3
    46cc:	c4 06 40 01 	ld  [ %i1 + %g1 ], %g2
    46d0:	86 00 c0 02 	add  %g3, %g2, %g3
    46d4:	80 a0 c0 1a 	cmp  %g3, %i2
    46d8:	04 80 00 05 	ble  46ec <matrix_sum+0x44>
    46dc:	80 a0 80 1d 	cmp  %g2, %i5
    46e0:	88 01 20 0a 	add  %g4, 0xa, %g4
    46e4:	10 80 00 06 	b  46fc <matrix_sum+0x54>
    46e8:	86 10 20 00 	clr  %g3
    46ec:	14 80 00 03 	bg  46f8 <matrix_sum+0x50>
    46f0:	b8 10 20 01 	mov  1, %i4
    46f4:	b8 10 20 00 	clr  %i4
    46f8:	88 07 00 04 	add  %i4, %g4, %g4
    46fc:	82 00 60 04 	add  %g1, 4, %g1
    4700:	80 a6 c0 01 	cmp  %i3, %g1
    4704:	12 bf ff f2 	bne  46cc <matrix_sum+0x24>
    4708:	ba 10 00 02 	mov  %g2, %i5
    470c:	9e 03 e0 01 	inc  %o7
    4710:	80 a3 c0 18 	cmp  %o7, %i0
    4714:	02 80 00 05 	be  4728 <matrix_sum+0x80>
    4718:	b2 06 40 1b 	add  %i1, %i3, %i1
    471c:	10 bf ff ec 	b  46cc <matrix_sum+0x24>
    4720:	82 10 20 00 	clr  %g1
    4724:	88 10 20 00 	clr  %g4
    4728:	b1 29 20 10 	sll  %g4, 0x10, %i0
    472c:	b1 3e 20 10 	sra  %i0, 0x10, %i0
    4730:	81 c7 e0 08 	ret 
    4734:	81 e8 00 00 	restore 

00004738 <matrix_mul_const>:
    4738:	80 a2 20 00 	cmp  %o0, 0
    473c:	02 80 00 13 	be  4788 <matrix_mul_const+0x50>
    4740:	88 02 00 08 	add  %o0, %o0, %g4
    4744:	99 2a 20 02 	sll  %o0, 2, %o4
    4748:	10 80 00 0e 	b  4780 <matrix_mul_const+0x48>
    474c:	9a 10 20 00 	clr  %o5
    4750:	c6 52 80 01 	ldsh  [ %o2 + %g1 ], %g3
    4754:	84 00 40 01 	add  %g1, %g1, %g2
    4758:	82 00 60 02 	add  %g1, 2, %g1
    475c:	86 58 c0 0b 	smul  %g3, %o3, %g3
    4760:	80 a1 00 01 	cmp  %g4, %g1
    4764:	12 bf ff fb 	bne  4750 <matrix_mul_const+0x18>
    4768:	c6 22 40 02 	st  %g3, [ %o1 + %g2 ]
    476c:	9a 03 60 01 	inc  %o5
    4770:	94 02 80 04 	add  %o2, %g4, %o2
    4774:	80 a3 40 08 	cmp  %o5, %o0
    4778:	02 80 00 04 	be  4788 <matrix_mul_const+0x50>
    477c:	92 02 40 0c 	add  %o1, %o4, %o1
    4780:	10 bf ff f4 	b  4750 <matrix_mul_const+0x18>
    4784:	82 10 20 00 	clr  %g1
    4788:	81 c3 e0 08 	retl 
    478c:	01 00 00 00 	nop 

00004790 <matrix_add_const>:
    4790:	80 a2 20 00 	cmp  %o0, 0
    4794:	02 80 00 11 	be  47d8 <matrix_add_const+0x48>
    4798:	88 02 00 08 	add  %o0, %o0, %g4
    479c:	10 80 00 0d 	b  47d0 <matrix_add_const+0x40>
    47a0:	86 10 20 00 	clr  %g3
    47a4:	c2 12 40 00 	lduh  [ %o1 ], %g1
    47a8:	82 00 40 0a 	add  %g1, %o2, %g1
    47ac:	c2 32 40 00 	sth  %g1, [ %o1 ]
    47b0:	92 02 60 02 	add  %o1, 2, %o1
    47b4:	80 a2 40 02 	cmp  %o1, %g2
    47b8:	32 bf ff fc 	bne,a   47a8 <matrix_add_const+0x18>
    47bc:	c2 12 40 00 	lduh  [ %o1 ], %g1
    47c0:	86 00 e0 01 	inc  %g3
    47c4:	80 a0 c0 08 	cmp  %g3, %o0
    47c8:	02 80 00 04 	be  47d8 <matrix_add_const+0x48>
    47cc:	01 00 00 00 	nop 
    47d0:	10 bf ff f5 	b  47a4 <matrix_add_const+0x14>
    47d4:	84 01 00 09 	add  %g4, %o1, %g2
    47d8:	81 c3 e0 08 	retl 
    47dc:	01 00 00 00 	nop 

000047e0 <matrix_mul_vect>:
    47e0:	80 a2 20 00 	cmp  %o0, 0
    47e4:	02 80 00 13 	be  4830 <matrix_mul_vect+0x50>
    47e8:	98 02 00 08 	add  %o0, %o0, %o4
    47ec:	84 10 20 00 	clr  %g2
    47f0:	91 2a 20 02 	sll  %o0, 2, %o0
    47f4:	c0 22 40 02 	clr  [ %o1 + %g2 ]
    47f8:	82 10 20 00 	clr  %g1
    47fc:	c8 02 40 02 	ld  [ %o1 + %g2 ], %g4
    4800:	c6 52 c0 01 	ldsh  [ %o3 + %g1 ], %g3
    4804:	da 52 80 01 	ldsh  [ %o2 + %g1 ], %o5
    4808:	82 00 60 02 	add  %g1, 2, %g1
    480c:	9a 5b 40 03 	smul  %o5, %g3, %o5
    4810:	80 a0 40 0c 	cmp  %g1, %o4
    4814:	86 01 00 0d 	add  %g4, %o5, %g3
    4818:	12 bf ff f9 	bne  47fc <matrix_mul_vect+0x1c>
    481c:	c6 22 40 02 	st  %g3, [ %o1 + %g2 ]
    4820:	84 00 a0 04 	add  %g2, 4, %g2
    4824:	80 a0 80 08 	cmp  %g2, %o0
    4828:	12 bf ff f3 	bne  47f4 <matrix_mul_vect+0x14>
    482c:	94 02 80 0c 	add  %o2, %o4, %o2
    4830:	81 c3 e0 08 	retl 
    4834:	01 00 00 00 	nop 

00004838 <matrix_mul_matrix>:
    4838:	9d e3 bf a0 	save  %sp, -96, %sp
    483c:	80 a6 20 00 	cmp  %i0, 0
    4840:	02 80 00 21 	be  48c4 <matrix_mul_matrix+0x8c>
    4844:	86 06 00 18 	add  %i0, %i0, %g3
    4848:	9e 10 00 1a 	mov  %i2, %o7
    484c:	95 2e 20 02 	sll  %i0, 2, %o2
    4850:	96 10 00 19 	mov  %i1, %o3
    4854:	10 80 00 19 	b  48b8 <matrix_mul_matrix+0x80>
    4858:	98 10 20 00 	clr  %o4
    485c:	88 10 00 0d 	mov  %o5, %g4
    4860:	c0 23 40 00 	clr  [ %o5 ]
    4864:	84 06 c0 19 	add  %i3, %i1, %g2
    4868:	82 10 20 00 	clr  %g1
    486c:	fa 50 80 00 	ldsh  [ %g2 ], %i5
    4870:	f4 53 c0 01 	ldsh  [ %o7 + %g1 ], %i2
    4874:	f8 01 00 00 	ld  [ %g4 ], %i4
    4878:	82 00 60 02 	add  %g1, 2, %g1
    487c:	b4 5e 80 1d 	smul  %i2, %i5, %i2
    4880:	80 a0 c0 01 	cmp  %g3, %g1
    4884:	ba 07 00 1a 	add  %i4, %i2, %i5
    4888:	fa 21 00 00 	st  %i5, [ %g4 ]
    488c:	12 bf ff f8 	bne  486c <matrix_mul_matrix+0x34>
    4890:	84 00 80 03 	add  %g2, %g3, %g2
    4894:	b2 06 60 02 	add  %i1, 2, %i1
    4898:	80 a0 c0 19 	cmp  %g3, %i1
    489c:	12 bf ff f0 	bne  485c <matrix_mul_matrix+0x24>
    48a0:	9a 03 60 04 	add  %o5, 4, %o5
    48a4:	98 03 20 01 	inc  %o4
    48a8:	9e 03 c0 03 	add  %o7, %g3, %o7
    48ac:	80 a3 00 18 	cmp  %o4, %i0
    48b0:	02 80 00 05 	be  48c4 <matrix_mul_matrix+0x8c>
    48b4:	96 02 c0 0a 	add  %o3, %o2, %o3
    48b8:	9a 10 00 0b 	mov  %o3, %o5
    48bc:	10 bf ff e8 	b  485c <matrix_mul_matrix+0x24>
    48c0:	b2 10 20 00 	clr  %i1
    48c4:	81 c7 e0 08 	ret 
    48c8:	81 e8 00 00 	restore 

000048cc <matrix_mul_matrix_bitextract>:
    48cc:	9d e3 bf a0 	save  %sp, -96, %sp
    48d0:	80 a6 20 00 	cmp  %i0, 0
    48d4:	02 80 00 26 	be  496c <matrix_mul_matrix_bitextract+0xa0>
    48d8:	88 06 00 18 	add  %i0, %i0, %g4
    48dc:	95 2e 20 02 	sll  %i0, 2, %o2
    48e0:	96 10 00 19 	mov  %i1, %o3
    48e4:	9e 10 00 1a 	mov  %i2, %o7
    48e8:	10 80 00 1e 	b  4960 <matrix_mul_matrix_bitextract+0x94>
    48ec:	98 10 20 00 	clr  %o4
    48f0:	ba 10 00 0d 	mov  %o5, %i5
    48f4:	c0 23 40 00 	clr  [ %o5 ]
    48f8:	84 06 c0 19 	add  %i3, %i1, %g2
    48fc:	82 10 20 00 	clr  %g1
    4900:	f4 53 c0 01 	ldsh  [ %o7 + %g1 ], %i2
    4904:	f8 07 40 00 	ld  [ %i5 ], %i4
    4908:	82 00 60 02 	add  %g1, 2, %g1
    490c:	c6 50 80 00 	ldsh  [ %g2 ], %g3
    4910:	80 a1 00 01 	cmp  %g4, %g1
    4914:	86 5e 80 03 	smul  %i2, %g3, %g3
    4918:	b5 38 e0 05 	sra  %g3, 5, %i2
    491c:	87 38 e0 02 	sra  %g3, 2, %g3
    4920:	b4 0e a0 7f 	and  %i2, 0x7f, %i2
    4924:	86 08 e0 0f 	and  %g3, 0xf, %g3
    4928:	b4 5e 80 03 	smul  %i2, %g3, %i2
    492c:	b8 07 00 1a 	add  %i4, %i2, %i4
    4930:	f8 27 40 00 	st  %i4, [ %i5 ]
    4934:	12 bf ff f3 	bne  4900 <matrix_mul_matrix_bitextract+0x34>
    4938:	84 00 80 04 	add  %g2, %g4, %g2
    493c:	b2 06 60 02 	add  %i1, 2, %i1
    4940:	80 a1 00 19 	cmp  %g4, %i1
    4944:	12 bf ff eb 	bne  48f0 <matrix_mul_matrix_bitextract+0x24>
    4948:	9a 03 60 04 	add  %o5, 4, %o5
    494c:	98 03 20 01 	inc  %o4
    4950:	9e 03 c0 04 	add  %o7, %g4, %o7
    4954:	80 a3 00 18 	cmp  %o4, %i0
    4958:	02 80 00 05 	be  496c <matrix_mul_matrix_bitextract+0xa0>
    495c:	96 02 c0 0a 	add  %o3, %o2, %o3
    4960:	9a 10 00 0b 	mov  %o3, %o5
    4964:	10 bf ff e3 	b  48f0 <matrix_mul_matrix_bitextract+0x24>
    4968:	b2 10 20 00 	clr  %i1
    496c:	81 c7 e0 08 	ret 
    4970:	81 e8 00 00 	restore 

00004974 <matrix_test>:
    4974:	9d e3 bf a0 	save  %sp, -96, %sp
    4978:	90 10 00 18 	mov  %i0, %o0
    497c:	92 10 00 1a 	mov  %i2, %o1
    4980:	7f ff ff 84 	call  4790 <matrix_add_const>
    4984:	94 10 00 1c 	mov  %i4, %o2
    4988:	96 10 00 1c 	mov  %i4, %o3
    498c:	90 10 00 18 	mov  %i0, %o0
    4990:	92 10 00 19 	mov  %i1, %o1
    4994:	7f ff ff 69 	call  4738 <matrix_mul_const>
    4998:	94 10 00 1a 	mov  %i2, %o2
    499c:	ba 17 30 00 	or  %i4, -4096, %i5
    49a0:	92 10 00 19 	mov  %i1, %o1
    49a4:	94 10 00 1d 	mov  %i5, %o2
    49a8:	7f ff ff 40 	call  46a8 <matrix_sum>
    49ac:	90 10 00 18 	mov  %i0, %o0
    49b0:	92 10 20 00 	clr  %o1
    49b4:	91 2a 20 10 	sll  %o0, 0x10, %o0
    49b8:	40 00 02 68 	call  5358 <crc16>
    49bc:	91 3a 20 10 	sra  %o0, 0x10, %o0
    49c0:	96 10 00 1b 	mov  %i3, %o3
    49c4:	a0 10 00 08 	mov  %o0, %l0
    49c8:	92 10 00 19 	mov  %i1, %o1
    49cc:	90 10 00 18 	mov  %i0, %o0
    49d0:	7f ff ff 84 	call  47e0 <matrix_mul_vect>
    49d4:	94 10 00 1a 	mov  %i2, %o2
    49d8:	92 10 00 19 	mov  %i1, %o1
    49dc:	94 10 00 1d 	mov  %i5, %o2
    49e0:	7f ff ff 32 	call  46a8 <matrix_sum>
    49e4:	90 10 00 18 	mov  %i0, %o0
    49e8:	83 2a 20 10 	sll  %o0, 0x10, %g1
    49ec:	93 2c 20 10 	sll  %l0, 0x10, %o1
    49f0:	91 38 60 10 	sra  %g1, 0x10, %o0
    49f4:	40 00 02 59 	call  5358 <crc16>
    49f8:	93 32 60 10 	srl  %o1, 0x10, %o1
    49fc:	96 10 00 1b 	mov  %i3, %o3
    4a00:	a0 10 00 08 	mov  %o0, %l0
    4a04:	92 10 00 19 	mov  %i1, %o1
    4a08:	90 10 00 18 	mov  %i0, %o0
    4a0c:	7f ff ff 8b 	call  4838 <matrix_mul_matrix>
    4a10:	94 10 00 1a 	mov  %i2, %o2
    4a14:	94 10 00 1d 	mov  %i5, %o2
    4a18:	92 10 00 19 	mov  %i1, %o1
    4a1c:	7f ff ff 23 	call  46a8 <matrix_sum>
    4a20:	90 10 00 18 	mov  %i0, %o0
    4a24:	85 2c 20 10 	sll  %l0, 0x10, %g2
    4a28:	87 2a 20 10 	sll  %o0, 0x10, %g3
    4a2c:	93 30 a0 10 	srl  %g2, 0x10, %o1
    4a30:	40 00 02 4a 	call  5358 <crc16>
    4a34:	91 38 e0 10 	sra  %g3, 0x10, %o0
    4a38:	96 10 00 1b 	mov  %i3, %o3
    4a3c:	a0 10 00 08 	mov  %o0, %l0
    4a40:	90 10 00 18 	mov  %i0, %o0
    4a44:	92 10 00 19 	mov  %i1, %o1
    4a48:	7f ff ff a1 	call  48cc <matrix_mul_matrix_bitextract>
    4a4c:	94 10 00 1a 	mov  %i2, %o2
    4a50:	92 10 00 19 	mov  %i1, %o1
    4a54:	94 10 00 1d 	mov  %i5, %o2
    4a58:	7f ff ff 14 	call  46a8 <matrix_sum>
    4a5c:	90 10 00 18 	mov  %i0, %o0
    4a60:	89 2c 20 10 	sll  %l0, 0x10, %g4
    4a64:	95 2a 20 10 	sll  %o0, 0x10, %o2
    4a68:	93 31 20 10 	srl  %g4, 0x10, %o1
    4a6c:	40 00 02 3b 	call  5358 <crc16>
    4a70:	91 3a a0 10 	sra  %o2, 0x10, %o0
    4a74:	b8 20 00 1c 	neg  %i4
    4a78:	b2 10 00 08 	mov  %o0, %i1
    4a7c:	92 10 00 1a 	mov  %i2, %o1
    4a80:	97 2f 20 10 	sll  %i4, 0x10, %o3
    4a84:	90 10 00 18 	mov  %i0, %o0
    4a88:	95 3a e0 10 	sra  %o3, 0x10, %o2
    4a8c:	7f ff ff 41 	call  4790 <matrix_add_const>
    4a90:	b1 2e 60 10 	sll  %i1, 0x10, %i0
    4a94:	b1 3e 20 10 	sra  %i0, 0x10, %i0
    4a98:	81 c7 e0 08 	ret 
    4a9c:	81 e8 00 00 	restore 

00004aa0 <core_bench_matrix>:
    4aa0:	9d e3 bf a0 	save  %sp, -96, %sp
    4aa4:	d2 06 20 0c 	ld  [ %i0 + 0xc ], %o1
    4aa8:	d4 06 20 04 	ld  [ %i0 + 4 ], %o2
    4aac:	d6 06 20 08 	ld  [ %i0 + 8 ], %o3
    4ab0:	98 10 00 19 	mov  %i1, %o4
    4ab4:	7f ff ff b0 	call  4974 <matrix_test>
    4ab8:	d0 06 00 00 	ld  [ %i0 ], %o0
    4abc:	92 10 00 1a 	mov  %i2, %o1
    4ac0:	91 2a 20 10 	sll  %o0, 0x10, %o0
    4ac4:	40 00 02 25 	call  5358 <crc16>
    4ac8:	91 3a 20 10 	sra  %o0, 0x10, %o0
    4acc:	81 c7 e0 08 	ret 
    4ad0:	91 e8 00 08 	restore  %g0, %o0, %o0

00004ad4 <barebones_clock>:
    4ad4:	9d e3 bf a0 	save  %sp, -96, %sp
    4ad8:	40 00 0b fc 	call  7ac8 <__ajit_read_cycle_count_register_high__>
    4adc:	01 00 00 00 	nop 
    4ae0:	40 00 0b fd 	call  7ad4 <__ajit_read_cycle_count_register_low__>
    4ae4:	b0 10 00 08 	mov  %o0, %i0
    4ae8:	83 2e 20 18 	sll  %i0, 0x18, %g1
    4aec:	91 32 20 08 	srl  %o0, 8, %o0
    4af0:	b0 12 00 01 	or  %o0, %g1, %i0
    4af4:	81 c7 e0 08 	ret 
    4af8:	81 e8 00 00 	restore 

00004afc <start_time>:
    4afc:	9d e3 bf a0 	save  %sp, -96, %sp
    4b00:	7f ff ff f5 	call  4ad4 <barebones_clock>
    4b04:	01 00 00 00 	nop 
    4b08:	03 00 00 83 	sethi  %hi(0x20c00), %g1
    4b0c:	d0 20 62 e8 	st  %o0, [ %g1 + 0x2e8 ]	! 20ee8 <start_time_val>
    4b10:	81 c7 e0 08 	ret 
    4b14:	81 e8 00 00 	restore 

00004b18 <stop_time>:
    4b18:	9d e3 bf a0 	save  %sp, -96, %sp
    4b1c:	7f ff ff ee 	call  4ad4 <barebones_clock>
    4b20:	01 00 00 00 	nop 
    4b24:	03 00 00 83 	sethi  %hi(0x20c00), %g1
    4b28:	d0 20 62 ec 	st  %o0, [ %g1 + 0x2ec ]	! 20eec <stop_time_val>
    4b2c:	81 c7 e0 08 	ret 
    4b30:	81 e8 00 00 	restore 

00004b34 <get_time>:
    4b34:	03 00 00 83 	sethi  %hi(0x20c00), %g1
    4b38:	d0 00 62 ec 	ld  [ %g1 + 0x2ec ], %o0	! 20eec <stop_time_val>
    4b3c:	03 00 00 83 	sethi  %hi(0x20c00), %g1
    4b40:	c2 00 62 e8 	ld  [ %g1 + 0x2e8 ], %g1	! 20ee8 <start_time_val>
    4b44:	81 c3 e0 08 	retl 
    4b48:	90 22 00 01 	sub  %o0, %g1, %o0

00004b4c <time_in_secs>:
    4b4c:	9c 03 bf b0 	add  %sp, -80, %sp
    4b50:	80 a2 20 00 	cmp  %o0, 0
    4b54:	d5 03 a0 4c 	ld  [ %sp + 0x4c ], %f10
    4b58:	d0 23 a0 4c 	st  %o0, [ %sp + 0x4c ]
    4b5c:	16 80 00 05 	bge  4b70 <time_in_secs+0x24>
    4b60:	91 a0 19 0a 	fitod  %f10, %f8
    4b64:	03 00 00 81 	sethi  %hi(0x20400), %g1
    4b68:	c1 18 62 90 	ldd  [ %g1 + 0x290 ], %f0	! 20690 <state_known_crc+0x67c>
    4b6c:	91 a2 08 40 	faddd  %f8, %f0, %f8
    4b70:	03 00 00 81 	sethi  %hi(0x20400), %g1
    4b74:	9c 23 bf b0 	sub  %sp, -80, %sp
    4b78:	c5 18 62 a0 	ldd  [ %g1 + 0x2a0 ], %f2
    4b7c:	81 c3 e0 08 	retl 
    4b80:	81 a2 09 c2 	fdivd  %f8, %f2, %f0

00004b84 <portable_init>:
    4b84:	9d e3 bf a0 	save  %sp, -96, %sp
    4b88:	90 10 20 01 	mov  1, %o0
    4b8c:	92 10 20 00 	clr  %o1
    4b90:	40 00 0c 38 	call  7c70 <__ajit_serial_configure__>
    4b94:	94 10 20 00 	clr  %o2
    4b98:	92 10 20 0d 	mov  0xd, %o1
    4b9c:	11 00 00 81 	sethi  %hi(0x20400), %o0
    4ba0:	40 00 0c 77 	call  7d7c <__ajit_serial_puts__>
    4ba4:	90 12 21 20 	or  %o0, 0x120, %o0	! 20520 <state_known_crc+0x50c>
    4ba8:	03 00 00 83 	sethi  %hi(0x20c00), %g1
    4bac:	84 10 20 66 	mov  0x66, %g2
    4bb0:	86 10 27 d0 	mov  0x7d0, %g3
    4bb4:	c0 20 62 e4 	clr  [ %g1 + 0x2e4 ]
    4bb8:	03 00 00 83 	sethi  %hi(0x20c00), %g1
    4bbc:	c0 20 62 e0 	clr  [ %g1 + 0x2e0 ]	! 20ee0 <seed2_volatile>
    4bc0:	03 00 00 81 	sethi  %hi(0x20400), %g1
    4bc4:	c4 20 62 c8 	st  %g2, [ %g1 + 0x2c8 ]	! 206c8 <seed3_volatile>
    4bc8:	03 00 00 81 	sethi  %hi(0x20400), %g1
    4bcc:	c6 20 62 c4 	st  %g3, [ %g1 + 0x2c4 ]	! 206c4 <seed4_volatile>
    4bd0:	03 00 00 81 	sethi  %hi(0x20400), %g1
    4bd4:	c0 20 62 c0 	clr  [ %g1 + 0x2c0 ]	! 206c0 <seed5_volatile>
    4bd8:	82 10 20 01 	mov  1, %g1
    4bdc:	c2 2e 00 00 	stb  %g1, [ %i0 ]
    4be0:	81 c7 e0 08 	ret 
    4be4:	81 e8 00 00 	restore 

00004be8 <portable_fini>:
    4be8:	9d e3 bf a0 	save  %sp, -96, %sp
    4bec:	92 10 20 0e 	mov  0xe, %o1
    4bf0:	11 00 00 81 	sethi  %hi(0x20400), %o0
    4bf4:	40 00 0c 62 	call  7d7c <__ajit_serial_puts__>
    4bf8:	90 12 21 30 	or  %o0, 0x130, %o0	! 20530 <state_known_crc+0x51c>
    4bfc:	c0 2e 00 00 	clrb  [ %i0 ]
    4c00:	81 c7 e0 08 	ret 
    4c04:	81 e8 00 00 	restore 
    4c08:	00 00 4c e0 	unimp  0x4ce0
    4c0c:	00 00 4c e0 	unimp  0x4ce0
    4c10:	00 00 4c e0 	unimp  0x4ce0
    4c14:	00 00 4c f8 	unimp  0x4cf8
    4c18:	00 00 4c f8 	unimp  0x4cf8
    4c1c:	00 00 4d 10 	unimp  0x4d10
    4c20:	00 00 4d 10 	unimp  0x4d10
    4c24:	00 00 4d 28 	unimp  0x4d28
    4c28:	00 00 4d f0 	unimp  0x4df0
    4c2c:	00 00 4f bc 	unimp  0x4fbc
    4c30:	00 00 4e 50 	unimp  0x4e50
    4c34:	00 00 4f 30 	unimp  0x4f30
    4c38:	00 00 4e a0 	unimp  0x4ea0
    4c3c:	00 00 4e e8 	unimp  0x4ee8
    4c40:	00 00 4f 68 	unimp  0x4f68
    4c44:	00 00 4f 98 	unimp  0x4f98

00004c48 <ee_isdigit>:
    4c48:	90 02 3f d0 	add  %o0, -48, %o0
    4c4c:	82 0a 20 ff 	and  %o0, 0xff, %g1
    4c50:	80 a0 60 0a 	cmp  %g1, 0xa
    4c54:	81 c3 e0 08 	retl 
    4c58:	90 40 20 00 	addx  %g0, 0, %o0

00004c5c <core_init_state>:
    4c5c:	9d e3 bf a0 	save  %sp, -96, %sp
    4c60:	b8 10 20 00 	clr  %i4
    4c64:	9a 06 3f ff 	add  %i0, -1, %o5
    4c68:	88 10 20 00 	clr  %g4
    4c6c:	ba 10 20 00 	clr  %i5
    4c70:	96 10 20 2c 	mov  0x2c, %o3
    4c74:	19 00 00 13 	sethi  %hi(0x4c00), %o4
    4c78:	21 00 00 81 	sethi  %hi(0x20400), %l0
    4c7c:	11 00 00 81 	sethi  %hi(0x20400), %o0
    4c80:	13 00 00 81 	sethi  %hi(0x20400), %o1
    4c84:	10 80 00 2e 	b  4d3c <core_init_state+0xe0>
    4c88:	15 00 00 81 	sethi  %hi(0x20400), %o2
    4c8c:	22 80 00 0d 	be,a   4cc0 <core_init_state+0x64>
    4c90:	b2 06 60 01 	inc  %i1
    4c94:	82 10 20 00 	clr  %g1
    4c98:	84 06 80 1d 	add  %i2, %i5, %g2
    4c9c:	c6 0f 00 01 	ldub  [ %i4 + %g1 ], %g3
    4ca0:	c6 28 80 01 	stb  %g3, [ %g2 + %g1 ]
    4ca4:	82 00 60 01 	inc  %g1
    4ca8:	80 a0 40 04 	cmp  %g1, %g4
    4cac:	32 bf ff fd 	bne,a   4ca0 <core_init_state+0x44>
    4cb0:	c6 0f 00 01 	ldub  [ %i4 + %g1 ], %g3
    4cb4:	d6 2e 80 0f 	stb  %o3, [ %i2 + %o7 ]
    4cb8:	ba 10 00 1b 	mov  %i3, %i5
    4cbc:	b2 06 60 01 	inc  %i1
    4cc0:	b9 2e 60 10 	sll  %i1, 0x10, %i4
    4cc4:	88 13 20 08 	or  %o4, 8, %g4
    4cc8:	b3 3f 20 10 	sra  %i4, 0x10, %i1
    4ccc:	82 0e 60 07 	and  %i1, 7, %g1
    4cd0:	83 28 60 02 	sll  %g1, 2, %g1
    4cd4:	c2 01 00 01 	ld  [ %g4 + %g1 ], %g1
    4cd8:	81 c0 40 00 	jmp  %g1
    4cdc:	01 00 00 00 	nop 
    4ce0:	83 36 60 01 	srl  %i1, 1, %g1
    4ce4:	88 10 20 04 	mov  4, %g4
    4ce8:	84 12 a2 fc 	or  %o2, 0x2fc, %g2
    4cec:	82 08 60 0c 	and  %g1, 0xc, %g1
    4cf0:	10 80 00 13 	b  4d3c <core_init_state+0xe0>
    4cf4:	f8 00 80 01 	ld  [ %g2 + %g1 ], %i4
    4cf8:	83 36 60 01 	srl  %i1, 1, %g1
    4cfc:	86 12 62 ec 	or  %o1, 0x2ec, %g3
    4d00:	88 10 20 08 	mov  8, %g4
    4d04:	82 08 60 0c 	and  %g1, 0xc, %g1
    4d08:	10 80 00 0d 	b  4d3c <core_init_state+0xe0>
    4d0c:	f8 00 c0 01 	ld  [ %g3 + %g1 ], %i4
    4d10:	83 36 60 01 	srl  %i1, 1, %g1
    4d14:	88 10 20 08 	mov  8, %g4
    4d18:	b6 12 22 dc 	or  %o0, 0x2dc, %i3
    4d1c:	82 08 60 0c 	and  %g1, 0xc, %g1
    4d20:	10 80 00 07 	b  4d3c <core_init_state+0xe0>
    4d24:	f8 06 c0 01 	ld  [ %i3 + %g1 ], %i4
    4d28:	b8 14 22 cc 	or  %l0, 0x2cc, %i4
    4d2c:	83 36 60 01 	srl  %i1, 1, %g1
    4d30:	88 10 20 08 	mov  8, %g4
    4d34:	82 08 60 0c 	and  %g1, 0xc, %g1
    4d38:	f8 07 00 01 	ld  [ %i4 + %g1 ], %i4
    4d3c:	9e 07 40 04 	add  %i5, %g4, %o7
    4d40:	b6 03 e0 01 	add  %o7, 1, %i3
    4d44:	80 a3 40 1b 	cmp  %o5, %i3
    4d48:	18 bf ff d1 	bgu  4c8c <core_init_state+0x30>
    4d4c:	80 a1 20 00 	cmp  %g4, 0
    4d50:	80 a6 00 1d 	cmp  %i0, %i5
    4d54:	08 80 00 08 	bleu  4d74 <core_init_state+0x118>
    4d58:	ba 06 80 1d 	add  %i2, %i5, %i5
    4d5c:	b4 06 80 18 	add  %i2, %i0, %i2
    4d60:	c0 2f 40 00 	clrb  [ %i5 ]
    4d64:	ba 07 60 01 	inc  %i5
    4d68:	80 a7 40 1a 	cmp  %i5, %i2
    4d6c:	32 bf ff fe 	bne,a   4d64 <core_init_state+0x108>
    4d70:	c0 2f 40 00 	clrb  [ %i5 ]
    4d74:	81 c7 e0 08 	ret 
    4d78:	81 e8 00 00 	restore 

00004d7c <core_state_transition>:
    4d7c:	9d e3 bf a0 	save  %sp, -96, %sp
    4d80:	c8 06 00 00 	ld  [ %i0 ], %g4
    4d84:	fa 09 00 00 	ldub  [ %g4 ], %i5
    4d88:	80 8f 60 ff 	btst  0xff, %i5
    4d8c:	02 80 00 96 	be  4fe4 <core_state_transition+0x268>
    4d90:	a2 10 00 18 	mov  %i0, %l1
    4d94:	82 0f 60 ff 	and  %i5, 0xff, %g1
    4d98:	80 a0 60 2c 	cmp  %g1, 0x2c
    4d9c:	12 80 00 0d 	bne  4dd0 <core_state_transition+0x54>
    4da0:	b8 01 20 01 	add  %g4, 1, %i4
    4da4:	10 80 00 09 	b  4dc8 <core_state_transition+0x4c>
    4da8:	b0 10 20 00 	clr  %i0
    4dac:	82 0f 60 ff 	and  %i5, 0xff, %g1
    4db0:	b8 07 20 01 	inc  %i4
    4db4:	80 a0 60 2c 	cmp  %g1, 0x2c
    4db8:	12 80 00 09 	bne  4ddc <core_state_transition+0x60>
    4dbc:	b6 06 e0 01 	inc  %i3
    4dc0:	10 80 00 8a 	b  4fe8 <core_state_transition+0x26c>
    4dc4:	88 01 20 01 	inc  %g4
    4dc8:	10 80 00 88 	b  4fe8 <core_state_transition+0x26c>
    4dcc:	88 01 20 01 	inc  %g4
    4dd0:	b0 10 20 00 	clr  %i0
    4dd4:	21 00 00 13 	sethi  %hi(0x4c00), %l0
    4dd8:	b6 10 00 04 	mov  %g4, %i3
    4ddc:	84 14 20 28 	or  %l0, 0x28, %g2
    4de0:	83 2e 20 02 	sll  %i0, 2, %g1
    4de4:	c2 00 80 01 	ld  [ %g2 + %g1 ], %g1
    4de8:	81 c0 40 00 	jmp  %g1
    4dec:	b4 10 00 1b 	mov  %i3, %i2
    4df0:	90 0f 60 ff 	and  %i5, 0xff, %o0
    4df4:	7f ff ff 95 	call  4c48 <ee_isdigit>
    4df8:	b0 10 20 04 	mov  4, %i0
    4dfc:	80 8a 20 ff 	btst  0xff, %o0
    4e00:	32 80 00 11 	bne,a   4e44 <core_state_transition+0xc8>
    4e04:	c2 06 40 00 	ld  [ %i1 ], %g1
    4e08:	82 0f 60 ff 	and  %i5, 0xff, %g1
    4e0c:	80 a0 60 2d 	cmp  %g1, 0x2d
    4e10:	22 80 00 0c 	be,a   4e40 <core_state_transition+0xc4>
    4e14:	b0 10 20 02 	mov  2, %i0
    4e18:	80 a0 60 2b 	cmp  %g1, 0x2b
    4e1c:	22 80 00 09 	be,a   4e40 <core_state_transition+0xc4>
    4e20:	b0 10 20 02 	mov  2, %i0
    4e24:	80 a0 60 2e 	cmp  %g1, 0x2e
    4e28:	02 80 00 06 	be  4e40 <core_state_transition+0xc4>
    4e2c:	b0 10 20 05 	mov  5, %i0
    4e30:	c2 06 60 04 	ld  [ %i1 + 4 ], %g1
    4e34:	b0 10 20 01 	mov  1, %i0
    4e38:	82 00 60 01 	inc  %g1
    4e3c:	c2 26 60 04 	st  %g1, [ %i1 + 4 ]
    4e40:	c2 06 40 00 	ld  [ %i1 ], %g1
    4e44:	82 00 60 01 	inc  %g1
    4e48:	10 80 00 5d 	b  4fbc <core_state_transition+0x240>
    4e4c:	c2 26 40 00 	st  %g1, [ %i1 ]
    4e50:	7f ff ff 7e 	call  4c48 <ee_isdigit>
    4e54:	90 0f 60 ff 	and  %i5, 0xff, %o0
    4e58:	80 8a 20 ff 	btst  0xff, %o0
    4e5c:	02 80 00 07 	be  4e78 <core_state_transition+0xfc>
    4e60:	86 0f 60 ff 	and  %i5, 0xff, %g3
    4e64:	c2 06 60 08 	ld  [ %i1 + 8 ], %g1
    4e68:	b0 10 20 04 	mov  4, %i0
    4e6c:	82 00 60 01 	inc  %g1
    4e70:	10 80 00 64 	b  5000 <core_state_transition+0x284>
    4e74:	c2 26 60 08 	st  %g1, [ %i1 + 8 ]
    4e78:	80 a0 e0 2e 	cmp  %g3, 0x2e
    4e7c:	12 80 00 06 	bne  4e94 <core_state_transition+0x118>
    4e80:	c2 06 60 08 	ld  [ %i1 + 8 ], %g1
    4e84:	82 00 60 01 	inc  %g1
    4e88:	b0 10 20 05 	mov  5, %i0
    4e8c:	10 80 00 5d 	b  5000 <core_state_transition+0x284>
    4e90:	c2 26 60 08 	st  %g1, [ %i1 + 8 ]
    4e94:	82 00 60 01 	inc  %g1
    4e98:	10 80 00 57 	b  4ff4 <core_state_transition+0x278>
    4e9c:	c2 26 60 08 	st  %g1, [ %i1 + 8 ]
    4ea0:	82 0f 60 ff 	and  %i5, 0xff, %g1
    4ea4:	80 a0 60 2e 	cmp  %g1, 0x2e
    4ea8:	12 80 00 07 	bne  4ec4 <core_state_transition+0x148>
    4eac:	01 00 00 00 	nop 
    4eb0:	c2 06 60 10 	ld  [ %i1 + 0x10 ], %g1
    4eb4:	b0 10 20 05 	mov  5, %i0
    4eb8:	82 00 60 01 	inc  %g1
    4ebc:	10 80 00 51 	b  5000 <core_state_transition+0x284>
    4ec0:	c2 26 60 10 	st  %g1, [ %i1 + 0x10 ]
    4ec4:	7f ff ff 61 	call  4c48 <ee_isdigit>
    4ec8:	90 0f 60 ff 	and  %i5, 0xff, %o0
    4ecc:	80 8a 20 ff 	btst  0xff, %o0
    4ed0:	32 80 00 4d 	bne,a   5004 <core_state_transition+0x288>
    4ed4:	fa 0e a0 01 	ldub  [ %i2 + 1 ], %i5
    4ed8:	c2 06 60 10 	ld  [ %i1 + 0x10 ], %g1
    4edc:	82 00 60 01 	inc  %g1
    4ee0:	10 80 00 45 	b  4ff4 <core_state_transition+0x278>
    4ee4:	c2 26 60 10 	st  %g1, [ %i1 + 0x10 ]
    4ee8:	82 0f 60 df 	and  %i5, 0xdf, %g1
    4eec:	80 a0 60 45 	cmp  %g1, 0x45
    4ef0:	12 80 00 07 	bne  4f0c <core_state_transition+0x190>
    4ef4:	01 00 00 00 	nop 
    4ef8:	c2 06 60 14 	ld  [ %i1 + 0x14 ], %g1
    4efc:	b0 10 20 03 	mov  3, %i0
    4f00:	82 00 60 01 	inc  %g1
    4f04:	10 80 00 3f 	b  5000 <core_state_transition+0x284>
    4f08:	c2 26 60 14 	st  %g1, [ %i1 + 0x14 ]
    4f0c:	7f ff ff 4f 	call  4c48 <ee_isdigit>
    4f10:	90 0f 60 ff 	and  %i5, 0xff, %o0
    4f14:	80 8a 20 ff 	btst  0xff, %o0
    4f18:	32 80 00 3b 	bne,a   5004 <core_state_transition+0x288>
    4f1c:	fa 0e a0 01 	ldub  [ %i2 + 1 ], %i5
    4f20:	c2 06 60 14 	ld  [ %i1 + 0x14 ], %g1
    4f24:	82 00 60 01 	inc  %g1
    4f28:	10 80 00 33 	b  4ff4 <core_state_transition+0x278>
    4f2c:	c2 26 60 14 	st  %g1, [ %i1 + 0x14 ]
    4f30:	82 0f 60 ff 	and  %i5, 0xff, %g1
    4f34:	80 a0 60 2d 	cmp  %g1, 0x2d
    4f38:	22 80 00 05 	be,a   4f4c <core_state_transition+0x1d0>
    4f3c:	c2 06 60 0c 	ld  [ %i1 + 0xc ], %g1
    4f40:	80 a0 60 2b 	cmp  %g1, 0x2b
    4f44:	12 80 00 06 	bne  4f5c <core_state_transition+0x1e0>
    4f48:	c2 06 60 0c 	ld  [ %i1 + 0xc ], %g1
    4f4c:	b0 10 20 06 	mov  6, %i0
    4f50:	82 00 60 01 	inc  %g1
    4f54:	10 80 00 2b 	b  5000 <core_state_transition+0x284>
    4f58:	c2 26 60 0c 	st  %g1, [ %i1 + 0xc ]
    4f5c:	82 00 60 01 	inc  %g1
    4f60:	10 80 00 25 	b  4ff4 <core_state_transition+0x278>
    4f64:	c2 26 60 0c 	st  %g1, [ %i1 + 0xc ]
    4f68:	7f ff ff 38 	call  4c48 <ee_isdigit>
    4f6c:	90 0f 60 ff 	and  %i5, 0xff, %o0
    4f70:	80 8a 20 ff 	btst  0xff, %o0
    4f74:	02 80 00 06 	be  4f8c <core_state_transition+0x210>
    4f78:	c2 06 60 18 	ld  [ %i1 + 0x18 ], %g1
    4f7c:	b0 10 20 07 	mov  7, %i0
    4f80:	82 00 60 01 	inc  %g1
    4f84:	10 80 00 1f 	b  5000 <core_state_transition+0x284>
    4f88:	c2 26 60 18 	st  %g1, [ %i1 + 0x18 ]
    4f8c:	82 00 60 01 	inc  %g1
    4f90:	10 80 00 19 	b  4ff4 <core_state_transition+0x278>
    4f94:	c2 26 60 18 	st  %g1, [ %i1 + 0x18 ]
    4f98:	7f ff ff 2c 	call  4c48 <ee_isdigit>
    4f9c:	90 0f 60 ff 	and  %i5, 0xff, %o0
    4fa0:	80 8a 20 ff 	btst  0xff, %o0
    4fa4:	32 80 00 18 	bne,a   5004 <core_state_transition+0x288>
    4fa8:	fa 0e a0 01 	ldub  [ %i2 + 1 ], %i5
    4fac:	c2 06 60 04 	ld  [ %i1 + 4 ], %g1
    4fb0:	82 00 60 01 	inc  %g1
    4fb4:	10 80 00 10 	b  4ff4 <core_state_transition+0x278>
    4fb8:	c2 26 60 04 	st  %g1, [ %i1 + 4 ]
    4fbc:	fa 0e a0 01 	ldub  [ %i2 + 1 ], %i5
    4fc0:	80 8f 60 ff 	btst  0xff, %i5
    4fc4:	02 80 00 09 	be  4fe8 <core_state_transition+0x26c>
    4fc8:	88 10 00 1c 	mov  %i4, %g4
    4fcc:	80 a6 20 01 	cmp  %i0, 1
    4fd0:	12 bf ff 78 	bne  4db0 <core_state_transition+0x34>
    4fd4:	82 0f 60 ff 	and  %i5, 0xff, %g1
    4fd8:	c8 24 40 00 	st  %g4, [ %l1 ]
    4fdc:	81 c7 e0 08 	ret 
    4fe0:	81 e8 00 00 	restore 
    4fe4:	b0 10 20 00 	clr  %i0
    4fe8:	c8 24 40 00 	st  %g4, [ %l1 ]
    4fec:	81 c7 e0 08 	ret 
    4ff0:	81 e8 00 00 	restore 
    4ff4:	88 06 a0 01 	add  %i2, 1, %g4
    4ff8:	10 bf ff fc 	b  4fe8 <core_state_transition+0x26c>
    4ffc:	b0 10 20 01 	mov  1, %i0
    5000:	fa 0e a0 01 	ldub  [ %i2 + 1 ], %i5
    5004:	80 8f 60 ff 	btst  0xff, %i5
    5008:	12 bf ff 69 	bne  4dac <core_state_transition+0x30>
    500c:	88 10 00 1c 	mov  %i4, %g4
    5010:	c8 24 40 00 	st  %g4, [ %l1 ]
    5014:	81 c7 e0 08 	ret 
    5018:	81 e8 00 00 	restore 

0000501c <core_bench_state>:
    501c:	9d e3 bf 58 	save  %sp, -168, %sp
    5020:	82 10 20 00 	clr  %g1
    5024:	84 07 bf c0 	add  %fp, -64, %g2
    5028:	f2 27 bf bc 	st  %i1, [ %fp + -68 ]
    502c:	86 07 bf e0 	add  %fp, -32, %g3
    5030:	c0 20 40 02 	clr  [ %g1 + %g2 ]
    5034:	c0 20 40 03 	clr  [ %g1 + %g3 ]
    5038:	82 00 60 04 	add  %g1, 4, %g1
    503c:	80 a0 60 20 	cmp  %g1, 0x20
    5040:	32 bf ff fd 	bne,a   5034 <core_bench_state+0x18>
    5044:	c0 20 40 02 	clr  [ %g1 + %g2 ]
    5048:	c2 07 bf bc 	ld  [ %fp + -68 ], %g1
    504c:	c2 08 40 00 	ldub  [ %g1 ], %g1
    5050:	80 a0 60 00 	cmp  %g1, 0
    5054:	02 80 00 10 	be  5094 <core_bench_state+0x78>
    5058:	a0 06 40 18 	add  %i1, %i0, %l0
    505c:	92 07 bf c0 	add  %fp, -64, %o1
    5060:	7f ff ff 47 	call  4d7c <core_state_transition>
    5064:	90 07 bf bc 	add  %fp, -68, %o0
    5068:	91 2a 20 02 	sll  %o0, 2, %o0
    506c:	82 07 80 08 	add  %fp, %o0, %g1
    5070:	c8 00 7f e0 	ld  [ %g1 + -32 ], %g4
    5074:	92 01 20 01 	add  %g4, 1, %o1
    5078:	d2 20 7f e0 	st  %o1, [ %g1 + -32 ]
    507c:	c2 07 bf bc 	ld  [ %fp + -68 ], %g1
    5080:	c2 08 40 00 	ldub  [ %g1 ], %g1
    5084:	80 a0 60 00 	cmp  %g1, 0
    5088:	12 bf ff f6 	bne  5060 <core_bench_state+0x44>
    508c:	92 07 bf c0 	add  %fp, -64, %o1
    5090:	a0 06 40 18 	add  %i1, %i0, %l0
    5094:	80 a6 40 10 	cmp  %i1, %l0
    5098:	1a 80 00 0e 	bcc  50d0 <core_bench_state+0xb4>
    509c:	f2 27 bf bc 	st  %i1, [ %fp + -68 ]
    50a0:	82 10 00 19 	mov  %i1, %g1
    50a4:	d4 08 40 00 	ldub  [ %g1 ], %o2
    50a8:	96 0a a0 ff 	and  %o2, 0xff, %o3
    50ac:	80 a2 e0 2c 	cmp  %o3, 0x2c
    50b0:	02 80 00 03 	be  50bc <core_bench_state+0xa0>
    50b4:	98 1a 80 1a 	xor  %o2, %i2, %o4
    50b8:	d8 28 40 00 	stb  %o4, [ %g1 ]
    50bc:	c2 07 bf bc 	ld  [ %fp + -68 ], %g1
    50c0:	82 00 40 1c 	add  %g1, %i4, %g1
    50c4:	80 a0 40 10 	cmp  %g1, %l0
    50c8:	0a bf ff f7 	bcs  50a4 <core_bench_state+0x88>
    50cc:	c2 27 bf bc 	st  %g1, [ %fp + -68 ]
    50d0:	c2 0e 40 00 	ldub  [ %i1 ], %g1
    50d4:	f2 27 bf bc 	st  %i1, [ %fp + -68 ]
    50d8:	80 a0 60 00 	cmp  %g1, 0
    50dc:	02 80 00 10 	be  511c <core_bench_state+0x100>
    50e0:	80 a6 40 10 	cmp  %i1, %l0
    50e4:	90 07 bf bc 	add  %fp, -68, %o0
    50e8:	7f ff ff 25 	call  4d7c <core_state_transition>
    50ec:	92 07 bf c0 	add  %fp, -64, %o1
    50f0:	9b 2a 20 02 	sll  %o0, 2, %o5
    50f4:	82 07 80 0d 	add  %fp, %o5, %g1
    50f8:	f0 00 7f e0 	ld  [ %g1 + -32 ], %i0
    50fc:	b4 06 20 01 	add  %i0, 1, %i2
    5100:	f4 20 7f e0 	st  %i2, [ %g1 + -32 ]
    5104:	c2 07 bf bc 	ld  [ %fp + -68 ], %g1
    5108:	c2 08 40 00 	ldub  [ %g1 ], %g1
    510c:	80 a0 60 00 	cmp  %g1, 0
    5110:	12 bf ff f6 	bne  50e8 <core_bench_state+0xcc>
    5114:	90 07 bf bc 	add  %fp, -68, %o0
    5118:	80 a6 40 10 	cmp  %i1, %l0
    511c:	1a 80 00 1d 	bcc  5190 <core_bench_state+0x174>
    5120:	f2 27 bf bc 	st  %i1, [ %fp + -68 ]
    5124:	c2 0e 40 00 	ldub  [ %i1 ], %g1
    5128:	9e 08 60 ff 	and  %g1, 0xff, %o7
    512c:	80 a3 e0 2c 	cmp  %o7, 0x2c
    5130:	02 80 00 03 	be  513c <core_bench_state+0x120>
    5134:	82 18 40 1b 	xor  %g1, %i3, %g1
    5138:	c2 2e 40 00 	stb  %g1, [ %i1 ]
    513c:	f2 07 bf bc 	ld  [ %fp + -68 ], %i1
    5140:	b2 06 40 1c 	add  %i1, %i4, %i1
    5144:	80 a6 40 10 	cmp  %i1, %l0
    5148:	0a bf ff f7 	bcs  5124 <core_bench_state+0x108>
    514c:	f2 27 bf bc 	st  %i1, [ %fp + -68 ]
    5150:	10 80 00 02 	b  5158 <core_bench_state+0x13c>
    5154:	b8 10 20 00 	clr  %i4
    5158:	82 07 bf e0 	add  %fp, -32, %g1
    515c:	92 10 00 1d 	mov  %i5, %o1
    5160:	40 00 00 b1 	call  5424 <crcu32>
    5164:	d0 07 00 01 	ld  [ %i4 + %g1 ], %o0
    5168:	82 07 bf c0 	add  %fp, -64, %g1
    516c:	92 10 00 08 	mov  %o0, %o1
    5170:	40 00 00 ad 	call  5424 <crcu32>
    5174:	d0 07 00 01 	ld  [ %i4 + %g1 ], %o0
    5178:	b8 07 20 04 	add  %i4, 4, %i4
    517c:	80 a7 20 20 	cmp  %i4, 0x20
    5180:	12 bf ff f6 	bne  5158 <core_bench_state+0x13c>
    5184:	ba 10 00 08 	mov  %o0, %i5
    5188:	81 c7 e0 08 	ret 
    518c:	91 e8 00 08 	restore  %g0, %o0, %o0
    5190:	10 bf ff f2 	b  5158 <core_bench_state+0x13c>
    5194:	b8 10 20 00 	clr  %i4
    5198:	00 00 52 20 	unimp  0x5220
    519c:	00 00 51 d0 	unimp  0x51d0
    51a0:	00 00 51 e0 	unimp  0x51e0
    51a4:	00 00 51 f0 	unimp  0x51f0
    51a8:	00 00 52 00 	unimp  0x5200
    51ac:	00 00 52 10 	unimp  0x5210

000051b0 <get_seed_32>:
    51b0:	80 a2 20 05 	cmp  %o0, 5
    51b4:	18 80 00 1b 	bgu  5220 <get_seed_32+0x70>
    51b8:	03 00 00 14 	sethi  %hi(0x5000), %g1
    51bc:	91 2a 20 02 	sll  %o0, 2, %o0
    51c0:	82 10 61 98 	or  %g1, 0x198, %g1
    51c4:	c2 00 40 08 	ld  [ %g1 + %o0 ], %g1
    51c8:	81 c0 40 00 	jmp  %g1
    51cc:	01 00 00 00 	nop 
    51d0:	03 00 00 83 	sethi  %hi(0x20c00), %g1
    51d4:	d0 00 62 e4 	ld  [ %g1 + 0x2e4 ], %o0	! 20ee4 <seed1_volatile>
    51d8:	81 c3 e0 08 	retl 
    51dc:	01 00 00 00 	nop 
    51e0:	03 00 00 83 	sethi  %hi(0x20c00), %g1
    51e4:	d0 00 62 e0 	ld  [ %g1 + 0x2e0 ], %o0	! 20ee0 <seed2_volatile>
    51e8:	81 c3 e0 08 	retl 
    51ec:	01 00 00 00 	nop 
    51f0:	03 00 00 81 	sethi  %hi(0x20400), %g1
    51f4:	d0 00 62 c8 	ld  [ %g1 + 0x2c8 ], %o0	! 206c8 <seed3_volatile>
    51f8:	81 c3 e0 08 	retl 
    51fc:	01 00 00 00 	nop 
    5200:	03 00 00 81 	sethi  %hi(0x20400), %g1
    5204:	d0 00 62 c4 	ld  [ %g1 + 0x2c4 ], %o0	! 206c4 <seed4_volatile>
    5208:	81 c3 e0 08 	retl 
    520c:	01 00 00 00 	nop 
    5210:	03 00 00 81 	sethi  %hi(0x20400), %g1
    5214:	d0 00 62 c0 	ld  [ %g1 + 0x2c0 ], %o0	! 206c0 <seed5_volatile>
    5218:	81 c3 e0 08 	retl 
    521c:	01 00 00 00 	nop 
    5220:	81 c3 e0 08 	retl 
    5224:	90 10 20 00 	clr  %o0	! 0 <_start>

00005228 <crcu8>:
    5228:	09 00 00 1f 	sethi  %hi(0x7c00), %g4
    522c:	19 00 00 10 	sethi  %hi(0x4000), %o4
    5230:	84 10 20 08 	mov  8, %g2
    5234:	1b 3f ff e0 	sethi  %hi(0xffff8000), %o5
    5238:	82 10 00 08 	mov  %o0, %g1
    523c:	90 10 00 09 	mov  %o1, %o0
    5240:	92 11 23 ff 	or  %g4, 0x3ff, %o1
    5244:	88 13 20 02 	or  %o4, 2, %g4
    5248:	86 18 40 08 	xor  %g1, %o0, %g3
    524c:	80 88 e0 01 	btst  1, %g3
    5250:	02 80 00 0d 	be  5284 <crcu8+0x5c>
    5254:	83 30 60 01 	srl  %g1, 1, %g1
    5258:	98 1a 00 04 	xor  %o0, %g4, %o4
    525c:	87 33 20 01 	srl  %o4, 1, %g3
    5260:	90 10 c0 0d 	or  %g3, %o5, %o0
    5264:	99 2a 20 10 	sll  %o0, 0x10, %o4
    5268:	91 33 20 10 	srl  %o4, 0x10, %o0
    526c:	84 00 bf ff 	add  %g2, -1, %g2
    5270:	80 88 a0 ff 	btst  0xff, %g2
    5274:	12 bf ff f6 	bne  524c <crcu8+0x24>
    5278:	86 18 40 08 	xor  %g1, %o0, %g3
    527c:	81 c3 e0 08 	retl 
    5280:	01 00 00 00 	nop 
    5284:	91 32 20 01 	srl  %o0, 1, %o0
    5288:	10 bf ff f9 	b  526c <crcu8+0x44>
    528c:	90 0a 00 09 	and  %o0, %o1, %o0

00005290 <crcu16>:
    5290:	09 00 00 1f 	sethi  %hi(0x7c00), %g4
    5294:	19 00 00 10 	sethi  %hi(0x4000), %o4
    5298:	84 10 00 08 	mov  %o0, %g2
    529c:	82 10 20 08 	mov  8, %g1
    52a0:	88 11 23 ff 	or  %g4, 0x3ff, %g4
    52a4:	86 1a 40 02 	xor  %o1, %g2, %g3
    52a8:	98 13 20 02 	or  %o4, 2, %o4
    52ac:	1b 3f ff e0 	sethi  %hi(0xffff8000), %o5
    52b0:	84 08 a0 ff 	and  %g2, 0xff, %g2
    52b4:	80 88 e0 01 	btst  1, %g3
    52b8:	02 80 00 22 	be  5340 <crcu16+0xb0>
    52bc:	85 30 a0 01 	srl  %g2, 1, %g2
    52c0:	86 1a 40 0c 	xor  %o1, %o4, %g3
    52c4:	93 30 e0 01 	srl  %g3, 1, %o1
    52c8:	86 12 40 0d 	or  %o1, %o5, %g3
    52cc:	93 28 e0 10 	sll  %g3, 0x10, %o1
    52d0:	93 32 60 10 	srl  %o1, 0x10, %o1
    52d4:	82 00 7f ff 	add  %g1, -1, %g1
    52d8:	80 88 60 ff 	btst  0xff, %g1
    52dc:	12 bf ff f5 	bne  52b0 <crcu16+0x20>
    52e0:	86 1a 40 02 	xor  %o1, %g2, %g3
    52e4:	09 00 00 1f 	sethi  %hi(0x7c00), %g4
    52e8:	1b 00 00 10 	sethi  %hi(0x4000), %o5
    52ec:	91 32 20 08 	srl  %o0, 8, %o0
    52f0:	98 11 23 ff 	or  %g4, 0x3ff, %o4
    52f4:	09 3f ff e0 	sethi  %hi(0xffff8000), %g4
    52f8:	84 1a 40 08 	xor  %o1, %o0, %g2
    52fc:	82 10 20 08 	mov  8, %g1
    5300:	86 13 60 02 	or  %o5, 2, %g3
    5304:	90 0a 20 ff 	and  %o0, 0xff, %o0
    5308:	80 88 a0 01 	btst  1, %g2
    530c:	02 80 00 10 	be  534c <crcu16+0xbc>
    5310:	91 32 20 01 	srl  %o0, 1, %o0
    5314:	9a 1a 40 03 	xor  %o1, %g3, %o5
    5318:	85 33 60 01 	srl  %o5, 1, %g2
    531c:	92 10 80 04 	or  %g2, %g4, %o1
    5320:	9b 2a 60 10 	sll  %o1, 0x10, %o5
    5324:	93 33 60 10 	srl  %o5, 0x10, %o1
    5328:	82 00 7f ff 	add  %g1, -1, %g1
    532c:	80 88 60 ff 	btst  0xff, %g1
    5330:	12 bf ff f5 	bne  5304 <crcu16+0x74>
    5334:	84 1a 40 08 	xor  %o1, %o0, %g2
    5338:	81 c3 e0 08 	retl 
    533c:	90 10 00 09 	mov  %o1, %o0
    5340:	93 32 60 01 	srl  %o1, 1, %o1
    5344:	10 bf ff e4 	b  52d4 <crcu16+0x44>
    5348:	92 0a 40 04 	and  %o1, %g4, %o1
    534c:	93 32 60 01 	srl  %o1, 1, %o1
    5350:	10 bf ff f6 	b  5328 <crcu16+0x98>
    5354:	92 0a 40 0c 	and  %o1, %o4, %o1

00005358 <crc16>:
    5358:	84 10 00 08 	mov  %o0, %g2
    535c:	09 00 00 1f 	sethi  %hi(0x7c00), %g4
    5360:	19 00 00 10 	sethi  %hi(0x4000), %o4
    5364:	82 10 20 08 	mov  8, %g1
    5368:	88 11 23 ff 	or  %g4, 0x3ff, %g4
    536c:	98 13 20 02 	or  %o4, 2, %o4
    5370:	1b 3f ff e0 	sethi  %hi(0xffff8000), %o5
    5374:	86 1a 40 02 	xor  %o1, %g2, %g3
    5378:	84 08 a0 ff 	and  %g2, 0xff, %g2
    537c:	80 88 e0 01 	btst  1, %g3
    5380:	02 80 00 23 	be  540c <crc16+0xb4>
    5384:	85 30 a0 01 	srl  %g2, 1, %g2
    5388:	86 1a 40 0c 	xor  %o1, %o4, %g3
    538c:	93 30 e0 01 	srl  %g3, 1, %o1
    5390:	86 12 40 0d 	or  %o1, %o5, %g3
    5394:	93 28 e0 10 	sll  %g3, 0x10, %o1
    5398:	93 32 60 10 	srl  %o1, 0x10, %o1
    539c:	82 00 7f ff 	add  %g1, -1, %g1
    53a0:	80 88 60 ff 	btst  0xff, %g1
    53a4:	12 bf ff f5 	bne  5378 <crc16+0x20>
    53a8:	86 1a 40 02 	xor  %o1, %g2, %g3
    53ac:	91 2a 20 10 	sll  %o0, 0x10, %o0
    53b0:	1b 00 00 10 	sethi  %hi(0x4000), %o5
    53b4:	09 00 00 1f 	sethi  %hi(0x7c00), %g4
    53b8:	91 32 20 18 	srl  %o0, 0x18, %o0
    53bc:	82 10 20 08 	mov  8, %g1
    53c0:	98 11 23 ff 	or  %g4, 0x3ff, %o4
    53c4:	86 13 60 02 	or  %o5, 2, %g3
    53c8:	09 3f ff e0 	sethi  %hi(0xffff8000), %g4
    53cc:	84 1a 40 08 	xor  %o1, %o0, %g2
    53d0:	90 0a 20 ff 	and  %o0, 0xff, %o0
    53d4:	80 88 a0 01 	btst  1, %g2
    53d8:	02 80 00 10 	be  5418 <crc16+0xc0>
    53dc:	91 32 20 01 	srl  %o0, 1, %o0
    53e0:	9a 1a 40 03 	xor  %o1, %g3, %o5
    53e4:	85 33 60 01 	srl  %o5, 1, %g2
    53e8:	92 10 80 04 	or  %g2, %g4, %o1
    53ec:	9b 2a 60 10 	sll  %o1, 0x10, %o5
    53f0:	93 33 60 10 	srl  %o5, 0x10, %o1
    53f4:	82 00 7f ff 	add  %g1, -1, %g1
    53f8:	80 88 60 ff 	btst  0xff, %g1
    53fc:	12 bf ff f5 	bne  53d0 <crc16+0x78>
    5400:	84 1a 40 08 	xor  %o1, %o0, %g2
    5404:	81 c3 e0 08 	retl 
    5408:	90 10 00 09 	mov  %o1, %o0
    540c:	93 32 60 01 	srl  %o1, 1, %o1
    5410:	10 bf ff e3 	b  539c <crc16+0x44>
    5414:	92 0a 40 04 	and  %o1, %g4, %o1
    5418:	93 32 60 01 	srl  %o1, 1, %o1
    541c:	10 bf ff f6 	b  53f4 <crc16+0x9c>
    5420:	92 0a 40 0c 	and  %o1, %o4, %o1

00005424 <crcu32>:
    5424:	9d e3 bf a0 	save  %sp, -96, %sp
    5428:	92 10 00 19 	mov  %i1, %o1
    542c:	91 2e 20 10 	sll  %i0, 0x10, %o0
    5430:	7f ff ff ca 	call  5358 <crc16>
    5434:	91 3a 20 10 	sra  %o0, 0x10, %o0
    5438:	92 10 00 08 	mov  %o0, %o1
    543c:	7f ff ff c7 	call  5358 <crc16>
    5440:	91 3e 20 10 	sra  %i0, 0x10, %o0
    5444:	81 c7 e0 08 	ret 
    5448:	91 e8 00 08 	restore  %g0, %o0, %o0

0000544c <check_data_types>:
    544c:	81 c3 e0 08 	retl 
    5450:	90 10 20 00 	clr  %o0

00005454 <__modf>:
    5454:	9c 03 bf b0 	add  %sp, -80, %sp
    5458:	c1 1b a0 48 	ldd  [ %sp + 0x48 ], %f0
    545c:	d0 3b a0 48 	std  %o0, [ %sp + 0x48 ]
    5460:	9c 23 bf b0 	sub  %sp, -80, %sp
    5464:	91 a0 1a 40 	fdtoi  %f0, %f8
    5468:	85 a0 19 08 	fitod  %f8, %f2
    546c:	81 a0 08 c2 	fsubd  %f0, %f2, %f0
    5470:	81 c3 e0 08 	retl 
    5474:	c5 3a 80 00 	std  %f2, [ %o2 ]

00005478 <cvt>:
    5478:	9d e3 bf 70 	save  %sp, -144, %sp
    547c:	82 38 00 1a 	xnor  %g0, %i2, %g1
    5480:	f0 3f bf d8 	std  %i0, [ %fp + -40 ]
    5484:	d1 1f bf d8 	ldd  [ %fp + -40 ], %f8
    5488:	83 38 60 1f 	sra  %g1, 0x1f, %g1
    548c:	f0 07 a0 5c 	ld  [ %fp + 0x5c ], %i0
    5490:	b4 0e 80 01 	and  %i2, %g1, %i2
    5494:	80 a6 a0 4e 	cmp  %i2, 0x4e
    5498:	04 80 00 03 	ble  54a4 <cvt+0x2c>
    549c:	a4 10 00 1a 	mov  %i2, %l2
    54a0:	a4 10 20 4e 	mov  0x4e, %l2
    54a4:	03 00 00 81 	sethi  %hi(0x20400), %g1
    54a8:	d5 18 62 88 	ldd  [ %g1 + 0x288 ], %f10	! 20688 <state_known_crc+0x674>
    54ac:	81 aa 0a ca 	fcmped  %f8, %f10
    54b0:	01 00 00 00 	nop 
    54b4:	09 80 00 04 	fbl  54c4 <cvt+0x4c>
    54b8:	82 10 20 01 	mov  1, %g1	! 1 <_start+0x1>
    54bc:	10 80 00 04 	b  54cc <cvt+0x54>
    54c0:	c0 27 00 00 	clr  [ %i4 ]
    54c4:	91 a0 00 a8 	fnegs  %f8, %f8
    54c8:	c2 27 00 00 	st  %g1, [ %i4 ]
    54cc:	94 07 bf f8 	add  %fp, -8, %o2
    54d0:	d1 3f bf d8 	std  %f8, [ %fp + -40 ]
    54d4:	7f ff ff e0 	call  5454 <__modf>
    54d8:	d0 1f bf d8 	ldd  [ %fp + -40 ], %o0
    54dc:	f5 1f bf f8 	ldd  [ %fp + -8 ], %f26
    54e0:	03 00 00 81 	sethi  %hi(0x20400), %g1
    54e4:	c1 3f bf e8 	std  %f0, [ %fp + -24 ]
    54e8:	c1 18 62 88 	ldd  [ %g1 + 0x288 ], %f0
    54ec:	81 ae 8a 40 	fcmpd  %f26, %f0
    54f0:	01 00 00 00 	nop 
    54f4:	13 80 00 2e 	fbe  55ac <cvt+0x134>
    54f8:	c9 1f bf e8 	ldd  [ %fp + -24 ], %f4
    54fc:	b4 07 60 50 	add  %i5, 0x50, %i2
    5500:	a0 10 20 00 	clr  %l0
    5504:	23 00 00 81 	sethi  %hi(0x20400), %l1
    5508:	b2 10 00 1a 	mov  %i2, %i1
    550c:	b8 10 00 01 	mov  %g1, %i4
    5510:	03 00 00 81 	sethi  %hi(0x20400), %g1
    5514:	94 07 bf f8 	add  %fp, -8, %o2
    5518:	e1 18 62 98 	ldd  [ %g1 + 0x298 ], %f16
    551c:	a5 a6 89 d0 	fdivd  %f26, %f16, %f18
    5520:	e5 3f bf d8 	std  %f18, [ %fp + -40 ]
    5524:	7f ff ff cc 	call  5454 <__modf>
    5528:	d0 1f bf d8 	ldd  [ %fp + -40 ], %o0
    552c:	03 00 00 81 	sethi  %hi(0x20400), %g1
    5530:	e9 1c 62 a8 	ldd  [ %l1 + 0x2a8 ], %f20
    5534:	b2 06 7f ff 	add  %i1, -1, %i1
    5538:	f1 18 62 98 	ldd  [ %g1 + 0x298 ], %f24
    553c:	ad a0 08 54 	faddd  %f0, %f20, %f22
    5540:	c4 07 bf d4 	ld  [ %fp + -44 ], %g2
    5544:	f5 1f bf f8 	ldd  [ %fp + -8 ], %f26
    5548:	f9 1f 22 88 	ldd  [ %i4 + 0x288 ], %f28
    554c:	82 00 a0 30 	add  %g2, 0x30, %g1
    5550:	c1 3f bf f0 	std  %f0, [ %fp + -16 ]
    5554:	81 a5 89 58 	fmuld  %f22, %f24, %f0
    5558:	c2 2e 40 00 	stb  %g1, [ %i1 ]
    555c:	81 ae 8a 5c 	fcmpd  %f26, %f28
    5560:	83 a0 1a 40 	fdtoi  %f0, %f1
    5564:	c3 27 bf d4 	st  %f1, [ %fp + -44 ]
    5568:	01 00 00 00 	nop 
    556c:	03 bf ff e9 	fbne  5510 <cvt+0x98>
    5570:	a0 04 20 01 	inc  %l0
    5574:	80 a6 80 19 	cmp  %i2, %i1
    5578:	08 80 00 31 	bleu  563c <cvt+0x1c4>
    557c:	a2 10 00 1d 	mov  %i5, %l1
    5580:	86 07 60 50 	add  %i5, 0x50, %g3
    5584:	82 10 20 00 	clr  %g1
    5588:	88 20 c0 19 	sub  %g3, %i1, %g4
    558c:	d0 0e 40 01 	ldub  [ %i1 + %g1 ], %o0
    5590:	d0 2f 40 01 	stb  %o0, [ %i5 + %g1 ]
    5594:	82 00 60 01 	inc  %g1
    5598:	80 a0 40 04 	cmp  %g1, %g4
    559c:	32 bf ff fd 	bne,a   5590 <cvt+0x118>
    55a0:	d0 0e 40 01 	ldub  [ %i1 + %g1 ], %o0
    55a4:	10 80 00 26 	b  563c <cvt+0x1c4>
    55a8:	a2 07 40 04 	add  %i5, %g4, %l1
    55ac:	c5 18 62 88 	ldd  [ %g1 + 0x288 ], %f2
    55b0:	81 a9 0a c2 	fcmped  %f4, %f2
    55b4:	01 00 00 00 	nop 
    55b8:	1d 80 00 1d 	fbule  562c <cvt+0x1b4>
    55bc:	01 00 00 00 	nop 
    55c0:	03 00 00 81 	sethi  %hi(0x20400), %g1
    55c4:	d9 1f bf e8 	ldd  [ %fp + -24 ], %f12
    55c8:	cd 18 62 98 	ldd  [ %g1 + 0x298 ], %f6
    55cc:	dd 18 62 98 	ldd  [ %g1 + 0x298 ], %f14
    55d0:	03 00 00 81 	sethi  %hi(0x20400), %g1
    55d4:	95 a3 09 46 	fmuld  %f12, %f6, %f10
    55d8:	d9 18 62 78 	ldd  [ %g1 + 0x278 ], %f12
    55dc:	d5 3f bf f0 	std  %f10, [ %fp + -16 ]
    55e0:	91 a0 00 2c 	fmovs  %f12, %f8
    55e4:	93 a0 00 2d 	fmovs  %f13, %f9
    55e8:	81 aa 8a c8 	fcmped  %f10, %f8
    55ec:	01 00 00 00 	nop 
    55f0:	09 80 00 06 	fbl  5608 <cvt+0x190>
    55f4:	a0 10 20 00 	clr  %l0	! 0 <_start>
    55f8:	10 80 00 10 	b  5638 <cvt+0x1c0>
    55fc:	a2 10 00 1d 	mov  %i5, %l1
    5600:	95 a0 00 28 	fmovs  %f8, %f10
    5604:	97 a0 00 29 	fmovs  %f9, %f11
    5608:	91 a2 89 4e 	fmuld  %f10, %f14, %f8
    560c:	81 aa 0a cc 	fcmped  %f8, %f12
    5610:	01 00 00 00 	nop 
    5614:	09 bf ff fb 	fbl  5600 <cvt+0x188>
    5618:	a0 04 3f ff 	add  %l0, -1, %l0
    561c:	d1 3f bf f0 	std  %f8, [ %fp + -16 ]
    5620:	a2 10 00 1d 	mov  %i5, %l1
    5624:	10 80 00 06 	b  563c <cvt+0x1c4>
    5628:	d5 3f bf e8 	std  %f10, [ %fp + -24 ]
    562c:	a2 10 00 1d 	mov  %i5, %l1
    5630:	10 80 00 03 	b  563c <cvt+0x1c4>
    5634:	a0 10 20 00 	clr  %l0
    5638:	a0 10 20 00 	clr  %l0
    563c:	80 a6 20 00 	cmp  %i0, 0
    5640:	12 80 00 03 	bne  564c <cvt+0x1d4>
    5644:	a4 07 40 12 	add  %i5, %l2, %l2
    5648:	a4 04 80 10 	add  %l2, %l0, %l2
    564c:	80 a4 80 1d 	cmp  %l2, %i5
    5650:	0a 80 00 0c 	bcs  5680 <cvt+0x208>
    5654:	e0 26 c0 00 	st  %l0, [ %i3 ]
    5658:	80 a4 40 12 	cmp  %l1, %l2
    565c:	18 80 00 1f 	bgu  56d8 <cvt+0x260>
    5660:	03 00 00 81 	sethi  %hi(0x20400), %g1
    5664:	a0 07 60 50 	add  %i5, 0x50, %l0
    5668:	fd 18 62 98 	ldd  [ %g1 + 0x298 ], %f30
    566c:	80 a4 40 10 	cmp  %l1, %l0
    5670:	0a 80 00 06 	bcs  5688 <cvt+0x210>
    5674:	fd 3f bf e0 	std  %f30, [ %fp + -32 ]
    5678:	10 80 00 19 	b  56dc <cvt+0x264>
    567c:	82 07 60 50 	add  %i5, 0x50, %g1
    5680:	10 80 00 38 	b  5760 <cvt+0x2e8>
    5684:	c0 2f 40 00 	clrb  [ %i5 ]
    5688:	d5 1f bf e0 	ldd  [ %fp + -32 ], %f10
    568c:	d1 1f bf e8 	ldd  [ %fp + -24 ], %f8
    5690:	94 07 bf f0 	add  %fp, -16, %o2
    5694:	81 a2 09 4a 	fmuld  %f8, %f10, %f0
    5698:	c1 3f bf d8 	std  %f0, [ %fp + -40 ]
    569c:	7f ff ff 6e 	call  5454 <__modf>
    56a0:	d0 1f bf d8 	ldd  [ %fp + -40 ], %o0
    56a4:	c2 07 bf d4 	ld  [ %fp + -44 ], %g1
    56a8:	c5 1f bf f0 	ldd  [ %fp + -16 ], %f2
    56ac:	c1 3f bf e8 	std  %f0, [ %fp + -24 ]
    56b0:	82 00 60 30 	add  %g1, 0x30, %g1
    56b4:	97 a0 1a 42 	fdtoi  %f2, %f11
    56b8:	c2 2c 40 00 	stb  %g1, [ %l1 ]
    56bc:	a2 04 60 01 	inc  %l1
    56c0:	d7 27 bf d4 	st  %f11, [ %fp + -44 ]
    56c4:	80 a4 80 11 	cmp  %l2, %l1
    56c8:	0a 80 00 04 	bcs  56d8 <cvt+0x260>
    56cc:	80 a4 40 10 	cmp  %l1, %l0
    56d0:	12 bf ff ef 	bne  568c <cvt+0x214>
    56d4:	d5 1f bf e0 	ldd  [ %fp + -32 ], %f10
    56d8:	82 07 60 50 	add  %i5, 0x50, %g1
    56dc:	80 a4 80 01 	cmp  %l2, %g1
    56e0:	2a 80 00 04 	bcs,a   56f0 <cvt+0x278>
    56e4:	c2 0c 80 00 	ldub  [ %l2 ], %g1
    56e8:	10 80 00 1e 	b  5760 <cvt+0x2e8>
    56ec:	c0 2f 60 4f 	clrb  [ %i5 + 0x4f ]
    56f0:	82 00 60 05 	add  %g1, 5, %g1
    56f4:	96 10 00 12 	mov  %l2, %o3
    56f8:	92 10 20 30 	mov  0x30, %o1
    56fc:	c2 2c 80 00 	stb  %g1, [ %l2 ]
    5700:	10 80 00 13 	b  574c <cvt+0x2d4>
    5704:	94 10 20 31 	mov  0x31, %o2
    5708:	08 80 00 07 	bleu  5724 <cvt+0x2ac>
    570c:	d2 2c 80 00 	stb  %o1, [ %l2 ]
    5710:	c2 0c bf ff 	ldub  [ %l2 + -1 ], %g1
    5714:	82 00 60 01 	inc  %g1
    5718:	c2 2c bf ff 	stb  %g1, [ %l2 + -1 ]
    571c:	10 80 00 0c 	b  574c <cvt+0x2d4>
    5720:	a4 04 bf ff 	add  %l2, -1, %l2
    5724:	c2 06 c0 00 	ld  [ %i3 ], %g1
    5728:	80 a6 20 00 	cmp  %i0, 0
    572c:	d4 2c 80 00 	stb  %o2, [ %l2 ]
    5730:	82 00 60 01 	inc  %g1
    5734:	12 80 00 06 	bne  574c <cvt+0x2d4>
    5738:	c2 26 c0 00 	st  %g1, [ %i3 ]
    573c:	80 a2 c0 1d 	cmp  %o3, %i5
    5740:	38 80 00 02 	bgu,a   5748 <cvt+0x2d0>
    5744:	d2 2a c0 00 	stb  %o1, [ %o3 ]
    5748:	96 02 e0 01 	inc  %o3
    574c:	c2 4c 80 00 	ldsb  [ %l2 ], %g1
    5750:	80 a0 60 39 	cmp  %g1, 0x39
    5754:	14 bf ff ed 	bg  5708 <cvt+0x290>
    5758:	80 a4 80 1d 	cmp  %l2, %i5
    575c:	c0 2a c0 00 	clrb  [ %o3 ]
    5760:	81 c7 e0 08 	ret 
    5764:	91 e8 00 1d 	restore  %g0, %i5, %o0

00005768 <ecvt>:
    5768:	9d e3 bf 98 	save  %sp, -104, %sp
    576c:	82 10 20 01 	mov  1, %g1
    5770:	90 10 00 18 	mov  %i0, %o0
    5774:	92 10 00 19 	mov  %i1, %o1
    5778:	c2 23 a0 5c 	st  %g1, [ %sp + 0x5c ]
    577c:	94 10 00 1a 	mov  %i2, %o2
    5780:	96 10 00 1b 	mov  %i3, %o3
    5784:	98 10 00 1c 	mov  %i4, %o4
    5788:	1b 00 00 83 	sethi  %hi(0x20c00), %o5
    578c:	7f ff ff 3b 	call  5478 <cvt>
    5790:	9a 13 62 f0 	or  %o5, 0x2f0, %o5	! 20ef0 <CVTBUF>
    5794:	81 c7 e0 08 	ret 
    5798:	91 e8 00 08 	restore  %g0, %o0, %o0

0000579c <ecvtbuf>:
    579c:	9d e3 bf 98 	save  %sp, -104, %sp
    57a0:	82 10 20 01 	mov  1, %g1
    57a4:	90 10 00 18 	mov  %i0, %o0
    57a8:	92 10 00 19 	mov  %i1, %o1
    57ac:	c2 23 a0 5c 	st  %g1, [ %sp + 0x5c ]
    57b0:	94 10 00 1a 	mov  %i2, %o2
    57b4:	96 10 00 1b 	mov  %i3, %o3
    57b8:	98 10 00 1c 	mov  %i4, %o4
    57bc:	7f ff ff 2f 	call  5478 <cvt>
    57c0:	9a 10 00 1d 	mov  %i5, %o5
    57c4:	81 c7 e0 08 	ret 
    57c8:	91 e8 00 08 	restore  %g0, %o0, %o0

000057cc <fcvt>:
    57cc:	9d e3 bf 98 	save  %sp, -104, %sp
    57d0:	c0 23 a0 5c 	clr  [ %sp + 0x5c ]
    57d4:	90 10 00 18 	mov  %i0, %o0
    57d8:	92 10 00 19 	mov  %i1, %o1
    57dc:	94 10 00 1a 	mov  %i2, %o2
    57e0:	96 10 00 1b 	mov  %i3, %o3
    57e4:	98 10 00 1c 	mov  %i4, %o4
    57e8:	1b 00 00 83 	sethi  %hi(0x20c00), %o5
    57ec:	7f ff ff 23 	call  5478 <cvt>
    57f0:	9a 13 62 f0 	or  %o5, 0x2f0, %o5	! 20ef0 <CVTBUF>
    57f4:	81 c7 e0 08 	ret 
    57f8:	91 e8 00 08 	restore  %g0, %o0, %o0

000057fc <fcvtbuf>:
    57fc:	9d e3 bf 98 	save  %sp, -104, %sp
    5800:	c0 23 a0 5c 	clr  [ %sp + 0x5c ]
    5804:	90 10 00 18 	mov  %i0, %o0
    5808:	92 10 00 19 	mov  %i1, %o1
    580c:	94 10 00 1a 	mov  %i2, %o2
    5810:	96 10 00 1b 	mov  %i3, %o3
    5814:	98 10 00 1c 	mov  %i4, %o4
    5818:	7f ff ff 18 	call  5478 <cvt>
    581c:	9a 10 00 1d 	mov  %i5, %o5
    5820:	81 c7 e0 08 	ret 
    5824:	91 e8 00 08 	restore  %g0, %o0, %o0
    5828:	00 00 62 80 	unimp  0x6280
    582c:	00 00 60 ec 	unimp  0x60ec
    5830:	00 00 60 ec 	unimp  0x60ec
    5834:	00 00 60 ec 	unimp  0x60ec
    5838:	00 00 60 ec 	unimp  0x60ec
    583c:	00 00 60 ec 	unimp  0x60ec
    5840:	00 00 60 ec 	unimp  0x60ec
    5844:	00 00 60 ec 	unimp  0x60ec
    5848:	00 00 60 ec 	unimp  0x60ec
    584c:	00 00 60 ec 	unimp  0x60ec
    5850:	00 00 60 ec 	unimp  0x60ec
    5854:	00 00 60 ec 	unimp  0x60ec
    5858:	00 00 60 ec 	unimp  0x60ec
    585c:	00 00 60 ec 	unimp  0x60ec
    5860:	00 00 60 ec 	unimp  0x60ec
    5864:	00 00 60 ec 	unimp  0x60ec
    5868:	00 00 60 ec 	unimp  0x60ec
    586c:	00 00 60 ec 	unimp  0x60ec
    5870:	00 00 60 ec 	unimp  0x60ec
    5874:	00 00 60 ec 	unimp  0x60ec
    5878:	00 00 60 ec 	unimp  0x60ec
    587c:	00 00 60 ec 	unimp  0x60ec
    5880:	00 00 60 ec 	unimp  0x60ec
    5884:	00 00 67 38 	unimp  0x6738
    5888:	00 00 60 ec 	unimp  0x60ec
    588c:	00 00 60 ec 	unimp  0x60ec
    5890:	00 00 60 ec 	unimp  0x60ec
    5894:	00 00 60 ec 	unimp  0x60ec
    5898:	00 00 60 ec 	unimp  0x60ec
    589c:	00 00 60 ec 	unimp  0x60ec
    58a0:	00 00 60 ec 	unimp  0x60ec
    58a4:	00 00 60 ec 	unimp  0x60ec
    58a8:	00 00 62 84 	unimp  0x6284
    58ac:	00 00 60 ec 	unimp  0x60ec
    58b0:	00 00 6f b0 	unimp  0x6fb0
    58b4:	00 00 6f a4 	unimp  0x6fa4
    58b8:	00 00 60 ec 	unimp  0x60ec
    58bc:	00 00 6a 64 	unimp  0x6a64
    58c0:	00 00 60 ec 	unimp  0x60ec
    58c4:	00 00 60 ec 	unimp  0x60ec
    58c8:	00 00 6f a4 	unimp  0x6fa4
    58cc:	00 00 60 ec 	unimp  0x60ec
    58d0:	00 00 60 ec 	unimp  0x60ec
    58d4:	00 00 60 ec 	unimp  0x60ec
    58d8:	00 00 60 ec 	unimp  0x60ec
    58dc:	00 00 60 ec 	unimp  0x60ec
    58e0:	00 00 6a 5c 	unimp  0x6a5c
    58e4:	00 00 6a 28 	unimp  0x6a28
    58e8:	00 00 60 ec 	unimp  0x60ec
    58ec:	00 00 60 ec 	unimp  0x60ec
    58f0:	00 00 67 64 	unimp  0x6764
    58f4:	00 00 60 ec 	unimp  0x60ec
    58f8:	00 00 6f 9c 	unimp  0x6f9c
    58fc:	00 00 60 ec 	unimp  0x60ec
    5900:	00 00 60 ec 	unimp  0x60ec
    5904:	00 00 6f 94 	unimp  0x6f94
    5908:	00 00 61 c8 	unimp  0x61c8
    590c:	00 00 60 4c 	unimp  0x604c
    5910:	00 00 60 4c 	unimp  0x604c
    5914:	00 00 61 bc 	unimp  0x61bc
    5918:	00 00 60 4c 	unimp  0x604c
    591c:	00 00 60 4c 	unimp  0x604c
    5920:	00 00 60 4c 	unimp  0x604c
    5924:	00 00 60 4c 	unimp  0x604c
    5928:	00 00 60 4c 	unimp  0x604c
    592c:	00 00 60 4c 	unimp  0x604c
    5930:	00 00 60 4c 	unimp  0x604c
    5934:	00 00 61 b0 	unimp  0x61b0
    5938:	00 00 60 4c 	unimp  0x604c
    593c:	00 00 61 a4 	unimp  0x61a4
    5940:	00 00 60 4c 	unimp  0x604c
    5944:	00 00 60 4c 	unimp  0x604c
    5948:	00 00 61 98 	unimp  0x6198

0000594c <number>:
    594c:	9d e3 bf 58 	save  %sp, -168, %sp
    5950:	80 8f 60 40 	btst  0x40, %i5
    5954:	02 80 01 28 	be  5df4 <number+0x4a8>
    5958:	1f 00 00 81 	sethi  %hi(0x20400), %o7
    595c:	03 00 00 81 	sethi  %hi(0x20400), %g1
    5960:	9e 10 62 48 	or  %g1, 0x248, %o7	! 20648 <state_known_crc+0x634>
    5964:	80 8f 60 10 	btst  0x10, %i5
    5968:	32 80 00 02 	bne,a   5970 <number+0x24>
    596c:	ba 0f 7f fe 	and  %i5, -2, %i5
    5970:	82 06 bf fe 	add  %i2, -2, %g1
    5974:	80 a0 60 22 	cmp  %g1, 0x22
    5978:	18 80 01 32 	bgu  5e40 <number+0x4f4>
    597c:	82 0f 60 01 	and  %i5, 1, %g1
    5980:	80 a0 00 01 	cmp  %g0, %g1
    5984:	9a 40 3f ff 	addx  %g0, -1, %o5
    5988:	94 10 20 00 	clr  %o2
    598c:	84 0b 60 f0 	and  %o5, 0xf0, %g2
    5990:	80 8f 60 02 	btst  2, %i5
    5994:	02 80 00 0c 	be  59c4 <number+0x78>
    5998:	9a 00 a0 30 	add  %g2, 0x30, %o5
    599c:	80 a6 60 00 	cmp  %i1, 0
    59a0:	06 80 01 39 	bl  5e84 <number+0x538>
    59a4:	80 8f 60 04 	btst  4, %i5
    59a8:	32 80 01 29 	bne,a   5e4c <number+0x500>
    59ac:	b6 06 ff ff 	add  %i3, -1, %i3
    59b0:	80 8f 60 08 	btst  8, %i5
    59b4:	02 80 00 05 	be  59c8 <number+0x7c>
    59b8:	92 8f 60 20 	andcc  %i5, 0x20, %o1
    59bc:	b6 06 ff ff 	add  %i3, -1, %i3
    59c0:	94 10 20 20 	mov  0x20, %o2
    59c4:	92 8f 60 20 	andcc  %i5, 0x20, %o1
    59c8:	02 80 00 08 	be  59e8 <number+0x9c>
    59cc:	80 a6 60 00 	cmp  %i1, 0
    59d0:	80 a6 a0 10 	cmp  %i2, 0x10
    59d4:	02 80 01 27 	be  5e70 <number+0x524>
    59d8:	82 1e a0 08 	xor  %i2, 8, %g1
    59dc:	80 a0 00 01 	cmp  %g0, %g1
    59e0:	b6 46 ff ff 	addx  %i3, -1, %i3
    59e4:	80 a6 60 00 	cmp  %i1, 0
    59e8:	12 80 01 06 	bne  5e00 <number+0x4b4>
    59ec:	82 10 20 00 	clr  %g1
    59f0:	82 10 20 30 	mov  0x30, %g1
    59f4:	88 07 bf b8 	add  %fp, -72, %g4
    59f8:	c2 2f bf b8 	stb  %g1, [ %fp + -72 ]
    59fc:	82 10 20 01 	mov  1, %g1
    5a00:	80 a0 40 1c 	cmp  %g1, %i4
    5a04:	16 80 00 03 	bge  5a10 <number+0xc4>
    5a08:	98 10 00 01 	mov  %g1, %o4
    5a0c:	98 10 00 1c 	mov  %i4, %o4
    5a10:	80 8f 60 11 	btst  0x11, %i5
    5a14:	12 80 00 39 	bne  5af8 <number+0x1ac>
    5a18:	b6 26 c0 0c 	sub  %i3, %o4, %i3
    5a1c:	80 a6 e0 00 	cmp  %i3, 0
    5a20:	04 80 01 25 	ble  5eb4 <number+0x568>
    5a24:	9e 06 ff ff 	add  %i3, -1, %o7
    5a28:	b8 20 00 18 	neg  %i0, %i4
    5a2c:	a2 10 00 1b 	mov  %i3, %l1
    5a30:	84 0f 20 03 	and  %i4, 3, %g2
    5a34:	80 a6 c0 02 	cmp  %i3, %g2
    5a38:	08 80 00 03 	bleu  5a44 <number+0xf8>
    5a3c:	b8 10 00 1b 	mov  %i3, %i4
    5a40:	b8 10 00 02 	mov  %g2, %i4
    5a44:	80 a6 e0 03 	cmp  %i3, 3
    5a48:	28 80 00 02 	bleu,a   5a50 <number+0x104>
    5a4c:	b8 10 00 1b 	mov  %i3, %i4
    5a50:	80 a7 20 00 	cmp  %i4, 0
    5a54:	02 80 00 0c 	be  5a84 <number+0x138>
    5a58:	84 10 00 18 	mov  %i0, %g2
    5a5c:	96 10 20 20 	mov  0x20, %o3
    5a60:	d6 28 80 00 	stb  %o3, [ %g2 ]
    5a64:	84 00 a0 01 	inc  %g2
    5a68:	86 20 80 18 	sub  %g2, %i0, %g3
    5a6c:	80 a7 00 03 	cmp  %i4, %g3
    5a70:	18 bf ff fc 	bgu  5a60 <number+0x114>
    5a74:	9e 03 ff ff 	add  %o7, -1, %o7
    5a78:	80 a6 c0 1c 	cmp  %i3, %i4
    5a7c:	22 80 00 1e 	be,a   5af4 <number+0x1a8>
    5a80:	b6 10 3f ff 	mov  -1, %i3
    5a84:	b6 26 c0 1c 	sub  %i3, %i4, %i3
    5a88:	97 36 e0 02 	srl  %i3, 2, %o3
    5a8c:	a1 2a e0 02 	sll  %o3, 2, %l0
    5a90:	80 a4 20 00 	cmp  %l0, 0
    5a94:	02 80 00 0e 	be  5acc <number+0x180>
    5a98:	b8 06 00 1c 	add  %i0, %i4, %i4
    5a9c:	11 08 08 08 	sethi  %hi(0x20202000), %o0
    5aa0:	86 10 20 00 	clr  %g3
    5aa4:	90 12 20 20 	or  %o0, 0x20, %o0
    5aa8:	d0 27 00 00 	st  %o0, [ %i4 ]
    5aac:	86 00 e0 01 	inc  %g3
    5ab0:	80 a0 c0 0b 	cmp  %g3, %o3
    5ab4:	0a bf ff fd 	bcs  5aa8 <number+0x15c>
    5ab8:	b8 07 20 04 	add  %i4, 4, %i4
    5abc:	84 00 80 10 	add  %g2, %l0, %g2
    5ac0:	80 a6 c0 10 	cmp  %i3, %l0
    5ac4:	02 80 00 0b 	be  5af0 <number+0x1a4>
    5ac8:	9e 23 c0 10 	sub  %o7, %l0, %o7
    5acc:	86 10 20 00 	clr  %g3
    5ad0:	9e 03 e0 01 	inc  %o7
    5ad4:	b6 10 20 20 	mov  0x20, %i3
    5ad8:	f6 28 80 03 	stb  %i3, [ %g2 + %g3 ]
    5adc:	86 00 e0 01 	inc  %g3
    5ae0:	b8 23 c0 03 	sub  %o7, %g3, %i4
    5ae4:	80 a7 20 00 	cmp  %i4, 0
    5ae8:	34 bf ff fd 	bg,a   5adc <number+0x190>
    5aec:	f6 28 80 03 	stb  %i3, [ %g2 + %g3 ]
    5af0:	b6 10 3f ff 	mov  -1, %i3
    5af4:	b0 06 00 11 	add  %i0, %l1, %i0
    5af8:	80 8a a0 ff 	btst  0xff, %o2
    5afc:	02 80 00 04 	be  5b0c <number+0x1c0>
    5b00:	80 a2 60 00 	cmp  %o1, 0
    5b04:	d4 2e 00 00 	stb  %o2, [ %i0 ]
    5b08:	b0 06 20 01 	inc  %i0
    5b0c:	02 80 00 08 	be  5b2c <number+0x1e0>
    5b10:	80 8f 60 10 	btst  0x10, %i5
    5b14:	80 a6 a0 08 	cmp  %i2, 8
    5b18:	02 80 00 d2 	be  5e60 <number+0x514>
    5b1c:	80 a6 a0 10 	cmp  %i2, 0x10
    5b20:	22 80 00 e0 	be,a   5ea0 <number+0x554>
    5b24:	b4 10 20 30 	mov  0x30, %i2
    5b28:	80 8f 60 10 	btst  0x10, %i5
    5b2c:	12 80 00 3b 	bne  5c18 <number+0x2cc>
    5b30:	80 a3 00 01 	cmp  %o4, %g1
    5b34:	80 a6 e0 00 	cmp  %i3, 0
    5b38:	04 80 00 e1 	ble  5ebc <number+0x570>
    5b3c:	b8 06 ff ff 	add  %i3, -1, %i4
    5b40:	ba 20 00 18 	neg  %i0, %i5
    5b44:	ba 0f 60 03 	and  %i5, 3, %i5
    5b48:	80 a7 40 1b 	cmp  %i5, %i3
    5b4c:	38 80 00 02 	bgu,a   5b54 <number+0x208>
    5b50:	ba 10 00 1b 	mov  %i3, %i5
    5b54:	80 a6 e0 03 	cmp  %i3, 3
    5b58:	28 80 00 02 	bleu,a   5b60 <number+0x214>
    5b5c:	ba 10 00 1b 	mov  %i3, %i5
    5b60:	80 a7 60 00 	cmp  %i5, 0
    5b64:	02 80 00 0b 	be  5b90 <number+0x244>
    5b68:	84 10 00 18 	mov  %i0, %g2
    5b6c:	da 28 80 00 	stb  %o5, [ %g2 ]
    5b70:	84 00 a0 01 	inc  %g2
    5b74:	b4 20 80 18 	sub  %g2, %i0, %i2
    5b78:	80 a7 40 1a 	cmp  %i5, %i2
    5b7c:	18 bf ff fc 	bgu  5b6c <number+0x220>
    5b80:	b8 07 3f ff 	add  %i4, -1, %i4
    5b84:	80 a6 c0 1d 	cmp  %i3, %i5
    5b88:	22 80 00 22 	be,a   5c10 <number+0x2c4>
    5b8c:	b0 06 00 1b 	add  %i0, %i3, %i0
    5b90:	94 26 c0 1d 	sub  %i3, %i5, %o2
    5b94:	b5 32 a0 02 	srl  %o2, 2, %i2
    5b98:	97 2e a0 02 	sll  %i2, 2, %o3
    5b9c:	80 a2 e0 00 	cmp  %o3, 0
    5ba0:	02 80 00 13 	be  5bec <number+0x2a0>
    5ba4:	ba 06 00 1d 	add  %i0, %i5, %i5
    5ba8:	9e 0b 60 ff 	and  %o5, 0xff, %o7
    5bac:	87 2b e0 10 	sll  %o7, 0x10, %g3
    5bb0:	91 2b e0 18 	sll  %o7, 0x18, %o0
    5bb4:	93 2b e0 08 	sll  %o7, 8, %o1
    5bb8:	90 12 00 03 	or  %o0, %g3, %o0
    5bbc:	92 12 00 09 	or  %o0, %o1, %o1
    5bc0:	86 10 20 00 	clr  %g3
    5bc4:	9e 12 40 0f 	or  %o1, %o7, %o7
    5bc8:	de 27 40 00 	st  %o7, [ %i5 ]
    5bcc:	86 00 e0 01 	inc  %g3
    5bd0:	80 a0 c0 1a 	cmp  %g3, %i2
    5bd4:	0a bf ff fd 	bcs  5bc8 <number+0x27c>
    5bd8:	ba 07 60 04 	add  %i5, 4, %i5
    5bdc:	84 00 80 0b 	add  %g2, %o3, %g2
    5be0:	80 a2 80 0b 	cmp  %o2, %o3
    5be4:	02 80 00 0a 	be  5c0c <number+0x2c0>
    5be8:	b8 27 00 0b 	sub  %i4, %o3, %i4
    5bec:	86 10 20 00 	clr  %g3
    5bf0:	b4 07 20 01 	add  %i4, 1, %i2
    5bf4:	da 28 80 03 	stb  %o5, [ %g2 + %g3 ]
    5bf8:	86 00 e0 01 	inc  %g3
    5bfc:	ba 26 80 03 	sub  %i2, %g3, %i5
    5c00:	80 a7 60 00 	cmp  %i5, 0
    5c04:	34 bf ff fd 	bg,a   5bf8 <number+0x2ac>
    5c08:	da 28 80 03 	stb  %o5, [ %g2 + %g3 ]
    5c0c:	b0 06 00 1b 	add  %i0, %i3, %i0
    5c10:	b6 10 3f ff 	mov  -1, %i3
    5c14:	80 a3 00 01 	cmp  %o4, %g1
    5c18:	04 80 00 34 	ble  5ce8 <number+0x39c>
    5c1c:	b8 03 3f ff 	add  %o4, -1, %i4
    5c20:	9a 23 00 01 	sub  %o4, %g1, %o5
    5c24:	84 20 00 18 	neg  %i0, %g2
    5c28:	ba 08 a0 03 	and  %g2, 3, %i5
    5c2c:	80 a7 40 0d 	cmp  %i5, %o5
    5c30:	38 80 00 02 	bgu,a   5c38 <number+0x2ec>
    5c34:	ba 10 00 0d 	mov  %o5, %i5
    5c38:	80 a3 60 03 	cmp  %o5, 3
    5c3c:	28 80 00 02 	bleu,a   5c44 <number+0x2f8>
    5c40:	ba 10 00 0d 	mov  %o5, %i5
    5c44:	80 a7 60 00 	cmp  %i5, 0
    5c48:	02 80 00 0c 	be  5c78 <number+0x32c>
    5c4c:	84 10 00 18 	mov  %i0, %g2
    5c50:	b4 10 20 30 	mov  0x30, %i2
    5c54:	f4 28 80 00 	stb  %i2, [ %g2 ]
    5c58:	84 00 a0 01 	inc  %g2
    5c5c:	86 20 80 18 	sub  %g2, %i0, %g3
    5c60:	80 a7 40 03 	cmp  %i5, %g3
    5c64:	18 bf ff fc 	bgu  5c54 <number+0x308>
    5c68:	b8 07 3f ff 	add  %i4, -1, %i4
    5c6c:	80 a3 40 1d 	cmp  %o5, %i5
    5c70:	22 80 00 1e 	be,a   5ce8 <number+0x39c>
    5c74:	b0 06 00 0d 	add  %i0, %o5, %i0
    5c78:	96 23 40 1d 	sub  %o5, %i5, %o3
    5c7c:	b5 32 e0 02 	srl  %o3, 2, %i2
    5c80:	99 2e a0 02 	sll  %i2, 2, %o4
    5c84:	80 a3 20 00 	cmp  %o4, 0
    5c88:	02 80 00 0e 	be  5cc0 <number+0x374>
    5c8c:	ba 06 00 1d 	add  %i0, %i5, %i5
    5c90:	1f 0c 0c 0c 	sethi  %hi(0x30303000), %o7
    5c94:	86 10 20 00 	clr  %g3
    5c98:	9e 13 e0 30 	or  %o7, 0x30, %o7
    5c9c:	de 27 40 00 	st  %o7, [ %i5 ]
    5ca0:	86 00 e0 01 	inc  %g3
    5ca4:	80 a6 80 03 	cmp  %i2, %g3
    5ca8:	18 bf ff fd 	bgu  5c9c <number+0x350>
    5cac:	ba 07 60 04 	add  %i5, 4, %i5
    5cb0:	84 00 80 0c 	add  %g2, %o4, %g2
    5cb4:	80 a2 c0 0c 	cmp  %o3, %o4
    5cb8:	02 80 00 0b 	be  5ce4 <number+0x398>
    5cbc:	b8 27 00 0c 	sub  %i4, %o4, %i4
    5cc0:	86 10 20 00 	clr  %g3
    5cc4:	b8 07 20 01 	inc  %i4
    5cc8:	b4 10 20 30 	mov  0x30, %i2
    5ccc:	f4 28 80 03 	stb  %i2, [ %g2 + %g3 ]
    5cd0:	86 00 e0 01 	inc  %g3
    5cd4:	ba 27 00 03 	sub  %i4, %g3, %i5
    5cd8:	80 a0 40 1d 	cmp  %g1, %i5
    5cdc:	26 bf ff fd 	bl,a   5cd0 <number+0x384>
    5ce0:	f4 28 80 03 	stb  %i2, [ %g2 + %g3 ]
    5ce4:	b0 06 00 0d 	add  %i0, %o5, %i0
    5ce8:	82 10 00 19 	mov  %i1, %g1
    5cec:	84 10 00 18 	mov  %i0, %g2
    5cf0:	f8 09 00 01 	ldub  [ %g4 + %g1 ], %i4
    5cf4:	f8 28 80 00 	stb  %i4, [ %g2 ]
    5cf8:	82 00 7f ff 	add  %g1, -1, %g1
    5cfc:	b4 00 60 01 	add  %g1, 1, %i2
    5d00:	80 a6 a0 00 	cmp  %i2, 0
    5d04:	14 bf ff fb 	bg  5cf0 <number+0x3a4>
    5d08:	84 00 a0 01 	inc  %g2
    5d0c:	82 38 00 19 	xnor  %g0, %i1, %g1
    5d10:	88 06 ff ff 	add  %i3, -1, %g4
    5d14:	83 38 60 1f 	sra  %g1, 0x1f, %g1
    5d18:	80 a6 e0 00 	cmp  %i3, 0
    5d1c:	82 0e 40 01 	and  %i1, %g1, %g1
    5d20:	82 00 60 01 	inc  %g1
    5d24:	04 80 00 48 	ble  5e44 <number+0x4f8>
    5d28:	b0 06 00 01 	add  %i0, %g1, %i0
    5d2c:	b2 20 00 18 	neg  %i0, %i1
    5d30:	86 0e 60 03 	and  %i1, 3, %g3
    5d34:	80 a0 c0 1b 	cmp  %g3, %i3
    5d38:	38 80 00 02 	bgu,a   5d40 <number+0x3f4>
    5d3c:	86 10 00 1b 	mov  %i3, %g3
    5d40:	80 a6 e0 03 	cmp  %i3, 3
    5d44:	28 80 00 02 	bleu,a   5d4c <number+0x400>
    5d48:	86 10 00 1b 	mov  %i3, %g3
    5d4c:	80 a0 e0 00 	cmp  %g3, 0
    5d50:	02 80 00 0c 	be  5d80 <number+0x434>
    5d54:	82 10 00 18 	mov  %i0, %g1
    5d58:	ba 10 20 20 	mov  0x20, %i5
    5d5c:	fa 28 40 00 	stb  %i5, [ %g1 ]
    5d60:	82 00 60 01 	inc  %g1
    5d64:	b8 20 40 18 	sub  %g1, %i0, %i4
    5d68:	80 a0 c0 1c 	cmp  %g3, %i4
    5d6c:	18 bf ff fc 	bgu  5d5c <number+0x410>
    5d70:	88 01 3f ff 	add  %g4, -1, %g4
    5d74:	80 a6 c0 03 	cmp  %i3, %g3
    5d78:	02 80 00 1d 	be  5dec <number+0x4a0>
    5d7c:	01 00 00 00 	nop 
    5d80:	b2 26 c0 03 	sub  %i3, %g3, %i1
    5d84:	bb 36 60 02 	srl  %i1, 2, %i5
    5d88:	b5 2f 60 02 	sll  %i5, 2, %i2
    5d8c:	80 a6 a0 00 	cmp  %i2, 0
    5d90:	02 80 00 0e 	be  5dc8 <number+0x47c>
    5d94:	39 08 08 08 	sethi  %hi(0x20202000), %i4
    5d98:	86 06 00 03 	add  %i0, %g3, %g3
    5d9c:	84 10 20 00 	clr  %g2
    5da0:	b8 17 20 20 	or  %i4, 0x20, %i4
    5da4:	f8 20 c0 00 	st  %i4, [ %g3 ]
    5da8:	84 00 a0 01 	inc  %g2
    5dac:	80 a0 80 1d 	cmp  %g2, %i5
    5db0:	0a bf ff fd 	bcs  5da4 <number+0x458>
    5db4:	86 00 e0 04 	add  %g3, 4, %g3
    5db8:	82 00 40 1a 	add  %g1, %i2, %g1
    5dbc:	80 a6 40 1a 	cmp  %i1, %i2
    5dc0:	02 80 00 0b 	be  5dec <number+0x4a0>
    5dc4:	88 21 00 1a 	sub  %g4, %i2, %g4
    5dc8:	b4 10 20 00 	clr  %i2
    5dcc:	b2 01 20 01 	add  %g4, 1, %i1
    5dd0:	ba 10 20 20 	mov  0x20, %i5
    5dd4:	fa 28 40 1a 	stb  %i5, [ %g1 + %i2 ]
    5dd8:	b4 06 a0 01 	inc  %i2
    5ddc:	b8 26 40 1a 	sub  %i1, %i2, %i4
    5de0:	80 a7 20 00 	cmp  %i4, 0
    5de4:	34 bf ff fd 	bg,a   5dd8 <number+0x48c>
    5de8:	fa 28 40 1a 	stb  %i5, [ %g1 + %i2 ]
    5dec:	81 c7 e0 08 	ret 
    5df0:	91 ee 00 1b 	restore  %i0, %i3, %o0
    5df4:	10 bf fe dc 	b  5964 <number+0x18>
    5df8:	9e 13 e2 20 	or  %o7, 0x220, %o7
    5dfc:	82 10 20 00 	clr  %g1
    5e00:	88 07 bf b8 	add  %fp, -72, %g4
    5e04:	81 80 20 00 	mov  %g0, %y
    5e08:	01 00 00 00 	nop 
    5e0c:	01 00 00 00 	nop 
    5e10:	01 00 00 00 	nop 
    5e14:	84 76 40 1a 	udiv  %i1, %i2, %g2
    5e18:	86 58 80 1a 	smul  %g2, %i2, %g3
    5e1c:	b2 26 40 03 	sub  %i1, %g3, %i1
    5e20:	c6 0b c0 19 	ldub  [ %o7 + %i1 ], %g3
    5e24:	c6 29 00 01 	stb  %g3, [ %g4 + %g1 ]
    5e28:	b2 10 00 02 	mov  %g2, %i1
    5e2c:	80 a0 a0 00 	cmp  %g2, 0
    5e30:	12 bf ff f5 	bne  5e04 <number+0x4b8>
    5e34:	82 00 60 01 	inc  %g1
    5e38:	10 bf fe f2 	b  5a00 <number+0xb4>
    5e3c:	b2 00 7f ff 	add  %g1, -1, %i1
    5e40:	b0 10 20 00 	clr  %i0
    5e44:	81 c7 e0 08 	ret 
    5e48:	81 e8 00 00 	restore 
    5e4c:	92 8f 60 20 	andcc  %i5, 0x20, %o1
    5e50:	02 bf fe e5 	be  59e4 <number+0x98>
    5e54:	94 10 20 2b 	mov  0x2b, %o2
    5e58:	10 bf fe df 	b  59d4 <number+0x88>
    5e5c:	80 a6 a0 10 	cmp  %i2, 0x10
    5e60:	86 10 20 30 	mov  0x30, %g3
    5e64:	c6 2e 00 00 	stb  %g3, [ %i0 ]
    5e68:	10 bf ff 30 	b  5b28 <number+0x1dc>
    5e6c:	b0 06 20 01 	inc  %i0
    5e70:	80 a6 60 00 	cmp  %i1, 0
    5e74:	12 bf ff e2 	bne  5dfc <number+0x4b0>
    5e78:	b6 06 ff fe 	add  %i3, -2, %i3
    5e7c:	10 bf fe de 	b  59f4 <number+0xa8>
    5e80:	82 10 20 30 	mov  0x30, %g1
    5e84:	b2 20 00 19 	neg  %i1
    5e88:	b6 06 ff ff 	add  %i3, -1, %i3
    5e8c:	92 8f 60 20 	andcc  %i5, 0x20, %o1
    5e90:	02 bf fe d5 	be  59e4 <number+0x98>
    5e94:	94 10 20 2d 	mov  0x2d, %o2
    5e98:	10 bf fe cf 	b  59d4 <number+0x88>
    5e9c:	80 a6 a0 10 	cmp  %i2, 0x10
    5ea0:	84 10 20 78 	mov  0x78, %g2
    5ea4:	f4 2e 00 00 	stb  %i2, [ %i0 ]
    5ea8:	c4 2e 20 01 	stb  %g2, [ %i0 + 1 ]
    5eac:	10 bf ff 1f 	b  5b28 <number+0x1dc>
    5eb0:	b0 06 20 02 	add  %i0, 2, %i0
    5eb4:	10 bf ff 11 	b  5af8 <number+0x1ac>
    5eb8:	b6 10 00 0f 	mov  %o7, %i3
    5ebc:	10 bf ff 56 	b  5c14 <number+0x2c8>
    5ec0:	b6 10 00 1c 	mov  %i4, %i3

00005ec4 <memcpy>:
    5ec4:	80 a2 a0 00 	cmp  %o2, 0
    5ec8:	04 80 00 28 	ble  5f68 <memcpy+0xa4>
    5ecc:	82 02 60 04 	add  %o1, 4, %g1
    5ed0:	80 a2 00 01 	cmp  %o0, %g1
    5ed4:	82 02 20 04 	add  %o0, 4, %g1
    5ed8:	88 60 3f ff 	subx  %g0, -1, %g4
    5edc:	80 a2 40 01 	cmp  %o1, %g1
    5ee0:	84 60 3f ff 	subx  %g0, -1, %g2
    5ee4:	9b 32 a0 02 	srl  %o2, 2, %o5
    5ee8:	88 11 00 02 	or  %g4, %g2, %g4
    5eec:	83 2b 60 02 	sll  %o5, 2, %g1
    5ef0:	80 a2 a0 03 	cmp  %o2, 3
    5ef4:	08 80 00 1f 	bleu  5f70 <memcpy+0xac>
    5ef8:	84 10 20 01 	mov  1, %g2
    5efc:	86 12 40 08 	or  %o1, %o0, %g3
    5f00:	86 08 e0 03 	and  %g3, 3, %g3
    5f04:	80 a0 00 03 	cmp  %g0, %g3
    5f08:	88 09 00 02 	and  %g4, %g2, %g4
    5f0c:	84 60 3f ff 	subx  %g0, -1, %g2
    5f10:	80 89 00 02 	btst  %g4, %g2
    5f14:	02 80 00 1b 	be  5f80 <memcpy+0xbc>
    5f18:	80 a0 60 00 	cmp  %g1, 0
    5f1c:	22 80 00 0d 	be,a   5f50 <memcpy+0x8c>
    5f20:	82 10 20 00 	clr  %g1
    5f24:	84 10 20 00 	clr  %g2
    5f28:	86 10 20 00 	clr  %g3
    5f2c:	c8 02 40 02 	ld  [ %o1 + %g2 ], %g4
    5f30:	c8 22 00 02 	st  %g4, [ %o0 + %g2 ]
    5f34:	86 00 e0 01 	inc  %g3
    5f38:	80 a3 40 03 	cmp  %o5, %g3
    5f3c:	18 bf ff fc 	bgu  5f2c <memcpy+0x68>
    5f40:	84 00 a0 04 	add  %g2, 4, %g2
    5f44:	80 a2 80 01 	cmp  %o2, %g1
    5f48:	02 80 00 0c 	be  5f78 <memcpy+0xb4>
    5f4c:	01 00 00 00 	nop 
    5f50:	da 0a 40 01 	ldub  [ %o1 + %g1 ], %o5
    5f54:	da 2a 00 01 	stb  %o5, [ %o0 + %g1 ]
    5f58:	82 00 60 01 	inc  %g1
    5f5c:	80 a2 80 01 	cmp  %o2, %g1
    5f60:	34 bf ff fd 	bg,a   5f54 <memcpy+0x90>
    5f64:	da 0a 40 01 	ldub  [ %o1 + %g1 ], %o5
    5f68:	81 c3 e0 08 	retl 
    5f6c:	01 00 00 00 	nop 
    5f70:	10 bf ff e3 	b  5efc <memcpy+0x38>
    5f74:	84 10 20 00 	clr  %g2	! 0 <_start>
    5f78:	81 c3 e0 08 	retl 
    5f7c:	01 00 00 00 	nop 
    5f80:	10 bf ff f4 	b  5f50 <memcpy+0x8c>
    5f84:	82 10 20 00 	clr  %g1	! 0 <_start>

00005f88 <uart_send_char>:
    5f88:	9d e3 bf a0 	save  %sp, -96, %sp
    5f8c:	40 00 07 61 	call  7d10 <__ajit_serial_putchar__>
    5f90:	90 10 00 18 	mov  %i0, %o0
    5f94:	80 a2 20 00 	cmp  %o0, 0
    5f98:	02 bf ff fd 	be  5f8c <uart_send_char+0x4>
    5f9c:	01 00 00 00 	nop 
    5fa0:	81 c7 e0 08 	ret 
    5fa4:	81 e8 00 00 	restore 

00005fa8 <ee_printf>:
    5fa8:	9d e3 bd d8 	save  %sp, -552, %sp
    5fac:	f6 27 a0 50 	st  %i3, [ %fp + 0x50 ]
    5fb0:	fa 27 a0 58 	st  %i5, [ %fp + 0x58 ]
    5fb4:	a4 07 a0 48 	add  %fp, 0x48, %l2
    5fb8:	f2 27 a0 48 	st  %i1, [ %fp + 0x48 ]
    5fbc:	f4 27 a0 4c 	st  %i2, [ %fp + 0x4c ]
    5fc0:	f8 27 a0 54 	st  %i4, [ %fp + 0x54 ]
    5fc4:	e4 27 be 4c 	st  %l2, [ %fp + -436 ]
    5fc8:	d8 0e 00 00 	ldub  [ %i0 ], %o4
    5fcc:	b6 07 bf 00 	add  %fp, -256, %i3
    5fd0:	83 2b 20 18 	sll  %o4, 0x18, %g1
    5fd4:	80 a0 60 00 	cmp  %g1, 0
    5fd8:	02 80 00 58 	be  6138 <ee_printf+0x190>
    5fdc:	ba 10 00 1b 	mov  %i3, %i5
    5fe0:	23 08 08 08 	sethi  %hi(0x20202000), %l1
    5fe4:	21 3f c0 3f 	sethi  %hi(0xff00fc00), %l0
    5fe8:	33 3f ff c0 	sethi  %hi(0xffff0000), %i1
    5fec:	35 0c 0c 0c 	sethi  %hi(0x30303000), %i2
    5ff0:	a2 14 60 20 	or  %l1, 0x20, %l1
    5ff4:	a0 14 23 ff 	or  %l0, 0x3ff, %l0
    5ff8:	b2 16 60 ff 	or  %i1, 0xff, %i1
    5ffc:	10 80 00 08 	b  601c <ee_printf+0x74>
    6000:	b4 16 a0 30 	or  %i2, 0x30, %i2
    6004:	ba 07 60 01 	inc  %i5
    6008:	d8 0e 20 01 	ldub  [ %i0 + 1 ], %o4
    600c:	83 2b 20 18 	sll  %o4, 0x18, %g1
    6010:	80 a0 60 00 	cmp  %g1, 0
    6014:	02 80 00 49 	be  6138 <ee_printf+0x190>
    6018:	b0 06 20 01 	inc  %i0
    601c:	83 38 60 18 	sra  %g1, 0x18, %g1
    6020:	80 a0 60 25 	cmp  %g1, 0x25
    6024:	32 bf ff f8 	bne,a   6004 <ee_printf+0x5c>
    6028:	d8 2f 40 00 	stb  %o4, [ %i5 ]
    602c:	9a 10 20 00 	clr  %o5
    6030:	39 00 00 16 	sethi  %hi(0x5800), %i4
    6034:	c2 0e 20 01 	ldub  [ %i0 + 1 ], %g1
    6038:	86 00 7f e0 	add  %g1, -32, %g3
    603c:	90 08 e0 ff 	and  %g3, 0xff, %o0
    6040:	80 a2 20 10 	cmp  %o0, 0x10
    6044:	08 80 00 50 	bleu  6184 <ee_printf+0x1dc>
    6048:	84 06 20 01 	add  %i0, 1, %g2
    604c:	96 00 7f d0 	add  %g1, -48, %o3
    6050:	98 0a e0 ff 	and  %o3, 0xff, %o4
    6054:	80 a3 20 09 	cmp  %o4, 9
    6058:	18 80 00 5f 	bgu  61d4 <ee_printf+0x22c>
    605c:	9f 28 60 18 	sll  %g1, 0x18, %o7
    6060:	b8 10 20 00 	clr  %i4
    6064:	83 28 60 18 	sll  %g1, 0x18, %g1
    6068:	83 38 60 18 	sra  %g1, 0x18, %g1
    606c:	a8 07 00 1c 	add  %i4, %i4, %l4
    6070:	ab 2f 20 03 	sll  %i4, 3, %l5
    6074:	84 00 a0 01 	inc  %g2
    6078:	ac 05 00 15 	add  %l4, %l5, %l6
    607c:	b0 05 80 01 	add  %l6, %g1, %i0
    6080:	c2 08 80 00 	ldub  [ %g2 ], %g1
    6084:	86 00 7f d0 	add  %g1, -48, %g3
    6088:	90 08 e0 ff 	and  %g3, 0xff, %o0
    608c:	80 a2 20 09 	cmp  %o0, 9
    6090:	08 bf ff f5 	bleu  6064 <ee_printf+0xbc>
    6094:	b8 06 3f d0 	add  %i0, -48, %i4
    6098:	9f 28 60 18 	sll  %g1, 0x18, %o7
    609c:	b0 10 00 02 	mov  %g2, %i0
    60a0:	89 3b e0 18 	sra  %o7, 0x18, %g4
    60a4:	80 a1 20 2e 	cmp  %g4, 0x2e
    60a8:	02 80 00 54 	be  61f8 <ee_printf+0x250>
    60ac:	a6 10 3f ff 	mov  -1, %l3
    60b0:	90 08 7f df 	and  %g1, -33, %o0
    60b4:	89 2a 20 18 	sll  %o0, 0x18, %g4
    60b8:	93 39 20 18 	sra  %g4, 0x18, %o1
    60bc:	80 a2 60 4c 	cmp  %o1, 0x4c
    60c0:	12 80 00 06 	bne  60d8 <ee_printf+0x130>
    60c4:	96 10 3f ff 	mov  -1, %o3
    60c8:	87 28 60 18 	sll  %g1, 0x18, %g3
    60cc:	c2 0e 20 01 	ldub  [ %i0 + 1 ], %g1
    60d0:	97 38 e0 18 	sra  %g3, 0x18, %o3
    60d4:	b0 06 20 01 	inc  %i0
    60d8:	94 00 7f bf 	add  %g1, -65, %o2
    60dc:	98 0a a0 ff 	and  %o2, 0xff, %o4
    60e0:	80 a3 20 37 	cmp  %o4, 0x37
    60e4:	08 80 00 5b 	bleu  6250 <ee_printf+0x2a8>
    60e8:	9f 2b 20 02 	sll  %o4, 2, %o7
    60ec:	b9 28 60 18 	sll  %g1, 0x18, %i4
    60f0:	85 3f 20 18 	sra  %i4, 0x18, %g2
    60f4:	80 a0 a0 25 	cmp  %g2, 0x25
    60f8:	22 80 00 0a 	be,a   6120 <ee_printf+0x178>
    60fc:	c2 2f 40 00 	stb  %g1, [ %i5 ]
    6100:	82 10 20 25 	mov  0x25, %g1
    6104:	c2 2f 40 00 	stb  %g1, [ %i5 ]
    6108:	ba 07 60 01 	inc  %i5
    610c:	c8 4e 00 00 	ldsb  [ %i0 ], %g4
    6110:	80 a1 20 00 	cmp  %g4, 0
    6114:	02 80 00 09 	be  6138 <ee_printf+0x190>
    6118:	c2 0e 00 00 	ldub  [ %i0 ], %g1
    611c:	c2 2f 40 00 	stb  %g1, [ %i5 ]
    6120:	ba 07 60 01 	inc  %i5
    6124:	d8 0e 20 01 	ldub  [ %i0 + 1 ], %o4
    6128:	83 2b 20 18 	sll  %o4, 0x18, %g1
    612c:	80 a0 60 00 	cmp  %g1, 0
    6130:	12 bf ff bb 	bne  601c <ee_printf+0x74>
    6134:	b0 06 20 01 	inc  %i0
    6138:	c0 2f 40 00 	clrb  [ %i5 ]
    613c:	f0 0f bf 00 	ldub  [ %fp + -256 ], %i0
    6140:	a3 2e 20 18 	sll  %i0, 0x18, %l1
    6144:	80 a4 60 00 	cmp  %l1, 0
    6148:	02 80 00 0d 	be  617c <ee_printf+0x1d4>
    614c:	b0 10 20 00 	clr  %i0
    6150:	40 00 06 f0 	call  7d10 <__ajit_serial_putchar__>
    6154:	91 3c 60 18 	sra  %l1, 0x18, %o0
    6158:	80 a2 20 00 	cmp  %o0, 0
    615c:	02 bf ff fd 	be  6150 <ee_printf+0x1a8>
    6160:	01 00 00 00 	nop 
    6164:	b0 06 20 01 	inc  %i0
    6168:	e0 0e c0 18 	ldub  [ %i3 + %i0 ], %l0
    616c:	a3 2c 20 18 	sll  %l0, 0x18, %l1
    6170:	80 a4 60 00 	cmp  %l1, 0
    6174:	12 bf ff f7 	bne  6150 <ee_printf+0x1a8>
    6178:	01 00 00 00 	nop 
    617c:	81 c7 e0 08 	ret 
    6180:	81 e8 00 00 	restore 
    6184:	88 17 21 08 	or  %i4, 0x108, %g4
    6188:	93 2a 20 02 	sll  %o0, 2, %o1
    618c:	d4 01 00 09 	ld  [ %g4 + %o1 ], %o2
    6190:	81 c2 80 00 	jmp  %o2
    6194:	01 00 00 00 	nop 
    6198:	9a 13 60 01 	or  %o5, 1, %o5
    619c:	10 bf ff a6 	b  6034 <ee_printf+0x8c>
    61a0:	b0 10 00 02 	mov  %g2, %i0
    61a4:	9a 13 60 10 	or  %o5, 0x10, %o5
    61a8:	10 bf ff a3 	b  6034 <ee_printf+0x8c>
    61ac:	b0 10 00 02 	mov  %g2, %i0
    61b0:	9a 13 60 04 	or  %o5, 4, %o5
    61b4:	10 bf ff a0 	b  6034 <ee_printf+0x8c>
    61b8:	b0 10 00 02 	mov  %g2, %i0
    61bc:	9a 13 60 20 	or  %o5, 0x20, %o5
    61c0:	10 bf ff 9d 	b  6034 <ee_printf+0x8c>
    61c4:	b0 10 00 02 	mov  %g2, %i0
    61c8:	9a 13 60 08 	or  %o5, 8, %o5
    61cc:	10 bf ff 9a 	b  6034 <ee_printf+0x8c>
    61d0:	b0 10 00 02 	mov  %g2, %i0
    61d4:	a7 3b e0 18 	sra  %o7, 0x18, %l3
    61d8:	80 a4 e0 2a 	cmp  %l3, 0x2a
    61dc:	02 80 03 af 	be  7098 <ee_printf+0x10f0>
    61e0:	89 3b e0 18 	sra  %o7, 0x18, %g4
    61e4:	b0 10 00 02 	mov  %g2, %i0
    61e8:	b8 10 3f ff 	mov  -1, %i4
    61ec:	80 a1 20 2e 	cmp  %g4, 0x2e
    61f0:	12 bf ff b0 	bne  60b0 <ee_printf+0x108>
    61f4:	a6 10 3f ff 	mov  -1, %l3
    61f8:	c2 0e 20 01 	ldub  [ %i0 + 1 ], %g1
    61fc:	92 00 7f d0 	add  %g1, -48, %o1
    6200:	94 0a 60 ff 	and  %o1, 0xff, %o2
    6204:	80 a2 a0 09 	cmp  %o2, 9
    6208:	18 80 00 17 	bgu  6264 <ee_printf+0x2bc>
    620c:	9e 06 20 01 	add  %i0, 1, %o7
    6210:	a6 10 20 00 	clr  %l3
    6214:	84 04 c0 13 	add  %l3, %l3, %g2
    6218:	83 28 60 18 	sll  %g1, 0x18, %g1
    621c:	a7 2c e0 03 	sll  %l3, 3, %l3
    6220:	83 38 60 18 	sra  %g1, 0x18, %g1
    6224:	a8 00 80 13 	add  %g2, %l3, %l4
    6228:	9e 03 e0 01 	inc  %o7
    622c:	aa 05 00 01 	add  %l4, %g1, %l5
    6230:	c2 0b c0 00 	ldub  [ %o7 ], %g1
    6234:	ac 00 7f d0 	add  %g1, -48, %l6
    6238:	b0 0d a0 ff 	and  %l6, 0xff, %i0
    623c:	80 a6 20 09 	cmp  %i0, 9
    6240:	08 bf ff f5 	bleu  6214 <ee_printf+0x26c>
    6244:	a6 05 7f d0 	add  %l5, -48, %l3
    6248:	10 bf ff 9a 	b  60b0 <ee_printf+0x108>
    624c:	b0 10 00 0f 	mov  %o7, %i0
    6250:	05 00 00 16 	sethi  %hi(0x5800), %g2
    6254:	a8 10 a0 28 	or  %g2, 0x28, %l4	! 5828 <fcvtbuf+0x2c>
    6258:	ea 05 00 0f 	ld  [ %l4 + %o7 ], %l5
    625c:	81 c5 40 00 	jmp  %l5
    6260:	01 00 00 00 	nop 
    6264:	97 28 60 18 	sll  %g1, 0x18, %o3
    6268:	99 3a e0 18 	sra  %o3, 0x18, %o4
    626c:	80 a3 20 2a 	cmp  %o4, 0x2a
    6270:	02 80 04 b5 	be  7544 <ee_printf+0x159c>
    6274:	a6 10 20 00 	clr  %l3
    6278:	10 bf ff 8e 	b  60b0 <ee_printf+0x108>
    627c:	b0 10 00 0f 	mov  %o7, %i0
    6280:	9a 13 60 40 	or  %o5, 0x40, %o5
    6284:	80 a2 e0 6c 	cmp  %o3, 0x6c
    6288:	02 80 03 ed 	be  723c <ee_printf+0x1294>
    628c:	c4 04 80 00 	ld  [ %l2 ], %g2
    6290:	c6 08 80 00 	ldub  [ %g2 ], %g3
    6294:	80 a0 e0 00 	cmp  %g3, 0
    6298:	02 80 03 89 	be  70bc <ee_printf+0x1114>
    629c:	a4 04 a0 04 	add  %l2, 4, %l2
    62a0:	80 a0 e0 63 	cmp  %g3, 0x63
    62a4:	04 80 04 c0 	ble  75a4 <ee_printf+0x15fc>
    62a8:	80 a0 e0 09 	cmp  %g3, 9
    62ac:	97 38 e0 1f 	sra  %g3, 0x1f, %o3
    62b0:	81 82 e0 00 	mov  %o3, %y
    62b4:	01 00 00 00 	nop 
    62b8:	01 00 00 00 	nop 
    62bc:	01 00 00 00 	nop 
    62c0:	94 78 e0 64 	sdiv  %g3, 0x64, %o2
    62c4:	9e 5a a0 64 	smul  %o2, 0x64, %o7
    62c8:	86 20 c0 0f 	sub  %g3, %o7, %g3
    62cc:	99 38 e0 1f 	sra  %g3, 0x1f, %o4
    62d0:	81 83 20 00 	mov  %o4, %y
    62d4:	01 00 00 00 	nop 
    62d8:	01 00 00 00 	nop 
    62dc:	01 00 00 00 	nop 
    62e0:	ac 78 e0 0a 	sdiv  %g3, 0xa, %l6
    62e4:	03 00 00 81 	sethi  %hi(0x20400), %g1
    62e8:	90 05 80 16 	add  %l6, %l6, %o0
    62ec:	82 10 62 20 	or  %g1, 0x220, %g1
    62f0:	89 2d a0 03 	sll  %l6, 3, %g4
    62f4:	d2 08 40 16 	ldub  [ %g1 + %l6 ], %o1
    62f8:	ea 08 40 0a 	ldub  [ %g1 + %o2 ], %l5
    62fc:	a6 02 00 04 	add  %o0, %g4, %l3
    6300:	ea 2f be b0 	stb  %l5, [ %fp + -336 ]
    6304:	d2 2f be b1 	stb  %o1, [ %fp + -335 ]
    6308:	ac 10 20 04 	mov  4, %l6
    630c:	86 20 c0 13 	sub  %g3, %l3, %g3
    6310:	9e 10 20 03 	mov  3, %o7
    6314:	98 10 20 02 	mov  2, %o4
    6318:	c2 08 40 03 	ldub  [ %g1 + %g3 ], %g1
    631c:	a8 07 80 0c 	add  %fp, %o4, %l4
    6320:	c2 2d 3e b0 	stb  %g1, [ %l4 + -336 ]
    6324:	aa 07 80 0f 	add  %fp, %o7, %l5
    6328:	82 10 20 2e 	mov  0x2e, %g1
    632c:	c2 2d 7e b0 	stb  %g1, [ %l5 + -336 ]
    6330:	c6 08 a0 01 	ldub  [ %g2 + 1 ], %g3
    6334:	80 a0 e0 00 	cmp  %g3, 0
    6338:	02 80 03 6c 	be  70e8 <ee_printf+0x1140>
    633c:	82 07 80 16 	add  %fp, %l6, %g1
    6340:	80 a0 e0 63 	cmp  %g3, 0x63
    6344:	04 80 04 8e 	ble  757c <ee_printf+0x15d4>
    6348:	80 a0 e0 09 	cmp  %g3, 9
    634c:	83 38 e0 1f 	sra  %g3, 0x1f, %g1
    6350:	81 80 60 00 	mov  %g1, %y
    6354:	01 00 00 00 	nop 
    6358:	01 00 00 00 	nop 
    635c:	01 00 00 00 	nop 
    6360:	98 78 e0 64 	sdiv  %g3, 0x64, %o4
    6364:	88 07 80 16 	add  %fp, %l6, %g4
    6368:	96 5b 20 64 	smul  %o4, 0x64, %o3
    636c:	03 00 00 81 	sethi  %hi(0x20400), %g1
    6370:	82 10 62 20 	or  %g1, 0x220, %g1	! 20620 <state_known_crc+0x60c>
    6374:	e8 08 40 0c 	ldub  [ %g1 + %o4 ], %l4
    6378:	e8 29 3e b0 	stb  %l4, [ %g4 + -336 ]
    637c:	86 20 c0 0b 	sub  %g3, %o3, %g3
    6380:	ac 03 e0 03 	add  %o7, 3, %l6
    6384:	97 38 e0 1f 	sra  %g3, 0x1f, %o3
    6388:	81 82 e0 00 	mov  %o3, %y
    638c:	01 00 00 00 	nop 
    6390:	01 00 00 00 	nop 
    6394:	01 00 00 00 	nop 
    6398:	9e 78 e0 0a 	sdiv  %g3, 0xa, %o7
    639c:	d2 08 40 0f 	ldub  [ %g1 + %o7 ], %o1
    63a0:	94 03 c0 0f 	add  %o7, %o7, %o2
    63a4:	91 2b e0 03 	sll  %o7, 3, %o0
    63a8:	d2 2d 7e b2 	stb  %o1, [ %l5 + -334 ]
    63ac:	aa 02 80 08 	add  %o2, %o0, %l5
    63b0:	86 20 c0 15 	sub  %g3, %l5, %g3
    63b4:	c2 08 40 03 	ldub  [ %g1 + %g3 ], %g1
    63b8:	a6 07 80 16 	add  %fp, %l6, %l3
    63bc:	c2 2c fe b0 	stb  %g1, [ %l3 + -336 ]
    63c0:	88 05 a0 01 	add  %l6, 1, %g4
    63c4:	82 10 20 2e 	mov  0x2e, %g1
    63c8:	a8 07 80 04 	add  %fp, %g4, %l4
    63cc:	c2 2d 3e b0 	stb  %g1, [ %l4 + -336 ]
    63d0:	c6 08 a0 02 	ldub  [ %g2 + 2 ], %g3
    63d4:	80 a0 e0 00 	cmp  %g3, 0
    63d8:	02 80 03 4e 	be  7110 <ee_printf+0x1168>
    63dc:	ac 01 20 01 	add  %g4, 1, %l6
    63e0:	80 a0 e0 63 	cmp  %g3, 0x63
    63e4:	04 80 04 61 	ble  7568 <ee_printf+0x15c0>
    63e8:	80 a0 e0 09 	cmp  %g3, 9
    63ec:	83 38 e0 1f 	sra  %g3, 0x1f, %g1
    63f0:	81 80 60 00 	mov  %g1, %y
    63f4:	01 00 00 00 	nop 
    63f8:	01 00 00 00 	nop 
    63fc:	01 00 00 00 	nop 
    6400:	aa 78 e0 64 	sdiv  %g3, 0x64, %l5
    6404:	a6 07 80 16 	add  %fp, %l6, %l3
    6408:	96 5d 60 64 	smul  %l5, 0x64, %o3
    640c:	03 00 00 81 	sethi  %hi(0x20400), %g1
    6410:	82 10 62 20 	or  %g1, 0x220, %g1	! 20620 <state_known_crc+0x60c>
    6414:	d8 08 40 15 	ldub  [ %g1 + %l5 ], %o4
    6418:	d8 2c fe b0 	stb  %o4, [ %l3 + -336 ]
    641c:	86 20 c0 0b 	sub  %g3, %o3, %g3
    6420:	ac 01 20 03 	add  %g4, 3, %l6
    6424:	97 38 e0 1f 	sra  %g3, 0x1f, %o3
    6428:	81 82 e0 00 	mov  %o3, %y
    642c:	01 00 00 00 	nop 
    6430:	01 00 00 00 	nop 
    6434:	01 00 00 00 	nop 
    6438:	88 78 e0 0a 	sdiv  %g3, 0xa, %g4
    643c:	de 08 40 04 	ldub  [ %g1 + %g4 ], %o7
    6440:	92 01 00 04 	add  %g4, %g4, %o1
    6444:	95 29 20 03 	sll  %g4, 3, %o2
    6448:	de 2d 3e b2 	stb  %o7, [ %l4 + -334 ]
    644c:	a8 02 40 0a 	add  %o1, %o2, %l4
    6450:	86 20 c0 14 	sub  %g3, %l4, %g3
    6454:	90 07 80 16 	add  %fp, %l6, %o0
    6458:	c2 08 40 03 	ldub  [ %g1 + %g3 ], %g1
    645c:	c2 2a 3e b0 	stb  %g1, [ %o0 + -336 ]
    6460:	a6 05 a0 01 	add  %l6, 1, %l3
    6464:	82 10 20 2e 	mov  0x2e, %g1
    6468:	ac 07 80 13 	add  %fp, %l3, %l6
    646c:	c2 2d be b0 	stb  %g1, [ %l6 + -336 ]
    6470:	c4 08 a0 03 	ldub  [ %g2 + 3 ], %g2
    6474:	80 a0 a0 00 	cmp  %g2, 0
    6478:	02 80 03 31 	be  713c <ee_printf+0x1194>
    647c:	98 04 e0 01 	add  %l3, 1, %o4
    6480:	80 a0 a0 63 	cmp  %g2, 0x63
    6484:	04 80 04 43 	ble  7590 <ee_printf+0x15e8>
    6488:	80 a0 a0 09 	cmp  %g2, 9
    648c:	83 38 a0 1f 	sra  %g2, 0x1f, %g1
    6490:	81 80 60 00 	mov  %g1, %y
    6494:	01 00 00 00 	nop 
    6498:	01 00 00 00 	nop 
    649c:	01 00 00 00 	nop 
    64a0:	a8 78 a0 64 	sdiv  %g2, 0x64, %l4
    64a4:	86 07 80 0c 	add  %fp, %o4, %g3
    64a8:	03 00 00 81 	sethi  %hi(0x20400), %g1
    64ac:	82 10 62 20 	or  %g1, 0x220, %g1	! 20620 <state_known_crc+0x60c>
    64b0:	d0 08 40 14 	ldub  [ %g1 + %l4 ], %o0
    64b4:	d0 28 fe b0 	stb  %o0, [ %g3 + -336 ]
    64b8:	aa 5d 20 64 	smul  %l4, 0x64, %l5
    64bc:	98 04 e0 03 	add  %l3, 3, %o4
    64c0:	84 20 80 15 	sub  %g2, %l5, %g2
    64c4:	97 38 a0 1f 	sra  %g2, 0x1f, %o3
    64c8:	81 82 e0 00 	mov  %o3, %y
    64cc:	01 00 00 00 	nop 
    64d0:	01 00 00 00 	nop 
    64d4:	01 00 00 00 	nop 
    64d8:	a6 78 a0 0a 	sdiv  %g2, 0xa, %l3
    64dc:	c8 08 40 13 	ldub  [ %g1 + %l3 ], %g4
    64e0:	92 04 c0 13 	add  %l3, %l3, %o1
    64e4:	97 2c e0 03 	sll  %l3, 3, %o3
    64e8:	c8 2d be b2 	stb  %g4, [ %l6 + -334 ]
    64ec:	ac 02 40 0b 	add  %o1, %o3, %l6
    64f0:	84 20 80 16 	sub  %g2, %l6, %g2
    64f4:	9e 07 80 0c 	add  %fp, %o4, %o7
    64f8:	c2 08 40 02 	ldub  [ %g1 + %g2 ], %g1
    64fc:	94 03 20 01 	add  %o4, 1, %o2
    6500:	c2 2b fe b0 	stb  %g1, [ %o7 + -336 ]
    6504:	80 8b 60 10 	btst  0x10, %o5
    6508:	12 80 00 39 	bne  65ec <ee_printf+0x644>
    650c:	90 92 a0 00 	orcc  %o2, 0, %o0
    6510:	80 a7 00 0a 	cmp  %i4, %o2
    6514:	04 80 04 f4 	ble  78e4 <ee_printf+0x193c>
    6518:	88 07 3f ff 	add  %i4, -1, %g4
    651c:	b8 27 00 0a 	sub  %i4, %o2, %i4
    6520:	82 20 00 1d 	neg  %i5, %g1
    6524:	82 08 60 03 	and  %g1, 3, %g1
    6528:	80 a7 00 01 	cmp  %i4, %g1
    652c:	08 80 00 03 	bleu  6538 <ee_printf+0x590>
    6530:	86 10 00 1c 	mov  %i4, %g3
    6534:	86 10 00 01 	mov  %g1, %g3
    6538:	80 a7 20 03 	cmp  %i4, 3
    653c:	28 80 00 02 	bleu,a   6544 <ee_printf+0x59c>
    6540:	86 10 00 1c 	mov  %i4, %g3
    6544:	80 a0 e0 00 	cmp  %g3, 0
    6548:	02 80 00 0c 	be  6578 <ee_printf+0x5d0>
    654c:	82 10 00 1d 	mov  %i5, %g1
    6550:	9a 10 20 20 	mov  0x20, %o5
    6554:	da 28 40 00 	stb  %o5, [ %g1 ]
    6558:	82 00 60 01 	inc  %g1
    655c:	90 20 40 1d 	sub  %g1, %i5, %o0
    6560:	80 a0 c0 08 	cmp  %g3, %o0
    6564:	18 bf ff fc 	bgu  6554 <ee_printf+0x5ac>
    6568:	88 01 3f ff 	add  %g4, -1, %g4
    656c:	80 a7 00 03 	cmp  %i4, %g3
    6570:	22 80 00 1d 	be,a   65e4 <ee_printf+0x63c>
    6574:	ba 07 40 1c 	add  %i5, %i4, %i5
    6578:	aa 27 00 03 	sub  %i4, %g3, %l5
    657c:	99 35 60 02 	srl  %l5, 2, %o4
    6580:	a7 2b 20 02 	sll  %o4, 2, %l3
    6584:	80 a4 e0 00 	cmp  %l3, 0
    6588:	02 80 00 0e 	be  65c0 <ee_printf+0x618>
    658c:	84 10 20 00 	clr  %g2
    6590:	96 07 40 03 	add  %i5, %g3, %o3
    6594:	92 10 20 00 	clr  %o1
    6598:	e2 22 c0 00 	st  %l1, [ %o3 ]
    659c:	92 02 60 01 	inc  %o1
    65a0:	80 a2 40 0c 	cmp  %o1, %o4
    65a4:	0a bf ff fd 	bcs  6598 <ee_printf+0x5f0>
    65a8:	96 02 e0 04 	add  %o3, 4, %o3
    65ac:	82 00 40 13 	add  %g1, %l3, %g1
    65b0:	80 a5 40 13 	cmp  %l5, %l3
    65b4:	02 80 00 0b 	be  65e0 <ee_printf+0x638>
    65b8:	88 21 00 13 	sub  %g4, %l3, %g4
    65bc:	84 10 20 00 	clr  %g2
    65c0:	ac 01 20 01 	add  %g4, 1, %l6
    65c4:	9e 10 20 20 	mov  0x20, %o7
    65c8:	de 28 40 02 	stb  %o7, [ %g1 + %g2 ]
    65cc:	84 00 a0 01 	inc  %g2
    65d0:	a8 25 80 02 	sub  %l6, %g2, %l4
    65d4:	80 a5 00 0a 	cmp  %l4, %o2
    65d8:	34 bf ff fd 	bg,a   65cc <ee_printf+0x624>
    65dc:	de 28 40 02 	stb  %o7, [ %g1 + %g2 ]
    65e0:	ba 07 40 1c 	add  %i5, %i4, %i5
    65e4:	b8 02 bf ff 	add  %o2, -1, %i4
    65e8:	90 92 a0 00 	orcc  %o2, 0, %o0
    65ec:	24 80 00 02 	ble,a   65f4 <ee_printf+0x64c>
    65f0:	90 10 20 01 	mov  1, %o0
    65f4:	9b 32 20 02 	srl  %o0, 2, %o5
    65f8:	80 8f 60 03 	btst  3, %i5
    65fc:	12 80 04 df 	bne  7978 <ee_printf+0x19d0>
    6600:	83 2b 60 02 	sll  %o5, 2, %g1
    6604:	80 a0 60 00 	cmp  %g1, 0
    6608:	22 80 04 dd 	be,a   797c <ee_printf+0x19d4>
    660c:	a6 10 00 1d 	mov  %i5, %l3
    6610:	98 10 20 00 	clr  %o4
    6614:	86 10 20 00 	clr  %g3
    6618:	92 07 be b0 	add  %fp, -336, %o1
    661c:	ea 02 40 0c 	ld  [ %o1 + %o4 ], %l5
    6620:	ea 27 40 0c 	st  %l5, [ %i5 + %o4 ]
    6624:	86 00 e0 01 	inc  %g3
    6628:	80 a3 40 03 	cmp  %o5, %g3
    662c:	18 bf ff fc 	bgu  661c <ee_printf+0x674>
    6630:	98 03 20 04 	add  %o4, 4, %o4
    6634:	80 a2 00 01 	cmp  %o0, %g1
    6638:	02 80 00 09 	be  665c <ee_printf+0x6b4>
    663c:	a6 07 40 01 	add  %i5, %g1, %l3
    6640:	96 24 c0 01 	sub  %l3, %g1, %o3
    6644:	c8 0a 40 01 	ldub  [ %o1 + %g1 ], %g4
    6648:	c8 2a c0 01 	stb  %g4, [ %o3 + %g1 ]
    664c:	82 00 60 01 	inc  %g1
    6650:	80 a2 80 01 	cmp  %o2, %g1
    6654:	34 bf ff fd 	bg,a   6648 <ee_printf+0x6a0>
    6658:	c8 0a 40 01 	ldub  [ %o1 + %g1 ], %g4
    665c:	ba 07 40 08 	add  %i5, %o0, %i5
    6660:	80 a7 00 0a 	cmp  %i4, %o2
    6664:	04 80 00 33 	ble  6730 <ee_printf+0x788>
    6668:	a6 07 3f ff 	add  %i4, -1, %l3
    666c:	b8 27 00 0a 	sub  %i4, %o2, %i4
    6670:	ac 20 00 1d 	neg  %i5, %l6
    6674:	a8 0d a0 03 	and  %l6, 3, %l4
    6678:	80 a5 00 1c 	cmp  %l4, %i4
    667c:	38 80 00 02 	bgu,a   6684 <ee_printf+0x6dc>
    6680:	a8 10 00 1c 	mov  %i4, %l4
    6684:	80 a7 20 03 	cmp  %i4, 3
    6688:	28 80 00 02 	bleu,a   6690 <ee_printf+0x6e8>
    668c:	a8 10 00 1c 	mov  %i4, %l4
    6690:	80 a5 20 00 	cmp  %l4, 0
    6694:	02 80 00 0c 	be  66c4 <ee_printf+0x71c>
    6698:	82 10 00 1d 	mov  %i5, %g1
    669c:	9e 10 20 20 	mov  0x20, %o7
    66a0:	de 28 40 00 	stb  %o7, [ %g1 ]
    66a4:	82 00 60 01 	inc  %g1
    66a8:	84 20 40 1d 	sub  %g1, %i5, %g2
    66ac:	80 a5 00 02 	cmp  %l4, %g2
    66b0:	18 bf ff fc 	bgu  66a0 <ee_printf+0x6f8>
    66b4:	a6 04 ff ff 	add  %l3, -1, %l3
    66b8:	80 a7 00 14 	cmp  %i4, %l4
    66bc:	22 80 00 1d 	be,a   6730 <ee_printf+0x788>
    66c0:	ba 07 40 1c 	add  %i5, %i4, %i5
    66c4:	90 27 00 14 	sub  %i4, %l4, %o0
    66c8:	ab 32 20 02 	srl  %o0, 2, %l5
    66cc:	9b 2d 60 02 	sll  %l5, 2, %o5
    66d0:	80 a3 60 00 	cmp  %o5, 0
    66d4:	02 80 00 0e 	be  670c <ee_printf+0x764>
    66d8:	88 10 20 00 	clr  %g4
    66dc:	86 07 40 14 	add  %i5, %l4, %g3
    66e0:	98 10 20 00 	clr  %o4
    66e4:	e2 20 c0 00 	st  %l1, [ %g3 ]
    66e8:	98 03 20 01 	inc  %o4
    66ec:	80 a3 00 15 	cmp  %o4, %l5
    66f0:	0a bf ff fd 	bcs  66e4 <ee_printf+0x73c>
    66f4:	86 00 e0 04 	add  %g3, 4, %g3
    66f8:	82 00 40 0d 	add  %g1, %o5, %g1
    66fc:	80 a2 00 0d 	cmp  %o0, %o5
    6700:	02 80 00 0b 	be  672c <ee_printf+0x784>
    6704:	a6 24 c0 0d 	sub  %l3, %o5, %l3
    6708:	88 10 20 00 	clr  %g4
    670c:	92 04 e0 01 	add  %l3, 1, %o1
    6710:	96 10 20 20 	mov  0x20, %o3
    6714:	d6 28 40 04 	stb  %o3, [ %g1 + %g4 ]
    6718:	88 01 20 01 	inc  %g4
    671c:	ac 22 40 04 	sub  %o1, %g4, %l6
    6720:	80 a2 80 16 	cmp  %o2, %l6
    6724:	26 bf ff fd 	bl,a   6718 <ee_printf+0x770>
    6728:	d6 28 40 04 	stb  %o3, [ %g1 + %g4 ]
    672c:	ba 07 40 1c 	add  %i5, %i4, %i5
    6730:	10 bf fe 37 	b  600c <ee_printf+0x64>
    6734:	d8 0e 20 01 	ldub  [ %i0 + 1 ], %o4
    6738:	9a 13 60 40 	or  %o5, 0x40, %o5
    673c:	94 10 20 10 	mov  0x10, %o2
    6740:	d2 04 80 00 	ld  [ %l2 ], %o1
    6744:	90 10 00 1d 	mov  %i5, %o0
    6748:	98 10 00 13 	mov  %l3, %o4
    674c:	7f ff fc 80 	call  594c <number>
    6750:	96 10 00 1c 	mov  %i4, %o3
    6754:	a4 04 a0 04 	add  %l2, 4, %l2
    6758:	ba 10 00 08 	mov  %o0, %i5
    675c:	10 bf fe 2c 	b  600c <ee_printf+0x64>
    6760:	d8 0e 20 01 	ldub  [ %i0 + 1 ], %o4
    6764:	ec 04 80 00 	ld  [ %l2 ], %l6
    6768:	80 a5 a0 00 	cmp  %l6, 0
    676c:	02 80 04 5b 	be  78d8 <ee_printf+0x1930>
    6770:	a4 04 a0 04 	add  %l2, 4, %l2
    6774:	c2 4d 80 00 	ldsb  [ %l6 ], %g1
    6778:	80 a0 60 00 	cmp  %g1, 0
    677c:	02 80 04 5c 	be  78ec <ee_printf+0x1944>
    6780:	80 a4 e0 00 	cmp  %l3, 0
    6784:	02 80 04 5a 	be  78ec <ee_printf+0x1944>
    6788:	90 10 00 16 	mov  %l6, %o0
    678c:	10 80 00 05 	b  67a0 <ee_printf+0x7f8>
    6790:	90 02 20 01 	inc  %o0
    6794:	22 80 00 08 	be,a   67b4 <ee_printf+0x80c>
    6798:	a6 22 00 16 	sub  %o0, %l6, %l3
    679c:	90 02 20 01 	inc  %o0
    67a0:	c2 4a 00 00 	ldsb  [ %o0 ], %g1
    67a4:	80 a0 60 00 	cmp  %g1, 0
    67a8:	12 bf ff fb 	bne  6794 <ee_printf+0x7ec>
    67ac:	a6 84 ff ff 	addcc  %l3, -1, %l3
    67b0:	a6 22 00 16 	sub  %o0, %l6, %l3
    67b4:	80 8b 60 10 	btst  0x10, %o5
    67b8:	12 80 00 39 	bne  689c <ee_printf+0x8f4>
    67bc:	80 a4 e0 00 	cmp  %l3, 0
    67c0:	80 a7 00 13 	cmp  %i4, %l3
    67c4:	04 80 04 4e 	ble  78fc <ee_printf+0x1954>
    67c8:	9a 07 3f ff 	add  %i4, -1, %o5
    67cc:	b8 27 00 13 	sub  %i4, %l3, %i4
    67d0:	82 20 00 1d 	neg  %i5, %g1
    67d4:	82 08 60 03 	and  %g1, 3, %g1
    67d8:	80 a7 00 01 	cmp  %i4, %g1
    67dc:	08 80 00 03 	bleu  67e8 <ee_printf+0x840>
    67e0:	88 10 00 1c 	mov  %i4, %g4
    67e4:	88 10 00 01 	mov  %g1, %g4
    67e8:	80 a7 20 03 	cmp  %i4, 3
    67ec:	28 80 00 02 	bleu,a   67f4 <ee_printf+0x84c>
    67f0:	88 10 00 1c 	mov  %i4, %g4
    67f4:	80 a1 20 00 	cmp  %g4, 0
    67f8:	02 80 00 0c 	be  6828 <ee_printf+0x880>
    67fc:	82 10 00 1d 	mov  %i5, %g1
    6800:	92 10 20 20 	mov  0x20, %o1
    6804:	d2 28 40 00 	stb  %o1, [ %g1 ]
    6808:	82 00 60 01 	inc  %g1
    680c:	86 20 40 1d 	sub  %g1, %i5, %g3
    6810:	80 a1 00 03 	cmp  %g4, %g3
    6814:	18 bf ff fc 	bgu  6804 <ee_printf+0x85c>
    6818:	9a 03 7f ff 	add  %o5, -1, %o5
    681c:	80 a7 00 04 	cmp  %i4, %g4
    6820:	22 80 00 1d 	be,a   6894 <ee_printf+0x8ec>
    6824:	ba 07 40 1c 	add  %i5, %i4, %i5
    6828:	94 27 00 04 	sub  %i4, %g4, %o2
    682c:	99 32 a0 02 	srl  %o2, 2, %o4
    6830:	97 2b 20 02 	sll  %o4, 2, %o3
    6834:	80 a2 e0 00 	cmp  %o3, 0
    6838:	02 80 00 0e 	be  6870 <ee_printf+0x8c8>
    683c:	90 10 20 00 	clr  %o0
    6840:	9e 07 40 04 	add  %i5, %g4, %o7
    6844:	84 10 20 00 	clr  %g2
    6848:	e2 23 c0 00 	st  %l1, [ %o7 ]
    684c:	84 00 a0 01 	inc  %g2
    6850:	80 a0 80 0c 	cmp  %g2, %o4
    6854:	0a bf ff fd 	bcs  6848 <ee_printf+0x8a0>
    6858:	9e 03 e0 04 	add  %o7, 4, %o7
    685c:	82 00 40 0b 	add  %g1, %o3, %g1
    6860:	80 a2 80 0b 	cmp  %o2, %o3
    6864:	02 80 00 0b 	be  6890 <ee_printf+0x8e8>
    6868:	9a 23 40 0b 	sub  %o5, %o3, %o5
    686c:	90 10 20 00 	clr  %o0
    6870:	a8 03 60 01 	add  %o5, 1, %l4
    6874:	aa 10 20 20 	mov  0x20, %l5
    6878:	ea 28 40 08 	stb  %l5, [ %g1 + %o0 ]
    687c:	90 02 20 01 	inc  %o0
    6880:	88 25 00 08 	sub  %l4, %o0, %g4
    6884:	80 a4 c0 04 	cmp  %l3, %g4
    6888:	26 bf ff fd 	bl,a   687c <ee_printf+0x8d4>
    688c:	ea 28 40 08 	stb  %l5, [ %g1 + %o0 ]
    6890:	ba 07 40 1c 	add  %i5, %i4, %i5
    6894:	b8 04 ff ff 	add  %l3, -1, %i4
    6898:	80 a4 e0 00 	cmp  %l3, 0
    689c:	04 80 00 2e 	ble  6954 <ee_printf+0x9ac>
    68a0:	87 34 e0 02 	srl  %l3, 2, %g3
    68a4:	82 07 60 04 	add  %i5, 4, %g1
    68a8:	80 a5 80 01 	cmp  %l6, %g1
    68ac:	82 05 a0 04 	add  %l6, 4, %g1
    68b0:	92 60 3f ff 	subx  %g0, -1, %o1
    68b4:	80 a7 40 01 	cmp  %i5, %g1
    68b8:	82 60 3f ff 	subx  %g0, -1, %g1
    68bc:	98 12 40 01 	or  %o1, %g1, %o4
    68c0:	95 28 e0 02 	sll  %g3, 2, %o2
    68c4:	80 a4 e0 03 	cmp  %l3, 3
    68c8:	08 80 02 59 	bleu  722c <ee_printf+0x1284>
    68cc:	82 10 20 01 	mov  1, %g1
    68d0:	96 17 40 16 	or  %i5, %l6, %o3
    68d4:	84 0a e0 03 	and  %o3, 3, %g2
    68d8:	80 a0 00 02 	cmp  %g0, %g2
    68dc:	82 0b 00 01 	and  %o4, %g1, %g1
    68e0:	9e 60 3f ff 	subx  %g0, -1, %o7
    68e4:	80 88 40 0f 	btst  %g1, %o7
    68e8:	02 80 04 33 	be  79b4 <ee_printf+0x1a0c>
    68ec:	80 a2 a0 00 	cmp  %o2, 0
    68f0:	22 80 04 32 	be,a   79b8 <ee_printf+0x1a10>
    68f4:	aa 10 00 1d 	mov  %i5, %l5
    68f8:	82 10 20 00 	clr  %g1
    68fc:	a8 10 20 00 	clr  %l4
    6900:	da 05 80 01 	ld  [ %l6 + %g1 ], %o5
    6904:	da 27 40 01 	st  %o5, [ %i5 + %g1 ]
    6908:	a8 05 20 01 	inc  %l4
    690c:	80 a0 c0 14 	cmp  %g3, %l4
    6910:	18 bf ff fc 	bgu  6900 <ee_printf+0x958>
    6914:	82 00 60 04 	add  %g1, 4, %g1
    6918:	82 10 00 0a 	mov  %o2, %g1
    691c:	ac 05 80 0a 	add  %l6, %o2, %l6
    6920:	80 a4 c0 0a 	cmp  %l3, %o2
    6924:	02 80 00 0b 	be  6950 <ee_printf+0x9a8>
    6928:	aa 07 40 0a 	add  %i5, %o2, %l5
    692c:	90 20 00 01 	neg  %g1, %o0
    6930:	88 05 80 08 	add  %l6, %o0, %g4
    6934:	92 05 40 08 	add  %l5, %o0, %o1
    6938:	c6 09 00 01 	ldub  [ %g4 + %g1 ], %g3
    693c:	c6 2a 40 01 	stb  %g3, [ %o1 + %g1 ]
    6940:	82 00 60 01 	inc  %g1
    6944:	80 a4 c0 01 	cmp  %l3, %g1
    6948:	34 bf ff fd 	bg,a   693c <ee_printf+0x994>
    694c:	c6 09 00 01 	ldub  [ %g4 + %g1 ], %g3
    6950:	ba 07 40 13 	add  %i5, %l3, %i5
    6954:	80 a7 00 13 	cmp  %i4, %l3
    6958:	04 bf ff 76 	ble  6730 <ee_printf+0x788>
    695c:	9e 07 3f ff 	add  %i4, -1, %o7
    6960:	b8 27 00 13 	sub  %i4, %l3, %i4
    6964:	ac 20 00 1d 	neg  %i5, %l6
    6968:	94 0d a0 03 	and  %l6, 3, %o2
    696c:	80 a2 80 1c 	cmp  %o2, %i4
    6970:	38 80 00 02 	bgu,a   6978 <ee_printf+0x9d0>
    6974:	94 10 00 1c 	mov  %i4, %o2
    6978:	80 a7 20 03 	cmp  %i4, 3
    697c:	28 80 00 02 	bleu,a   6984 <ee_printf+0x9dc>
    6980:	94 10 00 1c 	mov  %i4, %o2
    6984:	80 a2 a0 00 	cmp  %o2, 0
    6988:	02 80 00 0c 	be  69b8 <ee_printf+0xa10>
    698c:	82 10 00 1d 	mov  %i5, %g1
    6990:	98 10 20 20 	mov  0x20, %o4
    6994:	d8 28 40 00 	stb  %o4, [ %g1 ]
    6998:	82 00 60 01 	inc  %g1
    699c:	96 20 40 1d 	sub  %g1, %i5, %o3
    69a0:	80 a2 80 0b 	cmp  %o2, %o3
    69a4:	18 bf ff fc 	bgu  6994 <ee_printf+0x9ec>
    69a8:	9e 03 ff ff 	add  %o7, -1, %o7
    69ac:	80 a7 00 0a 	cmp  %i4, %o2
    69b0:	22 bf ff 60 	be,a   6730 <ee_printf+0x788>
    69b4:	ba 07 40 1c 	add  %i5, %i4, %i5
    69b8:	a8 27 00 0a 	sub  %i4, %o2, %l4
    69bc:	9b 35 20 02 	srl  %l4, 2, %o5
    69c0:	ab 2b 60 02 	sll  %o5, 2, %l5
    69c4:	80 a5 60 00 	cmp  %l5, 0
    69c8:	02 80 00 0e 	be  6a00 <ee_printf+0xa58>
    69cc:	ac 10 20 00 	clr  %l6
    69d0:	90 07 40 0a 	add  %i5, %o2, %o0
    69d4:	84 10 20 00 	clr  %g2
    69d8:	e2 22 00 00 	st  %l1, [ %o0 ]
    69dc:	84 00 a0 01 	inc  %g2
    69e0:	80 a0 80 0d 	cmp  %g2, %o5
    69e4:	0a bf ff fd 	bcs  69d8 <ee_printf+0xa30>
    69e8:	90 02 20 04 	add  %o0, 4, %o0
    69ec:	82 00 40 15 	add  %g1, %l5, %g1
    69f0:	80 a5 00 15 	cmp  %l4, %l5
    69f4:	02 bf ff 4e 	be  672c <ee_printf+0x784>
    69f8:	9e 23 c0 15 	sub  %o7, %l5, %o7
    69fc:	ac 10 20 00 	clr  %l6
    6a00:	92 03 e0 01 	add  %o7, 1, %o1
    6a04:	86 10 20 20 	mov  0x20, %g3
    6a08:	c6 28 40 16 	stb  %g3, [ %g1 + %l6 ]
    6a0c:	ac 05 a0 01 	inc  %l6
    6a10:	88 22 40 16 	sub  %o1, %l6, %g4
    6a14:	80 a4 c0 04 	cmp  %l3, %g4
    6a18:	26 bf ff fd 	bl,a   6a0c <ee_printf+0xa64>
    6a1c:	c6 28 40 16 	stb  %g3, [ %g1 + %l6 ]
    6a20:	10 bf ff 44 	b  6730 <ee_printf+0x788>
    6a24:	ba 07 40 1c 	add  %i5, %i4, %i5
    6a28:	80 a7 3f ff 	cmp  %i4, -1
    6a2c:	22 80 02 02 	be,a   7234 <ee_printf+0x128c>
    6a30:	9a 13 60 01 	or  %o5, 1, %o5
    6a34:	d2 04 80 00 	ld  [ %l2 ], %o1
    6a38:	90 10 00 1d 	mov  %i5, %o0
    6a3c:	98 10 00 13 	mov  %l3, %o4
    6a40:	94 10 20 10 	mov  0x10, %o2
    6a44:	7f ff fb c2 	call  594c <number>
    6a48:	96 10 00 1c 	mov  %i4, %o3
    6a4c:	a4 04 a0 04 	add  %l2, 4, %l2
    6a50:	ba 10 00 08 	mov  %o0, %i5
    6a54:	10 bf fd 6e 	b  600c <ee_printf+0x64>
    6a58:	d8 0e 20 01 	ldub  [ %i0 + 1 ], %o4
    6a5c:	10 bf ff 39 	b  6740 <ee_printf+0x798>
    6a60:	94 10 20 08 	mov  8, %o2
    6a64:	92 10 00 12 	mov  %l2, %o1
    6a68:	94 10 20 08 	mov  8, %o2
    6a6c:	90 07 be 58 	add  %fp, -424, %o0
    6a70:	7f ff fd 15 	call  5ec4 <memcpy>
    6a74:	da 27 be 44 	st  %o5, [ %fp + -444 ]
    6a78:	d4 07 be 44 	ld  [ %fp + -444 ], %o2
    6a7c:	a4 04 a0 08 	add  %l2, 8, %l2
    6a80:	80 8a a0 10 	btst  0x10, %o2
    6a84:	02 80 00 03 	be  6a90 <ee_printf+0xae8>
    6a88:	d1 1f be 58 	ldd  [ %fp + -424 ], %f8
    6a8c:	94 0a bf fe 	and  %o2, -2, %o2
    6a90:	aa 12 a0 02 	or  %o2, 2, %l5
    6a94:	82 0d 60 01 	and  %l5, 1, %g1
    6a98:	80 a0 00 01 	cmp  %g0, %g1
    6a9c:	03 00 00 81 	sethi  %hi(0x20400), %g1
    6aa0:	98 40 3f ff 	addx  %g0, -1, %o4
    6aa4:	d5 18 62 88 	ldd  [ %g1 + 0x288 ], %f10
    6aa8:	96 0b 20 f0 	and  %o4, 0xf0, %o3
    6aac:	81 aa 0a ca 	fcmped  %f8, %f10
    6ab0:	01 00 00 00 	nop 
    6ab4:	09 80 03 0d 	fbl  76e8 <ee_printf+0x1740>
    6ab8:	a8 02 e0 30 	add  %o3, 0x30, %l4
    6abc:	80 8d 60 04 	btst  4, %l5
    6ac0:	02 80 02 d0 	be  7600 <ee_printf+0x1658>
    6ac4:	80 8d 60 08 	btst  8, %l5
    6ac8:	b8 07 3f ff 	add  %i4, -1, %i4
    6acc:	ac 10 20 2b 	mov  0x2b, %l6
    6ad0:	80 a4 ff ff 	cmp  %l3, -1
    6ad4:	22 80 00 02 	be,a   6adc <ee_printf+0xb34>
    6ad8:	a6 10 20 06 	mov  6, %l3
    6adc:	d1 3f be 38 	std  %f8, [ %fp + -456 ]
    6ae0:	9a 07 be b0 	add  %fp, -336, %o5
    6ae4:	d0 1f be 38 	ldd  [ %fp + -456 ], %o0
    6ae8:	94 10 00 13 	mov  %l3, %o2
    6aec:	96 07 be 50 	add  %fp, -432, %o3
    6af0:	7f ff fb 43 	call  57fc <fcvtbuf>
    6af4:	98 07 be 54 	add  %fp, -428, %o4
    6af8:	da 07 be 54 	ld  [ %fp + -428 ], %o5
    6afc:	80 a3 60 00 	cmp  %o5, 0
    6b00:	02 80 00 05 	be  6b14 <ee_printf+0xb6c>
    6b04:	82 07 be 60 	add  %fp, -416, %g1
    6b08:	84 10 20 2d 	mov  0x2d, %g2
    6b0c:	82 07 be 61 	add  %fp, -415, %g1
    6b10:	c4 2f be 60 	stb  %g2, [ %fp + -416 ]
    6b14:	de 4a 00 00 	ldsb  [ %o0 ], %o7
    6b18:	80 a3 e0 00 	cmp  %o7, 0
    6b1c:	12 80 02 f9 	bne  7700 <ee_printf+0x1758>
    6b20:	da 0a 00 00 	ldub  [ %o0 ], %o5
    6b24:	90 10 20 30 	mov  0x30, %o0
    6b28:	80 a4 e0 00 	cmp  %l3, 0
    6b2c:	02 80 03 a7 	be  79c8 <ee_printf+0x1a20>
    6b30:	d0 28 40 00 	stb  %o0, [ %g1 ]
    6b34:	92 10 20 2e 	mov  0x2e, %o1
    6b38:	d2 28 60 01 	stb  %o1, [ %g1 + 1 ]
    6b3c:	88 94 e0 00 	orcc  %l3, 0, %g4
    6b40:	04 80 03 a0 	ble  79c0 <ee_printf+0x1a18>
    6b44:	82 00 60 02 	add  %g1, 2, %g1
    6b48:	86 20 00 01 	neg  %g1, %g3
    6b4c:	94 08 e0 03 	and  %g3, 3, %o2
    6b50:	80 a1 00 0a 	cmp  %g4, %o2
    6b54:	08 80 00 03 	bleu  6b60 <ee_printf+0xbb8>
    6b58:	9e 10 00 04 	mov  %g4, %o7
    6b5c:	9e 10 00 0a 	mov  %o2, %o7
    6b60:	80 a1 20 03 	cmp  %g4, 3
    6b64:	28 80 00 02 	bleu,a   6b6c <ee_printf+0xbc4>
    6b68:	9e 10 00 04 	mov  %g4, %o7
    6b6c:	84 10 00 01 	mov  %g1, %g2
    6b70:	80 a3 e0 00 	cmp  %o7, 0
    6b74:	02 80 00 0b 	be  6ba0 <ee_printf+0xbf8>
    6b78:	86 10 20 00 	clr  %g3
    6b7c:	98 10 20 30 	mov  0x30, %o4
    6b80:	d8 28 80 00 	stb  %o4, [ %g2 ]
    6b84:	86 00 e0 01 	inc  %g3
    6b88:	80 a3 c0 03 	cmp  %o7, %g3
    6b8c:	18 bf ff fd 	bgu  6b80 <ee_printf+0xbd8>
    6b90:	84 00 a0 01 	inc  %g2
    6b94:	80 a1 00 0f 	cmp  %g4, %o7
    6b98:	22 80 00 1b 	be,a   6c04 <ee_printf+0xc5c>
    6b9c:	c0 28 40 04 	clrb  [ %g1 + %g4 ]
    6ba0:	90 21 00 0f 	sub  %g4, %o7, %o0
    6ba4:	97 32 20 02 	srl  %o0, 2, %o3
    6ba8:	93 2a e0 02 	sll  %o3, 2, %o1
    6bac:	80 a2 60 00 	cmp  %o1, 0
    6bb0:	22 80 00 0e 	be,a   6be8 <ee_printf+0xc40>
    6bb4:	9e 10 20 30 	mov  0x30, %o7
    6bb8:	94 00 40 0f 	add  %g1, %o7, %o2
    6bbc:	9a 10 20 00 	clr  %o5
    6bc0:	f4 22 80 00 	st  %i2, [ %o2 ]
    6bc4:	9a 03 60 01 	inc  %o5
    6bc8:	80 a3 40 0b 	cmp  %o5, %o3
    6bcc:	0a bf ff fd 	bcs  6bc0 <ee_printf+0xc18>
    6bd0:	94 02 a0 04 	add  %o2, 4, %o2
    6bd4:	84 00 80 09 	add  %g2, %o1, %g2
    6bd8:	80 a2 00 09 	cmp  %o0, %o1
    6bdc:	02 80 00 09 	be  6c00 <ee_printf+0xc58>
    6be0:	86 00 c0 09 	add  %g3, %o1, %g3
    6be4:	9e 10 20 30 	mov  0x30, %o7
    6be8:	98 20 80 03 	sub  %g2, %g3, %o4
    6bec:	de 2b 00 03 	stb  %o7, [ %o4 + %g3 ]
    6bf0:	86 00 e0 01 	inc  %g3
    6bf4:	80 a4 c0 03 	cmp  %l3, %g3
    6bf8:	34 bf ff fe 	bg,a   6bf0 <ee_printf+0xc48>
    6bfc:	de 2b 00 03 	stb  %o7, [ %o4 + %g3 ]
    6c00:	c0 28 40 04 	clrb  [ %g1 + %g4 ]
    6c04:	c2 0f be 60 	ldub  [ %fp + -416 ], %g1
    6c08:	83 28 60 18 	sll  %g1, 0x18, %g1
    6c0c:	80 a0 60 00 	cmp  %g1, 0
    6c10:	22 80 00 0e 	be,a   6c48 <ee_printf+0xca0>
    6c14:	a6 10 20 00 	clr  %l3
    6c18:	90 07 be 60 	add  %fp, -416, %o0
    6c1c:	9a 07 bf 60 	add  %fp, -160, %o5
    6c20:	10 80 00 04 	b  6c30 <ee_printf+0xc88>
    6c24:	98 10 00 08 	mov  %o0, %o4
    6c28:	02 80 00 08 	be  6c48 <ee_printf+0xca0>
    6c2c:	a6 23 00 08 	sub  %o4, %o0, %l3
    6c30:	98 03 20 01 	inc  %o4
    6c34:	c2 4b 00 00 	ldsb  [ %o4 ], %g1
    6c38:	80 a0 60 00 	cmp  %g1, 0
    6c3c:	12 bf ff fb 	bne  6c28 <ee_printf+0xc80>
    6c40:	80 a3 00 0d 	cmp  %o4, %o5
    6c44:	a6 23 00 08 	sub  %o4, %o0, %l3
    6c48:	80 8d 60 11 	btst  0x11, %l5
    6c4c:	12 80 00 37 	bne  6d28 <ee_printf+0xd80>
    6c50:	b8 27 00 13 	sub  %i4, %l3, %i4
    6c54:	80 a7 20 00 	cmp  %i4, 0
    6c58:	04 80 03 27 	ble  78f4 <ee_printf+0x194c>
    6c5c:	88 07 3f ff 	add  %i4, -1, %g4
    6c60:	82 20 00 1d 	neg  %i5, %g1
    6c64:	82 08 60 03 	and  %g1, 3, %g1
    6c68:	80 a7 00 01 	cmp  %i4, %g1
    6c6c:	08 80 00 03 	bleu  6c78 <ee_printf+0xcd0>
    6c70:	86 10 00 1c 	mov  %i4, %g3
    6c74:	86 10 00 01 	mov  %g1, %g3
    6c78:	80 a7 20 03 	cmp  %i4, 3
    6c7c:	28 80 00 02 	bleu,a   6c84 <ee_printf+0xcdc>
    6c80:	86 10 00 1c 	mov  %i4, %g3
    6c84:	80 a0 e0 00 	cmp  %g3, 0
    6c88:	02 80 00 0c 	be  6cb8 <ee_printf+0xd10>
    6c8c:	82 10 00 1d 	mov  %i5, %g1
    6c90:	96 10 20 20 	mov  0x20, %o3
    6c94:	d6 28 40 00 	stb  %o3, [ %g1 ]
    6c98:	82 00 60 01 	inc  %g1
    6c9c:	94 20 40 1d 	sub  %g1, %i5, %o2
    6ca0:	80 a0 c0 0a 	cmp  %g3, %o2
    6ca4:	18 bf ff fc 	bgu  6c94 <ee_printf+0xcec>
    6ca8:	88 01 3f ff 	add  %g4, -1, %g4
    6cac:	80 a7 00 03 	cmp  %i4, %g3
    6cb0:	22 80 00 1d 	be,a   6d24 <ee_printf+0xd7c>
    6cb4:	ba 07 40 1c 	add  %i5, %i4, %i5
    6cb8:	92 27 00 03 	sub  %i4, %g3, %o1
    6cbc:	9f 32 60 02 	srl  %o1, 2, %o7
    6cc0:	91 2b e0 02 	sll  %o7, 2, %o0
    6cc4:	80 a2 20 00 	cmp  %o0, 0
    6cc8:	02 80 00 0e 	be  6d00 <ee_printf+0xd58>
    6ccc:	94 10 20 00 	clr  %o2
    6cd0:	9a 07 40 03 	add  %i5, %g3, %o5
    6cd4:	84 10 20 00 	clr  %g2
    6cd8:	e2 23 40 00 	st  %l1, [ %o5 ]
    6cdc:	84 00 a0 01 	inc  %g2
    6ce0:	80 a0 80 0f 	cmp  %g2, %o7
    6ce4:	0a bf ff fd 	bcs  6cd8 <ee_printf+0xd30>
    6ce8:	9a 03 60 04 	add  %o5, 4, %o5
    6cec:	82 00 40 08 	add  %g1, %o0, %g1
    6cf0:	80 a2 40 08 	cmp  %o1, %o0
    6cf4:	02 80 00 0b 	be  6d20 <ee_printf+0xd78>
    6cf8:	88 21 00 08 	sub  %g4, %o0, %g4
    6cfc:	94 10 20 00 	clr  %o2
    6d00:	98 01 20 01 	add  %g4, 1, %o4
    6d04:	96 10 20 20 	mov  0x20, %o3
    6d08:	d6 28 40 0a 	stb  %o3, [ %g1 + %o2 ]
    6d0c:	94 02 a0 01 	inc  %o2
    6d10:	86 23 00 0a 	sub  %o4, %o2, %g3
    6d14:	80 a0 e0 00 	cmp  %g3, 0
    6d18:	34 bf ff fd 	bg,a   6d0c <ee_printf+0xd64>
    6d1c:	d6 28 40 0a 	stb  %o3, [ %g1 + %o2 ]
    6d20:	ba 07 40 1c 	add  %i5, %i4, %i5
    6d24:	b8 10 3f ff 	mov  -1, %i4
    6d28:	80 8d a0 ff 	btst  0xff, %l6
    6d2c:	02 80 00 04 	be  6d3c <ee_printf+0xd94>
    6d30:	80 8d 60 10 	btst  0x10, %l5
    6d34:	ec 2f 40 00 	stb  %l6, [ %i5 ]
    6d38:	ba 07 60 01 	inc  %i5
    6d3c:	12 80 00 3e 	bne  6e34 <ee_printf+0xe8c>
    6d40:	80 a4 e0 00 	cmp  %l3, 0
    6d44:	80 a7 20 00 	cmp  %i4, 0
    6d48:	04 80 02 f2 	ble  7910 <ee_printf+0x1968>
    6d4c:	88 07 3f ff 	add  %i4, -1, %g4
    6d50:	aa 20 00 1d 	neg  %i5, %l5
    6d54:	ac 0d 60 03 	and  %l5, 3, %l6
    6d58:	80 a5 80 1c 	cmp  %l6, %i4
    6d5c:	38 80 00 02 	bgu,a   6d64 <ee_printf+0xdbc>
    6d60:	ac 10 00 1c 	mov  %i4, %l6
    6d64:	80 a7 20 03 	cmp  %i4, 3
    6d68:	28 80 00 02 	bleu,a   6d70 <ee_printf+0xdc8>
    6d6c:	ac 10 00 1c 	mov  %i4, %l6
    6d70:	80 a5 a0 00 	cmp  %l6, 0
    6d74:	02 80 00 0b 	be  6da0 <ee_printf+0xdf8>
    6d78:	82 10 00 1d 	mov  %i5, %g1
    6d7c:	e8 28 40 00 	stb  %l4, [ %g1 ]
    6d80:	82 00 60 01 	inc  %g1
    6d84:	92 20 40 1d 	sub  %g1, %i5, %o1
    6d88:	80 a5 80 09 	cmp  %l6, %o1
    6d8c:	18 bf ff fc 	bgu  6d7c <ee_printf+0xdd4>
    6d90:	88 01 3f ff 	add  %g4, -1, %g4
    6d94:	80 a7 00 16 	cmp  %i4, %l6
    6d98:	22 80 00 25 	be,a   6e2c <ee_printf+0xe84>
    6d9c:	ba 07 40 1c 	add  %i5, %i4, %i5
    6da0:	98 27 00 16 	sub  %i4, %l6, %o4
    6da4:	9f 33 20 02 	srl  %o4, 2, %o7
    6da8:	97 2b e0 02 	sll  %o7, 2, %o3
    6dac:	80 a2 e0 00 	cmp  %o3, 0
    6db0:	22 80 00 17 	be,a   6e0c <ee_printf+0xe64>
    6db4:	9e 10 20 00 	clr  %o7
    6db8:	9a 0d 20 ff 	and  %l4, 0xff, %o5
    6dbc:	91 2b 60 18 	sll  %o5, 0x18, %o0
    6dc0:	85 2b 60 10 	sll  %o5, 0x10, %g2
    6dc4:	94 0a 00 10 	and  %o0, %l0, %o2
    6dc8:	ab 2b 60 08 	sll  %o5, 8, %l5
    6dcc:	86 07 40 16 	add  %i5, %l6, %g3
    6dd0:	ac 12 80 02 	or  %o2, %g2, %l6
    6dd4:	84 10 20 00 	clr  %g2
    6dd8:	92 0d 80 19 	and  %l6, %i1, %o1
    6ddc:	90 12 40 15 	or  %o1, %l5, %o0
    6de0:	9a 12 00 0d 	or  %o0, %o5, %o5
    6de4:	da 20 c0 00 	st  %o5, [ %g3 ]
    6de8:	84 00 a0 01 	inc  %g2
    6dec:	80 a0 80 0f 	cmp  %g2, %o7
    6df0:	0a bf ff fd 	bcs  6de4 <ee_printf+0xe3c>
    6df4:	86 00 e0 04 	add  %g3, 4, %g3
    6df8:	82 00 40 0b 	add  %g1, %o3, %g1
    6dfc:	80 a3 00 0b 	cmp  %o4, %o3
    6e00:	02 80 00 0a 	be  6e28 <ee_printf+0xe80>
    6e04:	88 21 00 0b 	sub  %g4, %o3, %g4
    6e08:	9e 10 20 00 	clr  %o7
    6e0c:	98 01 20 01 	add  %g4, 1, %o4
    6e10:	e8 28 40 0f 	stb  %l4, [ %g1 + %o7 ]
    6e14:	9e 03 e0 01 	inc  %o7
    6e18:	96 23 00 0f 	sub  %o4, %o7, %o3
    6e1c:	80 a2 e0 00 	cmp  %o3, 0
    6e20:	34 bf ff fd 	bg,a   6e14 <ee_printf+0xe6c>
    6e24:	e8 28 40 0f 	stb  %l4, [ %g1 + %o7 ]
    6e28:	ba 07 40 1c 	add  %i5, %i4, %i5
    6e2c:	b8 10 3f ff 	mov  -1, %i4
    6e30:	80 a4 e0 00 	cmp  %l3, 0
    6e34:	04 80 00 25 	ble  6ec8 <ee_printf+0xf20>
    6e38:	80 a7 20 00 	cmp  %i4, 0
    6e3c:	82 0f 60 03 	and  %i5, 3, %g1
    6e40:	80 a0 00 01 	cmp  %g0, %g1
    6e44:	a9 34 e0 02 	srl  %l3, 2, %l4
    6e48:	94 60 3f ff 	subx  %g0, -1, %o2
    6e4c:	83 2d 20 02 	sll  %l4, 2, %g1
    6e50:	80 a4 e0 03 	cmp  %l3, 3
    6e54:	18 80 00 03 	bgu  6e60 <ee_printf+0xeb8>
    6e58:	aa 10 20 01 	mov  1, %l5
    6e5c:	aa 10 20 00 	clr  %l5
    6e60:	80 8a 80 15 	btst  %o2, %l5
    6e64:	02 80 02 d0 	be  79a4 <ee_printf+0x19fc>
    6e68:	80 a0 60 00 	cmp  %g1, 0
    6e6c:	22 80 02 cf 	be,a   79a8 <ee_printf+0x1a00>
    6e70:	9a 10 00 1d 	mov  %i5, %o5
    6e74:	90 10 20 00 	clr  %o0
    6e78:	92 10 20 00 	clr  %o1
    6e7c:	88 07 be 60 	add  %fp, -416, %g4
    6e80:	ec 01 00 08 	ld  [ %g4 + %o0 ], %l6
    6e84:	ec 27 40 08 	st  %l6, [ %i5 + %o0 ]
    6e88:	92 02 60 01 	inc  %o1
    6e8c:	80 a5 00 09 	cmp  %l4, %o1
    6e90:	18 bf ff fc 	bgu  6e80 <ee_printf+0xed8>
    6e94:	90 02 20 04 	add  %o0, 4, %o0
    6e98:	80 a4 c0 01 	cmp  %l3, %g1
    6e9c:	02 80 00 09 	be  6ec0 <ee_printf+0xf18>
    6ea0:	9a 07 40 01 	add  %i5, %g1, %o5
    6ea4:	86 23 40 01 	sub  %o5, %g1, %g3
    6ea8:	c4 09 00 01 	ldub  [ %g4 + %g1 ], %g2
    6eac:	c4 28 c0 01 	stb  %g2, [ %g3 + %g1 ]
    6eb0:	82 00 60 01 	inc  %g1
    6eb4:	80 a4 c0 01 	cmp  %l3, %g1
    6eb8:	34 bf ff fd 	bg,a   6eac <ee_printf+0xf04>
    6ebc:	c4 09 00 01 	ldub  [ %g4 + %g1 ], %g2
    6ec0:	ba 07 40 13 	add  %i5, %l3, %i5
    6ec4:	80 a7 20 00 	cmp  %i4, 0
    6ec8:	04 bf fe 1a 	ble  6730 <ee_printf+0x788>
    6ecc:	90 07 3f ff 	add  %i4, -1, %o0
    6ed0:	a6 20 00 1d 	neg  %i5, %l3
    6ed4:	96 0c e0 03 	and  %l3, 3, %o3
    6ed8:	80 a2 c0 1c 	cmp  %o3, %i4
    6edc:	38 80 00 02 	bgu,a   6ee4 <ee_printf+0xf3c>
    6ee0:	96 10 00 1c 	mov  %i4, %o3
    6ee4:	80 a7 20 03 	cmp  %i4, 3
    6ee8:	28 80 00 02 	bleu,a   6ef0 <ee_printf+0xf48>
    6eec:	96 10 00 1c 	mov  %i4, %o3
    6ef0:	80 a2 e0 00 	cmp  %o3, 0
    6ef4:	02 80 00 0c 	be  6f24 <ee_printf+0xf7c>
    6ef8:	82 10 00 1d 	mov  %i5, %g1
    6efc:	98 10 20 20 	mov  0x20, %o4
    6f00:	d8 28 40 00 	stb  %o4, [ %g1 ]
    6f04:	82 00 60 01 	inc  %g1
    6f08:	9e 20 40 1d 	sub  %g1, %i5, %o7
    6f0c:	80 a2 c0 0f 	cmp  %o3, %o7
    6f10:	18 bf ff fc 	bgu  6f00 <ee_printf+0xf58>
    6f14:	90 02 3f ff 	add  %o0, -1, %o0
    6f18:	80 a7 00 0b 	cmp  %i4, %o3
    6f1c:	22 bf fe 05 	be,a   6730 <ee_printf+0x788>
    6f20:	ba 07 40 1c 	add  %i5, %i4, %i5
    6f24:	a8 27 00 0b 	sub  %i4, %o3, %l4
    6f28:	95 35 20 02 	srl  %l4, 2, %o2
    6f2c:	ab 2a a0 02 	sll  %o2, 2, %l5
    6f30:	80 a5 60 00 	cmp  %l5, 0
    6f34:	02 80 00 0e 	be  6f6c <ee_printf+0xfc4>
    6f38:	84 10 20 00 	clr  %g2
    6f3c:	92 07 40 0b 	add  %i5, %o3, %o1
    6f40:	ac 10 20 00 	clr  %l6
    6f44:	e2 22 40 00 	st  %l1, [ %o1 ]
    6f48:	ac 05 a0 01 	inc  %l6
    6f4c:	80 a5 80 0a 	cmp  %l6, %o2
    6f50:	0a bf ff fd 	bcs  6f44 <ee_printf+0xf9c>
    6f54:	92 02 60 04 	add  %o1, 4, %o1
    6f58:	82 00 40 15 	add  %g1, %l5, %g1
    6f5c:	80 a5 00 15 	cmp  %l4, %l5
    6f60:	02 bf fd f3 	be  672c <ee_printf+0x784>
    6f64:	90 22 00 15 	sub  %o0, %l5, %o0
    6f68:	84 10 20 00 	clr  %g2
    6f6c:	9a 02 20 01 	add  %o0, 1, %o5
    6f70:	88 10 20 20 	mov  0x20, %g4
    6f74:	c8 28 40 02 	stb  %g4, [ %g1 + %g2 ]
    6f78:	84 00 a0 01 	inc  %g2
    6f7c:	86 23 40 02 	sub  %o5, %g2, %g3
    6f80:	80 a0 e0 00 	cmp  %g3, 0
    6f84:	34 bf ff fd 	bg,a   6f78 <ee_printf+0xfd0>
    6f88:	c8 28 40 02 	stb  %g4, [ %g1 + %g2 ]
    6f8c:	10 bf fd e9 	b  6730 <ee_printf+0x788>
    6f90:	ba 07 40 1c 	add  %i5, %i4, %i5
    6f94:	10 bf fd eb 	b  6740 <ee_printf+0x798>
    6f98:	94 10 20 10 	mov  0x10, %o2
    6f9c:	10 bf fd e9 	b  6740 <ee_printf+0x798>
    6fa0:	94 10 20 0a 	mov  0xa, %o2
    6fa4:	9a 13 60 02 	or  %o5, 2, %o5
    6fa8:	10 bf fd e6 	b  6740 <ee_printf+0x798>
    6fac:	94 10 20 0a 	mov  0xa, %o2
    6fb0:	80 8b 60 10 	btst  0x10, %o5
    6fb4:	32 80 00 68 	bne,a   7154 <ee_printf+0x11ac>
    6fb8:	c2 04 80 00 	ld  [ %l2 ], %g1
    6fbc:	b8 07 3f ff 	add  %i4, -1, %i4
    6fc0:	92 97 20 00 	orcc  %i4, 0, %o1
    6fc4:	04 80 00 63 	ble  7150 <ee_printf+0x11a8>
    6fc8:	82 20 00 1d 	neg  %i5, %g1
    6fcc:	82 08 60 03 	and  %g1, 3, %g1
    6fd0:	80 a7 00 01 	cmp  %i4, %g1
    6fd4:	08 80 00 03 	bleu  6fe0 <ee_printf+0x1038>
    6fd8:	a6 10 00 1c 	mov  %i4, %l3
    6fdc:	a6 10 00 01 	mov  %g1, %l3
    6fe0:	80 a7 20 03 	cmp  %i4, 3
    6fe4:	28 80 00 02 	bleu,a   6fec <ee_printf+0x1044>
    6fe8:	a6 10 00 1c 	mov  %i4, %l3
    6fec:	80 a4 e0 00 	cmp  %l3, 0
    6ff0:	02 80 00 0c 	be  7020 <ee_printf+0x1078>
    6ff4:	82 10 00 1d 	mov  %i5, %g1
    6ff8:	98 10 20 20 	mov  0x20, %o4
    6ffc:	d8 28 40 00 	stb  %o4, [ %g1 ]
    7000:	82 00 60 01 	inc  %g1
    7004:	86 20 40 1d 	sub  %g1, %i5, %g3
    7008:	80 a4 c0 03 	cmp  %l3, %g3
    700c:	18 bf ff fc 	bgu  6ffc <ee_printf+0x1054>
    7010:	92 02 7f ff 	add  %o1, -1, %o1
    7014:	80 a7 00 13 	cmp  %i4, %l3
    7018:	22 80 00 1a 	be,a   7080 <ee_printf+0x10d8>
    701c:	d0 04 80 00 	ld  [ %l2 ], %o0
    7020:	a8 27 00 13 	sub  %i4, %l3, %l4
    7024:	97 35 20 02 	srl  %l4, 2, %o3
    7028:	9f 2a e0 02 	sll  %o3, 2, %o7
    702c:	80 a3 e0 00 	cmp  %o7, 0
    7030:	02 80 00 0e 	be  7068 <ee_printf+0x10c0>
    7034:	ac 10 20 20 	mov  0x20, %l6
    7038:	aa 07 40 13 	add  %i5, %l3, %l5
    703c:	94 10 20 00 	clr  %o2
    7040:	e2 25 40 00 	st  %l1, [ %l5 ]
    7044:	94 02 a0 01 	inc  %o2
    7048:	80 a2 80 0b 	cmp  %o2, %o3
    704c:	0a bf ff fd 	bcs  7040 <ee_printf+0x1098>
    7050:	aa 05 60 04 	add  %l5, 4, %l5
    7054:	82 00 40 0f 	add  %g1, %o7, %g1
    7058:	80 a5 00 0f 	cmp  %l4, %o7
    705c:	02 80 00 08 	be  707c <ee_printf+0x10d4>
    7060:	92 22 40 0f 	sub  %o1, %o7, %o1
    7064:	ac 10 20 20 	mov  0x20, %l6
    7068:	ec 28 40 00 	stb  %l6, [ %g1 ]
    706c:	92 02 7f ff 	add  %o1, -1, %o1
    7070:	80 a2 60 00 	cmp  %o1, 0
    7074:	14 bf ff fd 	bg  7068 <ee_printf+0x10c0>
    7078:	82 00 60 01 	inc  %g1
    707c:	d0 04 80 00 	ld  [ %l2 ], %o0
    7080:	82 07 40 1c 	add  %i5, %i4, %g1
    7084:	d0 2f 40 1c 	stb  %o0, [ %i5 + %i4 ]
    7088:	a4 04 a0 04 	add  %l2, 4, %l2
    708c:	ba 00 60 01 	add  %g1, 1, %i5
    7090:	10 bf fb df 	b  600c <ee_printf+0x64>
    7094:	d8 0e 20 01 	ldub  [ %i0 + 1 ], %o4
    7098:	f8 04 80 00 	ld  [ %l2 ], %i4
    709c:	84 06 20 02 	add  %i0, 2, %g2
    70a0:	a4 04 a0 04 	add  %l2, 4, %l2
    70a4:	80 a7 20 00 	cmp  %i4, 0
    70a8:	16 bf fb fc 	bge  6098 <ee_printf+0xf0>
    70ac:	c2 0e 20 02 	ldub  [ %i0 + 2 ], %g1
    70b0:	b8 20 00 1c 	neg  %i4
    70b4:	10 bf fb f9 	b  6098 <ee_printf+0xf0>
    70b8:	9a 13 60 10 	or  %o5, 0x10, %o5
    70bc:	82 10 20 30 	mov  0x30, %g1
    70c0:	c2 2f be b0 	stb  %g1, [ %fp + -336 ]
    70c4:	9e 10 20 01 	mov  1, %o7
    70c8:	82 10 20 2e 	mov  0x2e, %g1
    70cc:	aa 07 80 0f 	add  %fp, %o7, %l5
    70d0:	c2 2d 7e b0 	stb  %g1, [ %l5 + -336 ]
    70d4:	c6 08 a0 01 	ldub  [ %g2 + 1 ], %g3
    70d8:	80 a0 e0 00 	cmp  %g3, 0
    70dc:	12 bf fc 99 	bne  6340 <ee_printf+0x398>
    70e0:	ac 10 20 02 	mov  2, %l6
    70e4:	82 07 80 16 	add  %fp, %l6, %g1
    70e8:	98 10 20 30 	mov  0x30, %o4
    70ec:	d8 28 7e b0 	stb  %o4, [ %g1 + -336 ]
    70f0:	88 03 e0 02 	add  %o7, 2, %g4
    70f4:	82 10 20 2e 	mov  0x2e, %g1
    70f8:	a8 07 80 04 	add  %fp, %g4, %l4
    70fc:	c2 2d 3e b0 	stb  %g1, [ %l4 + -336 ]
    7100:	c6 08 a0 02 	ldub  [ %g2 + 2 ], %g3
    7104:	80 a0 e0 00 	cmp  %g3, 0
    7108:	12 bf fc b6 	bne  63e0 <ee_printf+0x438>
    710c:	ac 01 20 01 	add  %g4, 1, %l6
    7110:	aa 07 80 16 	add  %fp, %l6, %l5
    7114:	82 10 20 30 	mov  0x30, %g1
    7118:	c2 2d 7e b0 	stb  %g1, [ %l5 + -336 ]
    711c:	a6 01 20 02 	add  %g4, 2, %l3
    7120:	82 10 20 2e 	mov  0x2e, %g1
    7124:	ac 07 80 13 	add  %fp, %l3, %l6
    7128:	c2 2d be b0 	stb  %g1, [ %l6 + -336 ]
    712c:	c4 08 a0 03 	ldub  [ %g2 + 3 ], %g2
    7130:	80 a0 a0 00 	cmp  %g2, 0
    7134:	12 bf fc d3 	bne  6480 <ee_printf+0x4d8>
    7138:	98 04 e0 01 	add  %l3, 1, %o4
    713c:	82 07 80 0c 	add  %fp, %o4, %g1
    7140:	a8 10 20 30 	mov  0x30, %l4
    7144:	94 04 e0 02 	add  %l3, 2, %o2
    7148:	10 bf fc ef 	b  6504 <ee_printf+0x55c>
    714c:	e8 28 7e b0 	stb  %l4, [ %g1 + -336 ]
    7150:	c2 04 80 00 	ld  [ %l2 ], %g1
    7154:	c2 2f 40 00 	stb  %g1, [ %i5 ]
    7158:	b8 07 3f ff 	add  %i4, -1, %i4
    715c:	98 07 60 01 	add  %i5, 1, %o4
    7160:	84 97 20 00 	orcc  %i4, 0, %g2
    7164:	04 80 01 e8 	ble  7904 <ee_printf+0x195c>
    7168:	a4 04 a0 04 	add  %l2, 4, %l2
    716c:	a6 20 00 0c 	neg  %o4, %l3
    7170:	a8 0c e0 03 	and  %l3, 3, %l4
    7174:	80 a5 00 1c 	cmp  %l4, %i4
    7178:	38 80 00 02 	bgu,a   7180 <ee_printf+0x11d8>
    717c:	a8 10 00 1c 	mov  %i4, %l4
    7180:	80 a7 20 03 	cmp  %i4, 3
    7184:	28 80 00 02 	bleu,a   718c <ee_printf+0x11e4>
    7188:	a8 10 00 1c 	mov  %i4, %l4
    718c:	80 a5 20 00 	cmp  %l4, 0
    7190:	02 80 00 0d 	be  71c4 <ee_printf+0x121c>
    7194:	82 10 00 0c 	mov  %o4, %g1
    7198:	96 38 00 1d 	xnor  %g0, %i5, %o3
    719c:	9e 10 20 20 	mov  0x20, %o7
    71a0:	de 28 40 00 	stb  %o7, [ %g1 ]
    71a4:	82 00 60 01 	inc  %g1
    71a8:	94 00 40 0b 	add  %g1, %o3, %o2
    71ac:	80 a5 00 0a 	cmp  %l4, %o2
    71b0:	18 bf ff fc 	bgu  71a0 <ee_printf+0x11f8>
    71b4:	84 00 bf ff 	add  %g2, -1, %g2
    71b8:	80 a7 00 14 	cmp  %i4, %l4
    71bc:	22 80 00 1a 	be,a   7224 <ee_printf+0x127c>
    71c0:	ba 03 00 1c 	add  %o4, %i4, %i5
    71c4:	aa 27 00 14 	sub  %i4, %l4, %l5
    71c8:	ad 35 60 02 	srl  %l5, 2, %l6
    71cc:	93 2d a0 02 	sll  %l6, 2, %o1
    71d0:	80 a2 60 00 	cmp  %o1, 0
    71d4:	02 80 00 0d 	be  7208 <ee_printf+0x1260>
    71d8:	90 05 20 01 	add  %l4, 1, %o0
    71dc:	9a 10 20 00 	clr  %o5
    71e0:	ba 07 40 08 	add  %i5, %o0, %i5
    71e4:	e2 27 40 00 	st  %l1, [ %i5 ]
    71e8:	9a 03 60 01 	inc  %o5
    71ec:	80 a3 40 16 	cmp  %o5, %l6
    71f0:	0a bf ff fd 	bcs  71e4 <ee_printf+0x123c>
    71f4:	ba 07 60 04 	add  %i5, 4, %i5
    71f8:	82 00 40 09 	add  %g1, %o1, %g1
    71fc:	80 a5 40 09 	cmp  %l5, %o1
    7200:	02 80 00 08 	be  7220 <ee_printf+0x1278>
    7204:	84 20 80 09 	sub  %g2, %o1, %g2
    7208:	88 10 20 20 	mov  0x20, %g4
    720c:	c8 28 40 00 	stb  %g4, [ %g1 ]
    7210:	84 00 bf ff 	add  %g2, -1, %g2
    7214:	80 a0 a0 00 	cmp  %g2, 0
    7218:	14 bf ff fd 	bg  720c <ee_printf+0x1264>
    721c:	82 00 60 01 	inc  %g1
    7220:	ba 03 00 1c 	add  %o4, %i4, %i5
    7224:	10 bf fb 7a 	b  600c <ee_printf+0x64>
    7228:	d8 0e 20 01 	ldub  [ %i0 + 1 ], %o4
    722c:	10 bf fd a9 	b  68d0 <ee_printf+0x928>
    7230:	82 10 20 00 	clr  %g1
    7234:	10 bf fe 00 	b  6a34 <ee_printf+0xa8c>
    7238:	b8 10 20 08 	mov  8, %i4
    723c:	80 8b 60 40 	btst  0x40, %o5
    7240:	02 80 00 ed 	be  75f4 <ee_printf+0x164c>
    7244:	a4 04 a0 04 	add  %l2, 4, %l2
    7248:	03 00 00 81 	sethi  %hi(0x20400), %g1
    724c:	82 10 62 48 	or  %g1, 0x248, %g1	! 20648 <state_known_crc+0x634>
    7250:	d4 08 80 00 	ldub  [ %g2 ], %o2
    7254:	a8 10 20 3a 	mov  0x3a, %l4
    7258:	9e 0a a0 ff 	and  %o2, 0xff, %o7
    725c:	e8 2f be b2 	stb  %l4, [ %fp + -334 ]
    7260:	91 33 e0 04 	srl  %o7, 4, %o0
    7264:	aa 0a a0 0f 	and  %o2, 0xf, %l5
    7268:	d8 08 40 08 	ldub  [ %g1 + %o0 ], %o4
    726c:	c6 08 40 15 	ldub  [ %g1 + %l5 ], %g3
    7270:	d8 2f be b0 	stb  %o4, [ %fp + -336 ]
    7274:	c6 2f be b1 	stb  %g3, [ %fp + -335 ]
    7278:	e6 08 a0 01 	ldub  [ %g2 + 1 ], %l3
    727c:	92 0c e0 ff 	and  %l3, 0xff, %o1
    7280:	96 0c e0 0f 	and  %l3, 0xf, %o3
    7284:	89 32 60 04 	srl  %o1, 4, %g4
    7288:	e8 2f be b5 	stb  %l4, [ %fp + -331 ]
    728c:	ec 08 40 0b 	ldub  [ %g1 + %o3 ], %l6
    7290:	d4 08 40 04 	ldub  [ %g1 + %g4 ], %o2
    7294:	ec 2f be b4 	stb  %l6, [ %fp + -332 ]
    7298:	d4 2f be b3 	stb  %o2, [ %fp + -333 ]
    729c:	de 08 a0 02 	ldub  [ %g2 + 2 ], %o7
    72a0:	e8 2f be b8 	stb  %l4, [ %fp + -328 ]
    72a4:	90 0b e0 ff 	and  %o7, 0xff, %o0
    72a8:	aa 0b e0 0f 	and  %o7, 0xf, %l5
    72ac:	99 32 20 04 	srl  %o0, 4, %o4
    72b0:	c6 08 40 15 	ldub  [ %g1 + %l5 ], %g3
    72b4:	e6 08 40 0c 	ldub  [ %g1 + %o4 ], %l3
    72b8:	c6 2f be b7 	stb  %g3, [ %fp + -329 ]
    72bc:	e6 2f be b6 	stb  %l3, [ %fp + -330 ]
    72c0:	d2 08 a0 03 	ldub  [ %g2 + 3 ], %o1
    72c4:	96 0a 60 ff 	and  %o1, 0xff, %o3
    72c8:	88 0a 60 0f 	and  %o1, 0xf, %g4
    72cc:	e8 2f be bb 	stb  %l4, [ %fp + -325 ]
    72d0:	d4 08 40 04 	ldub  [ %g1 + %g4 ], %o2
    72d4:	ad 32 e0 04 	srl  %o3, 4, %l6
    72d8:	d4 2f be ba 	stb  %o2, [ %fp + -326 ]
    72dc:	de 08 40 16 	ldub  [ %g1 + %l6 ], %o7
    72e0:	de 2f be b9 	stb  %o7, [ %fp + -327 ]
    72e4:	d0 08 a0 04 	ldub  [ %g2 + 4 ], %o0
    72e8:	e8 2f be be 	stb  %l4, [ %fp + -322 ]
    72ec:	aa 0a 20 0f 	and  %o0, 0xf, %l5
    72f0:	a8 0a 20 ff 	and  %o0, 0xff, %l4
    72f4:	e6 08 40 15 	ldub  [ %g1 + %l5 ], %l3
    72f8:	99 35 20 04 	srl  %l4, 4, %o4
    72fc:	e6 2f be bd 	stb  %l3, [ %fp + -323 ]
    7300:	c6 08 40 0c 	ldub  [ %g1 + %o4 ], %g3
    7304:	c6 2f be bc 	stb  %g3, [ %fp + -324 ]
    7308:	c4 08 a0 05 	ldub  [ %g2 + 5 ], %g2
    730c:	92 08 a0 ff 	and  %g2, 0xff, %o1
    7310:	97 32 60 04 	srl  %o1, 4, %o3
    7314:	c8 08 40 0b 	ldub  [ %g1 + %o3 ], %g4
    7318:	c8 2f be bf 	stb  %g4, [ %fp + -321 ]
    731c:	ac 08 a0 0f 	and  %g2, 0xf, %l6
    7320:	80 8b 60 10 	btst  0x10, %o5
    7324:	c2 08 40 16 	ldub  [ %g1 + %l6 ], %g1
    7328:	12 80 00 37 	bne  7404 <ee_printf+0x145c>
    732c:	c2 2f be c0 	stb  %g1, [ %fp + -320 ]
    7330:	80 a7 20 11 	cmp  %i4, 0x11
    7334:	04 80 01 79 	ble  7918 <ee_printf+0x1970>
    7338:	86 07 3f ff 	add  %i4, -1, %g3
    733c:	b8 07 3f ef 	add  %i4, -17, %i4
    7340:	82 20 00 1d 	neg  %i5, %g1
    7344:	82 08 60 03 	and  %g1, 3, %g1
    7348:	80 a7 00 01 	cmp  %i4, %g1
    734c:	18 80 00 eb 	bgu  76f8 <ee_printf+0x1750>
    7350:	94 10 00 1c 	mov  %i4, %o2
    7354:	80 a7 20 03 	cmp  %i4, 3
    7358:	28 80 00 02 	bleu,a   7360 <ee_printf+0x13b8>
    735c:	94 10 00 1c 	mov  %i4, %o2
    7360:	80 a2 a0 00 	cmp  %o2, 0
    7364:	02 80 00 0c 	be  7394 <ee_printf+0x13ec>
    7368:	82 10 00 1d 	mov  %i5, %g1
    736c:	9a 10 20 20 	mov  0x20, %o5
    7370:	da 28 40 00 	stb  %o5, [ %g1 ]
    7374:	82 00 60 01 	inc  %g1
    7378:	9e 20 40 1d 	sub  %g1, %i5, %o7
    737c:	80 a2 80 0f 	cmp  %o2, %o7
    7380:	18 bf ff fc 	bgu  7370 <ee_printf+0x13c8>
    7384:	86 00 ff ff 	add  %g3, -1, %g3
    7388:	80 a7 00 0a 	cmp  %i4, %o2
    738c:	22 80 00 1d 	be,a   7400 <ee_printf+0x1458>
    7390:	ba 07 40 1c 	add  %i5, %i4, %i5
    7394:	90 27 00 0a 	sub  %i4, %o2, %o0
    7398:	a9 32 20 02 	srl  %o0, 2, %l4
    739c:	ab 2d 20 02 	sll  %l4, 2, %l5
    73a0:	80 a5 60 00 	cmp  %l5, 0
    73a4:	02 80 00 0e 	be  73dc <ee_printf+0x1434>
    73a8:	84 10 20 00 	clr  %g2
    73ac:	a6 07 40 0a 	add  %i5, %o2, %l3
    73b0:	98 10 20 00 	clr  %o4
    73b4:	e2 24 c0 00 	st  %l1, [ %l3 ]
    73b8:	98 03 20 01 	inc  %o4
    73bc:	80 a3 00 14 	cmp  %o4, %l4
    73c0:	0a bf ff fd 	bcs  73b4 <ee_printf+0x140c>
    73c4:	a6 04 e0 04 	add  %l3, 4, %l3
    73c8:	82 00 40 15 	add  %g1, %l5, %g1
