
.//core_mark.elf:     file format elf32-sparc


Disassembly of section .text:

00000000 <_start>:
       0:	90 10 21 00 	mov  0x100, %o0
       4:	d0 a0 00 80 	sta  %o0, [ %g0 ] #ASI_N
       8:	9c 10 30 00 	mov  -4096, %sp
       c:	bc 10 00 00 	mov  %g0, %fp
      10:	a0 10 20 01 	mov  1, %l0
      14:	81 94 20 00 	mov  %l0, %wim
      18:	21 00 00 04 	sethi  %hi(0x1000), %l0
      1c:	a0 14 20 e0 	or  %l0, 0xe0, %l0	! 10e0 <window_underflow_trap_handler+0x7c>
      20:	81 88 00 10 	mov  %l0, %psr
      24:	21 00 00 08 	sethi  %hi(0x2000), %l0
      28:	a0 14 20 00 	mov  %l0, %l0	! 2000 <trap_table_base>
      2c:	81 9c 20 00 	mov  %l0, %tbr
      30:	40 00 0e b3 	call  3afc <ajit_main>
      34:	01 00 00 00 	nop 
      38:	91 d0 20 00 	ta  0
	...

00001000 <window_overflow_trap_handler>:
    1000:	a7 50 00 00 	rd  %wim, %l3
    1004:	a9 2c e0 07 	sll  %l3, 7, %l4
    1008:	a7 34 e0 01 	srl  %l3, 1, %l3
    100c:	a6 14 c0 14 	or  %l3, %l4, %l3
    1010:	a6 0c e0 ff 	and  %l3, 0xff, %l3
    1014:	81 90 00 00 	mov  %g0, %wim
    1018:	01 00 00 00 	nop 
    101c:	01 00 00 00 	nop 
    1020:	01 00 00 00 	nop 
    1024:	81 e0 00 00 	save 
    1028:	e0 3b a0 00 	std  %l0, [ %sp ]
    102c:	e4 3b a0 08 	std  %l2, [ %sp + 8 ]
    1030:	e8 3b a0 10 	std  %l4, [ %sp + 0x10 ]
    1034:	ec 3b a0 18 	std  %l6, [ %sp + 0x18 ]
    1038:	f0 3b a0 20 	std  %i0, [ %sp + 0x20 ]
    103c:	f4 3b a0 28 	std  %i2, [ %sp + 0x28 ]
    1040:	f8 3b a0 30 	std  %i4, [ %sp + 0x30 ]
    1044:	fc 3b a0 38 	std  %fp, [ %sp + 0x38 ]
    1048:	81 e8 00 00 	restore 
    104c:	81 90 00 13 	mov  %l3, %wim
    1050:	01 00 00 00 	nop 
    1054:	01 00 00 00 	nop 
    1058:	01 00 00 00 	nop 
    105c:	81 c4 40 00 	jmp  %l1
    1060:	81 cc 80 00 	rett  %l2

00001064 <window_underflow_trap_handler>:
    1064:	a7 50 00 00 	rd  %wim, %l3
    1068:	a9 34 e0 07 	srl  %l3, 7, %l4
    106c:	a7 2c e0 01 	sll  %l3, 1, %l3
    1070:	a6 14 c0 14 	or  %l3, %l4, %l3
    1074:	a6 0c e0 ff 	and  %l3, 0xff, %l3
    1078:	81 90 00 00 	mov  %g0, %wim
    107c:	01 00 00 00 	nop 
    1080:	01 00 00 00 	nop 
    1084:	01 00 00 00 	nop 
    1088:	81 e8 00 00 	restore 
    108c:	81 e8 00 00 	restore 
    1090:	e0 1b a0 00 	ldd  [ %sp ], %l0
    1094:	e4 1b a0 08 	ldd  [ %sp + 8 ], %l2
    1098:	e8 1b a0 10 	ldd  [ %sp + 0x10 ], %l4
    109c:	ec 1b a0 18 	ldd  [ %sp + 0x18 ], %l6
    10a0:	f0 1b a0 20 	ldd  [ %sp + 0x20 ], %i0
    10a4:	f4 1b a0 28 	ldd  [ %sp + 0x28 ], %i2
    10a8:	f8 1b a0 30 	ldd  [ %sp + 0x30 ], %i4
    10ac:	fc 1b a0 38 	ldd  [ %sp + 0x38 ], %fp
    10b0:	81 e0 00 00 	save 
    10b4:	81 e0 00 00 	save 
    10b8:	81 90 00 13 	mov  %l3, %wim
    10bc:	01 00 00 00 	nop 
    10c0:	01 00 00 00 	nop 
    10c4:	01 00 00 00 	nop 
    10c8:	81 c4 40 00 	jmp  %l1
    10cc:	81 cc 80 00 	rett  %l2
    10d0:	01 00 00 00 	nop 
    10d4:	01 00 00 00 	nop 
    10d8:	01 00 00 00 	nop 
    10dc:	01 00 00 00 	nop 
    10e0:	01 00 00 00 	nop 
    10e4:	01 00 00 00 	nop 
    10e8:	01 00 00 00 	nop 
    10ec:	01 00 00 00 	nop 
    10f0:	01 00 00 00 	nop 
    10f4:	01 00 00 00 	nop 
    10f8:	01 00 00 00 	nop 
    10fc:	01 00 00 00 	nop 
    1100:	01 00 00 00 	nop 
    1104:	01 00 00 00 	nop 
    1108:	01 00 00 00 	nop 
    110c:	01 00 00 00 	nop 
    1110:	01 00 00 00 	nop 
    1114:	01 00 00 00 	nop 
    1118:	01 00 00 00 	nop 
    111c:	01 00 00 00 	nop 
    1120:	01 00 00 00 	nop 
    1124:	01 00 00 00 	nop 
    1128:	01 00 00 00 	nop 
    112c:	01 00 00 00 	nop 
    1130:	01 00 00 00 	nop 
    1134:	01 00 00 00 	nop 
    1138:	01 00 00 00 	nop 
    113c:	01 00 00 00 	nop 
    1140:	01 00 00 00 	nop 
    1144:	01 00 00 00 	nop 
    1148:	01 00 00 00 	nop 
    114c:	01 00 00 00 	nop 
    1150:	01 00 00 00 	nop 
    1154:	01 00 00 00 	nop 
    1158:	01 00 00 00 	nop 
    115c:	01 00 00 00 	nop 
    1160:	01 00 00 00 	nop 
    1164:	01 00 00 00 	nop 
    1168:	01 00 00 00 	nop 
    116c:	01 00 00 00 	nop 
    1170:	01 00 00 00 	nop 
    1174:	01 00 00 00 	nop 
    1178:	01 00 00 00 	nop 
    117c:	01 00 00 00 	nop 
    1180:	01 00 00 00 	nop 
    1184:	01 00 00 00 	nop 
    1188:	01 00 00 00 	nop 
    118c:	01 00 00 00 	nop 
    1190:	01 00 00 00 	nop 
    1194:	01 00 00 00 	nop 
    1198:	01 00 00 00 	nop 
    119c:	01 00 00 00 	nop 
    11a0:	01 00 00 00 	nop 
    11a4:	01 00 00 00 	nop 
    11a8:	01 00 00 00 	nop 
    11ac:	01 00 00 00 	nop 
    11b0:	01 00 00 00 	nop 
    11b4:	01 00 00 00 	nop 
    11b8:	01 00 00 00 	nop 
    11bc:	01 00 00 00 	nop 
    11c0:	01 00 00 00 	nop 
    11c4:	01 00 00 00 	nop 
    11c8:	01 00 00 00 	nop 
    11cc:	01 00 00 00 	nop 
    11d0:	01 00 00 00 	nop 
    11d4:	01 00 00 00 	nop 
    11d8:	01 00 00 00 	nop 
    11dc:	01 00 00 00 	nop 
    11e0:	01 00 00 00 	nop 
    11e4:	01 00 00 00 	nop 
    11e8:	01 00 00 00 	nop 
    11ec:	01 00 00 00 	nop 
    11f0:	01 00 00 00 	nop 
    11f4:	01 00 00 00 	nop 
    11f8:	01 00 00 00 	nop 
    11fc:	01 00 00 00 	nop 
    1200:	01 00 00 00 	nop 
    1204:	01 00 00 00 	nop 
    1208:	01 00 00 00 	nop 
    120c:	01 00 00 00 	nop 
    1210:	01 00 00 00 	nop 
    1214:	01 00 00 00 	nop 
    1218:	01 00 00 00 	nop 
    121c:	01 00 00 00 	nop 
    1220:	01 00 00 00 	nop 
    1224:	01 00 00 00 	nop 
    1228:	01 00 00 00 	nop 
    122c:	01 00 00 00 	nop 
    1230:	01 00 00 00 	nop 
    1234:	01 00 00 00 	nop 
    1238:	01 00 00 00 	nop 
    123c:	01 00 00 00 	nop 
    1240:	01 00 00 00 	nop 
    1244:	01 00 00 00 	nop 
    1248:	01 00 00 00 	nop 
    124c:	01 00 00 00 	nop 
    1250:	01 00 00 00 	nop 
    1254:	01 00 00 00 	nop 
    1258:	01 00 00 00 	nop 
    125c:	01 00 00 00 	nop 
    1260:	01 00 00 00 	nop 
    1264:	01 00 00 00 	nop 
    1268:	01 00 00 00 	nop 
    126c:	01 00 00 00 	nop 
    1270:	01 00 00 00 	nop 
    1274:	01 00 00 00 	nop 
    1278:	01 00 00 00 	nop 
    127c:	01 00 00 00 	nop 
    1280:	01 00 00 00 	nop 
    1284:	01 00 00 00 	nop 
    1288:	01 00 00 00 	nop 
    128c:	01 00 00 00 	nop 
    1290:	01 00 00 00 	nop 
    1294:	01 00 00 00 	nop 
    1298:	01 00 00 00 	nop 
    129c:	01 00 00 00 	nop 
    12a0:	01 00 00 00 	nop 
    12a4:	01 00 00 00 	nop 
    12a8:	01 00 00 00 	nop 
    12ac:	01 00 00 00 	nop 
    12b0:	01 00 00 00 	nop 
    12b4:	01 00 00 00 	nop 
    12b8:	01 00 00 00 	nop 
    12bc:	01 00 00 00 	nop 
    12c0:	01 00 00 00 	nop 
    12c4:	01 00 00 00 	nop 
    12c8:	01 00 00 00 	nop 
    12cc:	01 00 00 00 	nop 
    12d0:	01 00 00 00 	nop 
    12d4:	01 00 00 00 	nop 
    12d8:	01 00 00 00 	nop 
    12dc:	01 00 00 00 	nop 
    12e0:	01 00 00 00 	nop 
    12e4:	01 00 00 00 	nop 
    12e8:	01 00 00 00 	nop 
    12ec:	01 00 00 00 	nop 
    12f0:	01 00 00 00 	nop 
    12f4:	01 00 00 00 	nop 
    12f8:	01 00 00 00 	nop 
    12fc:	01 00 00 00 	nop 
    1300:	01 00 00 00 	nop 
    1304:	01 00 00 00 	nop 
    1308:	01 00 00 00 	nop 
    130c:	01 00 00 00 	nop 
    1310:	01 00 00 00 	nop 
    1314:	01 00 00 00 	nop 
    1318:	01 00 00 00 	nop 
    131c:	01 00 00 00 	nop 
    1320:	01 00 00 00 	nop 
    1324:	01 00 00 00 	nop 
    1328:	01 00 00 00 	nop 
    132c:	01 00 00 00 	nop 
    1330:	01 00 00 00 	nop 
    1334:	01 00 00 00 	nop 
    1338:	01 00 00 00 	nop 
    133c:	01 00 00 00 	nop 
    1340:	01 00 00 00 	nop 
    1344:	01 00 00 00 	nop 
    1348:	01 00 00 00 	nop 
    134c:	01 00 00 00 	nop 
    1350:	01 00 00 00 	nop 
    1354:	01 00 00 00 	nop 
    1358:	01 00 00 00 	nop 
    135c:	01 00 00 00 	nop 
    1360:	01 00 00 00 	nop 
    1364:	01 00 00 00 	nop 
    1368:	01 00 00 00 	nop 
    136c:	01 00 00 00 	nop 
    1370:	01 00 00 00 	nop 
    1374:	01 00 00 00 	nop 
    1378:	01 00 00 00 	nop 
    137c:	01 00 00 00 	nop 
    1380:	01 00 00 00 	nop 
    1384:	01 00 00 00 	nop 
    1388:	01 00 00 00 	nop 
    138c:	01 00 00 00 	nop 
    1390:	01 00 00 00 	nop 
    1394:	01 00 00 00 	nop 
    1398:	01 00 00 00 	nop 
    139c:	01 00 00 00 	nop 
    13a0:	01 00 00 00 	nop 
    13a4:	01 00 00 00 	nop 
    13a8:	01 00 00 00 	nop 
    13ac:	01 00 00 00 	nop 
    13b0:	01 00 00 00 	nop 
    13b4:	01 00 00 00 	nop 
    13b8:	01 00 00 00 	nop 
    13bc:	01 00 00 00 	nop 
    13c0:	01 00 00 00 	nop 
    13c4:	01 00 00 00 	nop 
    13c8:	01 00 00 00 	nop 
    13cc:	01 00 00 00 	nop 
    13d0:	01 00 00 00 	nop 
    13d4:	01 00 00 00 	nop 
    13d8:	01 00 00 00 	nop 
    13dc:	01 00 00 00 	nop 
    13e0:	01 00 00 00 	nop 
    13e4:	01 00 00 00 	nop 
    13e8:	01 00 00 00 	nop 
    13ec:	01 00 00 00 	nop 
    13f0:	01 00 00 00 	nop 
    13f4:	01 00 00 00 	nop 
    13f8:	01 00 00 00 	nop 
    13fc:	01 00 00 00 	nop 
    1400:	01 00 00 00 	nop 
    1404:	01 00 00 00 	nop 
    1408:	01 00 00 00 	nop 
    140c:	01 00 00 00 	nop 
    1410:	01 00 00 00 	nop 
    1414:	01 00 00 00 	nop 
    1418:	01 00 00 00 	nop 
    141c:	01 00 00 00 	nop 
    1420:	01 00 00 00 	nop 
    1424:	01 00 00 00 	nop 
    1428:	01 00 00 00 	nop 
    142c:	01 00 00 00 	nop 
    1430:	01 00 00 00 	nop 
    1434:	01 00 00 00 	nop 
    1438:	01 00 00 00 	nop 
    143c:	01 00 00 00 	nop 
    1440:	01 00 00 00 	nop 
    1444:	01 00 00 00 	nop 
    1448:	01 00 00 00 	nop 
    144c:	01 00 00 00 	nop 
    1450:	01 00 00 00 	nop 
    1454:	01 00 00 00 	nop 
    1458:	01 00 00 00 	nop 
    145c:	01 00 00 00 	nop 
    1460:	01 00 00 00 	nop 
    1464:	01 00 00 00 	nop 
    1468:	01 00 00 00 	nop 
    146c:	01 00 00 00 	nop 
    1470:	01 00 00 00 	nop 
    1474:	01 00 00 00 	nop 
    1478:	01 00 00 00 	nop 
    147c:	01 00 00 00 	nop 
    1480:	01 00 00 00 	nop 
    1484:	01 00 00 00 	nop 
    1488:	01 00 00 00 	nop 
    148c:	01 00 00 00 	nop 
    1490:	01 00 00 00 	nop 
    1494:	01 00 00 00 	nop 
    1498:	01 00 00 00 	nop 
    149c:	01 00 00 00 	nop 
    14a0:	01 00 00 00 	nop 
    14a4:	01 00 00 00 	nop 
    14a8:	01 00 00 00 	nop 
    14ac:	01 00 00 00 	nop 
    14b0:	01 00 00 00 	nop 
    14b4:	01 00 00 00 	nop 
    14b8:	01 00 00 00 	nop 
    14bc:	01 00 00 00 	nop 
    14c0:	01 00 00 00 	nop 
    14c4:	01 00 00 00 	nop 
    14c8:	01 00 00 00 	nop 
    14cc:	01 00 00 00 	nop 
    14d0:	01 00 00 00 	nop 
    14d4:	01 00 00 00 	nop 
    14d8:	01 00 00 00 	nop 
    14dc:	01 00 00 00 	nop 
    14e0:	01 00 00 00 	nop 
    14e4:	01 00 00 00 	nop 
    14e8:	01 00 00 00 	nop 
    14ec:	01 00 00 00 	nop 
    14f0:	01 00 00 00 	nop 
    14f4:	01 00 00 00 	nop 
    14f8:	01 00 00 00 	nop 
    14fc:	01 00 00 00 	nop 
    1500:	01 00 00 00 	nop 
    1504:	01 00 00 00 	nop 
    1508:	01 00 00 00 	nop 
    150c:	01 00 00 00 	nop 
    1510:	01 00 00 00 	nop 
    1514:	01 00 00 00 	nop 
    1518:	01 00 00 00 	nop 
    151c:	01 00 00 00 	nop 
    1520:	01 00 00 00 	nop 
    1524:	01 00 00 00 	nop 
    1528:	01 00 00 00 	nop 
    152c:	01 00 00 00 	nop 
    1530:	01 00 00 00 	nop 
    1534:	01 00 00 00 	nop 
    1538:	01 00 00 00 	nop 
    153c:	01 00 00 00 	nop 
    1540:	01 00 00 00 	nop 
    1544:	01 00 00 00 	nop 
    1548:	01 00 00 00 	nop 
    154c:	01 00 00 00 	nop 
    1550:	01 00 00 00 	nop 
    1554:	01 00 00 00 	nop 
    1558:	01 00 00 00 	nop 
    155c:	01 00 00 00 	nop 
    1560:	01 00 00 00 	nop 
    1564:	01 00 00 00 	nop 
    1568:	01 00 00 00 	nop 
    156c:	01 00 00 00 	nop 
    1570:	01 00 00 00 	nop 
    1574:	01 00 00 00 	nop 
    1578:	01 00 00 00 	nop 
    157c:	01 00 00 00 	nop 
    1580:	01 00 00 00 	nop 
    1584:	01 00 00 00 	nop 
    1588:	01 00 00 00 	nop 
    158c:	01 00 00 00 	nop 
    1590:	01 00 00 00 	nop 
    1594:	01 00 00 00 	nop 
    1598:	01 00 00 00 	nop 
    159c:	01 00 00 00 	nop 
    15a0:	01 00 00 00 	nop 
    15a4:	01 00 00 00 	nop 
    15a8:	01 00 00 00 	nop 
    15ac:	01 00 00 00 	nop 
    15b0:	01 00 00 00 	nop 
    15b4:	01 00 00 00 	nop 
    15b8:	01 00 00 00 	nop 
    15bc:	01 00 00 00 	nop 
    15c0:	01 00 00 00 	nop 
    15c4:	01 00 00 00 	nop 
    15c8:	01 00 00 00 	nop 
    15cc:	01 00 00 00 	nop 
    15d0:	01 00 00 00 	nop 
    15d4:	01 00 00 00 	nop 
    15d8:	01 00 00 00 	nop 
    15dc:	01 00 00 00 	nop 
    15e0:	01 00 00 00 	nop 
    15e4:	01 00 00 00 	nop 
    15e8:	01 00 00 00 	nop 
    15ec:	01 00 00 00 	nop 
    15f0:	01 00 00 00 	nop 
    15f4:	01 00 00 00 	nop 
    15f8:	01 00 00 00 	nop 
    15fc:	01 00 00 00 	nop 
    1600:	01 00 00 00 	nop 
    1604:	01 00 00 00 	nop 
    1608:	01 00 00 00 	nop 
    160c:	01 00 00 00 	nop 
    1610:	01 00 00 00 	nop 
    1614:	01 00 00 00 	nop 
    1618:	01 00 00 00 	nop 
    161c:	01 00 00 00 	nop 
    1620:	01 00 00 00 	nop 
    1624:	01 00 00 00 	nop 
    1628:	01 00 00 00 	nop 
    162c:	01 00 00 00 	nop 
    1630:	01 00 00 00 	nop 
    1634:	01 00 00 00 	nop 
    1638:	01 00 00 00 	nop 
    163c:	01 00 00 00 	nop 
    1640:	01 00 00 00 	nop 
    1644:	01 00 00 00 	nop 
    1648:	01 00 00 00 	nop 
    164c:	01 00 00 00 	nop 
    1650:	01 00 00 00 	nop 
    1654:	01 00 00 00 	nop 
    1658:	01 00 00 00 	nop 
    165c:	01 00 00 00 	nop 
    1660:	01 00 00 00 	nop 
    1664:	01 00 00 00 	nop 
    1668:	01 00 00 00 	nop 
    166c:	01 00 00 00 	nop 
    1670:	01 00 00 00 	nop 
    1674:	01 00 00 00 	nop 
    1678:	01 00 00 00 	nop 
    167c:	01 00 00 00 	nop 
    1680:	01 00 00 00 	nop 
    1684:	01 00 00 00 	nop 
    1688:	01 00 00 00 	nop 
    168c:	01 00 00 00 	nop 
    1690:	01 00 00 00 	nop 
    1694:	01 00 00 00 	nop 
    1698:	01 00 00 00 	nop 
    169c:	01 00 00 00 	nop 
    16a0:	01 00 00 00 	nop 
    16a4:	01 00 00 00 	nop 
    16a8:	01 00 00 00 	nop 
    16ac:	01 00 00 00 	nop 
    16b0:	01 00 00 00 	nop 
    16b4:	01 00 00 00 	nop 
    16b8:	01 00 00 00 	nop 
    16bc:	01 00 00 00 	nop 
    16c0:	01 00 00 00 	nop 
    16c4:	01 00 00 00 	nop 
    16c8:	01 00 00 00 	nop 
    16cc:	01 00 00 00 	nop 
    16d0:	01 00 00 00 	nop 
    16d4:	01 00 00 00 	nop 
    16d8:	01 00 00 00 	nop 
    16dc:	01 00 00 00 	nop 
    16e0:	01 00 00 00 	nop 
    16e4:	01 00 00 00 	nop 
    16e8:	01 00 00 00 	nop 
    16ec:	01 00 00 00 	nop 
    16f0:	01 00 00 00 	nop 
    16f4:	01 00 00 00 	nop 
    16f8:	01 00 00 00 	nop 
    16fc:	01 00 00 00 	nop 
    1700:	01 00 00 00 	nop 
    1704:	01 00 00 00 	nop 
    1708:	01 00 00 00 	nop 
    170c:	01 00 00 00 	nop 
    1710:	01 00 00 00 	nop 
    1714:	01 00 00 00 	nop 
    1718:	01 00 00 00 	nop 
    171c:	01 00 00 00 	nop 
    1720:	01 00 00 00 	nop 
    1724:	01 00 00 00 	nop 
    1728:	01 00 00 00 	nop 
    172c:	01 00 00 00 	nop 
    1730:	01 00 00 00 	nop 
    1734:	01 00 00 00 	nop 
    1738:	01 00 00 00 	nop 
    173c:	01 00 00 00 	nop 
    1740:	01 00 00 00 	nop 
    1744:	01 00 00 00 	nop 
    1748:	01 00 00 00 	nop 
    174c:	01 00 00 00 	nop 
    1750:	01 00 00 00 	nop 
    1754:	01 00 00 00 	nop 
    1758:	01 00 00 00 	nop 
    175c:	01 00 00 00 	nop 
    1760:	01 00 00 00 	nop 
    1764:	01 00 00 00 	nop 
    1768:	01 00 00 00 	nop 
    176c:	01 00 00 00 	nop 
    1770:	01 00 00 00 	nop 
    1774:	01 00 00 00 	nop 
    1778:	01 00 00 00 	nop 
    177c:	01 00 00 00 	nop 
    1780:	01 00 00 00 	nop 
    1784:	01 00 00 00 	nop 
    1788:	01 00 00 00 	nop 
    178c:	01 00 00 00 	nop 
    1790:	01 00 00 00 	nop 
    1794:	01 00 00 00 	nop 
    1798:	01 00 00 00 	nop 
    179c:	01 00 00 00 	nop 
    17a0:	01 00 00 00 	nop 
    17a4:	01 00 00 00 	nop 
    17a8:	01 00 00 00 	nop 
    17ac:	01 00 00 00 	nop 
    17b0:	01 00 00 00 	nop 
    17b4:	01 00 00 00 	nop 
    17b8:	01 00 00 00 	nop 
    17bc:	01 00 00 00 	nop 
    17c0:	01 00 00 00 	nop 
    17c4:	01 00 00 00 	nop 
    17c8:	01 00 00 00 	nop 
    17cc:	01 00 00 00 	nop 
    17d0:	01 00 00 00 	nop 
    17d4:	01 00 00 00 	nop 
    17d8:	01 00 00 00 	nop 
    17dc:	01 00 00 00 	nop 
    17e0:	01 00 00 00 	nop 
    17e4:	01 00 00 00 	nop 
    17e8:	01 00 00 00 	nop 
    17ec:	01 00 00 00 	nop 
    17f0:	01 00 00 00 	nop 
    17f4:	01 00 00 00 	nop 
    17f8:	01 00 00 00 	nop 
    17fc:	01 00 00 00 	nop 
    1800:	01 00 00 00 	nop 
    1804:	01 00 00 00 	nop 
    1808:	01 00 00 00 	nop 
    180c:	01 00 00 00 	nop 
    1810:	01 00 00 00 	nop 
    1814:	01 00 00 00 	nop 
    1818:	01 00 00 00 	nop 
    181c:	01 00 00 00 	nop 
    1820:	01 00 00 00 	nop 
    1824:	01 00 00 00 	nop 
    1828:	01 00 00 00 	nop 
    182c:	01 00 00 00 	nop 
    1830:	01 00 00 00 	nop 
    1834:	01 00 00 00 	nop 
    1838:	01 00 00 00 	nop 
    183c:	01 00 00 00 	nop 
    1840:	01 00 00 00 	nop 
    1844:	01 00 00 00 	nop 
    1848:	01 00 00 00 	nop 
    184c:	01 00 00 00 	nop 
    1850:	01 00 00 00 	nop 
    1854:	01 00 00 00 	nop 
    1858:	01 00 00 00 	nop 
    185c:	01 00 00 00 	nop 
    1860:	01 00 00 00 	nop 
    1864:	01 00 00 00 	nop 
    1868:	01 00 00 00 	nop 
    186c:	01 00 00 00 	nop 
    1870:	01 00 00 00 	nop 
    1874:	01 00 00 00 	nop 
    1878:	01 00 00 00 	nop 
    187c:	01 00 00 00 	nop 
    1880:	01 00 00 00 	nop 
    1884:	01 00 00 00 	nop 
    1888:	01 00 00 00 	nop 
    188c:	01 00 00 00 	nop 
    1890:	01 00 00 00 	nop 
    1894:	01 00 00 00 	nop 
    1898:	01 00 00 00 	nop 
    189c:	01 00 00 00 	nop 
    18a0:	01 00 00 00 	nop 
    18a4:	01 00 00 00 	nop 
    18a8:	01 00 00 00 	nop 
    18ac:	01 00 00 00 	nop 
    18b0:	01 00 00 00 	nop 
    18b4:	01 00 00 00 	nop 
    18b8:	01 00 00 00 	nop 
    18bc:	01 00 00 00 	nop 
    18c0:	01 00 00 00 	nop 
    18c4:	01 00 00 00 	nop 
    18c8:	01 00 00 00 	nop 
    18cc:	01 00 00 00 	nop 
    18d0:	01 00 00 00 	nop 
    18d4:	01 00 00 00 	nop 
    18d8:	01 00 00 00 	nop 
    18dc:	01 00 00 00 	nop 
    18e0:	01 00 00 00 	nop 
    18e4:	01 00 00 00 	nop 
    18e8:	01 00 00 00 	nop 
    18ec:	01 00 00 00 	nop 
    18f0:	01 00 00 00 	nop 
    18f4:	01 00 00 00 	nop 
    18f8:	01 00 00 00 	nop 
    18fc:	01 00 00 00 	nop 
    1900:	01 00 00 00 	nop 
    1904:	01 00 00 00 	nop 
    1908:	01 00 00 00 	nop 
    190c:	01 00 00 00 	nop 
    1910:	01 00 00 00 	nop 
    1914:	01 00 00 00 	nop 
    1918:	01 00 00 00 	nop 
    191c:	01 00 00 00 	nop 
    1920:	01 00 00 00 	nop 
    1924:	01 00 00 00 	nop 
    1928:	01 00 00 00 	nop 
    192c:	01 00 00 00 	nop 
    1930:	01 00 00 00 	nop 
    1934:	01 00 00 00 	nop 
    1938:	01 00 00 00 	nop 
    193c:	01 00 00 00 	nop 
    1940:	01 00 00 00 	nop 
    1944:	01 00 00 00 	nop 
    1948:	01 00 00 00 	nop 
    194c:	01 00 00 00 	nop 
    1950:	01 00 00 00 	nop 
    1954:	01 00 00 00 	nop 
    1958:	01 00 00 00 	nop 
    195c:	01 00 00 00 	nop 
    1960:	01 00 00 00 	nop 
    1964:	01 00 00 00 	nop 
    1968:	01 00 00 00 	nop 
    196c:	01 00 00 00 	nop 
    1970:	01 00 00 00 	nop 
    1974:	01 00 00 00 	nop 
    1978:	01 00 00 00 	nop 
    197c:	01 00 00 00 	nop 
    1980:	01 00 00 00 	nop 
    1984:	01 00 00 00 	nop 
    1988:	01 00 00 00 	nop 
    198c:	01 00 00 00 	nop 
    1990:	01 00 00 00 	nop 
    1994:	01 00 00 00 	nop 
    1998:	01 00 00 00 	nop 
    199c:	01 00 00 00 	nop 
    19a0:	01 00 00 00 	nop 
    19a4:	01 00 00 00 	nop 
    19a8:	01 00 00 00 	nop 
    19ac:	01 00 00 00 	nop 
    19b0:	01 00 00 00 	nop 
    19b4:	01 00 00 00 	nop 
    19b8:	01 00 00 00 	nop 
    19bc:	01 00 00 00 	nop 
    19c0:	01 00 00 00 	nop 
    19c4:	01 00 00 00 	nop 
    19c8:	01 00 00 00 	nop 
    19cc:	01 00 00 00 	nop 
    19d0:	01 00 00 00 	nop 
    19d4:	01 00 00 00 	nop 
    19d8:	01 00 00 00 	nop 
    19dc:	01 00 00 00 	nop 
    19e0:	01 00 00 00 	nop 
    19e4:	01 00 00 00 	nop 
    19e8:	01 00 00 00 	nop 
    19ec:	01 00 00 00 	nop 
    19f0:	01 00 00 00 	nop 
    19f4:	01 00 00 00 	nop 
    19f8:	01 00 00 00 	nop 
    19fc:	01 00 00 00 	nop 
    1a00:	01 00 00 00 	nop 
    1a04:	01 00 00 00 	nop 
    1a08:	01 00 00 00 	nop 
    1a0c:	01 00 00 00 	nop 
    1a10:	01 00 00 00 	nop 
    1a14:	01 00 00 00 	nop 
    1a18:	01 00 00 00 	nop 
    1a1c:	01 00 00 00 	nop 
    1a20:	01 00 00 00 	nop 
    1a24:	01 00 00 00 	nop 
    1a28:	01 00 00 00 	nop 
    1a2c:	01 00 00 00 	nop 
    1a30:	01 00 00 00 	nop 
    1a34:	01 00 00 00 	nop 
    1a38:	01 00 00 00 	nop 
    1a3c:	01 00 00 00 	nop 
    1a40:	01 00 00 00 	nop 
    1a44:	01 00 00 00 	nop 
    1a48:	01 00 00 00 	nop 
    1a4c:	01 00 00 00 	nop 
    1a50:	01 00 00 00 	nop 
    1a54:	01 00 00 00 	nop 
    1a58:	01 00 00 00 	nop 
    1a5c:	01 00 00 00 	nop 
    1a60:	01 00 00 00 	nop 
    1a64:	01 00 00 00 	nop 
    1a68:	01 00 00 00 	nop 
    1a6c:	01 00 00 00 	nop 
    1a70:	01 00 00 00 	nop 
    1a74:	01 00 00 00 	nop 
    1a78:	01 00 00 00 	nop 
    1a7c:	01 00 00 00 	nop 
    1a80:	01 00 00 00 	nop 
    1a84:	01 00 00 00 	nop 
    1a88:	01 00 00 00 	nop 
    1a8c:	01 00 00 00 	nop 
    1a90:	01 00 00 00 	nop 
    1a94:	01 00 00 00 	nop 
    1a98:	01 00 00 00 	nop 
    1a9c:	01 00 00 00 	nop 
    1aa0:	01 00 00 00 	nop 
    1aa4:	01 00 00 00 	nop 
    1aa8:	01 00 00 00 	nop 
    1aac:	01 00 00 00 	nop 
    1ab0:	01 00 00 00 	nop 
    1ab4:	01 00 00 00 	nop 
    1ab8:	01 00 00 00 	nop 
    1abc:	01 00 00 00 	nop 
    1ac0:	01 00 00 00 	nop 
    1ac4:	01 00 00 00 	nop 
    1ac8:	01 00 00 00 	nop 
    1acc:	01 00 00 00 	nop 
    1ad0:	01 00 00 00 	nop 
    1ad4:	01 00 00 00 	nop 
    1ad8:	01 00 00 00 	nop 
    1adc:	01 00 00 00 	nop 
    1ae0:	01 00 00 00 	nop 
    1ae4:	01 00 00 00 	nop 
    1ae8:	01 00 00 00 	nop 
    1aec:	01 00 00 00 	nop 
    1af0:	01 00 00 00 	nop 
    1af4:	01 00 00 00 	nop 
    1af8:	01 00 00 00 	nop 
    1afc:	01 00 00 00 	nop 
    1b00:	01 00 00 00 	nop 
    1b04:	01 00 00 00 	nop 
    1b08:	01 00 00 00 	nop 
    1b0c:	01 00 00 00 	nop 
    1b10:	01 00 00 00 	nop 
    1b14:	01 00 00 00 	nop 
    1b18:	01 00 00 00 	nop 
    1b1c:	01 00 00 00 	nop 
    1b20:	01 00 00 00 	nop 
    1b24:	01 00 00 00 	nop 
    1b28:	01 00 00 00 	nop 
    1b2c:	01 00 00 00 	nop 
    1b30:	01 00 00 00 	nop 
    1b34:	01 00 00 00 	nop 
    1b38:	01 00 00 00 	nop 
    1b3c:	01 00 00 00 	nop 
    1b40:	01 00 00 00 	nop 
    1b44:	01 00 00 00 	nop 
    1b48:	01 00 00 00 	nop 
    1b4c:	01 00 00 00 	nop 
    1b50:	01 00 00 00 	nop 
    1b54:	01 00 00 00 	nop 
    1b58:	01 00 00 00 	nop 
    1b5c:	01 00 00 00 	nop 
    1b60:	01 00 00 00 	nop 
    1b64:	01 00 00 00 	nop 
    1b68:	01 00 00 00 	nop 
    1b6c:	01 00 00 00 	nop 
    1b70:	01 00 00 00 	nop 
    1b74:	01 00 00 00 	nop 
    1b78:	01 00 00 00 	nop 
    1b7c:	01 00 00 00 	nop 
    1b80:	01 00 00 00 	nop 
    1b84:	01 00 00 00 	nop 
    1b88:	01 00 00 00 	nop 
    1b8c:	01 00 00 00 	nop 
    1b90:	01 00 00 00 	nop 
    1b94:	01 00 00 00 	nop 
    1b98:	01 00 00 00 	nop 
    1b9c:	01 00 00 00 	nop 
    1ba0:	01 00 00 00 	nop 
    1ba4:	01 00 00 00 	nop 
    1ba8:	01 00 00 00 	nop 
    1bac:	01 00 00 00 	nop 
    1bb0:	01 00 00 00 	nop 
    1bb4:	01 00 00 00 	nop 
    1bb8:	01 00 00 00 	nop 
    1bbc:	01 00 00 00 	nop 
    1bc0:	01 00 00 00 	nop 
    1bc4:	01 00 00 00 	nop 
    1bc8:	01 00 00 00 	nop 
    1bcc:	01 00 00 00 	nop 
    1bd0:	01 00 00 00 	nop 
    1bd4:	01 00 00 00 	nop 
    1bd8:	01 00 00 00 	nop 
    1bdc:	01 00 00 00 	nop 
    1be0:	01 00 00 00 	nop 
    1be4:	01 00 00 00 	nop 
    1be8:	01 00 00 00 	nop 
    1bec:	01 00 00 00 	nop 
    1bf0:	01 00 00 00 	nop 
    1bf4:	01 00 00 00 	nop 
    1bf8:	01 00 00 00 	nop 
    1bfc:	01 00 00 00 	nop 
    1c00:	01 00 00 00 	nop 
    1c04:	01 00 00 00 	nop 
    1c08:	01 00 00 00 	nop 
    1c0c:	01 00 00 00 	nop 
    1c10:	01 00 00 00 	nop 
    1c14:	01 00 00 00 	nop 
    1c18:	01 00 00 00 	nop 
    1c1c:	01 00 00 00 	nop 
    1c20:	01 00 00 00 	nop 
    1c24:	01 00 00 00 	nop 
    1c28:	01 00 00 00 	nop 
    1c2c:	01 00 00 00 	nop 
    1c30:	01 00 00 00 	nop 
    1c34:	01 00 00 00 	nop 
    1c38:	01 00 00 00 	nop 
    1c3c:	01 00 00 00 	nop 
    1c40:	01 00 00 00 	nop 
    1c44:	01 00 00 00 	nop 
    1c48:	01 00 00 00 	nop 
    1c4c:	01 00 00 00 	nop 
    1c50:	01 00 00 00 	nop 
    1c54:	01 00 00 00 	nop 
    1c58:	01 00 00 00 	nop 
    1c5c:	01 00 00 00 	nop 
    1c60:	01 00 00 00 	nop 
    1c64:	01 00 00 00 	nop 
    1c68:	01 00 00 00 	nop 
    1c6c:	01 00 00 00 	nop 
    1c70:	01 00 00 00 	nop 
    1c74:	01 00 00 00 	nop 
    1c78:	01 00 00 00 	nop 
    1c7c:	01 00 00 00 	nop 
    1c80:	01 00 00 00 	nop 
    1c84:	01 00 00 00 	nop 
    1c88:	01 00 00 00 	nop 
    1c8c:	01 00 00 00 	nop 
    1c90:	01 00 00 00 	nop 
    1c94:	01 00 00 00 	nop 
    1c98:	01 00 00 00 	nop 
    1c9c:	01 00 00 00 	nop 
    1ca0:	01 00 00 00 	nop 
    1ca4:	01 00 00 00 	nop 
    1ca8:	01 00 00 00 	nop 
    1cac:	01 00 00 00 	nop 
    1cb0:	01 00 00 00 	nop 
    1cb4:	01 00 00 00 	nop 
    1cb8:	01 00 00 00 	nop 
    1cbc:	01 00 00 00 	nop 
    1cc0:	01 00 00 00 	nop 
    1cc4:	01 00 00 00 	nop 
    1cc8:	01 00 00 00 	nop 
    1ccc:	01 00 00 00 	nop 
    1cd0:	01 00 00 00 	nop 
    1cd4:	01 00 00 00 	nop 
    1cd8:	01 00 00 00 	nop 
    1cdc:	01 00 00 00 	nop 
    1ce0:	01 00 00 00 	nop 
    1ce4:	01 00 00 00 	nop 
    1ce8:	01 00 00 00 	nop 
    1cec:	01 00 00 00 	nop 
    1cf0:	01 00 00 00 	nop 
    1cf4:	01 00 00 00 	nop 
    1cf8:	01 00 00 00 	nop 
    1cfc:	01 00 00 00 	nop 
    1d00:	01 00 00 00 	nop 
    1d04:	01 00 00 00 	nop 
    1d08:	01 00 00 00 	nop 
    1d0c:	01 00 00 00 	nop 
    1d10:	01 00 00 00 	nop 
    1d14:	01 00 00 00 	nop 
    1d18:	01 00 00 00 	nop 
    1d1c:	01 00 00 00 	nop 
    1d20:	01 00 00 00 	nop 
    1d24:	01 00 00 00 	nop 
    1d28:	01 00 00 00 	nop 
    1d2c:	01 00 00 00 	nop 
    1d30:	01 00 00 00 	nop 
    1d34:	01 00 00 00 	nop 
    1d38:	01 00 00 00 	nop 
    1d3c:	01 00 00 00 	nop 
    1d40:	01 00 00 00 	nop 
    1d44:	01 00 00 00 	nop 
    1d48:	01 00 00 00 	nop 
    1d4c:	01 00 00 00 	nop 
    1d50:	01 00 00 00 	nop 
    1d54:	01 00 00 00 	nop 
    1d58:	01 00 00 00 	nop 
    1d5c:	01 00 00 00 	nop 
    1d60:	01 00 00 00 	nop 
    1d64:	01 00 00 00 	nop 
    1d68:	01 00 00 00 	nop 
    1d6c:	01 00 00 00 	nop 
    1d70:	01 00 00 00 	nop 
    1d74:	01 00 00 00 	nop 
    1d78:	01 00 00 00 	nop 
    1d7c:	01 00 00 00 	nop 
    1d80:	01 00 00 00 	nop 
    1d84:	01 00 00 00 	nop 
    1d88:	01 00 00 00 	nop 
    1d8c:	01 00 00 00 	nop 
    1d90:	01 00 00 00 	nop 
    1d94:	01 00 00 00 	nop 
    1d98:	01 00 00 00 	nop 
    1d9c:	01 00 00 00 	nop 
    1da0:	01 00 00 00 	nop 
    1da4:	01 00 00 00 	nop 
    1da8:	01 00 00 00 	nop 
    1dac:	01 00 00 00 	nop 
    1db0:	01 00 00 00 	nop 
    1db4:	01 00 00 00 	nop 
    1db8:	01 00 00 00 	nop 
    1dbc:	01 00 00 00 	nop 
    1dc0:	01 00 00 00 	nop 
    1dc4:	01 00 00 00 	nop 
    1dc8:	01 00 00 00 	nop 
    1dcc:	01 00 00 00 	nop 
    1dd0:	01 00 00 00 	nop 
    1dd4:	01 00 00 00 	nop 
    1dd8:	01 00 00 00 	nop 
    1ddc:	01 00 00 00 	nop 
    1de0:	01 00 00 00 	nop 
    1de4:	01 00 00 00 	nop 
    1de8:	01 00 00 00 	nop 
    1dec:	01 00 00 00 	nop 
    1df0:	01 00 00 00 	nop 
    1df4:	01 00 00 00 	nop 
    1df8:	01 00 00 00 	nop 
    1dfc:	01 00 00 00 	nop 
    1e00:	01 00 00 00 	nop 
    1e04:	01 00 00 00 	nop 
    1e08:	01 00 00 00 	nop 
    1e0c:	01 00 00 00 	nop 
    1e10:	01 00 00 00 	nop 
    1e14:	01 00 00 00 	nop 
    1e18:	01 00 00 00 	nop 
    1e1c:	01 00 00 00 	nop 
    1e20:	01 00 00 00 	nop 
    1e24:	01 00 00 00 	nop 
    1e28:	01 00 00 00 	nop 
    1e2c:	01 00 00 00 	nop 
    1e30:	01 00 00 00 	nop 
    1e34:	01 00 00 00 	nop 
    1e38:	01 00 00 00 	nop 
    1e3c:	01 00 00 00 	nop 
    1e40:	01 00 00 00 	nop 
    1e44:	01 00 00 00 	nop 
    1e48:	01 00 00 00 	nop 
    1e4c:	01 00 00 00 	nop 
    1e50:	01 00 00 00 	nop 
    1e54:	01 00 00 00 	nop 
    1e58:	01 00 00 00 	nop 
    1e5c:	01 00 00 00 	nop 
    1e60:	01 00 00 00 	nop 
    1e64:	01 00 00 00 	nop 
    1e68:	01 00 00 00 	nop 
    1e6c:	01 00 00 00 	nop 
    1e70:	01 00 00 00 	nop 
    1e74:	01 00 00 00 	nop 
    1e78:	01 00 00 00 	nop 
    1e7c:	01 00 00 00 	nop 
    1e80:	01 00 00 00 	nop 
    1e84:	01 00 00 00 	nop 
    1e88:	01 00 00 00 	nop 
    1e8c:	01 00 00 00 	nop 
    1e90:	01 00 00 00 	nop 
    1e94:	01 00 00 00 	nop 
    1e98:	01 00 00 00 	nop 
    1e9c:	01 00 00 00 	nop 
    1ea0:	01 00 00 00 	nop 
    1ea4:	01 00 00 00 	nop 
    1ea8:	01 00 00 00 	nop 
    1eac:	01 00 00 00 	nop 
    1eb0:	01 00 00 00 	nop 
    1eb4:	01 00 00 00 	nop 
    1eb8:	01 00 00 00 	nop 
    1ebc:	01 00 00 00 	nop 
    1ec0:	01 00 00 00 	nop 
    1ec4:	01 00 00 00 	nop 
    1ec8:	01 00 00 00 	nop 
    1ecc:	01 00 00 00 	nop 
    1ed0:	01 00 00 00 	nop 
    1ed4:	01 00 00 00 	nop 
    1ed8:	01 00 00 00 	nop 
    1edc:	01 00 00 00 	nop 
    1ee0:	01 00 00 00 	nop 
    1ee4:	01 00 00 00 	nop 
    1ee8:	01 00 00 00 	nop 
    1eec:	01 00 00 00 	nop 
    1ef0:	01 00 00 00 	nop 
    1ef4:	01 00 00 00 	nop 
    1ef8:	01 00 00 00 	nop 
    1efc:	01 00 00 00 	nop 
    1f00:	01 00 00 00 	nop 
    1f04:	01 00 00 00 	nop 
    1f08:	01 00 00 00 	nop 
    1f0c:	01 00 00 00 	nop 
    1f10:	01 00 00 00 	nop 
    1f14:	01 00 00 00 	nop 
    1f18:	01 00 00 00 	nop 
    1f1c:	01 00 00 00 	nop 
    1f20:	01 00 00 00 	nop 
    1f24:	01 00 00 00 	nop 
    1f28:	01 00 00 00 	nop 
    1f2c:	01 00 00 00 	nop 
    1f30:	01 00 00 00 	nop 
    1f34:	01 00 00 00 	nop 
    1f38:	01 00 00 00 	nop 
    1f3c:	01 00 00 00 	nop 
    1f40:	01 00 00 00 	nop 
    1f44:	01 00 00 00 	nop 
    1f48:	01 00 00 00 	nop 
    1f4c:	01 00 00 00 	nop 
    1f50:	01 00 00 00 	nop 
    1f54:	01 00 00 00 	nop 
    1f58:	01 00 00 00 	nop 
    1f5c:	01 00 00 00 	nop 
    1f60:	01 00 00 00 	nop 
    1f64:	01 00 00 00 	nop 
    1f68:	01 00 00 00 	nop 
    1f6c:	01 00 00 00 	nop 
    1f70:	01 00 00 00 	nop 
    1f74:	01 00 00 00 	nop 
    1f78:	01 00 00 00 	nop 
    1f7c:	01 00 00 00 	nop 
    1f80:	01 00 00 00 	nop 
    1f84:	01 00 00 00 	nop 
    1f88:	01 00 00 00 	nop 
    1f8c:	01 00 00 00 	nop 
    1f90:	01 00 00 00 	nop 
    1f94:	01 00 00 00 	nop 
    1f98:	01 00 00 00 	nop 
    1f9c:	01 00 00 00 	nop 
    1fa0:	01 00 00 00 	nop 
    1fa4:	01 00 00 00 	nop 
    1fa8:	01 00 00 00 	nop 
    1fac:	01 00 00 00 	nop 
    1fb0:	01 00 00 00 	nop 
    1fb4:	01 00 00 00 	nop 
    1fb8:	01 00 00 00 	nop 
    1fbc:	01 00 00 00 	nop 
    1fc0:	01 00 00 00 	nop 
    1fc4:	01 00 00 00 	nop 
    1fc8:	01 00 00 00 	nop 
    1fcc:	01 00 00 00 	nop 
    1fd0:	01 00 00 00 	nop 
    1fd4:	01 00 00 00 	nop 
    1fd8:	01 00 00 00 	nop 
    1fdc:	01 00 00 00 	nop 
    1fe0:	01 00 00 00 	nop 
    1fe4:	01 00 00 00 	nop 
    1fe8:	01 00 00 00 	nop 
    1fec:	01 00 00 00 	nop 
    1ff0:	01 00 00 00 	nop 
    1ff4:	01 00 00 00 	nop 
    1ff8:	01 00 00 00 	nop 
    1ffc:	01 00 00 00 	nop 

00002000 <trap_table_base>:
    2000:	91 d0 20 00 	ta  0
    2004:	01 00 00 00 	nop 
    2008:	01 00 00 00 	nop 
    200c:	01 00 00 00 	nop 

00002010 <HW_trap_0x01>:
    2010:	91 d0 20 00 	ta  0
    2014:	01 00 00 00 	nop 
    2018:	01 00 00 00 	nop 
    201c:	01 00 00 00 	nop 

00002020 <HW_trap_0x02>:
    2020:	91 d0 20 00 	ta  0
    2024:	01 00 00 00 	nop 
    2028:	01 00 00 00 	nop 
    202c:	01 00 00 00 	nop 

00002030 <HW_trap_0x03>:
    2030:	91 d0 20 00 	ta  0
    2034:	01 00 00 00 	nop 
    2038:	01 00 00 00 	nop 
    203c:	01 00 00 00 	nop 

00002040 <HW_trap_0x04>:
    2040:	91 d0 20 00 	ta  0
    2044:	01 00 00 00 	nop 
    2048:	01 00 00 00 	nop 
    204c:	01 00 00 00 	nop 

00002050 <HW_trap_0x05>:
    2050:	10 bf fb ec 	b  1000 <window_overflow_trap_handler>
    2054:	01 00 00 00 	nop 
    2058:	01 00 00 00 	nop 
    205c:	01 00 00 00 	nop 

00002060 <HW_trap_0x06>:
    2060:	10 bf fc 01 	b  1064 <window_underflow_trap_handler>
    2064:	01 00 00 00 	nop 
    2068:	01 00 00 00 	nop 
    206c:	01 00 00 00 	nop 

00002070 <HW_trap_0x07>:
    2070:	91 d0 20 00 	ta  0
    2074:	01 00 00 00 	nop 
    2078:	01 00 00 00 	nop 
    207c:	01 00 00 00 	nop 

00002080 <HW_trap_0x08>:
    2080:	91 d0 20 00 	ta  0
    2084:	01 00 00 00 	nop 
    2088:	01 00 00 00 	nop 
    208c:	01 00 00 00 	nop 

00002090 <HW_trap_0x09>:
    2090:	91 d0 20 00 	ta  0
    2094:	01 00 00 00 	nop 
    2098:	01 00 00 00 	nop 
    209c:	01 00 00 00 	nop 

000020a0 <HW_trap_0x0a>:
    20a0:	91 d0 20 00 	ta  0
    20a4:	01 00 00 00 	nop 
    20a8:	01 00 00 00 	nop 
    20ac:	01 00 00 00 	nop 

000020b0 <HW_trap_0x0b>:
    20b0:	91 d0 20 00 	ta  0
    20b4:	01 00 00 00 	nop 
    20b8:	01 00 00 00 	nop 
    20bc:	01 00 00 00 	nop 

000020c0 <HW_trap_0x0c>:
    20c0:	91 d0 20 00 	ta  0
    20c4:	01 00 00 00 	nop 
    20c8:	01 00 00 00 	nop 
    20cc:	01 00 00 00 	nop 

000020d0 <HW_trap_0x0d>:
    20d0:	91 d0 20 00 	ta  0
    20d4:	01 00 00 00 	nop 
    20d8:	01 00 00 00 	nop 
    20dc:	01 00 00 00 	nop 

000020e0 <HW_trap_0x0e>:
    20e0:	91 d0 20 00 	ta  0
    20e4:	01 00 00 00 	nop 
    20e8:	01 00 00 00 	nop 
    20ec:	01 00 00 00 	nop 

000020f0 <HW_trap_0x0f>:
    20f0:	91 d0 20 00 	ta  0
    20f4:	01 00 00 00 	nop 
    20f8:	01 00 00 00 	nop 
    20fc:	01 00 00 00 	nop 

00002100 <HW_trap_0x10>:
    2100:	91 d0 20 00 	ta  0
    2104:	01 00 00 00 	nop 
    2108:	01 00 00 00 	nop 
    210c:	01 00 00 00 	nop 

00002110 <HW_trap_0x11>:
    2110:	91 d0 20 00 	ta  0
    2114:	01 00 00 00 	nop 
    2118:	01 00 00 00 	nop 
    211c:	01 00 00 00 	nop 

00002120 <HW_trap_0x12>:
    2120:	91 d0 20 00 	ta  0
    2124:	01 00 00 00 	nop 
    2128:	01 00 00 00 	nop 
    212c:	01 00 00 00 	nop 

00002130 <HW_trap_0x13>:
    2130:	91 d0 20 00 	ta  0
    2134:	01 00 00 00 	nop 
    2138:	01 00 00 00 	nop 
    213c:	01 00 00 00 	nop 

00002140 <HW_trap_0x14>:
    2140:	91 d0 20 00 	ta  0
    2144:	01 00 00 00 	nop 
    2148:	01 00 00 00 	nop 
    214c:	01 00 00 00 	nop 

00002150 <HW_trap_0x15>:
    2150:	91 d0 20 00 	ta  0
    2154:	01 00 00 00 	nop 
    2158:	01 00 00 00 	nop 
    215c:	01 00 00 00 	nop 

00002160 <HW_trap_0x16>:
    2160:	91 d0 20 00 	ta  0
    2164:	01 00 00 00 	nop 
    2168:	01 00 00 00 	nop 
    216c:	01 00 00 00 	nop 

00002170 <HW_trap_0x17>:
    2170:	91 d0 20 00 	ta  0
    2174:	01 00 00 00 	nop 
    2178:	01 00 00 00 	nop 
    217c:	01 00 00 00 	nop 

00002180 <HW_trap_0x18>:
    2180:	91 d0 20 00 	ta  0
    2184:	01 00 00 00 	nop 
    2188:	01 00 00 00 	nop 
    218c:	01 00 00 00 	nop 

00002190 <HW_trap_0x19>:
    2190:	91 d0 20 00 	ta  0
    2194:	01 00 00 00 	nop 
    2198:	01 00 00 00 	nop 
    219c:	01 00 00 00 	nop 

000021a0 <HW_trap_0x1a>:
    21a0:	91 d0 20 00 	ta  0
    21a4:	01 00 00 00 	nop 
    21a8:	01 00 00 00 	nop 
    21ac:	01 00 00 00 	nop 

000021b0 <HW_trap_0x1b>:
    21b0:	91 d0 20 00 	ta  0
    21b4:	01 00 00 00 	nop 
    21b8:	01 00 00 00 	nop 
    21bc:	01 00 00 00 	nop 

000021c0 <HW_trap_0x1c>:
    21c0:	91 d0 20 00 	ta  0
    21c4:	01 00 00 00 	nop 
    21c8:	01 00 00 00 	nop 
    21cc:	01 00 00 00 	nop 

000021d0 <HW_trap_0x1d>:
    21d0:	91 d0 20 00 	ta  0
    21d4:	01 00 00 00 	nop 
    21d8:	01 00 00 00 	nop 
    21dc:	01 00 00 00 	nop 

000021e0 <HW_trap_0x1e>:
    21e0:	91 d0 20 00 	ta  0
    21e4:	01 00 00 00 	nop 
    21e8:	01 00 00 00 	nop 
    21ec:	01 00 00 00 	nop 

000021f0 <HW_trap_0x1f>:
    21f0:	91 d0 20 00 	ta  0
    21f4:	01 00 00 00 	nop 
    21f8:	01 00 00 00 	nop 
    21fc:	01 00 00 00 	nop 

00002200 <HW_trap_0x20>:
    2200:	91 d0 20 00 	ta  0
    2204:	01 00 00 00 	nop 
    2208:	01 00 00 00 	nop 
    220c:	01 00 00 00 	nop 

00002210 <HW_trap_0x21>:
    2210:	91 d0 20 00 	ta  0
    2214:	01 00 00 00 	nop 
    2218:	01 00 00 00 	nop 
    221c:	01 00 00 00 	nop 

00002220 <HW_trap_0x22>:
    2220:	91 d0 20 00 	ta  0
    2224:	01 00 00 00 	nop 
    2228:	01 00 00 00 	nop 
    222c:	01 00 00 00 	nop 

00002230 <HW_trap_0x23>:
    2230:	91 d0 20 00 	ta  0
    2234:	01 00 00 00 	nop 
    2238:	01 00 00 00 	nop 
    223c:	01 00 00 00 	nop 

00002240 <HW_trap_0x24>:
    2240:	91 d0 20 00 	ta  0
    2244:	01 00 00 00 	nop 
    2248:	01 00 00 00 	nop 
    224c:	01 00 00 00 	nop 

00002250 <HW_trap_0x25>:
    2250:	91 d0 20 00 	ta  0
    2254:	01 00 00 00 	nop 
    2258:	01 00 00 00 	nop 
    225c:	01 00 00 00 	nop 

00002260 <HW_trap_0x26>:
    2260:	91 d0 20 00 	ta  0
    2264:	01 00 00 00 	nop 
    2268:	01 00 00 00 	nop 
    226c:	01 00 00 00 	nop 

00002270 <HW_trap_0x27>:
    2270:	91 d0 20 00 	ta  0
    2274:	01 00 00 00 	nop 
    2278:	01 00 00 00 	nop 
    227c:	01 00 00 00 	nop 

00002280 <HW_trap_0x28>:
    2280:	91 d0 20 00 	ta  0
    2284:	01 00 00 00 	nop 
    2288:	01 00 00 00 	nop 
    228c:	01 00 00 00 	nop 

00002290 <HW_trap_0x29>:
    2290:	91 d0 20 00 	ta  0
    2294:	01 00 00 00 	nop 
    2298:	01 00 00 00 	nop 
    229c:	01 00 00 00 	nop 

000022a0 <HW_trap_0x2a>:
    22a0:	91 d0 20 00 	ta  0
    22a4:	01 00 00 00 	nop 
    22a8:	01 00 00 00 	nop 
    22ac:	01 00 00 00 	nop 

000022b0 <HW_trap_0x2b>:
    22b0:	91 d0 20 00 	ta  0
    22b4:	01 00 00 00 	nop 
    22b8:	01 00 00 00 	nop 
    22bc:	01 00 00 00 	nop 

000022c0 <HW_trap_0x2c>:
    22c0:	91 d0 20 00 	ta  0
    22c4:	01 00 00 00 	nop 
    22c8:	01 00 00 00 	nop 
    22cc:	01 00 00 00 	nop 

000022d0 <HW_trap_0x2d>:
    22d0:	91 d0 20 00 	ta  0
    22d4:	01 00 00 00 	nop 
    22d8:	01 00 00 00 	nop 
    22dc:	01 00 00 00 	nop 

000022e0 <HW_trap_0x2e>:
    22e0:	91 d0 20 00 	ta  0
    22e4:	01 00 00 00 	nop 
    22e8:	01 00 00 00 	nop 
    22ec:	01 00 00 00 	nop 

000022f0 <HW_trap_0x2f>:
    22f0:	91 d0 20 00 	ta  0
    22f4:	01 00 00 00 	nop 
    22f8:	01 00 00 00 	nop 
    22fc:	01 00 00 00 	nop 

00002300 <HW_trap_0x30>:
    2300:	91 d0 20 00 	ta  0
    2304:	01 00 00 00 	nop 
    2308:	01 00 00 00 	nop 
    230c:	01 00 00 00 	nop 

00002310 <HW_trap_0x31>:
    2310:	91 d0 20 00 	ta  0
    2314:	01 00 00 00 	nop 
    2318:	01 00 00 00 	nop 
    231c:	01 00 00 00 	nop 

00002320 <HW_trap_0x32>:
    2320:	91 d0 20 00 	ta  0
    2324:	01 00 00 00 	nop 
    2328:	01 00 00 00 	nop 
    232c:	01 00 00 00 	nop 

00002330 <HW_trap_0x33>:
    2330:	91 d0 20 00 	ta  0
    2334:	01 00 00 00 	nop 
    2338:	01 00 00 00 	nop 
    233c:	01 00 00 00 	nop 

00002340 <HW_trap_0x34>:
    2340:	91 d0 20 00 	ta  0
    2344:	01 00 00 00 	nop 
    2348:	01 00 00 00 	nop 
    234c:	01 00 00 00 	nop 

00002350 <HW_trap_0x35>:
    2350:	91 d0 20 00 	ta  0
    2354:	01 00 00 00 	nop 
    2358:	01 00 00 00 	nop 
    235c:	01 00 00 00 	nop 

00002360 <HW_trap_0x36>:
    2360:	91 d0 20 00 	ta  0
    2364:	01 00 00 00 	nop 
    2368:	01 00 00 00 	nop 
    236c:	01 00 00 00 	nop 

00002370 <HW_trap_0x37>:
    2370:	91 d0 20 00 	ta  0
    2374:	01 00 00 00 	nop 
    2378:	01 00 00 00 	nop 
    237c:	01 00 00 00 	nop 

00002380 <HW_trap_0x38>:
    2380:	91 d0 20 00 	ta  0
    2384:	01 00 00 00 	nop 
    2388:	01 00 00 00 	nop 
    238c:	01 00 00 00 	nop 

00002390 <HW_trap_0x39>:
    2390:	91 d0 20 00 	ta  0
    2394:	01 00 00 00 	nop 
    2398:	01 00 00 00 	nop 
    239c:	01 00 00 00 	nop 

000023a0 <HW_trap_0x3a>:
    23a0:	91 d0 20 00 	ta  0
    23a4:	01 00 00 00 	nop 
    23a8:	01 00 00 00 	nop 
    23ac:	01 00 00 00 	nop 

000023b0 <HW_trap_0x3b>:
    23b0:	91 d0 20 00 	ta  0
    23b4:	01 00 00 00 	nop 
    23b8:	01 00 00 00 	nop 
    23bc:	01 00 00 00 	nop 

000023c0 <HW_trap_0x3c>:
    23c0:	91 d0 20 00 	ta  0
    23c4:	01 00 00 00 	nop 
    23c8:	01 00 00 00 	nop 
    23cc:	01 00 00 00 	nop 

000023d0 <HW_trap_0x3d>:
    23d0:	91 d0 20 00 	ta  0
    23d4:	01 00 00 00 	nop 
    23d8:	01 00 00 00 	nop 
    23dc:	01 00 00 00 	nop 

000023e0 <HW_trap_0x3e>:
    23e0:	91 d0 20 00 	ta  0
    23e4:	01 00 00 00 	nop 
    23e8:	01 00 00 00 	nop 
    23ec:	01 00 00 00 	nop 

000023f0 <HW_trap_0x3f>:
    23f0:	91 d0 20 00 	ta  0
    23f4:	01 00 00 00 	nop 
    23f8:	01 00 00 00 	nop 
    23fc:	01 00 00 00 	nop 

00002400 <HW_trap_0x40>:
    2400:	91 d0 20 00 	ta  0
    2404:	01 00 00 00 	nop 
    2408:	01 00 00 00 	nop 
    240c:	01 00 00 00 	nop 

00002410 <HW_trap_0x41>:
    2410:	91 d0 20 00 	ta  0
    2414:	01 00 00 00 	nop 
    2418:	01 00 00 00 	nop 
    241c:	01 00 00 00 	nop 

00002420 <HW_trap_0x42>:
    2420:	91 d0 20 00 	ta  0
    2424:	01 00 00 00 	nop 
    2428:	01 00 00 00 	nop 
    242c:	01 00 00 00 	nop 

00002430 <HW_trap_0x43>:
    2430:	91 d0 20 00 	ta  0
    2434:	01 00 00 00 	nop 
    2438:	01 00 00 00 	nop 
    243c:	01 00 00 00 	nop 

00002440 <HW_trap_0x44>:
    2440:	91 d0 20 00 	ta  0
    2444:	01 00 00 00 	nop 
    2448:	01 00 00 00 	nop 
    244c:	01 00 00 00 	nop 

00002450 <HW_trap_0x45>:
    2450:	91 d0 20 00 	ta  0
    2454:	01 00 00 00 	nop 
    2458:	01 00 00 00 	nop 
    245c:	01 00 00 00 	nop 

00002460 <HW_trap_0x46>:
    2460:	91 d0 20 00 	ta  0
    2464:	01 00 00 00 	nop 
    2468:	01 00 00 00 	nop 
    246c:	01 00 00 00 	nop 

00002470 <HW_trap_0x47>:
    2470:	91 d0 20 00 	ta  0
    2474:	01 00 00 00 	nop 
    2478:	01 00 00 00 	nop 
    247c:	01 00 00 00 	nop 

00002480 <HW_trap_0x48>:
    2480:	91 d0 20 00 	ta  0
    2484:	01 00 00 00 	nop 
    2488:	01 00 00 00 	nop 
    248c:	01 00 00 00 	nop 

00002490 <HW_trap_0x49>:
    2490:	91 d0 20 00 	ta  0
    2494:	01 00 00 00 	nop 
    2498:	01 00 00 00 	nop 
    249c:	01 00 00 00 	nop 

000024a0 <HW_trap_0x4a>:
    24a0:	91 d0 20 00 	ta  0
    24a4:	01 00 00 00 	nop 
    24a8:	01 00 00 00 	nop 
    24ac:	01 00 00 00 	nop 

000024b0 <HW_trap_0x4b>:
    24b0:	91 d0 20 00 	ta  0
    24b4:	01 00 00 00 	nop 
    24b8:	01 00 00 00 	nop 
    24bc:	01 00 00 00 	nop 

000024c0 <HW_trap_0x4c>:
    24c0:	91 d0 20 00 	ta  0
    24c4:	01 00 00 00 	nop 
    24c8:	01 00 00 00 	nop 
    24cc:	01 00 00 00 	nop 

000024d0 <HW_trap_0x4d>:
    24d0:	91 d0 20 00 	ta  0
    24d4:	01 00 00 00 	nop 
    24d8:	01 00 00 00 	nop 
    24dc:	01 00 00 00 	nop 

000024e0 <HW_trap_0x4e>:
    24e0:	91 d0 20 00 	ta  0
    24e4:	01 00 00 00 	nop 
    24e8:	01 00 00 00 	nop 
    24ec:	01 00 00 00 	nop 

000024f0 <HW_trap_0x4f>:
    24f0:	91 d0 20 00 	ta  0
    24f4:	01 00 00 00 	nop 
    24f8:	01 00 00 00 	nop 
    24fc:	01 00 00 00 	nop 

00002500 <HW_trap_0x50>:
    2500:	91 d0 20 00 	ta  0
    2504:	01 00 00 00 	nop 
    2508:	01 00 00 00 	nop 
    250c:	01 00 00 00 	nop 

00002510 <HW_trap_0x51>:
    2510:	91 d0 20 00 	ta  0
    2514:	01 00 00 00 	nop 
    2518:	01 00 00 00 	nop 
    251c:	01 00 00 00 	nop 

00002520 <HW_trap_0x52>:
    2520:	91 d0 20 00 	ta  0
    2524:	01 00 00 00 	nop 
    2528:	01 00 00 00 	nop 
    252c:	01 00 00 00 	nop 

00002530 <HW_trap_0x53>:
    2530:	91 d0 20 00 	ta  0
    2534:	01 00 00 00 	nop 
    2538:	01 00 00 00 	nop 
    253c:	01 00 00 00 	nop 

00002540 <HW_trap_0x54>:
    2540:	91 d0 20 00 	ta  0
    2544:	01 00 00 00 	nop 
    2548:	01 00 00 00 	nop 
    254c:	01 00 00 00 	nop 

00002550 <HW_trap_0x55>:
    2550:	91 d0 20 00 	ta  0
    2554:	01 00 00 00 	nop 
    2558:	01 00 00 00 	nop 
    255c:	01 00 00 00 	nop 

00002560 <HW_trap_0x56>:
    2560:	91 d0 20 00 	ta  0
    2564:	01 00 00 00 	nop 
    2568:	01 00 00 00 	nop 
    256c:	01 00 00 00 	nop 

00002570 <HW_trap_0x57>:
    2570:	91 d0 20 00 	ta  0
    2574:	01 00 00 00 	nop 
    2578:	01 00 00 00 	nop 
    257c:	01 00 00 00 	nop 

00002580 <HW_trap_0x58>:
    2580:	91 d0 20 00 	ta  0
    2584:	01 00 00 00 	nop 
    2588:	01 00 00 00 	nop 
    258c:	01 00 00 00 	nop 

00002590 <HW_trap_0x59>:
    2590:	91 d0 20 00 	ta  0
    2594:	01 00 00 00 	nop 
    2598:	01 00 00 00 	nop 
    259c:	01 00 00 00 	nop 

000025a0 <HW_trap_0x5a>:
    25a0:	91 d0 20 00 	ta  0
    25a4:	01 00 00 00 	nop 
    25a8:	01 00 00 00 	nop 
    25ac:	01 00 00 00 	nop 

000025b0 <HW_trap_0x5b>:
    25b0:	91 d0 20 00 	ta  0
    25b4:	01 00 00 00 	nop 
    25b8:	01 00 00 00 	nop 
    25bc:	01 00 00 00 	nop 

000025c0 <HW_trap_0x5c>:
    25c0:	91 d0 20 00 	ta  0
    25c4:	01 00 00 00 	nop 
    25c8:	01 00 00 00 	nop 
    25cc:	01 00 00 00 	nop 

000025d0 <HW_trap_0x5d>:
    25d0:	91 d0 20 00 	ta  0
    25d4:	01 00 00 00 	nop 
    25d8:	01 00 00 00 	nop 
    25dc:	01 00 00 00 	nop 

000025e0 <HW_trap_0x5e>:
    25e0:	91 d0 20 00 	ta  0
    25e4:	01 00 00 00 	nop 
    25e8:	01 00 00 00 	nop 
    25ec:	01 00 00 00 	nop 

000025f0 <HW_trap_0x5f>:
    25f0:	91 d0 20 00 	ta  0
    25f4:	01 00 00 00 	nop 
    25f8:	01 00 00 00 	nop 
    25fc:	01 00 00 00 	nop 

00002600 <HW_trap_0x60>:
    2600:	91 d0 20 00 	ta  0
    2604:	01 00 00 00 	nop 
    2608:	01 00 00 00 	nop 
    260c:	01 00 00 00 	nop 

00002610 <HW_trap_0x61>:
    2610:	91 d0 20 00 	ta  0
    2614:	01 00 00 00 	nop 
    2618:	01 00 00 00 	nop 
    261c:	01 00 00 00 	nop 

00002620 <HW_trap_0x62>:
    2620:	91 d0 20 00 	ta  0
    2624:	01 00 00 00 	nop 
    2628:	01 00 00 00 	nop 
    262c:	01 00 00 00 	nop 

00002630 <HW_trap_0x63>:
    2630:	91 d0 20 00 	ta  0
    2634:	01 00 00 00 	nop 
    2638:	01 00 00 00 	nop 
    263c:	01 00 00 00 	nop 

00002640 <HW_trap_0x64>:
    2640:	91 d0 20 00 	ta  0
    2644:	01 00 00 00 	nop 
    2648:	01 00 00 00 	nop 
    264c:	01 00 00 00 	nop 

00002650 <HW_trap_0x65>:
    2650:	91 d0 20 00 	ta  0
    2654:	01 00 00 00 	nop 
    2658:	01 00 00 00 	nop 
    265c:	01 00 00 00 	nop 

00002660 <HW_trap_0x66>:
    2660:	91 d0 20 00 	ta  0
    2664:	01 00 00 00 	nop 
    2668:	01 00 00 00 	nop 
    266c:	01 00 00 00 	nop 

00002670 <HW_trap_0x67>:
    2670:	91 d0 20 00 	ta  0
    2674:	01 00 00 00 	nop 
    2678:	01 00 00 00 	nop 
    267c:	01 00 00 00 	nop 

00002680 <HW_trap_0x68>:
    2680:	91 d0 20 00 	ta  0
    2684:	01 00 00 00 	nop 
    2688:	01 00 00 00 	nop 
    268c:	01 00 00 00 	nop 

00002690 <HW_trap_0x69>:
    2690:	91 d0 20 00 	ta  0
    2694:	01 00 00 00 	nop 
    2698:	01 00 00 00 	nop 
    269c:	01 00 00 00 	nop 

000026a0 <HW_trap_0x6a>:
    26a0:	91 d0 20 00 	ta  0
    26a4:	01 00 00 00 	nop 
    26a8:	01 00 00 00 	nop 
    26ac:	01 00 00 00 	nop 

000026b0 <HW_trap_0x6b>:
    26b0:	91 d0 20 00 	ta  0
    26b4:	01 00 00 00 	nop 
    26b8:	01 00 00 00 	nop 
    26bc:	01 00 00 00 	nop 

000026c0 <HW_trap_0x6c>:
    26c0:	91 d0 20 00 	ta  0
    26c4:	01 00 00 00 	nop 
    26c8:	01 00 00 00 	nop 
    26cc:	01 00 00 00 	nop 

000026d0 <HW_trap_0x6d>:
    26d0:	91 d0 20 00 	ta  0
    26d4:	01 00 00 00 	nop 
    26d8:	01 00 00 00 	nop 
    26dc:	01 00 00 00 	nop 

000026e0 <HW_trap_0x6e>:
    26e0:	91 d0 20 00 	ta  0
    26e4:	01 00 00 00 	nop 
    26e8:	01 00 00 00 	nop 
    26ec:	01 00 00 00 	nop 

000026f0 <HW_trap_0x6f>:
    26f0:	91 d0 20 00 	ta  0
    26f4:	01 00 00 00 	nop 
    26f8:	01 00 00 00 	nop 
    26fc:	01 00 00 00 	nop 

00002700 <HW_trap_0x70>:
    2700:	91 d0 20 00 	ta  0
    2704:	01 00 00 00 	nop 
    2708:	01 00 00 00 	nop 
    270c:	01 00 00 00 	nop 

00002710 <HW_trap_0x71>:
    2710:	91 d0 20 00 	ta  0
    2714:	01 00 00 00 	nop 
    2718:	01 00 00 00 	nop 
    271c:	01 00 00 00 	nop 

00002720 <HW_trap_0x72>:
    2720:	91 d0 20 00 	ta  0
    2724:	01 00 00 00 	nop 
    2728:	01 00 00 00 	nop 
    272c:	01 00 00 00 	nop 

00002730 <HW_trap_0x73>:
    2730:	91 d0 20 00 	ta  0
    2734:	01 00 00 00 	nop 
    2738:	01 00 00 00 	nop 
    273c:	01 00 00 00 	nop 

00002740 <HW_trap_0x74>:
    2740:	91 d0 20 00 	ta  0
    2744:	01 00 00 00 	nop 
    2748:	01 00 00 00 	nop 
    274c:	01 00 00 00 	nop 

00002750 <HW_trap_0x75>:
    2750:	91 d0 20 00 	ta  0
    2754:	01 00 00 00 	nop 
    2758:	01 00 00 00 	nop 
    275c:	01 00 00 00 	nop 

00002760 <HW_trap_0x76>:
    2760:	91 d0 20 00 	ta  0
    2764:	01 00 00 00 	nop 
    2768:	01 00 00 00 	nop 
    276c:	01 00 00 00 	nop 

00002770 <HW_trap_0x77>:
    2770:	91 d0 20 00 	ta  0
    2774:	01 00 00 00 	nop 
    2778:	01 00 00 00 	nop 
    277c:	01 00 00 00 	nop 

00002780 <HW_trap_0x78>:
    2780:	91 d0 20 00 	ta  0
    2784:	01 00 00 00 	nop 
    2788:	01 00 00 00 	nop 
    278c:	01 00 00 00 	nop 

00002790 <HW_trap_0x79>:
    2790:	91 d0 20 00 	ta  0
    2794:	01 00 00 00 	nop 
    2798:	01 00 00 00 	nop 
    279c:	01 00 00 00 	nop 

000027a0 <HW_trap_0x7a>:
    27a0:	91 d0 20 00 	ta  0
    27a4:	01 00 00 00 	nop 
    27a8:	01 00 00 00 	nop 
    27ac:	01 00 00 00 	nop 

000027b0 <HW_trap_0x7b>:
    27b0:	91 d0 20 00 	ta  0
    27b4:	01 00 00 00 	nop 
    27b8:	01 00 00 00 	nop 
    27bc:	01 00 00 00 	nop 

000027c0 <HW_trap_0x7c>:
    27c0:	91 d0 20 00 	ta  0
    27c4:	01 00 00 00 	nop 
    27c8:	01 00 00 00 	nop 
    27cc:	01 00 00 00 	nop 

000027d0 <HW_trap_0x7d>:
    27d0:	91 d0 20 00 	ta  0
    27d4:	01 00 00 00 	nop 
    27d8:	01 00 00 00 	nop 
    27dc:	01 00 00 00 	nop 

000027e0 <HW_trap_0x7e>:
    27e0:	91 d0 20 00 	ta  0
    27e4:	01 00 00 00 	nop 
    27e8:	01 00 00 00 	nop 
    27ec:	01 00 00 00 	nop 

000027f0 <HW_trap_0x7f>:
    27f0:	91 d0 20 00 	ta  0
    27f4:	01 00 00 00 	nop 
    27f8:	01 00 00 00 	nop 
    27fc:	01 00 00 00 	nop 

00002800 <SW_trap_0x80>:
    2800:	91 d0 20 00 	ta  0
    2804:	01 00 00 00 	nop 
    2808:	01 00 00 00 	nop 
    280c:	01 00 00 00 	nop 

00002810 <SW_trap_0x81>:
    2810:	91 d0 20 00 	ta  0
    2814:	01 00 00 00 	nop 
    2818:	01 00 00 00 	nop 
    281c:	01 00 00 00 	nop 

00002820 <SW_trap_0x82>:
    2820:	91 d0 20 00 	ta  0
    2824:	01 00 00 00 	nop 
    2828:	01 00 00 00 	nop 
    282c:	01 00 00 00 	nop 

00002830 <SW_trap_0x83>:
    2830:	91 d0 20 00 	ta  0
    2834:	01 00 00 00 	nop 
    2838:	01 00 00 00 	nop 
    283c:	01 00 00 00 	nop 

00002840 <SW_trap_0x84>:
    2840:	91 d0 20 00 	ta  0
    2844:	01 00 00 00 	nop 
    2848:	01 00 00 00 	nop 
    284c:	01 00 00 00 	nop 

00002850 <SW_trap_0x85>:
    2850:	91 d0 20 00 	ta  0
    2854:	01 00 00 00 	nop 
    2858:	01 00 00 00 	nop 
    285c:	01 00 00 00 	nop 

00002860 <SW_trap_0x86>:
    2860:	91 d0 20 00 	ta  0
    2864:	01 00 00 00 	nop 
    2868:	01 00 00 00 	nop 
    286c:	01 00 00 00 	nop 

00002870 <SW_trap_0x87>:
    2870:	91 d0 20 00 	ta  0
    2874:	01 00 00 00 	nop 
    2878:	01 00 00 00 	nop 
    287c:	01 00 00 00 	nop 

00002880 <SW_trap_0x88>:
    2880:	91 d0 20 00 	ta  0
    2884:	01 00 00 00 	nop 
    2888:	01 00 00 00 	nop 
    288c:	01 00 00 00 	nop 

00002890 <SW_trap_0x89>:
    2890:	91 d0 20 00 	ta  0
    2894:	01 00 00 00 	nop 
    2898:	01 00 00 00 	nop 
    289c:	01 00 00 00 	nop 

000028a0 <SW_trap_0x8a>:
    28a0:	91 d0 20 00 	ta  0
    28a4:	01 00 00 00 	nop 
    28a8:	01 00 00 00 	nop 
    28ac:	01 00 00 00 	nop 

000028b0 <SW_trap_0x8b>:
    28b0:	91 d0 20 00 	ta  0
    28b4:	01 00 00 00 	nop 
    28b8:	01 00 00 00 	nop 
    28bc:	01 00 00 00 	nop 

000028c0 <SW_trap_0x8c>:
    28c0:	91 d0 20 00 	ta  0
    28c4:	01 00 00 00 	nop 
    28c8:	01 00 00 00 	nop 
    28cc:	01 00 00 00 	nop 

000028d0 <SW_trap_0x8d>:
    28d0:	91 d0 20 00 	ta  0
    28d4:	01 00 00 00 	nop 
    28d8:	01 00 00 00 	nop 
    28dc:	01 00 00 00 	nop 

000028e0 <SW_trap_0x8e>:
    28e0:	91 d0 20 00 	ta  0
    28e4:	01 00 00 00 	nop 
    28e8:	01 00 00 00 	nop 
    28ec:	01 00 00 00 	nop 

000028f0 <SW_trap_0x8f>:
    28f0:	91 d0 20 00 	ta  0
    28f4:	01 00 00 00 	nop 
    28f8:	01 00 00 00 	nop 
    28fc:	01 00 00 00 	nop 

00002900 <SW_trap_0x90>:
    2900:	91 d0 20 00 	ta  0
    2904:	01 00 00 00 	nop 
    2908:	01 00 00 00 	nop 
    290c:	01 00 00 00 	nop 

00002910 <SW_trap_0x91>:
    2910:	91 d0 20 00 	ta  0
    2914:	01 00 00 00 	nop 
    2918:	01 00 00 00 	nop 
    291c:	01 00 00 00 	nop 

00002920 <SW_trap_0x92>:
    2920:	91 d0 20 00 	ta  0
    2924:	01 00 00 00 	nop 
    2928:	01 00 00 00 	nop 
    292c:	01 00 00 00 	nop 

00002930 <SW_trap_0x93>:
    2930:	91 d0 20 00 	ta  0
    2934:	01 00 00 00 	nop 
    2938:	01 00 00 00 	nop 
    293c:	01 00 00 00 	nop 

00002940 <SW_trap_0x94>:
    2940:	91 d0 20 00 	ta  0
    2944:	01 00 00 00 	nop 
    2948:	01 00 00 00 	nop 
    294c:	01 00 00 00 	nop 

00002950 <SW_trap_0x95>:
    2950:	91 d0 20 00 	ta  0
    2954:	01 00 00 00 	nop 
    2958:	01 00 00 00 	nop 
    295c:	01 00 00 00 	nop 

00002960 <SW_trap_0x96>:
    2960:	91 d0 20 00 	ta  0
    2964:	01 00 00 00 	nop 
    2968:	01 00 00 00 	nop 
    296c:	01 00 00 00 	nop 

00002970 <SW_trap_0x97>:
    2970:	91 d0 20 00 	ta  0
    2974:	01 00 00 00 	nop 
    2978:	01 00 00 00 	nop 
    297c:	01 00 00 00 	nop 

00002980 <SW_trap_0x98>:
    2980:	91 d0 20 00 	ta  0
    2984:	01 00 00 00 	nop 
    2988:	01 00 00 00 	nop 
    298c:	01 00 00 00 	nop 

00002990 <SW_trap_0x99>:
    2990:	91 d0 20 00 	ta  0
    2994:	01 00 00 00 	nop 
    2998:	01 00 00 00 	nop 
    299c:	01 00 00 00 	nop 

000029a0 <SW_trap_0x9a>:
    29a0:	91 d0 20 00 	ta  0
    29a4:	01 00 00 00 	nop 
    29a8:	01 00 00 00 	nop 
    29ac:	01 00 00 00 	nop 

000029b0 <SW_trap_0x9b>:
    29b0:	91 d0 20 00 	ta  0
    29b4:	01 00 00 00 	nop 
    29b8:	01 00 00 00 	nop 
    29bc:	01 00 00 00 	nop 

000029c0 <SW_trap_0x9c>:
    29c0:	91 d0 20 00 	ta  0
    29c4:	01 00 00 00 	nop 
    29c8:	01 00 00 00 	nop 
    29cc:	01 00 00 00 	nop 

000029d0 <SW_trap_0x9d>:
    29d0:	91 d0 20 00 	ta  0
    29d4:	01 00 00 00 	nop 
    29d8:	01 00 00 00 	nop 
    29dc:	01 00 00 00 	nop 

000029e0 <SW_trap_0x9e>:
    29e0:	91 d0 20 00 	ta  0
    29e4:	01 00 00 00 	nop 
    29e8:	01 00 00 00 	nop 
    29ec:	01 00 00 00 	nop 

000029f0 <SW_trap_0x9f>:
    29f0:	91 d0 20 00 	ta  0
    29f4:	01 00 00 00 	nop 
    29f8:	01 00 00 00 	nop 
    29fc:	01 00 00 00 	nop 

00002a00 <SW_trap_0xa0>:
    2a00:	91 d0 20 00 	ta  0
    2a04:	01 00 00 00 	nop 
    2a08:	01 00 00 00 	nop 
    2a0c:	01 00 00 00 	nop 

00002a10 <SW_trap_0xa1>:
    2a10:	91 d0 20 00 	ta  0
    2a14:	01 00 00 00 	nop 
    2a18:	01 00 00 00 	nop 
    2a1c:	01 00 00 00 	nop 

00002a20 <SW_trap_0xa2>:
    2a20:	91 d0 20 00 	ta  0
    2a24:	01 00 00 00 	nop 
    2a28:	01 00 00 00 	nop 
    2a2c:	01 00 00 00 	nop 

00002a30 <SW_trap_0xa3>:
    2a30:	91 d0 20 00 	ta  0
    2a34:	01 00 00 00 	nop 
    2a38:	01 00 00 00 	nop 
    2a3c:	01 00 00 00 	nop 

00002a40 <SW_trap_0xa4>:
    2a40:	91 d0 20 00 	ta  0
    2a44:	01 00 00 00 	nop 
    2a48:	01 00 00 00 	nop 
    2a4c:	01 00 00 00 	nop 

00002a50 <SW_trap_0xa5>:
    2a50:	91 d0 20 00 	ta  0
    2a54:	01 00 00 00 	nop 
    2a58:	01 00 00 00 	nop 
    2a5c:	01 00 00 00 	nop 

00002a60 <SW_trap_0xa6>:
    2a60:	91 d0 20 00 	ta  0
    2a64:	01 00 00 00 	nop 
    2a68:	01 00 00 00 	nop 
    2a6c:	01 00 00 00 	nop 

00002a70 <SW_trap_0xa7>:
    2a70:	91 d0 20 00 	ta  0
    2a74:	01 00 00 00 	nop 
    2a78:	01 00 00 00 	nop 
    2a7c:	01 00 00 00 	nop 

00002a80 <SW_trap_0xa8>:
    2a80:	91 d0 20 00 	ta  0
    2a84:	01 00 00 00 	nop 
    2a88:	01 00 00 00 	nop 
    2a8c:	01 00 00 00 	nop 

00002a90 <SW_trap_0xa9>:
    2a90:	91 d0 20 00 	ta  0
    2a94:	01 00 00 00 	nop 
    2a98:	01 00 00 00 	nop 
    2a9c:	01 00 00 00 	nop 

00002aa0 <SW_trap_0xaa>:
    2aa0:	91 d0 20 00 	ta  0
    2aa4:	01 00 00 00 	nop 
    2aa8:	01 00 00 00 	nop 
    2aac:	01 00 00 00 	nop 

00002ab0 <SW_trap_0xab>:
    2ab0:	91 d0 20 00 	ta  0
    2ab4:	01 00 00 00 	nop 
    2ab8:	01 00 00 00 	nop 
    2abc:	01 00 00 00 	nop 

00002ac0 <SW_trap_0xac>:
    2ac0:	91 d0 20 00 	ta  0
    2ac4:	01 00 00 00 	nop 
    2ac8:	01 00 00 00 	nop 
    2acc:	01 00 00 00 	nop 

00002ad0 <SW_trap_0xad>:
    2ad0:	91 d0 20 00 	ta  0
    2ad4:	01 00 00 00 	nop 
    2ad8:	01 00 00 00 	nop 
    2adc:	01 00 00 00 	nop 

00002ae0 <SW_trap_0xae>:
    2ae0:	91 d0 20 00 	ta  0
    2ae4:	01 00 00 00 	nop 
    2ae8:	01 00 00 00 	nop 
    2aec:	01 00 00 00 	nop 

00002af0 <SW_trap_0xaf>:
    2af0:	91 d0 20 00 	ta  0
    2af4:	01 00 00 00 	nop 
    2af8:	01 00 00 00 	nop 
    2afc:	01 00 00 00 	nop 

00002b00 <SW_trap_0xb0>:
    2b00:	91 d0 20 00 	ta  0
    2b04:	01 00 00 00 	nop 
    2b08:	01 00 00 00 	nop 
    2b0c:	01 00 00 00 	nop 

00002b10 <SW_trap_0xb1>:
    2b10:	91 d0 20 00 	ta  0
    2b14:	01 00 00 00 	nop 
    2b18:	01 00 00 00 	nop 
    2b1c:	01 00 00 00 	nop 

00002b20 <SW_trap_0xb2>:
    2b20:	91 d0 20 00 	ta  0
    2b24:	01 00 00 00 	nop 
    2b28:	01 00 00 00 	nop 
    2b2c:	01 00 00 00 	nop 

00002b30 <SW_trap_0xb3>:
    2b30:	91 d0 20 00 	ta  0
    2b34:	01 00 00 00 	nop 
    2b38:	01 00 00 00 	nop 
    2b3c:	01 00 00 00 	nop 

00002b40 <SW_trap_0xb4>:
    2b40:	91 d0 20 00 	ta  0
    2b44:	01 00 00 00 	nop 
    2b48:	01 00 00 00 	nop 
    2b4c:	01 00 00 00 	nop 

00002b50 <SW_trap_0xb5>:
    2b50:	91 d0 20 00 	ta  0
    2b54:	01 00 00 00 	nop 
    2b58:	01 00 00 00 	nop 
    2b5c:	01 00 00 00 	nop 

00002b60 <SW_trap_0xb6>:
    2b60:	91 d0 20 00 	ta  0
    2b64:	01 00 00 00 	nop 
    2b68:	01 00 00 00 	nop 
    2b6c:	01 00 00 00 	nop 

00002b70 <SW_trap_0xb7>:
    2b70:	91 d0 20 00 	ta  0
    2b74:	01 00 00 00 	nop 
    2b78:	01 00 00 00 	nop 
    2b7c:	01 00 00 00 	nop 

00002b80 <SW_trap_0xb8>:
    2b80:	91 d0 20 00 	ta  0
    2b84:	01 00 00 00 	nop 
    2b88:	01 00 00 00 	nop 
    2b8c:	01 00 00 00 	nop 

00002b90 <SW_trap_0xb9>:
    2b90:	91 d0 20 00 	ta  0
    2b94:	01 00 00 00 	nop 
    2b98:	01 00 00 00 	nop 
    2b9c:	01 00 00 00 	nop 

00002ba0 <SW_trap_0xba>:
    2ba0:	91 d0 20 00 	ta  0
    2ba4:	01 00 00 00 	nop 
    2ba8:	01 00 00 00 	nop 
    2bac:	01 00 00 00 	nop 

00002bb0 <SW_trap_0xbb>:
    2bb0:	91 d0 20 00 	ta  0
    2bb4:	01 00 00 00 	nop 
    2bb8:	01 00 00 00 	nop 
    2bbc:	01 00 00 00 	nop 

00002bc0 <SW_trap_0xbc>:
    2bc0:	91 d0 20 00 	ta  0
    2bc4:	01 00 00 00 	nop 
    2bc8:	01 00 00 00 	nop 
    2bcc:	01 00 00 00 	nop 

00002bd0 <SW_trap_0xbd>:
    2bd0:	91 d0 20 00 	ta  0
    2bd4:	01 00 00 00 	nop 
    2bd8:	01 00 00 00 	nop 
    2bdc:	01 00 00 00 	nop 

00002be0 <SW_trap_0xbe>:
    2be0:	91 d0 20 00 	ta  0
    2be4:	01 00 00 00 	nop 
    2be8:	01 00 00 00 	nop 
    2bec:	01 00 00 00 	nop 

00002bf0 <SW_trap_0xbf>:
    2bf0:	91 d0 20 00 	ta  0
    2bf4:	01 00 00 00 	nop 
    2bf8:	01 00 00 00 	nop 
    2bfc:	01 00 00 00 	nop 

00002c00 <SW_trap_0xc0>:
    2c00:	91 d0 20 00 	ta  0
    2c04:	01 00 00 00 	nop 
    2c08:	01 00 00 00 	nop 
    2c0c:	01 00 00 00 	nop 

00002c10 <SW_trap_0xc1>:
    2c10:	91 d0 20 00 	ta  0
    2c14:	01 00 00 00 	nop 
    2c18:	01 00 00 00 	nop 
    2c1c:	01 00 00 00 	nop 

00002c20 <SW_trap_0xc2>:
    2c20:	91 d0 20 00 	ta  0
    2c24:	01 00 00 00 	nop 
    2c28:	01 00 00 00 	nop 
    2c2c:	01 00 00 00 	nop 

00002c30 <SW_trap_0xc3>:
    2c30:	91 d0 20 00 	ta  0
    2c34:	01 00 00 00 	nop 
    2c38:	01 00 00 00 	nop 
    2c3c:	01 00 00 00 	nop 

00002c40 <SW_trap_0xc4>:
    2c40:	91 d0 20 00 	ta  0
    2c44:	01 00 00 00 	nop 
    2c48:	01 00 00 00 	nop 
    2c4c:	01 00 00 00 	nop 

00002c50 <SW_trap_0xc5>:
    2c50:	91 d0 20 00 	ta  0
    2c54:	01 00 00 00 	nop 
    2c58:	01 00 00 00 	nop 
    2c5c:	01 00 00 00 	nop 

00002c60 <SW_trap_0xc6>:
    2c60:	91 d0 20 00 	ta  0
    2c64:	01 00 00 00 	nop 
    2c68:	01 00 00 00 	nop 
    2c6c:	01 00 00 00 	nop 

00002c70 <SW_trap_0xc7>:
    2c70:	91 d0 20 00 	ta  0
    2c74:	01 00 00 00 	nop 
    2c78:	01 00 00 00 	nop 
    2c7c:	01 00 00 00 	nop 

00002c80 <SW_trap_0xc8>:
    2c80:	91 d0 20 00 	ta  0
    2c84:	01 00 00 00 	nop 
    2c88:	01 00 00 00 	nop 
    2c8c:	01 00 00 00 	nop 

00002c90 <SW_trap_0xc9>:
    2c90:	91 d0 20 00 	ta  0
    2c94:	01 00 00 00 	nop 
    2c98:	01 00 00 00 	nop 
    2c9c:	01 00 00 00 	nop 

00002ca0 <SW_trap_0xca>:
    2ca0:	91 d0 20 00 	ta  0
    2ca4:	01 00 00 00 	nop 
    2ca8:	01 00 00 00 	nop 
    2cac:	01 00 00 00 	nop 

00002cb0 <SW_trap_0xcb>:
    2cb0:	91 d0 20 00 	ta  0
    2cb4:	01 00 00 00 	nop 
    2cb8:	01 00 00 00 	nop 
    2cbc:	01 00 00 00 	nop 

00002cc0 <SW_trap_0xcc>:
    2cc0:	91 d0 20 00 	ta  0
    2cc4:	01 00 00 00 	nop 
    2cc8:	01 00 00 00 	nop 
    2ccc:	01 00 00 00 	nop 

00002cd0 <SW_trap_0xcd>:
    2cd0:	91 d0 20 00 	ta  0
    2cd4:	01 00 00 00 	nop 
    2cd8:	01 00 00 00 	nop 
    2cdc:	01 00 00 00 	nop 

00002ce0 <SW_trap_0xce>:
    2ce0:	91 d0 20 00 	ta  0
    2ce4:	01 00 00 00 	nop 
    2ce8:	01 00 00 00 	nop 
    2cec:	01 00 00 00 	nop 

00002cf0 <SW_trap_0xcf>:
    2cf0:	91 d0 20 00 	ta  0
    2cf4:	01 00 00 00 	nop 
    2cf8:	01 00 00 00 	nop 
    2cfc:	01 00 00 00 	nop 

00002d00 <SW_trap_0xd0>:
    2d00:	91 d0 20 00 	ta  0
    2d04:	01 00 00 00 	nop 
    2d08:	01 00 00 00 	nop 
    2d0c:	01 00 00 00 	nop 

00002d10 <SW_trap_0xd1>:
    2d10:	91 d0 20 00 	ta  0
    2d14:	01 00 00 00 	nop 
    2d18:	01 00 00 00 	nop 
    2d1c:	01 00 00 00 	nop 

00002d20 <SW_trap_0xd2>:
    2d20:	91 d0 20 00 	ta  0
    2d24:	01 00 00 00 	nop 
    2d28:	01 00 00 00 	nop 
    2d2c:	01 00 00 00 	nop 

00002d30 <SW_trap_0xd3>:
    2d30:	91 d0 20 00 	ta  0
    2d34:	01 00 00 00 	nop 
    2d38:	01 00 00 00 	nop 
    2d3c:	01 00 00 00 	nop 

00002d40 <SW_trap_0xd4>:
    2d40:	91 d0 20 00 	ta  0
    2d44:	01 00 00 00 	nop 
    2d48:	01 00 00 00 	nop 
    2d4c:	01 00 00 00 	nop 

00002d50 <SW_trap_0xd5>:
    2d50:	91 d0 20 00 	ta  0
    2d54:	01 00 00 00 	nop 
    2d58:	01 00 00 00 	nop 
    2d5c:	01 00 00 00 	nop 

00002d60 <SW_trap_0xd6>:
    2d60:	91 d0 20 00 	ta  0
    2d64:	01 00 00 00 	nop 
    2d68:	01 00 00 00 	nop 
    2d6c:	01 00 00 00 	nop 

00002d70 <SW_trap_0xd7>:
    2d70:	91 d0 20 00 	ta  0
    2d74:	01 00 00 00 	nop 
    2d78:	01 00 00 00 	nop 
    2d7c:	01 00 00 00 	nop 

00002d80 <SW_trap_0xd8>:
    2d80:	91 d0 20 00 	ta  0
    2d84:	01 00 00 00 	nop 
    2d88:	01 00 00 00 	nop 
    2d8c:	01 00 00 00 	nop 

00002d90 <SW_trap_0xd9>:
    2d90:	91 d0 20 00 	ta  0
    2d94:	01 00 00 00 	nop 
    2d98:	01 00 00 00 	nop 
    2d9c:	01 00 00 00 	nop 

00002da0 <SW_trap_0xda>:
    2da0:	91 d0 20 00 	ta  0
    2da4:	01 00 00 00 	nop 
    2da8:	01 00 00 00 	nop 
    2dac:	01 00 00 00 	nop 

00002db0 <SW_trap_0xdb>:
    2db0:	91 d0 20 00 	ta  0
    2db4:	01 00 00 00 	nop 
    2db8:	01 00 00 00 	nop 
    2dbc:	01 00 00 00 	nop 

00002dc0 <SW_trap_0xdc>:
    2dc0:	91 d0 20 00 	ta  0
    2dc4:	01 00 00 00 	nop 
    2dc8:	01 00 00 00 	nop 
    2dcc:	01 00 00 00 	nop 

00002dd0 <SW_trap_0xdd>:
    2dd0:	91 d0 20 00 	ta  0
    2dd4:	01 00 00 00 	nop 
    2dd8:	01 00 00 00 	nop 
    2ddc:	01 00 00 00 	nop 

00002de0 <SW_trap_0xde>:
    2de0:	91 d0 20 00 	ta  0
    2de4:	01 00 00 00 	nop 
    2de8:	01 00 00 00 	nop 
    2dec:	01 00 00 00 	nop 

00002df0 <SW_trap_0xdf>:
    2df0:	91 d0 20 00 	ta  0
    2df4:	01 00 00 00 	nop 
    2df8:	01 00 00 00 	nop 
    2dfc:	01 00 00 00 	nop 

00002e00 <SW_trap_0xe0>:
    2e00:	91 d0 20 00 	ta  0
    2e04:	01 00 00 00 	nop 
    2e08:	01 00 00 00 	nop 
    2e0c:	01 00 00 00 	nop 

00002e10 <SW_trap_0xe1>:
    2e10:	91 d0 20 00 	ta  0
    2e14:	01 00 00 00 	nop 
    2e18:	01 00 00 00 	nop 
    2e1c:	01 00 00 00 	nop 

00002e20 <SW_trap_0xe2>:
    2e20:	91 d0 20 00 	ta  0
    2e24:	01 00 00 00 	nop 
    2e28:	01 00 00 00 	nop 
    2e2c:	01 00 00 00 	nop 

00002e30 <SW_trap_0xe3>:
    2e30:	91 d0 20 00 	ta  0
    2e34:	01 00 00 00 	nop 
    2e38:	01 00 00 00 	nop 
    2e3c:	01 00 00 00 	nop 

00002e40 <SW_trap_0xe4>:
    2e40:	91 d0 20 00 	ta  0
    2e44:	01 00 00 00 	nop 
    2e48:	01 00 00 00 	nop 
    2e4c:	01 00 00 00 	nop 

00002e50 <SW_trap_0xe5>:
    2e50:	91 d0 20 00 	ta  0
    2e54:	01 00 00 00 	nop 
    2e58:	01 00 00 00 	nop 
    2e5c:	01 00 00 00 	nop 

00002e60 <SW_trap_0xe6>:
    2e60:	91 d0 20 00 	ta  0
    2e64:	01 00 00 00 	nop 
    2e68:	01 00 00 00 	nop 
    2e6c:	01 00 00 00 	nop 

00002e70 <SW_trap_0xe7>:
    2e70:	91 d0 20 00 	ta  0
    2e74:	01 00 00 00 	nop 
    2e78:	01 00 00 00 	nop 
    2e7c:	01 00 00 00 	nop 

00002e80 <SW_trap_0xe8>:
    2e80:	91 d0 20 00 	ta  0
    2e84:	01 00 00 00 	nop 
    2e88:	01 00 00 00 	nop 
    2e8c:	01 00 00 00 	nop 

00002e90 <SW_trap_0xe9>:
    2e90:	91 d0 20 00 	ta  0
    2e94:	01 00 00 00 	nop 
    2e98:	01 00 00 00 	nop 
    2e9c:	01 00 00 00 	nop 

00002ea0 <SW_trap_0xea>:
    2ea0:	91 d0 20 00 	ta  0
    2ea4:	01 00 00 00 	nop 
    2ea8:	01 00 00 00 	nop 
    2eac:	01 00 00 00 	nop 

00002eb0 <SW_trap_0xeb>:
    2eb0:	91 d0 20 00 	ta  0
    2eb4:	01 00 00 00 	nop 
    2eb8:	01 00 00 00 	nop 
    2ebc:	01 00 00 00 	nop 

00002ec0 <SW_trap_0xec>:
    2ec0:	91 d0 20 00 	ta  0
    2ec4:	01 00 00 00 	nop 
    2ec8:	01 00 00 00 	nop 
    2ecc:	01 00 00 00 	nop 

00002ed0 <SW_trap_0xed>:
    2ed0:	91 d0 20 00 	ta  0
    2ed4:	01 00 00 00 	nop 
    2ed8:	01 00 00 00 	nop 
    2edc:	01 00 00 00 	nop 

00002ee0 <SW_trap_0xee>:
    2ee0:	91 d0 20 00 	ta  0
    2ee4:	01 00 00 00 	nop 
    2ee8:	01 00 00 00 	nop 
    2eec:	01 00 00 00 	nop 

00002ef0 <SW_trap_0xef>:
    2ef0:	91 d0 20 00 	ta  0
    2ef4:	01 00 00 00 	nop 
    2ef8:	01 00 00 00 	nop 
    2efc:	01 00 00 00 	nop 

00002f00 <SW_trap_0xf0>:
    2f00:	91 d0 20 00 	ta  0
    2f04:	01 00 00 00 	nop 
    2f08:	01 00 00 00 	nop 
    2f0c:	01 00 00 00 	nop 

00002f10 <SW_trap_0xf1>:
    2f10:	91 d0 20 00 	ta  0
    2f14:	01 00 00 00 	nop 
    2f18:	01 00 00 00 	nop 
    2f1c:	01 00 00 00 	nop 

00002f20 <SW_trap_0xf2>:
    2f20:	91 d0 20 00 	ta  0
    2f24:	01 00 00 00 	nop 
    2f28:	01 00 00 00 	nop 
    2f2c:	01 00 00 00 	nop 

00002f30 <SW_trap_0xf3>:
    2f30:	91 d0 20 00 	ta  0
    2f34:	01 00 00 00 	nop 
    2f38:	01 00 00 00 	nop 
    2f3c:	01 00 00 00 	nop 

00002f40 <SW_trap_0xf4>:
    2f40:	91 d0 20 00 	ta  0
    2f44:	01 00 00 00 	nop 
    2f48:	01 00 00 00 	nop 
    2f4c:	01 00 00 00 	nop 

00002f50 <SW_trap_0xf5>:
    2f50:	91 d0 20 00 	ta  0
    2f54:	01 00 00 00 	nop 
    2f58:	01 00 00 00 	nop 
    2f5c:	01 00 00 00 	nop 

00002f60 <SW_trap_0xf6>:
    2f60:	91 d0 20 00 	ta  0
    2f64:	01 00 00 00 	nop 
    2f68:	01 00 00 00 	nop 
    2f6c:	01 00 00 00 	nop 

00002f70 <SW_trap_0xf7>:
    2f70:	91 d0 20 00 	ta  0
    2f74:	01 00 00 00 	nop 
    2f78:	01 00 00 00 	nop 
    2f7c:	01 00 00 00 	nop 

00002f80 <SW_trap_0xf8>:
    2f80:	91 d0 20 00 	ta  0
    2f84:	01 00 00 00 	nop 
    2f88:	01 00 00 00 	nop 
    2f8c:	01 00 00 00 	nop 

00002f90 <SW_trap_0xf9>:
    2f90:	91 d0 20 00 	ta  0
    2f94:	01 00 00 00 	nop 
    2f98:	01 00 00 00 	nop 
    2f9c:	01 00 00 00 	nop 

00002fa0 <SW_trap_0xfa>:
    2fa0:	91 d0 20 00 	ta  0
    2fa4:	01 00 00 00 	nop 
    2fa8:	01 00 00 00 	nop 
    2fac:	01 00 00 00 	nop 

00002fb0 <SW_trap_0xfb>:
    2fb0:	91 d0 20 00 	ta  0
    2fb4:	01 00 00 00 	nop 
    2fb8:	01 00 00 00 	nop 
    2fbc:	01 00 00 00 	nop 

00002fc0 <SW_trap_0xfc>:
    2fc0:	91 d0 20 00 	ta  0
    2fc4:	01 00 00 00 	nop 
    2fc8:	01 00 00 00 	nop 
    2fcc:	01 00 00 00 	nop 

00002fd0 <SW_trap_0xfd>:
    2fd0:	91 d0 20 00 	ta  0
    2fd4:	01 00 00 00 	nop 
    2fd8:	01 00 00 00 	nop 
    2fdc:	01 00 00 00 	nop 

00002fe0 <SW_trap_0xfe>:
    2fe0:	91 d0 20 00 	ta  0
    2fe4:	01 00 00 00 	nop 
    2fe8:	01 00 00 00 	nop 
    2fec:	01 00 00 00 	nop 
    2ff0:	01 00 00 00 	nop 
    2ff4:	01 00 00 00 	nop 
    2ff8:	01 00 00 00 	nop 
    2ffc:	01 00 00 00 	nop 

00003000 <cmp_idx>:
    3000:	80 a2 a0 00 	cmp  %o2, 0
    3004:	22 80 00 06 	be,a   301c <cmp_idx+0x1c>
    3008:	c2 12 00 00 	lduh  [ %o0 ], %g1
    300c:	d0 52 20 02 	ldsh  [ %o0 + 2 ], %o0
    3010:	c2 52 60 02 	ldsh  [ %o1 + 2 ], %g1
    3014:	81 c3 e0 08 	retl 
    3018:	90 22 00 01 	sub  %o0, %g1, %o0
    301c:	85 28 60 10 	sll  %g1, 0x10, %g2
    3020:	82 08 7f 00 	and  %g1, -256, %g1
    3024:	87 30 a0 18 	srl  %g2, 0x18, %g3
    3028:	82 10 c0 01 	or  %g3, %g1, %g1
    302c:	c2 32 00 00 	sth  %g1, [ %o0 ]
    3030:	c2 12 40 00 	lduh  [ %o1 ], %g1
    3034:	89 28 60 10 	sll  %g1, 0x10, %g4
    3038:	82 08 7f 00 	and  %g1, -256, %g1
    303c:	95 31 20 18 	srl  %g4, 0x18, %o2
    3040:	82 12 80 01 	or  %o2, %g1, %g1
    3044:	d0 52 20 02 	ldsh  [ %o0 + 2 ], %o0
    3048:	c2 32 40 00 	sth  %g1, [ %o1 ]
    304c:	c2 52 60 02 	ldsh  [ %o1 + 2 ], %g1
    3050:	81 c3 e0 08 	retl 
    3054:	90 22 00 01 	sub  %o0, %g1, %o0

00003058 <core_list_mergesort.constprop.1>:
    3058:	9d e3 bf a0 	save  %sp, -96, %sp
    305c:	80 a6 20 00 	cmp  %i0, 0
    3060:	02 80 00 2f 	be  311c <core_list_mergesort.constprop.1+0xc4>
    3064:	86 10 20 01 	mov  1, %g3
    3068:	9a 10 20 00 	clr  %o5
    306c:	88 10 20 00 	clr  %g4
    3070:	b6 10 20 00 	clr  %i3
    3074:	b6 06 e0 01 	inc  %i3
    3078:	84 10 00 18 	mov  %i0, %g2
    307c:	82 10 20 00 	clr  %g1
    3080:	c4 00 80 00 	ld  [ %g2 ], %g2
    3084:	80 a0 a0 00 	cmp  %g2, 0
    3088:	02 80 00 05 	be  309c <core_list_mergesort.constprop.1+0x44>
    308c:	82 00 60 01 	inc  %g1
    3090:	80 a0 40 03 	cmp  %g1, %g3
    3094:	26 bf ff fc 	bl,a   3084 <core_list_mergesort.constprop.1+0x2c>
    3098:	c4 00 80 00 	ld  [ %g2 ], %g2
    309c:	b8 10 00 18 	mov  %i0, %i4
    30a0:	ba 10 00 03 	mov  %g3, %i5
    30a4:	80 a0 60 00 	cmp  %g1, 0
    30a8:	02 80 00 10 	be  30e8 <core_list_mergesort.constprop.1+0x90>
    30ac:	b0 10 00 02 	mov  %g2, %i0
    30b0:	80 a6 20 00 	cmp  %i0, 0
    30b4:	12 80 00 1f 	bne  3130 <core_list_mergesort.constprop.1+0xd8>
    30b8:	80 a7 60 00 	cmp  %i5, 0
    30bc:	b4 10 00 1c 	mov  %i4, %i2
    30c0:	82 00 7f ff 	add  %g1, -1, %g1
    30c4:	f8 07 00 00 	ld  [ %i4 ], %i4
    30c8:	80 a1 20 00 	cmp  %g4, 0
    30cc:	22 80 00 17 	be,a   3128 <core_list_mergesort.constprop.1+0xd0>
    30d0:	9a 10 00 1a 	mov  %i2, %o5
    30d4:	f4 21 00 00 	st  %i2, [ %g4 ]
    30d8:	88 10 00 1a 	mov  %i2, %g4
    30dc:	80 a0 60 00 	cmp  %g1, 0
    30e0:	12 bf ff f5 	bne  30b4 <core_list_mergesort.constprop.1+0x5c>
    30e4:	80 a6 20 00 	cmp  %i0, 0
    30e8:	80 a6 20 00 	cmp  %i0, 0
    30ec:	12 80 00 2a 	bne  3194 <core_list_mergesort.constprop.1+0x13c>
    30f0:	80 a7 60 00 	cmp  %i5, 0
    30f4:	80 a6 20 00 	cmp  %i0, 0
    30f8:	32 bf ff e0 	bne,a   3078 <core_list_mergesort.constprop.1+0x20>
    30fc:	b6 06 e0 01 	inc  %i3
    3100:	80 a6 e0 01 	cmp  %i3, 1
    3104:	02 80 00 28 	be  31a4 <core_list_mergesort.constprop.1+0x14c>
    3108:	c0 21 00 00 	clr  [ %g4 ]
    310c:	b0 10 00 0d 	mov  %o5, %i0
    3110:	80 a6 20 00 	cmp  %i0, 0
    3114:	12 bf ff d5 	bne  3068 <core_list_mergesort.constprop.1+0x10>
    3118:	86 00 c0 03 	add  %g3, %g3, %g3
    311c:	c0 20 20 00 	clr  [ %g0 ]
    3120:	81 c7 e0 08 	ret 
    3124:	81 e8 00 00 	restore 
    3128:	10 bf ff ed 	b  30dc <core_list_mergesort.constprop.1+0x84>
    312c:	88 10 00 1a 	mov  %i2, %g4
    3130:	02 bf ff e4 	be  30c0 <core_list_mergesort.constprop.1+0x68>
    3134:	b4 10 00 1c 	mov  %i4, %i2
    3138:	f4 07 20 04 	ld  [ %i4 + 4 ], %i2
    313c:	c4 06 20 04 	ld  [ %i0 + 4 ], %g2
    3140:	f2 16 80 00 	lduh  [ %i2 ], %i1
    3144:	9f 2e 60 10 	sll  %i1, 0x10, %o7
    3148:	b2 0e 7f 00 	and  %i1, -256, %i1
    314c:	9f 33 e0 18 	srl  %o7, 0x18, %o7
    3150:	b2 13 c0 19 	or  %o7, %i1, %i1
    3154:	f2 36 80 00 	sth  %i1, [ %i2 ]
    3158:	f2 10 80 00 	lduh  [ %g2 ], %i1
    315c:	9f 2e 60 10 	sll  %i1, 0x10, %o7
    3160:	b2 0e 7f 00 	and  %i1, -256, %i1
    3164:	9f 33 e0 18 	srl  %o7, 0x18, %o7
    3168:	b2 13 c0 19 	or  %o7, %i1, %i1
    316c:	f2 30 80 00 	sth  %i1, [ %g2 ]
    3170:	f4 56 a0 02 	ldsh  [ %i2 + 2 ], %i2
    3174:	c4 50 a0 02 	ldsh  [ %g2 + 2 ], %g2
    3178:	b2 26 80 02 	sub  %i2, %g2, %i1
    317c:	80 a6 60 00 	cmp  %i1, 0
    3180:	04 bf ff cf 	ble  30bc <core_list_mergesort.constprop.1+0x64>
    3184:	b4 10 00 18 	mov  %i0, %i2
    3188:	ba 07 7f ff 	add  %i5, -1, %i5
    318c:	10 bf ff cf 	b  30c8 <core_list_mergesort.constprop.1+0x70>
    3190:	f0 06 00 00 	ld  [ %i0 ], %i0
    3194:	04 bf ff d9 	ble  30f8 <core_list_mergesort.constprop.1+0xa0>
    3198:	80 a6 20 00 	cmp  %i0, 0
    319c:	10 bf ff fb 	b  3188 <core_list_mergesort.constprop.1+0x130>
    31a0:	b4 10 00 18 	mov  %i0, %i2
    31a4:	81 c7 e0 08 	ret 
    31a8:	91 e8 00 0d 	restore  %g0, %o5, %o0

000031ac <calc_func>:
    31ac:	9d e3 bf a0 	save  %sp, -96, %sp
    31b0:	fa 16 00 00 	lduh  [ %i0 ], %i5
    31b4:	80 8f 60 80 	btst  0x80, %i5
    31b8:	12 80 00 2e 	bne  3270 <calc_func+0xc4>
    31bc:	83 2f 60 10 	sll  %i5, 0x10, %g1
    31c0:	83 38 60 13 	sra  %g1, 0x13, %g1
    31c4:	84 8f 60 07 	andcc  %i5, 7, %g2
    31c8:	82 08 60 0f 	and  %g1, 0xf, %g1
    31cc:	93 28 60 04 	sll  %g1, 4, %o1
    31d0:	92 12 40 01 	or  %o1, %g1, %o1
    31d4:	02 80 00 17 	be  3230 <calc_func+0x84>
    31d8:	98 10 00 09 	mov  %o1, %o4
    31dc:	80 a0 a0 01 	cmp  %g2, 1
    31e0:	02 80 00 28 	be  3280 <calc_func+0xd4>
    31e4:	b8 10 00 1d 	mov  %i5, %i4
    31e8:	d2 16 60 38 	lduh  [ %i1 + 0x38 ], %o1
    31ec:	40 00 09 6f 	call  57a8 <crcu8>
    31f0:	90 0f 20 ff 	and  %i4, 0xff, %o0
    31f4:	83 2f 20 10 	sll  %i4, 0x10, %g1
    31f8:	87 2a 20 10 	sll  %o0, 0x10, %g3
    31fc:	91 30 60 18 	srl  %g1, 0x18, %o0
    3200:	40 00 09 6a 	call  57a8 <crcu8>
    3204:	93 30 e0 10 	srl  %g3, 0x10, %o1
    3208:	d0 36 60 38 	sth  %o0, [ %i1 + 0x38 ]
    320c:	88 0f 20 7f 	and  %i4, 0x7f, %g4
    3210:	90 0f 7f 00 	and  %i5, -256, %o0
    3214:	82 10 00 04 	mov  %g4, %g1
    3218:	94 12 20 80 	or  %o0, 0x80, %o2
    321c:	96 12 80 04 	or  %o2, %g4, %o3
    3220:	d6 36 00 00 	sth  %o3, [ %i0 ]
    3224:	b0 08 60 7f 	and  %g1, 0x7f, %i0
    3228:	81 c7 e0 08 	ret 
    322c:	81 e8 00 00 	restore 
    3230:	80 a2 60 21 	cmp  %o1, 0x21
    3234:	24 80 00 02 	ble,a   323c <calc_func+0x90>
    3238:	98 10 20 22 	mov  0x22, %o4
    323c:	d0 06 60 18 	ld  [ %i1 + 0x18 ], %o0
    3240:	d2 06 60 14 	ld  [ %i1 + 0x14 ], %o1
    3244:	d4 56 40 00 	ldsh  [ %i1 ], %o2
    3248:	d6 56 60 02 	ldsh  [ %i1 + 2 ], %o3
    324c:	98 0b 20 ff 	and  %o4, 0xff, %o4
    3250:	40 00 08 aa 	call  54f8 <core_bench_state>
    3254:	da 16 60 38 	lduh  [ %i1 + 0x38 ], %o5
    3258:	c2 16 60 3e 	lduh  [ %i1 + 0x3e ], %g1
    325c:	80 a0 60 00 	cmp  %g1, 0
    3260:	12 bf ff e2 	bne  31e8 <calc_func+0x3c>
    3264:	b8 10 00 08 	mov  %o0, %i4
    3268:	10 bf ff e0 	b  31e8 <calc_func+0x3c>
    326c:	d0 36 60 3e 	sth  %o0, [ %i1 + 0x3e ]
    3270:	82 0f 60 7f 	and  %i5, 0x7f, %g1
    3274:	b0 08 60 7f 	and  %g1, 0x7f, %i0
    3278:	81 c7 e0 08 	ret 
    327c:	81 e8 00 00 	restore 
    3280:	90 06 60 28 	add  %i1, 0x28, %o0
    3284:	40 00 06 03 	call  4a90 <core_bench_matrix>
    3288:	d4 16 60 38 	lduh  [ %i1 + 0x38 ], %o2
    328c:	c2 16 60 3c 	lduh  [ %i1 + 0x3c ], %g1
    3290:	80 a0 60 00 	cmp  %g1, 0
    3294:	12 bf ff d5 	bne  31e8 <calc_func+0x3c>
    3298:	b8 10 00 08 	mov  %o0, %i4
    329c:	10 bf ff d3 	b  31e8 <calc_func+0x3c>
    32a0:	d0 36 60 3c 	sth  %o0, [ %i1 + 0x3c ]

000032a4 <cmp_complex>:
    32a4:	9d e3 bf a0 	save  %sp, -96, %sp
    32a8:	92 10 00 1a 	mov  %i2, %o1
    32ac:	7f ff ff c0 	call  31ac <calc_func>
    32b0:	90 10 00 18 	mov  %i0, %o0
    32b4:	92 10 00 1a 	mov  %i2, %o1
    32b8:	ba 10 00 08 	mov  %o0, %i5
    32bc:	7f ff ff bc 	call  31ac <calc_func>
    32c0:	90 10 00 19 	mov  %i1, %o0
    32c4:	83 2f 60 10 	sll  %i5, 0x10, %g1
    32c8:	91 2a 20 10 	sll  %o0, 0x10, %o0
    32cc:	85 38 60 10 	sra  %g1, 0x10, %g2
    32d0:	b1 3a 20 10 	sra  %o0, 0x10, %i0
    32d4:	b0 20 80 18 	sub  %g2, %i0, %i0
    32d8:	81 c7 e0 08 	ret 
    32dc:	81 e8 00 00 	restore 

000032e0 <copy_info>:
    32e0:	c4 12 40 00 	lduh  [ %o1 ], %g2
    32e4:	c2 12 60 02 	lduh  [ %o1 + 2 ], %g1
    32e8:	c4 32 00 00 	sth  %g2, [ %o0 ]
    32ec:	81 c3 e0 08 	retl 
    32f0:	c2 32 20 02 	sth  %g1, [ %o0 + 2 ]

000032f4 <core_list_init>:
    32f4:	9d e3 bf a0 	save  %sp, -96, %sp
    32f8:	81 80 20 00 	mov  %g0, %y
    32fc:	01 00 00 00 	nop 
    3300:	01 00 00 00 	nop 
    3304:	01 00 00 00 	nop 
    3308:	b0 76 20 14 	udiv  %i0, 0x14, %i0
    330c:	c0 26 40 00 	clr  [ %i1 ]
    3310:	b6 06 3f fe 	add  %i0, -2, %i3
    3314:	83 2e e0 03 	sll  %i3, 3, %g1
    3318:	ba 06 40 01 	add  %i1, %g1, %i5
    331c:	fa 26 60 04 	st  %i5, [ %i1 + 4 ]
    3320:	05 3f ff e0 	sethi  %hi(0xffff8000), %g2
    3324:	c0 37 60 02 	clrh  [ %i5 + 2 ]
    3328:	86 10 a0 80 	or  %g2, 0x80, %g3
    332c:	c6 36 40 01 	sth  %g3, [ %i1 + %g1 ]
    3330:	89 2e e0 02 	sll  %i3, 2, %g4
    3334:	82 06 60 10 	add  %i1, 0x10, %g1
    3338:	b0 07 40 04 	add  %i5, %g4, %i0
    333c:	86 06 60 08 	add  %i1, 8, %g3
    3340:	b8 07 60 04 	add  %i5, 4, %i4
    3344:	80 a7 40 01 	cmp  %i5, %g1
    3348:	08 80 00 06 	bleu  3360 <core_list_init+0x6c>
    334c:	84 10 20 00 	clr  %g2
    3350:	88 07 60 08 	add  %i5, 8, %g4
    3354:	80 a6 00 04 	cmp  %i0, %g4
    3358:	38 80 00 41 	bgu,a   345c <core_list_init+0x168>
    335c:	c6 26 40 00 	st  %g3, [ %i1 ]
    3360:	80 a6 e0 00 	cmp  %i3, 0
    3364:	02 80 00 21 	be  33e8 <core_list_init+0xf4>
    3368:	01 00 00 00 	nop 
    336c:	17 00 00 1f 	sethi  %hi(0x7c00), %o3
    3370:	94 10 00 1a 	mov  %i2, %o2
    3374:	82 10 20 00 	clr  %g1
    3378:	96 12 e3 ff 	or  %o3, 0x3ff, %o3
    337c:	88 00 e0 08 	add  %g3, 8, %g4
    3380:	80 a7 40 04 	cmp  %i5, %g4
    3384:	28 80 00 16 	bleu,a   33dc <core_list_init+0xe8>
    3388:	82 00 60 01 	inc  %g1
    338c:	9e 07 20 04 	add  %i4, 4, %o7
    3390:	80 a6 00 0f 	cmp  %i0, %o7
    3394:	28 80 00 12 	bleu,a   33dc <core_list_init+0xe8>
    3398:	82 00 60 01 	inc  %g1
    339c:	c4 20 c0 00 	st  %g2, [ %g3 ]
    33a0:	f8 20 e0 04 	st  %i4, [ %g3 + 4 ]
    33a4:	c6 26 40 00 	st  %g3, [ %i1 ]
    33a8:	9a 08 60 07 	and  %g1, 7, %o5
    33ac:	98 18 40 0a 	xor  %g1, %o2, %o4
    33b0:	d6 37 20 02 	sth  %o3, [ %i4 + 2 ]
    33b4:	98 0b 20 0f 	and  %o4, 0xf, %o4
    33b8:	84 10 00 03 	mov  %g3, %g2
    33bc:	99 2b 20 03 	sll  %o4, 3, %o4
    33c0:	86 10 00 04 	mov  %g4, %g3
    33c4:	88 13 00 0d 	or  %o4, %o5, %g4
    33c8:	9b 29 20 08 	sll  %g4, 8, %o5
    33cc:	88 13 40 04 	or  %o5, %g4, %g4
    33d0:	c8 37 00 00 	sth  %g4, [ %i4 ]
    33d4:	b8 10 00 0f 	mov  %o7, %i4
    33d8:	82 00 60 01 	inc  %g1
    33dc:	80 a6 c0 01 	cmp  %i3, %g1
    33e0:	32 bf ff e8 	bne,a   3380 <core_list_init+0x8c>
    33e4:	88 00 e0 08 	add  %g3, 8, %g4
    33e8:	81 80 20 00 	mov  %g0, %y
    33ec:	01 00 00 00 	nop 
    33f0:	01 00 00 00 	nop 
    33f4:	01 00 00 00 	nop 
    33f8:	ba 76 e0 05 	udiv  %i3, 5, %i5
    33fc:	82 10 20 01 	mov  1, %g1
    3400:	37 00 00 0f 	sethi  %hi(0x3c00), %i3
    3404:	88 10 20 02 	mov  2, %g4
    3408:	10 80 00 06 	b  3420 <core_list_init+0x12c>
    340c:	b0 16 e3 ff 	or  %i3, 0x3ff, %i0
    3410:	c2 30 a0 02 	sth  %g1, [ %g2 + 2 ]
    3414:	88 01 20 01 	inc  %g4
    3418:	82 00 60 01 	inc  %g1
    341c:	84 10 00 03 	mov  %g3, %g2
    3420:	c6 00 80 00 	ld  [ %g2 ], %g3
    3424:	80 a0 e0 00 	cmp  %g3, 0
    3428:	02 80 00 0b 	be  3454 <core_list_init+0x160>
    342c:	80 a7 40 01 	cmp  %i5, %g1
    3430:	18 bf ff f8 	bgu  3410 <core_list_init+0x11c>
    3434:	c4 00 a0 04 	ld  [ %g2 + 4 ], %g2
    3438:	b8 09 20 07 	and  %g4, 7, %i4
    343c:	b9 2f 20 08 	sll  %i4, 8, %i4
    3440:	b6 18 40 1a 	xor  %g1, %i2, %i3
    3444:	b6 17 00 1b 	or  %i4, %i3, %i3
    3448:	b8 0e c0 18 	and  %i3, %i0, %i4
    344c:	10 bf ff f2 	b  3414 <core_list_init+0x120>
    3450:	f8 30 a0 02 	sth  %i4, [ %g2 + 2 ]
    3454:	7f ff ff 01 	call  3058 <core_list_mergesort.constprop.1>
    3458:	91 e8 00 19 	restore  %g0, %i1, %o0
    345c:	f8 26 60 0c 	st  %i4, [ %i1 + 0xc ]
    3460:	c0 26 60 08 	clr  [ %i1 + 8 ]
    3464:	b8 10 3f ff 	mov  -1, %i4
    3468:	84 10 00 03 	mov  %g3, %g2
    346c:	f8 37 60 04 	sth  %i4, [ %i5 + 4 ]
    3470:	07 00 00 1f 	sethi  %hi(0x7c00), %g3
    3474:	b8 10 e3 ff 	or  %g3, 0x3ff, %i4	! 7fff <ee_printf+0x237>
    3478:	86 10 00 01 	mov  %g1, %g3
    347c:	f8 37 60 06 	sth  %i4, [ %i5 + 6 ]
    3480:	10 bf ff b8 	b  3360 <core_list_init+0x6c>
    3484:	b8 10 00 04 	mov  %g4, %i4

00003488 <core_list_insert_new>:
    3488:	c2 02 80 00 	ld  [ %o2 ], %g1
    348c:	84 00 60 08 	add  %g1, 8, %g2
    3490:	80 a0 80 0c 	cmp  %g2, %o4
    3494:	3a 80 00 17 	bcc,a   34f0 <core_list_insert_new+0x68>
    3498:	82 10 20 00 	clr  %g1
    349c:	c6 02 c0 00 	ld  [ %o3 ], %g3
    34a0:	88 00 e0 04 	add  %g3, 4, %g4
    34a4:	80 a3 40 04 	cmp  %o5, %g4
    34a8:	28 80 00 12 	bleu,a   34f0 <core_list_insert_new+0x68>
    34ac:	82 10 20 00 	clr  %g1
    34b0:	c4 22 80 00 	st  %g2, [ %o2 ]
    34b4:	d4 02 00 00 	ld  [ %o0 ], %o2
    34b8:	d4 20 40 00 	st  %o2, [ %g1 ]
    34bc:	c2 22 00 00 	st  %g1, [ %o0 ]
    34c0:	d0 02 c0 00 	ld  [ %o3 ], %o0
    34c4:	d0 20 60 04 	st  %o0, [ %g1 + 4 ]
    34c8:	d8 02 c0 00 	ld  [ %o3 ], %o4
    34cc:	9a 03 20 04 	add  %o4, 4, %o5
    34d0:	da 22 c0 00 	st  %o5, [ %o3 ]
    34d4:	90 10 00 01 	mov  %g1, %o0
    34d8:	d6 12 40 00 	lduh  [ %o1 ], %o3
    34dc:	c4 00 60 04 	ld  [ %g1 + 4 ], %g2
    34e0:	d2 12 60 02 	lduh  [ %o1 + 2 ], %o1
    34e4:	d6 30 80 00 	sth  %o3, [ %g2 ]
    34e8:	81 c3 e0 08 	retl 
    34ec:	d2 30 a0 02 	sth  %o1, [ %g2 + 2 ]
    34f0:	81 c3 e0 08 	retl 
    34f4:	90 10 00 01 	mov  %g1, %o0

000034f8 <core_list_remove>:
    34f8:	c2 02 00 00 	ld  [ %o0 ], %g1
    34fc:	c4 02 20 04 	ld  [ %o0 + 4 ], %g2
    3500:	c8 00 60 04 	ld  [ %g1 + 4 ], %g4
    3504:	c6 00 40 00 	ld  [ %g1 ], %g3
    3508:	c8 22 20 04 	st  %g4, [ %o0 + 4 ]
    350c:	c6 22 00 00 	st  %g3, [ %o0 ]
    3510:	c4 20 60 04 	st  %g2, [ %g1 + 4 ]
    3514:	c0 20 40 00 	clr  [ %g1 ]
    3518:	81 c3 e0 08 	retl 
    351c:	90 10 00 01 	mov  %g1, %o0

00003520 <core_list_undo_remove>:
    3520:	c4 02 20 04 	ld  [ %o0 + 4 ], %g2
    3524:	c8 02 60 04 	ld  [ %o1 + 4 ], %g4
    3528:	c6 02 40 00 	ld  [ %o1 ], %g3
    352c:	c8 22 20 04 	st  %g4, [ %o0 + 4 ]
    3530:	c6 22 00 00 	st  %g3, [ %o0 ]
    3534:	c4 22 60 04 	st  %g2, [ %o1 + 4 ]
    3538:	81 c3 e0 08 	retl 
    353c:	d0 22 40 00 	st  %o0, [ %o1 ]

00003540 <core_list_find>:
    3540:	c4 52 60 02 	ldsh  [ %o1 + 2 ], %g2
    3544:	80 a0 a0 00 	cmp  %g2, 0
    3548:	06 80 00 14 	bl  3598 <core_list_find+0x58>
    354c:	80 a2 20 00 	cmp  %o0, 0
    3550:	02 80 00 23 	be  35dc <core_list_find+0x9c>
    3554:	01 00 00 00 	nop 
    3558:	c2 02 20 04 	ld  [ %o0 + 4 ], %g1
    355c:	c2 50 60 02 	ldsh  [ %g1 + 2 ], %g1
    3560:	80 a0 80 01 	cmp  %g2, %g1
    3564:	32 80 00 08 	bne,a   3584 <core_list_find+0x44>
    3568:	d0 02 00 00 	ld  [ %o0 ], %o0
    356c:	30 80 00 1c 	b,a   35dc <core_list_find+0x9c>
    3570:	c2 50 60 02 	ldsh  [ %g1 + 2 ], %g1
    3574:	80 a0 80 01 	cmp  %g2, %g1
    3578:	02 80 00 19 	be  35dc <core_list_find+0x9c>
    357c:	01 00 00 00 	nop 
    3580:	d0 02 00 00 	ld  [ %o0 ], %o0
    3584:	80 a2 20 00 	cmp  %o0, 0
    3588:	32 bf ff fa 	bne,a   3570 <core_list_find+0x30>
    358c:	c2 02 20 04 	ld  [ %o0 + 4 ], %g1
    3590:	81 c3 e0 08 	retl 
    3594:	01 00 00 00 	nop 
    3598:	02 80 00 11 	be  35dc <core_list_find+0x9c>
    359c:	01 00 00 00 	nop 
    35a0:	c6 52 40 00 	ldsh  [ %o1 ], %g3
    35a4:	c2 02 20 04 	ld  [ %o0 + 4 ], %g1
    35a8:	c2 08 60 01 	ldub  [ %g1 + 1 ], %g1
    35ac:	80 a0 40 03 	cmp  %g1, %g3
    35b0:	32 80 00 08 	bne,a   35d0 <core_list_find+0x90>
    35b4:	d0 02 00 00 	ld  [ %o0 ], %o0
    35b8:	30 80 00 09 	b,a   35dc <core_list_find+0x9c>
    35bc:	c2 08 60 01 	ldub  [ %g1 + 1 ], %g1
    35c0:	80 a0 40 03 	cmp  %g1, %g3
    35c4:	02 80 00 06 	be  35dc <core_list_find+0x9c>
    35c8:	01 00 00 00 	nop 
    35cc:	d0 02 00 00 	ld  [ %o0 ], %o0
    35d0:	80 a2 20 00 	cmp  %o0, 0
    35d4:	32 bf ff fa 	bne,a   35bc <core_list_find+0x7c>
    35d8:	c2 02 20 04 	ld  [ %o0 + 4 ], %g1
    35dc:	81 c3 e0 08 	retl 
    35e0:	01 00 00 00 	nop 

000035e4 <core_list_reverse>:
    35e4:	80 a2 20 00 	cmp  %o0, 0
    35e8:	02 80 00 0c 	be  3618 <core_list_reverse+0x34>
    35ec:	84 10 20 00 	clr  %g2
    35f0:	10 80 00 04 	b  3600 <core_list_reverse+0x1c>
    35f4:	c2 02 00 00 	ld  [ %o0 ], %g1
    35f8:	90 10 00 01 	mov  %g1, %o0
    35fc:	c2 02 00 00 	ld  [ %o0 ], %g1
    3600:	c4 22 00 00 	st  %g2, [ %o0 ]
    3604:	80 a0 60 00 	cmp  %g1, 0
    3608:	12 bf ff fc 	bne  35f8 <core_list_reverse+0x14>
    360c:	84 10 00 08 	mov  %o0, %g2
    3610:	81 c3 e0 08 	retl 
    3614:	01 00 00 00 	nop 
    3618:	81 c3 e0 08 	retl 
    361c:	90 10 20 00 	clr  %o0	! 0 <_start>

00003620 <core_list_mergesort>:
    3620:	9d e3 bf a0 	save  %sp, -96, %sp
    3624:	80 a6 20 00 	cmp  %i0, 0
    3628:	02 80 00 2d 	be  36dc <core_list_mergesort+0xbc>
    362c:	b6 10 20 01 	mov  1, %i3
    3630:	a2 10 00 18 	mov  %i0, %l1
    3634:	a6 10 20 00 	clr  %l3
    3638:	a0 10 20 00 	clr  %l0
    363c:	b0 10 20 00 	clr  %i0
    3640:	a6 04 e0 01 	inc  %l3
    3644:	ba 10 00 11 	mov  %l1, %i5
    3648:	b8 10 20 00 	clr  %i4
    364c:	fa 07 40 00 	ld  [ %i5 ], %i5
    3650:	80 a7 60 00 	cmp  %i5, 0
    3654:	02 80 00 05 	be  3668 <core_list_mergesort+0x48>
    3658:	b8 07 20 01 	inc  %i4
    365c:	80 a6 c0 1c 	cmp  %i3, %i4
    3660:	34 bf ff fc 	bg,a   3650 <core_list_mergesort+0x30>
    3664:	fa 07 40 00 	ld  [ %i5 ], %i5
    3668:	80 a7 20 00 	cmp  %i4, 0
    366c:	02 80 00 10 	be  36ac <core_list_mergesort+0x8c>
    3670:	a4 10 00 1b 	mov  %i3, %l2
    3674:	80 a7 60 00 	cmp  %i5, 0
    3678:	12 80 00 1e 	bne  36f0 <core_list_mergesort+0xd0>
    367c:	80 a4 a0 00 	cmp  %l2, 0
    3680:	82 10 00 11 	mov  %l1, %g1
    3684:	b8 07 3f ff 	add  %i4, -1, %i4
    3688:	e2 04 40 00 	ld  [ %l1 ], %l1
    368c:	80 a4 20 00 	cmp  %l0, 0
    3690:	22 80 00 16 	be,a   36e8 <core_list_mergesort+0xc8>
    3694:	b0 10 00 01 	mov  %g1, %i0
    3698:	c2 24 00 00 	st  %g1, [ %l0 ]
    369c:	a0 10 00 01 	mov  %g1, %l0
    36a0:	80 a7 20 00 	cmp  %i4, 0
    36a4:	12 bf ff f5 	bne  3678 <core_list_mergesort+0x58>
    36a8:	80 a7 60 00 	cmp  %i5, 0
    36ac:	80 a7 60 00 	cmp  %i5, 0
    36b0:	12 80 00 1c 	bne  3720 <core_list_mergesort+0x100>
    36b4:	80 a4 a0 00 	cmp  %l2, 0
    36b8:	a2 97 60 00 	orcc  %i5, 0, %l1
    36bc:	32 bf ff e2 	bne,a   3644 <core_list_mergesort+0x24>
    36c0:	a6 04 e0 01 	inc  %l3
    36c4:	80 a4 e0 01 	cmp  %l3, 1
    36c8:	02 80 00 06 	be  36e0 <core_list_mergesort+0xc0>
    36cc:	c0 24 00 00 	clr  [ %l0 ]
    36d0:	80 a6 20 00 	cmp  %i0, 0
    36d4:	12 bf ff d7 	bne  3630 <core_list_mergesort+0x10>
    36d8:	b6 06 c0 1b 	add  %i3, %i3, %i3
    36dc:	c0 20 20 00 	clr  [ %g0 ]
    36e0:	81 c7 e0 08 	ret 
    36e4:	81 e8 00 00 	restore 
    36e8:	10 bf ff ee 	b  36a0 <core_list_mergesort+0x80>
    36ec:	a0 10 00 01 	mov  %g1, %l0
    36f0:	02 bf ff e5 	be  3684 <core_list_mergesort+0x64>
    36f4:	82 10 00 11 	mov  %l1, %g1
    36f8:	d0 04 60 04 	ld  [ %l1 + 4 ], %o0
    36fc:	d2 07 60 04 	ld  [ %i5 + 4 ], %o1
    3700:	9f c6 40 00 	call  %i1
    3704:	94 10 00 1a 	mov  %i2, %o2
    3708:	80 a2 20 00 	cmp  %o0, 0
    370c:	04 bf ff dd 	ble  3680 <core_list_mergesort+0x60>
    3710:	82 10 00 1d 	mov  %i5, %g1
    3714:	a4 04 bf ff 	add  %l2, -1, %l2
    3718:	10 bf ff dd 	b  368c <core_list_mergesort+0x6c>
    371c:	fa 07 40 00 	ld  [ %i5 ], %i5
    3720:	24 bf ff e7 	ble,a   36bc <core_list_mergesort+0x9c>
    3724:	a2 97 60 00 	orcc  %i5, 0, %l1
    3728:	10 bf ff fb 	b  3714 <core_list_mergesort+0xf4>
    372c:	82 10 00 1d 	mov  %i5, %g1

00003730 <core_bench_list>:
    3730:	9d e3 bf a0 	save  %sp, -96, %sp
    3734:	da 56 20 04 	ldsh  [ %i0 + 4 ], %o5
    3738:	80 a3 60 00 	cmp  %o5, 0
    373c:	04 80 00 c6 	ble  3a54 <core_bench_list+0x324>
    3740:	fa 06 20 24 	ld  [ %i0 + 0x24 ], %i5
    3744:	b4 10 00 19 	mov  %i1, %i2
    3748:	88 10 20 00 	clr  %g4
    374c:	98 10 20 00 	clr  %o4
    3750:	9e 10 20 00 	clr  %o7
    3754:	b8 10 20 00 	clr  %i4
    3758:	b7 2e a0 10 	sll  %i2, 0x10, %i3
    375c:	82 09 20 ff 	and  %g4, 0xff, %g1
    3760:	87 3e e0 10 	sra  %i3, 0x10, %g3
    3764:	80 a0 e0 00 	cmp  %g3, 0
    3768:	06 80 00 84 	bl  3978 <core_bench_list+0x248>
    376c:	a0 10 00 01 	mov  %g1, %l0
    3770:	80 a7 60 00 	cmp  %i5, 0
    3774:	22 80 00 96 	be,a   39cc <core_bench_list+0x29c>
    3778:	c2 07 40 00 	ld  [ %i5 ], %g1
    377c:	c2 07 60 04 	ld  [ %i5 + 4 ], %g1
    3780:	d4 50 60 02 	ldsh  [ %g1 + 2 ], %o2
    3784:	80 a0 c0 0a 	cmp  %g3, %o2
    3788:	12 80 00 08 	bne  37a8 <core_bench_list+0x78>
    378c:	82 10 00 1d 	mov  %i5, %g1
    3790:	10 80 00 0e 	b  37c8 <core_bench_list+0x98>
    3794:	86 10 20 00 	clr  %g3
    3798:	d0 52 e0 02 	ldsh  [ %o3 + 2 ], %o0
    379c:	80 a0 c0 08 	cmp  %g3, %o0
    37a0:	22 80 00 0a 	be,a   37c8 <core_bench_list+0x98>
    37a4:	86 10 20 00 	clr  %g3
    37a8:	c2 00 40 00 	ld  [ %g1 ], %g1
    37ac:	80 a0 60 00 	cmp  %g1, 0
    37b0:	32 bf ff fa 	bne,a   3798 <core_bench_list+0x68>
    37b4:	d6 00 60 04 	ld  [ %g1 + 4 ], %o3
    37b8:	82 10 20 00 	clr  %g1
    37bc:	10 80 00 03 	b  37c8 <core_bench_list+0x98>
    37c0:	86 10 20 00 	clr  %g3
    37c4:	ba 10 00 02 	mov  %g2, %i5
    37c8:	c4 07 40 00 	ld  [ %i5 ], %g2
    37cc:	c6 27 40 00 	st  %g3, [ %i5 ]
    37d0:	80 a0 a0 00 	cmp  %g2, 0
    37d4:	12 bf ff fc 	bne  37c4 <core_bench_list+0x94>
    37d8:	86 10 00 1d 	mov  %i5, %g3
    37dc:	80 a0 60 00 	cmp  %g1, 0
    37e0:	22 80 00 7b 	be,a   39cc <core_bench_list+0x29c>
    37e4:	c2 07 40 00 	ld  [ %i5 ], %g1
    37e8:	d2 00 60 04 	ld  [ %g1 + 4 ], %o1
    37ec:	d4 12 40 00 	lduh  [ %o1 ], %o2
    37f0:	80 8a a0 01 	btst  1, %o2
    37f4:	02 80 00 05 	be  3808 <core_bench_list+0xd8>
    37f8:	9e 03 e0 01 	inc  %o7
    37fc:	97 32 a0 09 	srl  %o2, 9, %o3
    3800:	90 0a e0 01 	and  %o3, 1, %o0
    3804:	b8 02 00 1c 	add  %o0, %i4, %i4
    3808:	c4 00 40 00 	ld  [ %g1 ], %g2
    380c:	80 a0 a0 00 	cmp  %g2, 0
    3810:	02 80 00 08 	be  3830 <core_bench_list+0x100>
    3814:	80 a6 e0 00 	cmp  %i3, 0
    3818:	c6 00 80 00 	ld  [ %g2 ], %g3
    381c:	c6 20 40 00 	st  %g3, [ %g1 ]
    3820:	c2 07 40 00 	ld  [ %i5 ], %g1
    3824:	c2 20 80 00 	st  %g1, [ %g2 ]
    3828:	c4 27 40 00 	st  %g2, [ %i5 ]
    382c:	80 a6 e0 00 	cmp  %i3, 0
    3830:	06 80 00 04 	bl  3840 <core_bench_list+0x110>
    3834:	88 01 20 01 	inc  %g4
    3838:	b4 06 a0 01 	inc  %i2
    383c:	b7 2e a0 10 	sll  %i2, 0x10, %i3
    3840:	83 29 20 10 	sll  %g4, 0x10, %g1
    3844:	83 38 60 10 	sra  %g1, 0x10, %g1
    3848:	80 a0 40 0d 	cmp  %g1, %o5
    384c:	12 bf ff c5 	bne  3760 <core_bench_list+0x30>
    3850:	82 09 20 ff 	and  %g4, 0xff, %g1
    3854:	9b 2b e0 02 	sll  %o7, 2, %o5
    3858:	98 23 40 0c 	sub  %o5, %o4, %o4
    385c:	b8 03 00 1c 	add  %o4, %i4, %i4
    3860:	80 a6 60 00 	cmp  %i1, 0
    3864:	04 80 00 07 	ble  3880 <core_bench_list+0x150>
    3868:	90 10 00 1d 	mov  %i5, %o0
    386c:	94 10 00 18 	mov  %i0, %o2
    3870:	31 00 00 0c 	sethi  %hi(0x3000), %i0
    3874:	7f ff ff 6b 	call  3620 <core_list_mergesort>
    3878:	92 16 22 a4 	or  %i0, 0x2a4, %o1	! 32a4 <cmp_complex>
    387c:	ba 10 00 08 	mov  %o0, %i5
    3880:	c2 07 40 00 	ld  [ %i5 ], %g1
    3884:	f4 00 40 00 	ld  [ %g1 ], %i2
    3888:	d0 00 60 04 	ld  [ %g1 + 4 ], %o0
    388c:	f2 06 a0 04 	ld  [ %i2 + 4 ], %i1
    3890:	d2 06 80 00 	ld  [ %i2 ], %o1
    3894:	f2 20 60 04 	st  %i1, [ %g1 + 4 ]
    3898:	d2 20 40 00 	st  %o1, [ %g1 ]
    389c:	d0 26 a0 04 	st  %o0, [ %i2 + 4 ]
    38a0:	c0 26 80 00 	clr  [ %i2 ]
    38a4:	b7 3e e0 10 	sra  %i3, 0x10, %i3
    38a8:	80 a6 e0 00 	cmp  %i3, 0
    38ac:	06 80 00 59 	bl  3a10 <core_bench_list+0x2e0>
    38b0:	82 10 00 1d 	mov  %i5, %g1
    38b4:	de 00 60 04 	ld  [ %g1 + 4 ], %o7
    38b8:	d4 53 e0 02 	ldsh  [ %o7 + 2 ], %o2
    38bc:	80 a6 c0 0a 	cmp  %i3, %o2
    38c0:	22 80 00 49 	be,a   39e4 <core_bench_list+0x2b4>
    38c4:	b0 10 00 01 	mov  %g1, %i0
    38c8:	c2 00 40 00 	ld  [ %g1 ], %g1
    38cc:	80 a0 60 00 	cmp  %g1, 0
    38d0:	32 bf ff fa 	bne,a   38b8 <core_bench_list+0x188>
    38d4:	de 00 60 04 	ld  [ %g1 + 4 ], %o7
    38d8:	c2 07 40 00 	ld  [ %i5 ], %g1
    38dc:	b0 90 60 00 	orcc  %g1, 0, %i0
    38e0:	22 80 00 0e 	be,a   3918 <core_bench_list+0x1e8>
    38e4:	c6 00 60 04 	ld  [ %g1 + 4 ], %g3
    38e8:	97 2f 20 10 	sll  %i4, 0x10, %o3
    38ec:	c2 07 60 04 	ld  [ %i5 + 4 ], %g1
    38f0:	93 32 e0 10 	srl  %o3, 0x10, %o1
    38f4:	40 00 0c c2 	call  6bfc <crc16>
    38f8:	d0 50 40 00 	ldsh  [ %g1 ], %o0
    38fc:	f0 06 00 00 	ld  [ %i0 ], %i0
    3900:	80 a6 20 00 	cmp  %i0, 0
    3904:	12 80 00 38 	bne  39e4 <core_bench_list+0x2b4>
    3908:	b8 10 00 08 	mov  %o0, %i4
    390c:	d0 06 a0 04 	ld  [ %i2 + 4 ], %o0
    3910:	c2 07 40 00 	ld  [ %i5 ], %g1
    3914:	c6 00 60 04 	ld  [ %g1 + 4 ], %g3
    3918:	c4 00 40 00 	ld  [ %g1 ], %g2
    391c:	c6 26 a0 04 	st  %g3, [ %i2 + 4 ]
    3920:	c4 26 80 00 	st  %g2, [ %i2 ]
    3924:	d0 20 60 04 	st  %o0, [ %g1 + 4 ]
    3928:	f4 20 40 00 	st  %i2, [ %g1 ]
    392c:	7f ff fd cb 	call  3058 <core_list_mergesort.constprop.1>
    3930:	90 10 00 1d 	mov  %i5, %o0
    3934:	e0 02 00 00 	ld  [ %o0 ], %l0
    3938:	80 a4 20 00 	cmp  %l0, 0
    393c:	02 80 00 0b 	be  3968 <core_bench_list+0x238>
    3940:	b2 10 00 08 	mov  %o0, %i1
    3944:	c2 06 60 04 	ld  [ %i1 + 4 ], %g1
    3948:	b9 2f 20 10 	sll  %i4, 0x10, %i4
    394c:	d0 50 40 00 	ldsh  [ %g1 ], %o0
    3950:	40 00 0c ab 	call  6bfc <crc16>
    3954:	93 37 20 10 	srl  %i4, 0x10, %o1
    3958:	e0 04 00 00 	ld  [ %l0 ], %l0
    395c:	80 a4 20 00 	cmp  %l0, 0
    3960:	12 bf ff f9 	bne  3944 <core_bench_list+0x214>
    3964:	b8 10 00 08 	mov  %o0, %i4
    3968:	89 2f 20 10 	sll  %i4, 0x10, %g4
    396c:	b1 31 20 10 	srl  %g4, 0x10, %i0
    3970:	81 c7 e0 08 	ret 
    3974:	81 e8 00 00 	restore 
    3978:	80 a7 60 00 	cmp  %i5, 0
    397c:	02 80 00 13 	be  39c8 <core_bench_list+0x298>
    3980:	90 10 00 01 	mov  %g1, %o0
    3984:	c2 07 60 04 	ld  [ %i5 + 4 ], %g1
    3988:	c2 08 60 01 	ldub  [ %g1 + 1 ], %g1
    398c:	80 a0 40 08 	cmp  %g1, %o0
    3990:	12 80 00 08 	bne  39b0 <core_bench_list+0x280>
    3994:	82 10 00 1d 	mov  %i5, %g1
    3998:	10 bf ff 8c 	b  37c8 <core_bench_list+0x98>
    399c:	86 10 20 00 	clr  %g3
    39a0:	d2 08 a0 01 	ldub  [ %g2 + 1 ], %o1
    39a4:	80 a2 40 08 	cmp  %o1, %o0
    39a8:	02 bf ff 88 	be  37c8 <core_bench_list+0x98>
    39ac:	86 10 20 00 	clr  %g3
    39b0:	c2 00 40 00 	ld  [ %g1 ], %g1
    39b4:	80 a0 60 00 	cmp  %g1, 0
    39b8:	32 bf ff fa 	bne,a   39a0 <core_bench_list+0x270>
    39bc:	c4 00 60 04 	ld  [ %g1 + 4 ], %g2
    39c0:	10 bf ff 82 	b  37c8 <core_bench_list+0x98>
    39c4:	86 10 20 00 	clr  %g3
    39c8:	c2 07 40 00 	ld  [ %i5 ], %g1
    39cc:	98 03 20 01 	inc  %o4
    39d0:	c2 00 60 04 	ld  [ %g1 + 4 ], %g1
    39d4:	c2 48 40 00 	ldsb  [ %g1 ], %g1
    39d8:	82 08 60 01 	and  %g1, 1, %g1
    39dc:	10 bf ff 94 	b  382c <core_bench_list+0xfc>
    39e0:	b8 00 40 1c 	add  %g1, %i4, %i4
    39e4:	97 2f 20 10 	sll  %i4, 0x10, %o3
    39e8:	c2 07 60 04 	ld  [ %i5 + 4 ], %g1
    39ec:	93 32 e0 10 	srl  %o3, 0x10, %o1
    39f0:	40 00 0c 83 	call  6bfc <crc16>
    39f4:	d0 50 40 00 	ldsh  [ %g1 ], %o0
    39f8:	f0 06 00 00 	ld  [ %i0 ], %i0
    39fc:	80 a6 20 00 	cmp  %i0, 0
    3a00:	12 bf ff f9 	bne  39e4 <core_bench_list+0x2b4>
    3a04:	b8 10 00 08 	mov  %o0, %i4
    3a08:	10 bf ff c2 	b  3910 <core_bench_list+0x1e0>
    3a0c:	d0 06 a0 04 	ld  [ %i2 + 4 ], %o0
    3a10:	a0 0c 20 ff 	and  %l0, 0xff, %l0
    3a14:	b0 10 00 1d 	mov  %i5, %i0
    3a18:	c2 06 20 04 	ld  [ %i0 + 4 ], %g1
    3a1c:	c2 08 60 01 	ldub  [ %g1 + 1 ], %g1
    3a20:	80 a0 40 10 	cmp  %g1, %l0
    3a24:	02 bf ff f1 	be  39e8 <core_bench_list+0x2b8>
    3a28:	97 2f 20 10 	sll  %i4, 0x10, %o3
    3a2c:	f0 06 00 00 	ld  [ %i0 ], %i0
    3a30:	80 a6 20 00 	cmp  %i0, 0
    3a34:	32 bf ff fa 	bne,a   3a1c <core_bench_list+0x2ec>
    3a38:	c2 06 20 04 	ld  [ %i0 + 4 ], %g1
    3a3c:	c2 07 40 00 	ld  [ %i5 ], %g1
    3a40:	b0 90 60 00 	orcc  %g1, 0, %i0
    3a44:	32 bf ff ab 	bne,a   38f0 <core_bench_list+0x1c0>
    3a48:	c2 07 60 04 	ld  [ %i5 + 4 ], %g1
    3a4c:	10 bf ff b3 	b  3918 <core_bench_list+0x1e8>
    3a50:	c6 00 60 04 	ld  [ %g1 + 4 ], %g3
    3a54:	b8 10 20 00 	clr  %i4
    3a58:	a0 10 20 00 	clr  %l0
    3a5c:	10 bf ff 81 	b  3860 <core_bench_list+0x130>
    3a60:	b7 2e 60 10 	sll  %i1, 0x10, %i3

00003a64 <iterate>:
    3a64:	9d e3 bf a0 	save  %sp, -96, %sp
    3a68:	11 00 00 80 	sethi  %hi(0x20000), %o0
    3a6c:	f8 06 20 1c 	ld  [ %i0 + 0x1c ], %i4
    3a70:	c0 36 20 38 	clrh  [ %i0 + 0x38 ]
    3a74:	c0 36 20 3a 	clrh  [ %i0 + 0x3a ]
    3a78:	c0 36 20 3c 	clrh  [ %i0 + 0x3c ]
    3a7c:	c0 36 20 3e 	clrh  [ %i0 + 0x3e ]
    3a80:	90 12 20 20 	or  %o0, 0x20, %o0
    3a84:	40 00 10 d1 	call  7dc8 <ee_printf>
    3a88:	92 10 00 1c 	mov  %i4, %o1
    3a8c:	80 a7 20 00 	cmp  %i4, 0
    3a90:	02 80 00 19 	be  3af4 <iterate+0x90>
    3a94:	ba 10 20 00 	clr  %i5
    3a98:	92 10 20 01 	mov  1, %o1
    3a9c:	7f ff ff 25 	call  3730 <core_bench_list>
    3aa0:	90 10 00 18 	mov  %i0, %o0
    3aa4:	83 2a 20 10 	sll  %o0, 0x10, %g1
    3aa8:	d2 16 20 38 	lduh  [ %i0 + 0x38 ], %o1
    3aac:	40 00 08 0c 	call  5adc <crcu16>
    3ab0:	91 30 60 10 	srl  %g1, 0x10, %o0
    3ab4:	92 10 3f ff 	mov  -1, %o1
    3ab8:	d0 36 20 38 	sth  %o0, [ %i0 + 0x38 ]
    3abc:	7f ff ff 1d 	call  3730 <core_bench_list>
    3ac0:	90 10 00 18 	mov  %i0, %o0
    3ac4:	85 2a 20 10 	sll  %o0, 0x10, %g2
    3ac8:	d2 16 20 38 	lduh  [ %i0 + 0x38 ], %o1
    3acc:	40 00 08 04 	call  5adc <crcu16>
    3ad0:	91 30 a0 10 	srl  %g2, 0x10, %o0
    3ad4:	80 a7 60 00 	cmp  %i5, 0
    3ad8:	12 80 00 03 	bne  3ae4 <iterate+0x80>
    3adc:	d0 36 20 38 	sth  %o0, [ %i0 + 0x38 ]
    3ae0:	d0 36 20 3a 	sth  %o0, [ %i0 + 0x3a ]
    3ae4:	ba 07 60 01 	inc  %i5
    3ae8:	80 a7 40 1c 	cmp  %i5, %i4
    3aec:	12 bf ff ec 	bne  3a9c <iterate+0x38>
    3af0:	92 10 20 01 	mov  1, %o1
    3af4:	81 c7 e0 08 	ret 
    3af8:	91 e8 20 00 	restore  %g0, 0, %o0

00003afc <ajit_main>:
    3afc:	9d e3 bf 38 	save  %sp, -200, %sp
    3b00:	40 00 05 1c 	call  4f70 <portable_init>
    3b04:	90 07 bf fa 	add  %fp, -6, %o0
    3b08:	40 00 07 0a 	call  5730 <get_seed_32>
    3b0c:	90 10 20 01 	mov  1, %o0
    3b10:	d0 37 bf b8 	sth  %o0, [ %fp + -72 ]
    3b14:	40 00 07 07 	call  5730 <get_seed_32>
    3b18:	90 10 20 02 	mov  2, %o0
    3b1c:	d0 37 bf ba 	sth  %o0, [ %fp + -70 ]
    3b20:	40 00 07 04 	call  5730 <get_seed_32>
    3b24:	90 10 20 03 	mov  3, %o0
    3b28:	d0 37 bf bc 	sth  %o0, [ %fp + -68 ]
    3b2c:	40 00 07 01 	call  5730 <get_seed_32>
    3b30:	90 10 20 04 	mov  4, %o0
    3b34:	d0 27 bf d4 	st  %o0, [ %fp + -44 ]
    3b38:	40 00 06 fe 	call  5730 <get_seed_32>
    3b3c:	90 10 20 05 	mov  5, %o0
    3b40:	82 92 20 00 	orcc  %o0, 0, %g1
    3b44:	22 80 01 df 	be,a   42c0 <ajit_main+0x7c4>
    3b48:	82 10 20 07 	mov  7, %g1
    3b4c:	88 08 60 01 	and  %g1, 1, %g4
    3b50:	c2 27 bf d8 	st  %g1, [ %fp + -40 ]
    3b54:	b6 10 00 04 	mov  %g4, %i3
    3b58:	d0 07 bf b8 	ld  [ %fp + -72 ], %o0
    3b5c:	80 a2 20 00 	cmp  %o0, 0
    3b60:	12 80 01 ad 	bne  4214 <ajit_main+0x718>
    3b64:	13 00 00 40 	sethi  %hi(0x10000), %o1
    3b68:	c4 57 bf bc 	ldsh  [ %fp + -68 ], %g2
    3b6c:	80 a0 a0 00 	cmp  %g2, 0
    3b70:	22 80 01 a4 	be,a   4200 <ajit_main+0x704>
    3b74:	c0 37 bf b8 	clrh  [ %fp + -72 ]
    3b78:	80 a0 00 04 	cmp  %g0, %g4
    3b7c:	1f 00 00 81 	sethi  %hi(0x20400), %o7
    3b80:	c0 37 bf f8 	clrh  [ %fp + -8 ]
    3b84:	ba 40 20 00 	addx  %g0, 0, %i5
    3b88:	a0 13 e3 10 	or  %o7, 0x310, %l0
    3b8c:	84 88 60 02 	andcc  %g1, 2, %g2
    3b90:	e0 27 bf c0 	st  %l0, [ %fp + -64 ]
    3b94:	12 80 00 03 	bne  3ba0 <ajit_main+0xa4>
    3b98:	a4 07 60 01 	add  %i5, 1, %l2
    3b9c:	a4 10 00 1d 	mov  %i5, %l2
    3ba0:	a2 88 60 04 	andcc  %g1, 4, %l1
    3ba4:	02 80 00 03 	be  3bb0 <ajit_main+0xb4>
    3ba8:	b8 04 a0 01 	add  %l2, 1, %i4
    3bac:	a4 10 00 1c 	mov  %i4, %l2
    3bb0:	a7 2c a0 10 	sll  %l2, 0x10, %l3
    3bb4:	aa 10 27 d0 	mov  0x7d0, %l5
    3bb8:	81 80 20 00 	mov  %g0, %y
    3bbc:	a9 34 e0 10 	srl  %l3, 0x10, %l4
    3bc0:	01 00 00 00 	nop 
    3bc4:	01 00 00 00 	nop 
    3bc8:	01 00 00 00 	nop 
    3bcc:	90 75 40 14 	udiv  %l5, %l4, %o0
    3bd0:	80 a1 20 00 	cmp  %g4, 0
    3bd4:	d0 27 bf d0 	st  %o0, [ %fp + -48 ]
    3bd8:	02 80 00 05 	be  3bec <ajit_main+0xf0>
    3bdc:	b2 10 20 00 	clr  %i1
    3be0:	ec 07 bf c0 	ld  [ %fp + -64 ], %l6
    3be4:	b2 10 20 01 	mov  1, %i1
    3be8:	ec 27 bf c4 	st  %l6, [ %fp + -60 ]
    3bec:	80 a0 a0 00 	cmp  %g2, 0
    3bf0:	02 80 00 09 	be  3c14 <ajit_main+0x118>
    3bf4:	80 a4 60 00 	cmp  %l1, 0
    3bf8:	af 2e 60 10 	sll  %i1, 0x10, %l7
    3bfc:	c8 07 bf c0 	ld  [ %fp + -64 ], %g4
    3c00:	b2 06 60 01 	inc  %i1
    3c04:	b1 35 e0 10 	srl  %l7, 0x10, %i0
    3c08:	b4 5e 00 08 	smul  %i0, %o0, %i2
    3c0c:	86 01 00 1a 	add  %g4, %i2, %g3
    3c10:	c6 27 bf c8 	st  %g3, [ %fp + -56 ]
    3c14:	02 80 00 08 	be  3c34 <ajit_main+0x138>
    3c18:	80 a6 e0 00 	cmp  %i3, 0
    3c1c:	d8 07 bf c0 	ld  [ %fp + -64 ], %o4
    3c20:	93 2e 60 10 	sll  %i1, 0x10, %o1
    3c24:	95 32 60 10 	srl  %o1, 0x10, %o2
    3c28:	96 5a 80 08 	smul  %o2, %o0, %o3
    3c2c:	9a 03 00 0b 	add  %o4, %o3, %o5
    3c30:	da 27 bf cc 	st  %o5, [ %fp + -52 ]
    3c34:	02 80 00 09 	be  3c58 <ajit_main+0x15c>
    3c38:	80 a0 a0 00 	cmp  %g2, 0
    3c3c:	d2 07 bf c4 	ld  [ %fp + -60 ], %o1
    3c40:	7f ff fd ad 	call  32f4 <core_list_init>
    3c44:	d4 57 bf b8 	ldsh  [ %fp + -72 ], %o2
    3c48:	c2 07 bf d8 	ld  [ %fp + -40 ], %g1
    3c4c:	d0 27 bf dc 	st  %o0, [ %fp + -36 ]
    3c50:	84 08 60 02 	and  %g1, 2, %g2
    3c54:	80 a0 a0 00 	cmp  %g2, 0
    3c58:	32 80 01 61 	bne,a   41dc <ajit_main+0x6e0>
    3c5c:	c2 57 bf b8 	ldsh  [ %fp + -72 ], %g1
    3c60:	80 88 60 04 	btst  4, %g1
    3c64:	12 80 01 59 	bne  41c8 <ajit_main+0x6cc>
    3c68:	d0 07 bf d0 	ld  [ %fp + -48 ], %o0
    3c6c:	c2 07 bf d4 	ld  [ %fp + -44 ], %g1
    3c70:	80 a0 60 00 	cmp  %g1, 0
    3c74:	02 80 01 1d 	be  40e8 <ajit_main+0x5ec>
    3c78:	21 00 00 80 	sethi  %hi(0x20000), %l0
    3c7c:	40 00 04 8c 	call  4eac <start_time>
    3c80:	01 00 00 00 	nop 
    3c84:	40 00 06 ab 	call  5730 <get_seed_32>
    3c88:	90 10 20 04 	mov  4, %o0	! 4 <_start+0x4>
    3c8c:	c0 37 bf f2 	clrh  [ %fp + -14 ]
    3c90:	c0 37 bf f4 	clrh  [ %fp + -12 ]
    3c94:	c0 37 bf f6 	clrh  [ %fp + -10 ]
    3c98:	c0 37 bf f0 	clrh  [ %fp + -16 ]
    3c9c:	b6 10 00 08 	mov  %o0, %i3
    3ca0:	d0 27 bf d4 	st  %o0, [ %fp + -44 ]
    3ca4:	90 14 20 20 	or  %l0, 0x20, %o0
    3ca8:	40 00 10 48 	call  7dc8 <ee_printf>
    3cac:	92 10 00 1b 	mov  %i3, %o1
    3cb0:	80 a6 e0 00 	cmp  %i3, 0
    3cb4:	02 80 00 19 	be  3d18 <ajit_main+0x21c>
    3cb8:	a0 10 20 00 	clr  %l0
    3cbc:	92 10 20 01 	mov  1, %o1
    3cc0:	7f ff fe 9c 	call  3730 <core_bench_list>
    3cc4:	90 07 bf b8 	add  %fp, -72, %o0
    3cc8:	89 2a 20 10 	sll  %o0, 0x10, %g4
    3ccc:	d2 17 bf f0 	lduh  [ %fp + -16 ], %o1
    3cd0:	40 00 07 83 	call  5adc <crcu16>
    3cd4:	91 31 20 10 	srl  %g4, 0x10, %o0
    3cd8:	92 10 3f ff 	mov  -1, %o1
    3cdc:	d0 37 bf f0 	sth  %o0, [ %fp + -16 ]
    3ce0:	7f ff fe 94 	call  3730 <core_bench_list>
    3ce4:	90 07 bf b8 	add  %fp, -72, %o0
    3ce8:	87 2a 20 10 	sll  %o0, 0x10, %g3
    3cec:	d2 17 bf f0 	lduh  [ %fp + -16 ], %o1
    3cf0:	40 00 07 7b 	call  5adc <crcu16>
    3cf4:	91 30 e0 10 	srl  %g3, 0x10, %o0
    3cf8:	80 a4 20 00 	cmp  %l0, 0
    3cfc:	12 80 00 03 	bne  3d08 <ajit_main+0x20c>
    3d00:	d0 37 bf f0 	sth  %o0, [ %fp + -16 ]
    3d04:	d0 37 bf f2 	sth  %o0, [ %fp + -14 ]
    3d08:	a0 04 20 01 	inc  %l0
    3d0c:	80 a6 c0 10 	cmp  %i3, %l0
    3d10:	32 bf ff ec 	bne,a   3cc0 <ajit_main+0x1c4>
    3d14:	92 10 20 01 	mov  1, %o1
    3d18:	40 00 04 71 	call  4edc <stop_time>
    3d1c:	01 00 00 00 	nop 
    3d20:	40 00 04 7b 	call  4f0c <get_time>
    3d24:	01 00 00 00 	nop 
    3d28:	92 10 20 00 	clr  %o1	! 0 <_start>
    3d2c:	b4 10 00 08 	mov  %o0, %i2
    3d30:	40 00 0b b3 	call  6bfc <crc16>
    3d34:	d0 57 bf b8 	ldsh  [ %fp + -72 ], %o0
    3d38:	93 2a 20 10 	sll  %o0, 0x10, %o1
    3d3c:	d0 57 bf ba 	ldsh  [ %fp + -70 ], %o0
    3d40:	40 00 0b af 	call  6bfc <crc16>
    3d44:	93 32 60 10 	srl  %o1, 0x10, %o1
    3d48:	95 2a 20 10 	sll  %o0, 0x10, %o2
    3d4c:	d0 57 bf bc 	ldsh  [ %fp + -68 ], %o0
    3d50:	40 00 0b ab 	call  6bfc <crc16>
    3d54:	93 32 a0 10 	srl  %o2, 0x10, %o1
    3d58:	97 2a 20 10 	sll  %o0, 0x10, %o3
    3d5c:	d0 57 bf d2 	ldsh  [ %fp + -46 ], %o0
    3d60:	40 00 0b a7 	call  6bfc <crc16>
    3d64:	93 32 e0 10 	srl  %o3, 0x10, %o1
    3d68:	99 2a 20 10 	sll  %o0, 0x10, %o4
    3d6c:	1b 00 00 1e 	sethi  %hi(0x7800), %o5
    3d70:	83 33 20 10 	srl  %o4, 0x10, %g1
    3d74:	84 13 63 05 	or  %o5, 0x305, %g2
    3d78:	80 a0 40 02 	cmp  %g1, %g2
    3d7c:	02 80 02 05 	be  4590 <ajit_main+0xa94>
    3d80:	d8 27 bf b4 	st  %o4, [ %fp + -76 ]
    3d84:	80 a0 40 02 	cmp  %g1, %g2
    3d88:	08 80 01 52 	bleu  42d0 <ajit_main+0x7d4>
    3d8c:	1f 00 00 06 	sethi  %hi(0x1800), %o7
    3d90:	29 00 00 22 	sethi  %hi(0x8800), %l4
    3d94:	aa 15 22 02 	or  %l4, 0x202, %l5	! 8a02 <ee_printf+0xc3a>
    3d98:	80 a0 40 15 	cmp  %g1, %l5
    3d9c:	02 80 01 f6 	be  4574 <ajit_main+0xa78>
    3da0:	2d 00 00 3a 	sethi  %hi(0xe800), %l6
    3da4:	ae 15 a1 f5 	or  %l6, 0x1f5, %l7	! e9f5 <__ajit_ta_0__+0x4b69>
    3da8:	80 a0 40 17 	cmp  %g1, %l7
    3dac:	02 80 01 b2 	be  4474 <ajit_main+0x978>
    3db0:	33 00 00 80 	sethi  %hi(0x20000), %i1
    3db4:	b0 10 3f ff 	mov  -1, %i0
    3db8:	a0 10 3f ff 	mov  -1, %l0
    3dbc:	f0 37 bf ae 	sth  %i0, [ %fp + -82 ]
    3dc0:	33 00 00 81 	sethi  %hi(0x20400), %i1
    3dc4:	40 00 0c f8 	call  71a4 <check_data_types>
    3dc8:	23 00 00 80 	sethi  %hi(0x20000), %l1
    3dcc:	a4 0a 20 ff 	and  %o0, 0xff, %l2
    3dd0:	d2 07 bf d0 	ld  [ %fp + -48 ], %o1
    3dd4:	40 00 0f fd 	call  7dc8 <ee_printf>
    3dd8:	90 14 61 e8 	or  %l1, 0x1e8, %o0
    3ddc:	92 10 00 1a 	mov  %i2, %o1
    3de0:	ba 04 80 10 	add  %l2, %l0, %i5
    3de4:	21 00 00 80 	sethi  %hi(0x20000), %l0
    3de8:	40 00 0f f8 	call  7dc8 <ee_printf>
    3dec:	90 14 22 00 	or  %l0, 0x200, %o0	! 20200 <state_known_crc+0x1ec>
    3df0:	40 00 04 4d 	call  4f24 <time_in_secs>
    3df4:	90 10 00 1a 	mov  %i2, %o0
    3df8:	c4 1f bf 98 	ldd  [ %fp + -104 ], %g2
    3dfc:	c1 3f bf 98 	std  %f0, [ %fp + -104 ]
    3e00:	31 00 00 80 	sethi  %hi(0x20000), %i0
    3e04:	94 10 00 03 	mov  %g3, %o2
    3e08:	92 10 00 02 	mov  %g2, %o1
    3e0c:	40 00 0f ef 	call  7dc8 <ee_printf>
    3e10:	90 16 22 18 	or  %i0, 0x218, %o0
    3e14:	40 00 04 44 	call  4f24 <time_in_secs>
    3e18:	90 10 00 1a 	mov  %i2, %o0
    3e1c:	03 00 00 81 	sethi  %hi(0x20400), %g1
    3e20:	cd 18 62 88 	ldd  [ %g1 + 0x288 ], %f6	! 20688 <state_known_crc+0x674>
    3e24:	81 a8 0a c6 	fcmped  %f0, %f6
    3e28:	01 00 00 00 	nop 
    3e2c:	1d 80 00 16 	fbule  3e84 <ajit_main+0x388>
    3e30:	b6 10 00 1d 	mov  %i5, %i3
    3e34:	f8 06 62 bc 	ld  [ %i1 + 0x2bc ], %i4
    3e38:	c2 07 bf d4 	ld  [ %fp + -44 ], %g1
    3e3c:	c3 07 bf b0 	ld  [ %fp + -80 ], %f1
    3e40:	82 5f 00 01 	smul  %i4, %g1, %g1
    3e44:	c2 27 bf b0 	st  %g1, [ %fp + -80 ]
    3e48:	80 a0 60 00 	cmp  %g1, 0
    3e4c:	06 80 01 e1 	bl  45d0 <ajit_main+0xad4>
    3e50:	91 a0 19 01 	fitod  %f1, %f8
    3e54:	90 10 00 1a 	mov  %i2, %o0
    3e58:	40 00 04 33 	call  4f24 <time_in_secs>
    3e5c:	d1 3f bf a0 	std  %f8, [ %fp + -96 ]
    3e60:	11 00 00 80 	sethi  %hi(0x20000), %o0
    3e64:	d1 1f bf a0 	ldd  [ %fp + -96 ], %f8
    3e68:	c4 1f bf 98 	ldd  [ %fp + -104 ], %g2
    3e6c:	90 12 22 30 	or  %o0, 0x230, %o0
    3e70:	9d a2 09 c0 	fdivd  %f8, %f0, %f14
    3e74:	92 10 00 02 	mov  %g2, %o1
    3e78:	dd 3f bf 98 	std  %f14, [ %fp + -104 ]
    3e7c:	40 00 0f d3 	call  7dc8 <ee_printf>
    3e80:	94 10 00 03 	mov  %g3, %o2
    3e84:	40 00 04 28 	call  4f24 <time_in_secs>
    3e88:	90 10 00 1a 	mov  %i2, %o0
    3e8c:	03 00 00 81 	sethi  %hi(0x20400), %g1
    3e90:	e1 18 62 98 	ldd  [ %g1 + 0x298 ], %f16	! 20698 <state_known_crc+0x684>
    3e94:	81 a8 0a d0 	fcmped  %f0, %f16
    3e98:	01 00 00 00 	nop 
    3e9c:	09 80 01 aa 	fbl  4544 <ajit_main+0xa48>
    3ea0:	1f 00 00 80 	sethi  %hi(0x20000), %o7
    3ea4:	c2 07 bf d4 	ld  [ %fp + -44 ], %g1
    3ea8:	c8 06 62 bc 	ld  [ %i1 + 0x2bc ], %g4
    3eac:	07 00 00 80 	sethi  %hi(0x20000), %g3
    3eb0:	92 59 00 01 	smul  %g4, %g1, %o1
    3eb4:	40 00 0f c5 	call  7dc8 <ee_printf>
    3eb8:	90 10 e2 88 	or  %g3, 0x288, %o0
    3ebc:	2d 00 00 80 	sethi  %hi(0x20000), %l6
    3ec0:	2b 00 00 80 	sethi  %hi(0x20000), %l5
    3ec4:	92 15 a2 b8 	or  %l6, 0x2b8, %o1
    3ec8:	40 00 0f c0 	call  7dc8 <ee_printf>
    3ecc:	90 15 62 a0 	or  %l5, 0x2a0, %o0
    3ed0:	19 00 00 80 	sethi  %hi(0x20000), %o4
    3ed4:	29 00 00 80 	sethi  %hi(0x20000), %l4
    3ed8:	90 13 22 d0 	or  %o4, 0x2d0, %o0
    3edc:	40 00 0f bb 	call  7dc8 <ee_printf>
    3ee0:	92 15 22 e8 	or  %l4, 0x2e8, %o1
    3ee4:	17 00 00 80 	sethi  %hi(0x20000), %o3
    3ee8:	2f 00 00 80 	sethi  %hi(0x20000), %l7
    3eec:	90 12 e3 50 	or  %o3, 0x350, %o0
    3ef0:	40 00 0f b6 	call  7dc8 <ee_printf>
    3ef4:	92 15 e3 68 	or  %l7, 0x368, %o1
    3ef8:	1b 00 00 80 	sethi  %hi(0x20000), %o5
    3efc:	d2 07 bf b4 	ld  [ %fp + -76 ], %o1
    3f00:	90 13 63 70 	or  %o5, 0x370, %o0
    3f04:	40 00 0f b1 	call  7dc8 <ee_printf>
    3f08:	93 32 60 10 	srl  %o1, 0x10, %o1
    3f0c:	d2 07 bf d8 	ld  [ %fp + -40 ], %o1
    3f10:	80 8a 60 01 	btst  1, %o1
    3f14:	02 80 00 1a 	be  3f7c <ajit_main+0x480>
    3f18:	c2 06 62 bc 	ld  [ %i1 + 0x2bc ], %g1
    3f1c:	80 a0 60 00 	cmp  %g1, 0
    3f20:	02 80 01 b4 	be  45f0 <ajit_main+0xaf4>
    3f24:	15 00 00 81 	sethi  %hi(0x20400), %o2
    3f28:	05 00 00 80 	sethi  %hi(0x20000), %g2
    3f2c:	a0 10 20 00 	clr  %l0
    3f30:	a4 12 a2 bc 	or  %o2, 0x2bc, %l2
    3f34:	a6 10 a3 90 	or  %g2, 0x390, %l3
    3f38:	bb 2c 20 10 	sll  %l0, 0x10, %i5
    3f3c:	93 37 60 10 	srl  %i5, 0x10, %o1
    3f40:	90 10 00 13 	mov  %l3, %o0
    3f44:	a3 2a 60 02 	sll  %o1, 2, %l1
    3f48:	83 2a 60 06 	sll  %o1, 6, %g1
    3f4c:	82 04 40 01 	add  %l1, %g1, %g1
    3f50:	82 07 80 01 	add  %fp, %g1, %g1
    3f54:	40 00 0f 9d 	call  7dc8 <ee_printf>
    3f58:	d4 10 7f f2 	lduh  [ %g1 + -14 ], %o2
    3f5c:	a0 04 20 01 	inc  %l0
    3f60:	c2 04 80 00 	ld  [ %l2 ], %g1
    3f64:	b1 2c 20 10 	sll  %l0, 0x10, %i0
    3f68:	b9 36 20 10 	srl  %i0, 0x10, %i4
    3f6c:	80 a7 00 01 	cmp  %i4, %g1
    3f70:	0a bf ff f3 	bcs  3f3c <ajit_main+0x440>
    3f74:	bb 2c 20 10 	sll  %l0, 0x10, %i5
    3f78:	d2 07 bf d8 	ld  [ %fp + -40 ], %o1
    3f7c:	80 8a 60 02 	btst  2, %o1
    3f80:	02 80 00 1c 	be  3ff0 <ajit_main+0x4f4>
    3f84:	80 8a 60 04 	btst  4, %o1
    3f88:	80 a0 60 00 	cmp  %g1, 0
    3f8c:	22 80 00 4b 	be,a   40b8 <ajit_main+0x5bc>
    3f90:	b7 2e e0 10 	sll  %i3, 0x10, %i3
    3f94:	11 00 00 81 	sethi  %hi(0x20400), %o0
    3f98:	1f 00 00 80 	sethi  %hi(0x20000), %o7
    3f9c:	a6 10 20 00 	clr  %l3
    3fa0:	aa 12 22 bc 	or  %o0, 0x2bc, %l5
    3fa4:	a4 13 e3 b0 	or  %o7, 0x3b0, %l2
    3fa8:	89 2c e0 10 	sll  %l3, 0x10, %g4
    3fac:	93 31 20 10 	srl  %g4, 0x10, %o1
    3fb0:	90 10 00 12 	mov  %l2, %o0
    3fb4:	87 2a 60 02 	sll  %o1, 2, %g3
    3fb8:	83 2a 60 06 	sll  %o1, 6, %g1
    3fbc:	82 00 c0 01 	add  %g3, %g1, %g1
    3fc0:	82 07 80 01 	add  %fp, %g1, %g1
    3fc4:	40 00 0f 81 	call  7dc8 <ee_printf>
    3fc8:	d4 10 7f f4 	lduh  [ %g1 + -12 ], %o2
    3fcc:	a6 04 e0 01 	inc  %l3
    3fd0:	c2 05 40 00 	ld  [ %l5 ], %g1
    3fd4:	99 2c e0 10 	sll  %l3, 0x10, %o4
    3fd8:	97 33 20 10 	srl  %o4, 0x10, %o3
    3fdc:	80 a2 c0 01 	cmp  %o3, %g1
    3fe0:	0a bf ff f3 	bcs  3fac <ajit_main+0x4b0>
    3fe4:	89 2c e0 10 	sll  %l3, 0x10, %g4
    3fe8:	d2 07 bf d8 	ld  [ %fp + -40 ], %o1
    3fec:	80 8a 60 04 	btst  4, %o1
    3ff0:	02 80 00 1a 	be  4058 <ajit_main+0x55c>
    3ff4:	80 a0 60 00 	cmp  %g1, 0
    3ff8:	22 80 00 30 	be,a   40b8 <ajit_main+0x5bc>
    3ffc:	b7 2e e0 10 	sll  %i3, 0x10, %i3
    4000:	1b 00 00 81 	sethi  %hi(0x20400), %o5
    4004:	15 00 00 80 	sethi  %hi(0x20000), %o2
    4008:	b0 10 20 00 	clr  %i0
    400c:	ba 13 62 bc 	or  %o5, 0x2bc, %i5
    4010:	a2 12 a3 d0 	or  %o2, 0x3d0, %l1
    4014:	85 2e 20 10 	sll  %i0, 0x10, %g2
    4018:	93 30 a0 10 	srl  %g2, 0x10, %o1
    401c:	90 10 00 11 	mov  %l1, %o0
    4020:	83 2a 60 06 	sll  %o1, 6, %g1
    4024:	a1 2a 60 02 	sll  %o1, 2, %l0
    4028:	82 04 00 01 	add  %l0, %g1, %g1
    402c:	82 07 80 01 	add  %fp, %g1, %g1
    4030:	40 00 0f 66 	call  7dc8 <ee_printf>
    4034:	d4 10 7f f6 	lduh  [ %g1 + -10 ], %o2
    4038:	b0 06 20 01 	inc  %i0
    403c:	c2 07 40 00 	ld  [ %i5 ], %g1
    4040:	b9 2e 20 10 	sll  %i0, 0x10, %i4
    4044:	91 37 20 10 	srl  %i4, 0x10, %o0
    4048:	80 a2 00 01 	cmp  %o0, %g1
    404c:	2a bf ff f3 	bcs,a   4018 <ajit_main+0x51c>
    4050:	85 2e 20 10 	sll  %i0, 0x10, %g2
    4054:	80 a0 60 00 	cmp  %g1, 0
    4058:	22 80 00 18 	be,a   40b8 <ajit_main+0x5bc>
    405c:	b7 2e e0 10 	sll  %i3, 0x10, %i3
    4060:	2b 00 00 81 	sethi  %hi(0x20400), %l5
    4064:	1f 00 00 80 	sethi  %hi(0x20000), %o7
    4068:	ba 10 20 00 	clr  %i5
    406c:	a4 15 62 bc 	or  %l5, 0x2bc, %l2
    4070:	a6 13 e3 f0 	or  %o7, 0x3f0, %l3
    4074:	89 2f 60 10 	sll  %i5, 0x10, %g4
    4078:	93 31 20 10 	srl  %g4, 0x10, %o1
    407c:	90 10 00 13 	mov  %l3, %o0
    4080:	87 2a 60 02 	sll  %o1, 2, %g3
    4084:	83 2a 60 06 	sll  %o1, 6, %g1
    4088:	82 00 c0 01 	add  %g3, %g1, %g1
    408c:	82 07 80 01 	add  %fp, %g1, %g1
    4090:	40 00 0f 4e 	call  7dc8 <ee_printf>
    4094:	d4 10 7f f0 	lduh  [ %g1 + -16 ], %o2
    4098:	ba 07 60 01 	inc  %i5
    409c:	c2 04 80 00 	ld  [ %l2 ], %g1
    40a0:	99 2f 60 10 	sll  %i5, 0x10, %o4
    40a4:	97 33 20 10 	srl  %o4, 0x10, %o3
    40a8:	80 a2 c0 01 	cmp  %o3, %g1
    40ac:	2a bf ff f3 	bcs,a   4078 <ajit_main+0x57c>
    40b0:	89 2f 60 10 	sll  %i5, 0x10, %g4
    40b4:	b7 2e e0 10 	sll  %i3, 0x10, %i3
    40b8:	93 3e e0 10 	sra  %i3, 0x10, %o1
    40bc:	80 a2 60 00 	cmp  %o1, 0
    40c0:	02 80 00 fc 	be  44b0 <ajit_main+0x9b4>
    40c4:	1b 00 00 81 	sethi  %hi(0x20400), %o5
    40c8:	04 80 01 24 	ble  4558 <ajit_main+0xa5c>
    40cc:	33 00 00 81 	sethi  %hi(0x20400), %i1
    40d0:	40 00 0f 3e 	call  7dc8 <ee_printf>
    40d4:	90 16 60 88 	or  %i1, 0x88, %o0	! 20488 <state_known_crc+0x474>
    40d8:	40 00 03 bf 	call  4fd4 <portable_fini>
    40dc:	90 07 bf fa 	add  %fp, -6, %o0
    40e0:	81 c7 e0 08 	ret 
    40e4:	81 e8 00 00 	restore 
    40e8:	11 00 00 81 	sethi  %hi(0x20400), %o0
    40ec:	a4 14 20 20 	or  %l0, 0x20, %l2
    40f0:	82 10 20 01 	mov  1, %g1
    40f4:	a2 12 22 78 	or  %o0, 0x278, %l1
    40f8:	ba 00 40 01 	add  %g1, %g1, %i5
    40fc:	83 28 60 03 	sll  %g1, 3, %g1
    4100:	82 07 40 01 	add  %i5, %g1, %g1
    4104:	40 00 03 6a 	call  4eac <start_time>
    4108:	c2 27 bf d4 	st  %g1, [ %fp + -44 ]
    410c:	c0 37 bf f2 	clrh  [ %fp + -14 ]
    4110:	c0 37 bf f4 	clrh  [ %fp + -12 ]
    4114:	c0 37 bf f6 	clrh  [ %fp + -10 ]
    4118:	90 10 00 12 	mov  %l2, %o0
    411c:	f8 07 bf d4 	ld  [ %fp + -44 ], %i4
    4120:	c0 37 bf f0 	clrh  [ %fp + -16 ]
    4124:	40 00 0f 29 	call  7dc8 <ee_printf>
    4128:	92 10 00 1c 	mov  %i4, %o1
    412c:	80 a7 20 00 	cmp  %i4, 0
    4130:	02 80 00 19 	be  4194 <ajit_main+0x698>
    4134:	aa 10 20 00 	clr  %l5
    4138:	92 10 20 01 	mov  1, %o1
    413c:	7f ff fd 7d 	call  3730 <core_bench_list>
    4140:	90 07 bf b8 	add  %fp, -72, %o0
    4144:	d2 17 bf f0 	lduh  [ %fp + -16 ], %o1
    4148:	a7 2a 20 10 	sll  %o0, 0x10, %l3
    414c:	40 00 06 64 	call  5adc <crcu16>
    4150:	91 34 e0 10 	srl  %l3, 0x10, %o0
    4154:	d0 37 bf f0 	sth  %o0, [ %fp + -16 ]
    4158:	92 10 3f ff 	mov  -1, %o1
    415c:	7f ff fd 75 	call  3730 <core_bench_list>
    4160:	90 07 bf b8 	add  %fp, -72, %o0
    4164:	d2 17 bf f0 	lduh  [ %fp + -16 ], %o1
    4168:	a9 2a 20 10 	sll  %o0, 0x10, %l4
    416c:	40 00 06 5c 	call  5adc <crcu16>
    4170:	91 35 20 10 	srl  %l4, 0x10, %o0
    4174:	80 a5 60 00 	cmp  %l5, 0
    4178:	12 80 00 03 	bne  4184 <ajit_main+0x688>
    417c:	d0 37 bf f0 	sth  %o0, [ %fp + -16 ]
    4180:	d0 37 bf f2 	sth  %o0, [ %fp + -14 ]
    4184:	aa 05 60 01 	inc  %l5
    4188:	80 a5 40 1c 	cmp  %l5, %i4
    418c:	12 bf ff ec 	bne  413c <ajit_main+0x640>
    4190:	92 10 20 01 	mov  1, %o1
    4194:	40 00 03 52 	call  4edc <stop_time>
    4198:	01 00 00 00 	nop 
    419c:	40 00 03 5c 	call  4f0c <get_time>
    41a0:	01 00 00 00 	nop 
    41a4:	40 00 03 60 	call  4f24 <time_in_secs>
    41a8:	01 00 00 00 	nop 
    41ac:	d1 1c 40 00 	ldd  [ %l1 ], %f8
    41b0:	81 a8 0a c8 	fcmped  %f0, %f8
    41b4:	01 00 00 00 	nop 
    41b8:	19 80 00 25 	fbuge  424c <ajit_main+0x750>
    41bc:	01 00 00 00 	nop 
    41c0:	10 bf ff ce 	b  40f8 <ajit_main+0x5fc>
    41c4:	c2 07 bf d4 	ld  [ %fp + -44 ], %g1
    41c8:	d2 57 bf b8 	ldsh  [ %fp + -72 ], %o1
    41cc:	40 00 03 97 	call  5028 <core_init_state>
    41d0:	d4 07 bf cc 	ld  [ %fp + -52 ], %o2
    41d4:	10 bf fe a7 	b  3c70 <ajit_main+0x174>
    41d8:	c2 07 bf d4 	ld  [ %fp + -44 ], %g1
    41dc:	f6 57 bf ba 	ldsh  [ %fp + -70 ], %i3
    41e0:	d0 07 bf d0 	ld  [ %fp + -48 ], %o0
    41e4:	d2 07 bf c8 	ld  [ %fp + -56 ], %o1
    41e8:	9f 2e e0 10 	sll  %i3, 0x10, %o7
    41ec:	94 13 c0 01 	or  %o7, %g1, %o2
    41f0:	40 00 02 34 	call  4ac0 <core_init_matrix>
    41f4:	96 07 bf e0 	add  %fp, -32, %o3
    41f8:	10 bf fe 9a 	b  3c60 <ajit_main+0x164>
    41fc:	c2 07 bf d8 	ld  [ %fp + -40 ], %g1
    4200:	86 10 20 66 	mov  0x66, %g3
    4204:	c0 37 bf ba 	clrh  [ %fp + -70 ]
    4208:	d0 07 bf b8 	ld  [ %fp + -72 ], %o0
    420c:	c6 37 bf bc 	sth  %g3, [ %fp + -68 ]
    4210:	13 00 00 40 	sethi  %hi(0x10000), %o1
    4214:	80 a2 00 09 	cmp  %o0, %o1
    4218:	12 bf fe 59 	bne  3b7c <ajit_main+0x80>
    421c:	80 a0 00 04 	cmp  %g0, %g4
    4220:	d4 57 bf bc 	ldsh  [ %fp + -68 ], %o2
    4224:	80 a2 a0 00 	cmp  %o2, 0
    4228:	12 bf fe 55 	bne  3b7c <ajit_main+0x80>
    422c:	80 a0 00 04 	cmp  %g0, %g4
    4230:	17 00 00 0d 	sethi  %hi(0x3400), %o3
    4234:	9a 10 20 66 	mov  0x66, %o5
    4238:	98 12 e0 15 	or  %o3, 0x15, %o4
    423c:	da 37 bf bc 	sth  %o5, [ %fp + -68 ]
    4240:	d8 37 bf b8 	sth  %o4, [ %fp + -72 ]
    4244:	10 bf fe 4e 	b  3b7c <ajit_main+0x80>
    4248:	d8 37 bf ba 	sth  %o4, [ %fp + -70 ]
    424c:	03 00 00 81 	sethi  %hi(0x20400), %g1
    4250:	c5 18 62 80 	ldd  [ %g1 + 0x280 ], %f2	! 20680 <state_known_crc+0x66c>
    4254:	81 a8 0a c2 	fcmped  %f0, %f2
    4258:	01 00 00 00 	nop 
    425c:	07 80 00 82 	fbul  4464 <ajit_main+0x968>
    4260:	01 00 00 00 	nop 
    4264:	89 a0 08 c2 	fsubd  %f0, %f2, %f4
    4268:	2d 20 00 00 	sethi  %hi(0x80000000), %l6
    426c:	c2 07 bf b0 	ld  [ %fp + -80 ], %g1
    4270:	95 a0 1a 44 	fdtoi  %f4, %f10
    4274:	82 18 40 16 	xor  %g1, %l6, %g1
    4278:	d5 27 bf b0 	st  %f10, [ %fp + -80 ]
    427c:	80 a0 60 00 	cmp  %g1, 0
    4280:	22 80 00 02 	be,a   4288 <ajit_main+0x78c>
    4284:	82 10 20 01 	mov  1, %g1
    4288:	ae 10 20 0a 	mov  0xa, %l7
    428c:	81 80 20 00 	mov  %g0, %y
    4290:	01 00 00 00 	nop 
    4294:	01 00 00 00 	nop 
    4298:	01 00 00 00 	nop 
    429c:	33 00 00 80 	sethi  %hi(0x20000), %i1
    42a0:	b0 75 c0 01 	udiv  %l7, %g1, %i0
    42a4:	c2 07 bf d4 	ld  [ %fp + -44 ], %g1
    42a8:	90 16 60 38 	or  %i1, 0x38, %o0
    42ac:	b4 06 20 01 	add  %i0, 1, %i2
    42b0:	92 5e 80 01 	smul  %i2, %g1, %o1
    42b4:	40 00 0e c5 	call  7dc8 <ee_printf>
    42b8:	d2 27 bf d4 	st  %o1, [ %fp + -44 ]
    42bc:	30 bf fe 70 	b,a   3c7c <ajit_main+0x180>
    42c0:	b6 10 20 01 	mov  1, %i3
    42c4:	c2 27 bf d8 	st  %g1, [ %fp + -40 ]
    42c8:	10 bf fe 24 	b  3b58 <ajit_main+0x5c>
    42cc:	88 10 20 01 	mov  1, %g4
    42d0:	90 13 e0 f2 	or  %o7, 0xf2, %o0
    42d4:	80 a0 40 08 	cmp  %g1, %o0
    42d8:	02 80 00 b6 	be  45b0 <ajit_main+0xab4>
    42dc:	23 00 00 13 	sethi  %hi(0x4c00), %l1
    42e0:	a4 14 62 af 	or  %l1, 0x2af, %l2	! 4eaf <start_time+0x3>
    42e4:	80 a0 40 12 	cmp  %g1, %l2
    42e8:	12 bf fe b4 	bne  3db8 <ajit_main+0x2bc>
    42ec:	b0 10 3f ff 	mov  -1, %i0
    42f0:	3b 00 00 80 	sethi  %hi(0x20000), %i5
    42f4:	b8 10 20 02 	mov  2, %i4
    42f8:	a4 10 20 02 	mov  2, %l2
    42fc:	90 17 60 b8 	or  %i5, 0xb8, %o0
    4300:	40 00 0e b2 	call  7dc8 <ee_printf>
    4304:	f8 37 bf ae 	sth  %i4, [ %fp + -82 ]
    4308:	33 00 00 81 	sethi  %hi(0x20400), %i1
    430c:	c2 06 62 bc 	ld  [ %i1 + 0x2bc ], %g1	! 206bc <default_num_contexts>
    4310:	80 a0 60 00 	cmp  %g1, 0
    4314:	02 bf fe ac 	be  3dc4 <ajit_main+0x2c8>
    4318:	a0 10 20 00 	clr  %l0
    431c:	a6 10 20 00 	clr  %l3
    4320:	ae 10 20 00 	clr  %l7
    4324:	ba 16 62 bc 	or  %i1, 0x2bc, %i5
    4328:	23 00 00 80 	sethi  %hi(0x20000), %l1
    432c:	21 00 00 80 	sethi  %hi(0x20000), %l0
    4330:	10 80 00 0c 	b  4360 <ajit_main+0x864>
    4334:	31 00 00 80 	sethi  %hi(0x20000), %i0
    4338:	ac 07 80 1b 	add  %fp, %i3, %l6
    433c:	c2 15 bf f8 	lduh  [ %l6 + -8 ], %g1
    4340:	d4 07 40 00 	ld  [ %i5 ], %o2
    4344:	ae 05 e0 01 	inc  %l7
    4348:	82 00 40 13 	add  %g1, %l3, %g1
    434c:	a7 2d e0 10 	sll  %l7, 0x10, %l3
    4350:	85 34 e0 10 	srl  %l3, 0x10, %g2
    4354:	80 a0 80 0a 	cmp  %g2, %o2
    4358:	1a 80 00 41 	bcc  445c <ajit_main+0x960>
    435c:	a6 10 00 01 	mov  %g1, %l3
    4360:	93 2d e0 10 	sll  %l7, 0x10, %o1
    4364:	b7 32 60 10 	srl  %o1, 0x10, %i3
    4368:	ad 2e e0 02 	sll  %i3, 2, %l6
    436c:	ab 2e e0 06 	sll  %i3, 6, %l5
    4370:	a8 05 80 15 	add  %l6, %l5, %l4
    4374:	b8 07 80 14 	add  %fp, %l4, %i4
    4378:	c2 07 3f d8 	ld  [ %i4 + -40 ], %g1
    437c:	c0 37 3f f8 	clrh  [ %i4 + -8 ]
    4380:	80 88 60 01 	btst  1, %g1
    4384:	02 80 00 11 	be  43c8 <ajit_main+0x8cc>
    4388:	80 88 60 02 	btst  2, %g1
    438c:	96 14 60 00 	mov  %l1, %o3
    4390:	98 04 80 12 	add  %l2, %l2, %o4
    4394:	d4 17 3f f2 	lduh  [ %i4 + -14 ], %o2
    4398:	d6 12 c0 0c 	lduh  [ %o3 + %o4 ], %o3
    439c:	80 a2 80 0b 	cmp  %o2, %o3
    43a0:	02 80 00 09 	be  43c4 <ajit_main+0x8c8>
    43a4:	1b 00 00 80 	sethi  %hi(0x20000), %o5
    43a8:	92 10 00 1b 	mov  %i3, %o1
    43ac:	40 00 0e 87 	call  7dc8 <ee_printf>
    43b0:	90 13 61 50 	or  %o5, 0x150, %o0
    43b4:	d4 17 3f f8 	lduh  [ %i4 + -8 ], %o2
    43b8:	c2 07 3f d8 	ld  [ %i4 + -40 ], %g1
    43bc:	84 02 a0 01 	add  %o2, 1, %g2
    43c0:	c4 37 3f f8 	sth  %g2, [ %i4 + -8 ]
    43c4:	80 88 60 02 	btst  2, %g1
    43c8:	02 80 00 12 	be  4410 <ajit_main+0x914>
    43cc:	80 88 60 04 	btst  4, %g1
    43d0:	b8 07 80 14 	add  %fp, %l4, %i4
    43d4:	90 14 20 0a 	or  %l0, 0xa, %o0
    43d8:	9e 04 80 12 	add  %l2, %l2, %o7
    43dc:	d4 17 3f f4 	lduh  [ %i4 + -12 ], %o2
    43e0:	d6 12 00 0f 	lduh  [ %o0 + %o7 ], %o3
    43e4:	80 a2 80 0b 	cmp  %o2, %o3
    43e8:	02 80 00 09 	be  440c <ajit_main+0x910>
    43ec:	09 00 00 80 	sethi  %hi(0x20000), %g4
    43f0:	92 10 00 1b 	mov  %i3, %o1
    43f4:	40 00 0e 75 	call  7dc8 <ee_printf>
    43f8:	90 11 21 80 	or  %g4, 0x180, %o0
    43fc:	c6 17 3f f8 	lduh  [ %i4 + -8 ], %g3
    4400:	c2 07 3f d8 	ld  [ %i4 + -40 ], %g1
    4404:	92 00 e0 01 	add  %g3, 1, %o1
    4408:	d2 37 3f f8 	sth  %o1, [ %i4 + -8 ]
    440c:	80 88 60 04 	btst  4, %g1
    4410:	22 bf ff ca 	be,a   4338 <ajit_main+0x83c>
    4414:	b6 05 80 15 	add  %l6, %l5, %i3
    4418:	aa 07 80 14 	add  %fp, %l4, %l5
    441c:	82 04 80 12 	add  %l2, %l2, %g1
    4420:	a8 16 20 14 	or  %i0, 0x14, %l4
    4424:	d4 15 7f f6 	lduh  [ %l5 + -10 ], %o2
    4428:	d6 15 00 01 	lduh  [ %l4 + %g1 ], %o3
    442c:	80 a2 80 0b 	cmp  %o2, %o3
    4430:	12 80 00 18 	bne  4490 <ajit_main+0x994>
    4434:	19 00 00 80 	sethi  %hi(0x20000), %o4
    4438:	c2 15 7f f8 	lduh  [ %l5 + -8 ], %g1
    443c:	ae 05 e0 01 	inc  %l7
    4440:	d4 07 40 00 	ld  [ %i5 ], %o2
    4444:	82 00 40 13 	add  %g1, %l3, %g1
    4448:	a7 2d e0 10 	sll  %l7, 0x10, %l3
    444c:	85 34 e0 10 	srl  %l3, 0x10, %g2
    4450:	80 a0 80 0a 	cmp  %g2, %o2
    4454:	0a bf ff c3 	bcs  4360 <ajit_main+0x864>
    4458:	a6 10 00 01 	mov  %g1, %l3
    445c:	10 bf fe 5a 	b  3dc4 <ajit_main+0x2c8>
    4460:	a0 10 00 01 	mov  %g1, %l0
    4464:	81 a0 1a 40 	fdtoi  %f0, %f0
    4468:	c1 27 bf b0 	st  %f0, [ %fp + -80 ]
    446c:	10 bf ff 84 	b  427c <ajit_main+0x780>
    4470:	c2 07 bf b0 	ld  [ %fp + -80 ], %g1
    4474:	b6 10 20 03 	mov  3, %i3
    4478:	a4 10 20 03 	mov  3, %l2
    447c:	90 16 60 f0 	or  %i1, 0xf0, %o0
    4480:	40 00 0e 52 	call  7dc8 <ee_printf>
    4484:	f6 37 bf ae 	sth  %i3, [ %fp + -82 ]
    4488:	10 bf ff a1 	b  430c <ajit_main+0x810>
    448c:	33 00 00 81 	sethi  %hi(0x20400), %i1
    4490:	92 10 00 1b 	mov  %i3, %o1
    4494:	40 00 0e 4d 	call  7dc8 <ee_printf>
    4498:	90 13 21 b8 	or  %o4, 0x1b8, %o0
    449c:	d6 15 7f f8 	lduh  [ %l5 + -8 ], %o3
    44a0:	9a 02 e0 01 	add  %o3, 1, %o5
    44a4:	82 10 00 0d 	mov  %o5, %g1
    44a8:	10 bf ff a6 	b  4340 <ajit_main+0x844>
    44ac:	da 35 7f f8 	sth  %o5, [ %l5 + -8 ]
    44b0:	40 00 0e 46 	call  7dc8 <ee_printf>
    44b4:	90 13 60 10 	or  %o5, 0x10, %o0
    44b8:	d4 17 bf ae 	lduh  [ %fp + -82 ], %o2
    44bc:	83 2a a0 10 	sll  %o2, 0x10, %g1
    44c0:	83 38 60 10 	sra  %g1, 0x10, %g1
    44c4:	80 a0 60 03 	cmp  %g1, 3
    44c8:	12 bf ff 04 	bne  40d8 <ajit_main+0x5dc>
    44cc:	c2 07 bf d4 	ld  [ %fp + -44 ], %g1
    44d0:	e2 06 62 bc 	ld  [ %i1 + 0x2bc ], %l1
    44d4:	c7 07 bf b0 	ld  [ %fp + -80 ], %f3
    44d8:	82 5c 40 01 	smul  %l1, %g1, %g1
    44dc:	c2 27 bf b0 	st  %g1, [ %fp + -80 ]
    44e0:	80 a0 60 00 	cmp  %g1, 0
    44e4:	06 80 00 3f 	bl  45e0 <ajit_main+0xae4>
    44e8:	91 a0 19 03 	fitod  %f3, %f8
    44ec:	90 10 00 1a 	mov  %i2, %o0
    44f0:	40 00 02 8d 	call  4f24 <time_in_secs>
    44f4:	d1 3f bf a0 	std  %f8, [ %fp + -96 ]
    44f8:	c4 1f bf 98 	ldd  [ %fp + -104 ], %g2
    44fc:	d1 1f bf a0 	ldd  [ %fp + -96 ], %f8
    4500:	96 15 a2 b8 	or  %l6, 0x2b8, %o3
    4504:	98 15 22 e8 	or  %l4, 0x2e8, %o4
    4508:	a9 a2 09 c0 	fdivd  %f8, %f0, %f20
    450c:	92 10 00 02 	mov  %g2, %o1
    4510:	94 10 00 03 	mov  %g3, %o2
    4514:	2d 00 00 81 	sethi  %hi(0x20400), %l6
    4518:	e9 3f bf 98 	std  %f20, [ %fp + -104 ]
    451c:	40 00 0e 2b 	call  7dc8 <ee_printf>
    4520:	90 15 a0 60 	or  %l6, 0x60, %o0
    4524:	92 15 e3 68 	or  %l7, 0x368, %o1
    4528:	29 00 00 81 	sethi  %hi(0x20400), %l4
    452c:	40 00 0e 27 	call  7dc8 <ee_printf>
    4530:	90 15 20 80 	or  %l4, 0x80, %o0	! 20480 <state_known_crc+0x46c>
    4534:	2f 00 00 81 	sethi  %hi(0x20400), %l7
    4538:	40 00 0e 24 	call  7dc8 <ee_printf>
    453c:	90 15 e0 58 	or  %l7, 0x58, %o0	! 20458 <state_known_crc+0x444>
    4540:	30 bf fe e6 	b,a   40d8 <ajit_main+0x5dc>
    4544:	90 13 e2 48 	or  %o7, 0x248, %o0
    4548:	40 00 0e 20 	call  7dc8 <ee_printf>
    454c:	b6 07 60 01 	add  %i5, 1, %i3
    4550:	10 bf fe 56 	b  3ea8 <ajit_main+0x3ac>
    4554:	c2 07 bf d4 	ld  [ %fp + -44 ], %g1
    4558:	35 00 00 81 	sethi  %hi(0x20400), %i2
    455c:	40 00 0e 1b 	call  7dc8 <ee_printf>
    4560:	90 16 a0 a0 	or  %i2, 0xa0, %o0	! 204a0 <state_known_crc+0x48c>
    4564:	40 00 02 9c 	call  4fd4 <portable_fini>
    4568:	90 07 bf fa 	add  %fp, -6, %o0
    456c:	81 c7 e0 08 	ret 
    4570:	81 e8 00 00 	restore 
    4574:	09 00 00 80 	sethi  %hi(0x20000), %g4
    4578:	a4 10 20 00 	clr  %l2
    457c:	90 11 20 58 	or  %g4, 0x58, %o0
    4580:	40 00 0e 12 	call  7dc8 <ee_printf>
    4584:	c0 37 bf ae 	clrh  [ %fp + -82 ]
    4588:	10 bf ff 61 	b  430c <ajit_main+0x810>
    458c:	33 00 00 81 	sethi  %hi(0x20400), %i1
    4590:	07 00 00 80 	sethi  %hi(0x20000), %g3
    4594:	82 10 20 01 	mov  1, %g1
    4598:	a4 10 20 01 	mov  1, %l2
    459c:	90 10 e0 88 	or  %g3, 0x88, %o0
    45a0:	40 00 0e 0a 	call  7dc8 <ee_printf>
    45a4:	c2 37 bf ae 	sth  %g1, [ %fp + -82 ]
    45a8:	10 bf ff 59 	b  430c <ajit_main+0x810>
    45ac:	33 00 00 81 	sethi  %hi(0x20400), %i1
    45b0:	27 00 00 80 	sethi  %hi(0x20000), %l3
    45b4:	82 10 20 04 	mov  4, %g1
    45b8:	a4 10 20 04 	mov  4, %l2
    45bc:	90 14 e1 20 	or  %l3, 0x120, %o0
    45c0:	40 00 0e 02 	call  7dc8 <ee_printf>
    45c4:	c2 37 bf ae 	sth  %g1, [ %fp + -82 ]
    45c8:	10 bf ff 51 	b  430c <ajit_main+0x810>
    45cc:	33 00 00 81 	sethi  %hi(0x20400), %i1
    45d0:	03 00 00 81 	sethi  %hi(0x20400), %g1
    45d4:	d9 18 62 90 	ldd  [ %g1 + 0x290 ], %f12	! 20690 <state_known_crc+0x67c>
    45d8:	10 bf fe 1f 	b  3e54 <ajit_main+0x358>
    45dc:	91 a2 08 4c 	faddd  %f8, %f12, %f8
    45e0:	03 00 00 81 	sethi  %hi(0x20400), %g1
    45e4:	e5 18 62 90 	ldd  [ %g1 + 0x290 ], %f18	! 20690 <state_known_crc+0x67c>
    45e8:	10 bf ff c1 	b  44ec <ajit_main+0x9f0>
    45ec:	91 a2 08 52 	faddd  %f8, %f18, %f8
    45f0:	80 8a 60 02 	btst  2, %o1
    45f4:	02 bf fe 7e 	be  3fec <ajit_main+0x4f0>
    45f8:	82 10 20 00 	clr  %g1
    45fc:	10 bf fe af 	b  40b8 <ajit_main+0x5bc>
    4600:	b7 2e e0 10 	sll  %i3, 0x10, %i3

00004604 <matrix_test>:
    4604:	9d e3 bf a0 	save  %sp, -96, %sp
    4608:	80 a6 20 00 	cmp  %i0, 0
    460c:	02 80 01 0e 	be  4a44 <matrix_test+0x440>
    4610:	a0 17 30 00 	or  %i4, -4096, %l0
    4614:	a4 10 00 1c 	mov  %i4, %l2
    4618:	ba 06 00 18 	add  %i0, %i0, %i5
    461c:	a8 10 00 1a 	mov  %i2, %l4
    4620:	82 10 00 1a 	mov  %i2, %g1
    4624:	88 10 20 00 	clr  %g4
    4628:	d0 10 40 00 	lduh  [ %g1 ], %o0
    462c:	86 07 40 01 	add  %i5, %g1, %g3
    4630:	94 02 00 12 	add  %o0, %l2, %o2
    4634:	d4 30 40 00 	sth  %o2, [ %g1 ]
    4638:	82 00 60 02 	add  %g1, 2, %g1
    463c:	80 a0 c0 01 	cmp  %g3, %g1
    4640:	32 bf ff fc 	bne,a   4630 <matrix_test+0x2c>
    4644:	d0 10 40 00 	lduh  [ %g1 ], %o0
    4648:	88 01 20 01 	inc  %g4
    464c:	80 a1 00 18 	cmp  %g4, %i0
    4650:	12 bf ff f6 	bne  4628 <matrix_test+0x24>
    4654:	82 10 00 03 	mov  %g3, %g1
    4658:	a6 10 00 19 	mov  %i1, %l3
    465c:	9e 10 00 19 	mov  %i1, %o7
    4660:	84 10 00 1a 	mov  %i2, %g2
    4664:	9a 10 20 00 	clr  %o5
    4668:	a3 2e 20 02 	sll  %i0, 2, %l1
    466c:	82 10 20 00 	clr  %g1
    4670:	d6 50 80 01 	ldsh  [ %g2 + %g1 ], %o3
    4674:	98 00 40 01 	add  %g1, %g1, %o4
    4678:	82 00 60 02 	add  %g1, 2, %g1
    467c:	92 5a c0 1c 	smul  %o3, %i4, %o1
    4680:	80 a7 40 01 	cmp  %i5, %g1
    4684:	12 bf ff fb 	bne  4670 <matrix_test+0x6c>
    4688:	d2 23 c0 0c 	st  %o1, [ %o7 + %o4 ]
    468c:	9a 03 60 01 	inc  %o5
    4690:	84 00 80 1d 	add  %g2, %i5, %g2
    4694:	80 a3 40 18 	cmp  %o5, %i0
    4698:	12 bf ff f5 	bne  466c <matrix_test+0x68>
    469c:	9e 03 c0 11 	add  %o7, %l1, %o7
    46a0:	82 10 20 00 	clr  %g1
    46a4:	9a 10 20 00 	clr  %o5
    46a8:	96 10 00 19 	mov  %i1, %o3
    46ac:	90 10 00 01 	mov  %g1, %o0
    46b0:	94 10 20 00 	clr  %o2
    46b4:	88 10 20 00 	clr  %g4
    46b8:	92 10 20 00 	clr  %o1
    46bc:	c2 02 c0 09 	ld  [ %o3 + %o1 ], %g1
    46c0:	98 01 20 0a 	add  %g4, 0xa, %o4
    46c4:	86 00 40 0d 	add  %g1, %o5, %g3
    46c8:	80 a0 40 08 	cmp  %g1, %o0
    46cc:	14 80 00 03 	bg  46d8 <matrix_test+0xd4>
    46d0:	b8 10 20 01 	mov  1, %i4
    46d4:	b8 10 20 00 	clr  %i4
    46d8:	84 01 00 1c 	add  %g4, %i4, %g2
    46dc:	80 a0 c0 10 	cmp  %g3, %l0
    46e0:	04 80 00 04 	ble  46f0 <matrix_test+0xec>
    46e4:	9a 10 00 03 	mov  %g3, %o5
    46e8:	9a 10 20 00 	clr  %o5
    46ec:	80 a0 c0 10 	cmp  %g3, %l0
    46f0:	34 80 00 02 	bg,a   46f8 <matrix_test+0xf4>
    46f4:	84 10 00 0c 	mov  %o4, %g2
    46f8:	92 02 60 04 	add  %o1, 4, %o1
    46fc:	88 10 00 02 	mov  %g2, %g4
    4700:	80 a4 40 09 	cmp  %l1, %o1
    4704:	12 bf ff ee 	bne  46bc <matrix_test+0xb8>
    4708:	90 10 00 01 	mov  %g1, %o0
    470c:	94 02 a0 01 	inc  %o2
    4710:	80 a2 80 18 	cmp  %o2, %i0
    4714:	12 bf ff e9 	bne  46b8 <matrix_test+0xb4>
    4718:	96 02 c0 11 	add  %o3, %l1, %o3
    471c:	9f 28 a0 10 	sll  %g2, 0x10, %o7
    4720:	91 3b e0 10 	sra  %o7, 0x10, %o0
    4724:	40 00 09 36 	call  6bfc <crc16>
    4728:	92 10 20 00 	clr  %o1
    472c:	92 10 00 1a 	mov  %i2, %o1
    4730:	98 10 20 00 	clr  %o4
    4734:	84 10 20 00 	clr  %g2
    4738:	c0 26 40 0c 	clr  [ %i1 + %o4 ]
    473c:	82 10 20 00 	clr  %g1
    4740:	f8 52 40 01 	ldsh  [ %o1 + %g1 ], %i4
    4744:	c6 56 c0 01 	ldsh  [ %i3 + %g1 ], %g3
    4748:	82 00 60 02 	add  %g1, 2, %g1
    474c:	9a 5f 00 03 	smul  %i4, %g3, %o5
    4750:	80 a7 40 01 	cmp  %i5, %g1
    4754:	12 bf ff fb 	bne  4740 <matrix_test+0x13c>
    4758:	84 00 80 0d 	add  %g2, %o5, %g2
    475c:	c4 26 40 0c 	st  %g2, [ %i1 + %o4 ]
    4760:	98 03 20 04 	add  %o4, 4, %o4
    4764:	80 a4 40 0c 	cmp  %l1, %o4
    4768:	12 bf ff f3 	bne  4734 <matrix_test+0x130>
    476c:	92 02 40 1d 	add  %o1, %i5, %o1
    4770:	82 10 20 00 	clr  %g1
    4774:	96 10 00 19 	mov  %i1, %o3
    4778:	94 10 20 00 	clr  %o2
    477c:	88 10 20 00 	clr  %g4
    4780:	84 10 20 00 	clr  %g2
    4784:	92 10 00 01 	mov  %g1, %o1
    4788:	9a 10 20 00 	clr  %o5
    478c:	c2 02 c0 0d 	ld  [ %o3 + %o5 ], %g1
    4790:	98 01 20 0a 	add  %g4, 0xa, %o4
    4794:	86 00 40 02 	add  %g1, %g2, %g3
    4798:	80 a0 40 09 	cmp  %g1, %o1
    479c:	14 80 00 03 	bg  47a8 <matrix_test+0x1a4>
    47a0:	9e 10 20 01 	mov  1, %o7
    47a4:	9e 10 20 00 	clr  %o7
    47a8:	b8 01 00 0f 	add  %g4, %o7, %i4
    47ac:	80 a0 c0 10 	cmp  %g3, %l0
    47b0:	04 80 00 04 	ble  47c0 <matrix_test+0x1bc>
    47b4:	84 10 00 03 	mov  %g3, %g2
    47b8:	80 a0 c0 10 	cmp  %g3, %l0
    47bc:	84 10 20 00 	clr  %g2
    47c0:	34 80 00 02 	bg,a   47c8 <matrix_test+0x1c4>
    47c4:	b8 10 00 0c 	mov  %o4, %i4
    47c8:	9a 03 60 04 	add  %o5, 4, %o5
    47cc:	88 10 00 1c 	mov  %i4, %g4
    47d0:	80 a4 40 0d 	cmp  %l1, %o5
    47d4:	12 bf ff ee 	bne  478c <matrix_test+0x188>
    47d8:	92 10 00 01 	mov  %g1, %o1
    47dc:	94 02 a0 01 	inc  %o2
    47e0:	80 a2 80 18 	cmp  %o2, %i0
    47e4:	12 bf ff e9 	bne  4788 <matrix_test+0x184>
    47e8:	96 02 c0 11 	add  %o3, %l1, %o3
    47ec:	9b 2f 20 10 	sll  %i4, 0x10, %o5
    47f0:	93 2a 20 10 	sll  %o0, 0x10, %o1
    47f4:	91 3b 60 10 	sra  %o5, 0x10, %o0
    47f8:	40 00 09 01 	call  6bfc <crc16>
    47fc:	93 32 60 10 	srl  %o1, 0x10, %o1
    4800:	94 10 00 19 	mov  %i1, %o2
    4804:	9e 10 00 1a 	mov  %i2, %o7
    4808:	96 10 20 00 	clr  %o3
    480c:	98 10 00 0a 	mov  %o2, %o4
    4810:	9a 10 20 00 	clr  %o5
    4814:	82 10 20 00 	clr  %g1
    4818:	86 10 20 00 	clr  %g3
    481c:	c0 23 00 00 	clr  [ %o4 ]
    4820:	84 03 40 1b 	add  %o5, %i3, %g2
    4824:	f8 53 c0 01 	ldsh  [ %o7 + %g1 ], %i4
    4828:	c8 50 80 00 	ldsh  [ %g2 ], %g4
    482c:	82 00 60 02 	add  %g1, 2, %g1
    4830:	84 00 80 1d 	add  %g2, %i5, %g2
    4834:	92 5f 00 04 	smul  %i4, %g4, %o1
    4838:	80 a7 40 01 	cmp  %i5, %g1
    483c:	12 bf ff fa 	bne  4824 <matrix_test+0x220>
    4840:	86 00 c0 09 	add  %g3, %o1, %g3
    4844:	9a 03 60 02 	add  %o5, 2, %o5
    4848:	c6 23 00 00 	st  %g3, [ %o4 ]
    484c:	80 a7 40 0d 	cmp  %i5, %o5
    4850:	12 bf ff f1 	bne  4814 <matrix_test+0x210>
    4854:	98 03 20 04 	add  %o4, 4, %o4
    4858:	96 02 e0 01 	inc  %o3
    485c:	9e 03 c0 1d 	add  %o7, %i5, %o7
    4860:	80 a2 c0 18 	cmp  %o3, %i0
    4864:	12 bf ff ea 	bne  480c <matrix_test+0x208>
    4868:	94 02 80 11 	add  %o2, %l1, %o2
    486c:	82 10 20 00 	clr  %g1
    4870:	88 10 20 00 	clr  %g4
    4874:	86 10 20 00 	clr  %g3
    4878:	9a 10 00 01 	mov  %g1, %o5
    487c:	96 10 00 19 	mov  %i1, %o3
    4880:	94 10 20 00 	clr  %o2
    4884:	92 10 20 00 	clr  %o1
    4888:	c2 02 c0 09 	ld  [ %o3 + %o1 ], %g1
    488c:	98 01 20 0a 	add  %g4, 0xa, %o4
    4890:	80 a0 40 0d 	cmp  %g1, %o5
    4894:	84 00 40 03 	add  %g1, %g3, %g2
    4898:	14 80 00 03 	bg  48a4 <matrix_test+0x2a0>
    489c:	9e 10 20 01 	mov  1, %o7
    48a0:	9e 10 20 00 	clr  %o7
    48a4:	b8 01 00 0f 	add  %g4, %o7, %i4
    48a8:	80 a0 80 10 	cmp  %g2, %l0
    48ac:	04 80 00 04 	ble  48bc <matrix_test+0x2b8>
    48b0:	86 10 00 02 	mov  %g2, %g3
    48b4:	86 10 20 00 	clr  %g3
    48b8:	80 a0 80 10 	cmp  %g2, %l0
    48bc:	34 80 00 02 	bg,a   48c4 <matrix_test+0x2c0>
    48c0:	b8 10 00 0c 	mov  %o4, %i4
    48c4:	92 02 60 04 	add  %o1, 4, %o1
    48c8:	88 10 00 1c 	mov  %i4, %g4
    48cc:	80 a4 40 09 	cmp  %l1, %o1
    48d0:	12 bf ff ee 	bne  4888 <matrix_test+0x284>
    48d4:	9a 10 00 01 	mov  %g1, %o5
    48d8:	94 02 a0 01 	inc  %o2
    48dc:	80 a2 80 18 	cmp  %o2, %i0
    48e0:	12 bf ff e9 	bne  4884 <matrix_test+0x280>
    48e4:	96 02 c0 11 	add  %o3, %l1, %o3
    48e8:	9b 2f 20 10 	sll  %i4, 0x10, %o5
    48ec:	93 2a 20 10 	sll  %o0, 0x10, %o1
    48f0:	91 3b 60 10 	sra  %o5, 0x10, %o0
    48f4:	40 00 08 c2 	call  6bfc <crc16>
    48f8:	93 32 60 10 	srl  %o1, 0x10, %o1
    48fc:	98 10 20 00 	clr  %o4
    4900:	9e 10 20 00 	clr  %o7
    4904:	94 10 00 19 	mov  %i1, %o2
    4908:	c0 22 80 00 	clr  [ %o2 ]
    490c:	84 06 c0 0f 	add  %i3, %o7, %g2
    4910:	82 10 20 00 	clr  %g1
    4914:	88 10 20 00 	clr  %g4
    4918:	f8 56 80 01 	ldsh  [ %i2 + %g1 ], %i4
    491c:	82 00 60 02 	add  %g1, 2, %g1
    4920:	c6 50 80 00 	ldsh  [ %g2 ], %g3
    4924:	84 00 80 1d 	add  %g2, %i5, %g2
    4928:	80 a7 40 01 	cmp  %i5, %g1
    492c:	96 5f 00 03 	smul  %i4, %g3, %o3
    4930:	9b 3a e0 05 	sra  %o3, 5, %o5
    4934:	93 3a e0 02 	sra  %o3, 2, %o1
    4938:	b8 0b 60 7f 	and  %o5, 0x7f, %i4
    493c:	86 0a 60 0f 	and  %o1, 0xf, %g3
    4940:	96 5f 00 03 	smul  %i4, %g3, %o3
    4944:	12 bf ff f5 	bne  4918 <matrix_test+0x314>
    4948:	88 02 c0 04 	add  %o3, %g4, %g4
    494c:	9e 03 e0 02 	add  %o7, 2, %o7
    4950:	c8 22 80 00 	st  %g4, [ %o2 ]
    4954:	80 a7 40 0f 	cmp  %i5, %o7
    4958:	12 bf ff ec 	bne  4908 <matrix_test+0x304>
    495c:	94 02 a0 04 	add  %o2, 4, %o2
    4960:	98 03 20 01 	inc  %o4
    4964:	b4 06 80 1d 	add  %i2, %i5, %i2
    4968:	80 a3 00 18 	cmp  %o4, %i0
    496c:	12 bf ff e5 	bne  4900 <matrix_test+0x2fc>
    4970:	b2 06 40 11 	add  %i1, %l1, %i1
    4974:	82 10 20 00 	clr  %g1
    4978:	84 10 20 00 	clr  %g2
    497c:	9e 10 20 00 	clr  %o7
    4980:	b4 10 00 01 	mov  %g1, %i2
    4984:	92 10 20 00 	clr  %o1
    4988:	98 10 20 00 	clr  %o4
    498c:	c2 04 c0 0c 	ld  [ %l3 + %o4 ], %g1
    4990:	b2 02 60 0a 	add  %o1, 0xa, %i1
    4994:	94 00 40 02 	add  %g1, %g2, %o2
    4998:	80 a0 40 1a 	cmp  %g1, %i2
    499c:	14 80 00 03 	bg  49a8 <matrix_test+0x3a4>
    49a0:	b6 10 20 01 	mov  1, %i3
    49a4:	b6 10 20 00 	clr  %i3
    49a8:	9a 02 40 1b 	add  %o1, %i3, %o5
    49ac:	80 a2 80 10 	cmp  %o2, %l0
    49b0:	04 80 00 04 	ble  49c0 <matrix_test+0x3bc>
    49b4:	84 10 00 0a 	mov  %o2, %g2
    49b8:	84 10 20 00 	clr  %g2
    49bc:	80 a2 80 10 	cmp  %o2, %l0
    49c0:	34 80 00 02 	bg,a   49c8 <matrix_test+0x3c4>
    49c4:	9a 10 00 19 	mov  %i1, %o5
    49c8:	98 03 20 04 	add  %o4, 4, %o4
    49cc:	92 10 00 0d 	mov  %o5, %o1
    49d0:	80 a4 40 0c 	cmp  %l1, %o4
    49d4:	12 bf ff ee 	bne  498c <matrix_test+0x388>
    49d8:	b4 10 00 01 	mov  %g1, %i2
    49dc:	9e 03 e0 01 	inc  %o7
    49e0:	80 a3 c0 18 	cmp  %o7, %i0
    49e4:	12 bf ff e9 	bne  4988 <matrix_test+0x384>
    49e8:	a6 04 c0 11 	add  %l3, %l1, %l3
    49ec:	a1 2b 60 10 	sll  %o5, 0x10, %l0
    49f0:	a3 2a 20 10 	sll  %o0, 0x10, %l1
    49f4:	a6 10 20 00 	clr  %l3
    49f8:	91 3c 20 10 	sra  %l0, 0x10, %o0
    49fc:	40 00 08 80 	call  6bfc <crc16>
    4a00:	93 34 60 10 	srl  %l1, 0x10, %o1
    4a04:	b8 07 40 14 	add  %i5, %l4, %i4
    4a08:	c2 15 00 00 	lduh  [ %l4 ], %g1
    4a0c:	82 20 40 12 	sub  %g1, %l2, %g1
    4a10:	c2 35 00 00 	sth  %g1, [ %l4 ]
    4a14:	a8 05 20 02 	add  %l4, 2, %l4
    4a18:	80 a5 00 1c 	cmp  %l4, %i4
    4a1c:	32 bf ff fc 	bne,a   4a0c <matrix_test+0x408>
    4a20:	c2 15 00 00 	lduh  [ %l4 ], %g1
    4a24:	a6 04 e0 01 	inc  %l3
    4a28:	80 a4 c0 18 	cmp  %l3, %i0
    4a2c:	32 bf ff f7 	bne,a   4a08 <matrix_test+0x404>
    4a30:	b8 07 40 14 	add  %i5, %l4, %i4
    4a34:	b1 2a 20 10 	sll  %o0, 0x10, %i0
    4a38:	b1 3e 20 10 	sra  %i0, 0x10, %i0
    4a3c:	81 c7 e0 08 	ret 
    4a40:	81 e8 00 00 	restore 
    4a44:	92 10 20 00 	clr  %o1
    4a48:	40 00 08 6d 	call  6bfc <crc16>
    4a4c:	90 10 20 00 	clr  %o0
    4a50:	93 2a 20 10 	sll  %o0, 0x10, %o1
    4a54:	90 10 20 00 	clr  %o0
    4a58:	40 00 08 69 	call  6bfc <crc16>
    4a5c:	93 32 60 10 	srl  %o1, 0x10, %o1
    4a60:	83 2a 20 10 	sll  %o0, 0x10, %g1
    4a64:	90 10 20 00 	clr  %o0
    4a68:	40 00 08 65 	call  6bfc <crc16>
    4a6c:	93 30 60 10 	srl  %g1, 0x10, %o1
    4a70:	85 2a 20 10 	sll  %o0, 0x10, %g2
    4a74:	90 10 20 00 	clr  %o0
    4a78:	40 00 08 61 	call  6bfc <crc16>
    4a7c:	93 30 a0 10 	srl  %g2, 0x10, %o1
    4a80:	b1 2a 20 10 	sll  %o0, 0x10, %i0
    4a84:	b1 3e 20 10 	sra  %i0, 0x10, %i0
    4a88:	81 c7 e0 08 	ret 
    4a8c:	81 e8 00 00 	restore 

00004a90 <core_bench_matrix>:
    4a90:	9d e3 bf a0 	save  %sp, -96, %sp
    4a94:	98 10 00 19 	mov  %i1, %o4
    4a98:	d0 06 00 00 	ld  [ %i0 ], %o0
    4a9c:	d2 06 20 0c 	ld  [ %i0 + 0xc ], %o1
    4aa0:	d4 06 20 04 	ld  [ %i0 + 4 ], %o2
    4aa4:	d6 06 20 08 	ld  [ %i0 + 8 ], %o3
    4aa8:	7f ff fe d7 	call  4604 <matrix_test>
    4aac:	b2 10 00 1a 	mov  %i2, %i1
    4ab0:	b1 2a 20 10 	sll  %o0, 0x10, %i0
    4ab4:	b1 3e 20 10 	sra  %i0, 0x10, %i0
    4ab8:	40 00 08 51 	call  6bfc <crc16>
    4abc:	81 e8 00 00 	restore 

00004ac0 <core_init_matrix>:
    4ac0:	9d e3 bf a0 	save  %sp, -96, %sp
    4ac4:	80 a6 a0 00 	cmp  %i2, 0
    4ac8:	22 80 00 02 	be,a   4ad0 <core_init_matrix+0x10>
    4acc:	b4 10 20 01 	mov  1, %i2
    4ad0:	80 a6 20 00 	cmp  %i0, 0
    4ad4:	22 80 00 3a 	be,a   4bbc <core_init_matrix+0xfc>
    4ad8:	b2 06 7f ff 	add  %i1, -1, %i1
    4adc:	84 10 20 00 	clr  %g2
    4ae0:	82 00 a0 01 	add  %g2, 1, %g1
    4ae4:	86 58 40 01 	smul  %g1, %g1, %g3
    4ae8:	89 28 e0 03 	sll  %g3, 3, %g4
    4aec:	80 a6 00 04 	cmp  %i0, %g4
    4af0:	38 bf ff fc 	bgu,a   4ae0 <core_init_matrix+0x20>
    4af4:	84 10 00 01 	mov  %g1, %g2
    4af8:	b8 58 80 02 	smul  %g2, %g2, %i4
    4afc:	b0 06 7f ff 	add  %i1, -1, %i0
    4b00:	80 a0 a0 00 	cmp  %g2, 0
    4b04:	96 07 00 1c 	add  %i4, %i4, %o3
    4b08:	ba 0e 3f fc 	and  %i0, -4, %i5
    4b0c:	b0 10 00 02 	mov  %g2, %i0
    4b10:	9a 07 60 04 	add  %i5, 4, %o5
    4b14:	02 80 00 20 	be  4b94 <core_init_matrix+0xd4>
    4b18:	98 03 40 0b 	add  %o5, %o3, %o4
    4b1c:	05 00 00 3f 	sethi  %hi(0xfc00), %g2
    4b20:	88 10 20 01 	mov  1, %g4
    4b24:	9e 10 20 00 	clr  %o7
    4b28:	b2 10 a3 ff 	or  %g2, 0x3ff, %i1
    4b2c:	86 5b c0 18 	smul  %o7, %i0, %g3
    4b30:	82 10 00 04 	mov  %g4, %g1
    4b34:	84 10 20 00 	clr  %g2
    4b38:	ba 00 c0 03 	add  %g3, %g3, %i5
    4b3c:	b8 03 00 1d 	add  %o4, %i5, %i4
    4b40:	ba 03 40 1d 	add  %o5, %i5, %i5
    4b44:	b4 58 40 1a 	smul  %g1, %i2, %i2
    4b48:	87 3e a0 1f 	sra  %i2, 0x1f, %g3
    4b4c:	87 30 e0 10 	srl  %g3, 0x10, %g3
    4b50:	b4 06 80 03 	add  %i2, %g3, %i2
    4b54:	b4 0e 80 19 	and  %i2, %i1, %i2
    4b58:	b4 26 80 03 	sub  %i2, %g3, %i2
    4b5c:	86 06 80 01 	add  %i2, %g1, %g3
    4b60:	c6 37 00 02 	sth  %g3, [ %i4 + %g2 ]
    4b64:	86 00 c0 01 	add  %g3, %g1, %g3
    4b68:	82 00 60 01 	inc  %g1
    4b6c:	86 08 e0 ff 	and  %g3, 0xff, %g3
    4b70:	c6 37 40 02 	sth  %g3, [ %i5 + %g2 ]
    4b74:	86 20 40 04 	sub  %g1, %g4, %g3
    4b78:	80 a6 00 03 	cmp  %i0, %g3
    4b7c:	18 bf ff f2 	bgu  4b44 <core_init_matrix+0x84>
    4b80:	84 00 a0 02 	add  %g2, 2, %g2
    4b84:	9e 03 e0 01 	inc  %o7
    4b88:	80 a3 c0 18 	cmp  %o7, %i0
    4b8c:	0a bf ff e8 	bcs  4b2c <core_init_matrix+0x6c>
    4b90:	88 10 00 01 	mov  %g1, %g4
    4b94:	82 03 00 0b 	add  %o4, %o3, %g1
    4b98:	da 26 e0 04 	st  %o5, [ %i3 + 4 ]
    4b9c:	d8 26 e0 08 	st  %o4, [ %i3 + 8 ]
    4ba0:	82 00 7f ff 	add  %g1, -1, %g1
    4ba4:	f0 26 c0 00 	st  %i0, [ %i3 ]
    4ba8:	82 08 7f fc 	and  %g1, -4, %g1
    4bac:	82 00 60 04 	add  %g1, 4, %g1
    4bb0:	c2 26 e0 0c 	st  %g1, [ %i3 + 0xc ]
    4bb4:	81 c7 e0 08 	ret 
    4bb8:	81 e8 00 00 	restore 
    4bbc:	98 0e 7f fc 	and  %i1, -4, %o4
    4bc0:	96 10 20 02 	mov  2, %o3
    4bc4:	b0 10 3f ff 	mov  -1, %i0
    4bc8:	9a 03 20 04 	add  %o4, 4, %o5
    4bcc:	10 bf ff d4 	b  4b1c <core_init_matrix+0x5c>
    4bd0:	98 03 20 06 	add  %o4, 6, %o4

00004bd4 <matrix_sum>:
    4bd4:	9d e3 bf a0 	save  %sp, -96, %sp
    4bd8:	80 a6 20 00 	cmp  %i0, 0
    4bdc:	02 80 00 22 	be  4c64 <matrix_sum+0x90>
    4be0:	9f 2e 20 02 	sll  %i0, 2, %o7
    4be4:	ba 10 20 00 	clr  %i5
    4be8:	9a 10 20 00 	clr  %o5
    4bec:	88 10 20 00 	clr  %g4
    4bf0:	b8 10 20 00 	clr  %i4
    4bf4:	82 10 20 00 	clr  %g1
    4bf8:	c4 06 40 01 	ld  [ %i1 + %g1 ], %g2
    4bfc:	b6 01 20 0a 	add  %g4, 0xa, %i3
    4c00:	86 07 40 02 	add  %i5, %g2, %g3
    4c04:	80 a0 80 1c 	cmp  %g2, %i4
    4c08:	14 80 00 03 	bg  4c14 <matrix_sum+0x40>
    4c0c:	ba 10 20 01 	mov  1, %i5
    4c10:	ba 10 20 00 	clr  %i5
    4c14:	80 a0 c0 1a 	cmp  %g3, %i2
    4c18:	88 01 00 1d 	add  %g4, %i5, %g4
    4c1c:	04 80 00 04 	ble  4c2c <matrix_sum+0x58>
    4c20:	ba 10 00 03 	mov  %g3, %i5
    4c24:	ba 10 20 00 	clr  %i5
    4c28:	80 a0 c0 1a 	cmp  %g3, %i2
    4c2c:	34 80 00 02 	bg,a   4c34 <matrix_sum+0x60>
    4c30:	88 10 00 1b 	mov  %i3, %g4
    4c34:	82 00 60 04 	add  %g1, 4, %g1
    4c38:	80 a3 c0 01 	cmp  %o7, %g1
    4c3c:	12 bf ff ef 	bne  4bf8 <matrix_sum+0x24>
    4c40:	b8 10 00 02 	mov  %g2, %i4
    4c44:	9a 03 60 01 	inc  %o5
    4c48:	80 a3 40 18 	cmp  %o5, %i0
    4c4c:	12 bf ff ea 	bne  4bf4 <matrix_sum+0x20>
    4c50:	b2 06 40 0f 	add  %i1, %o7, %i1
    4c54:	b1 29 20 10 	sll  %g4, 0x10, %i0
    4c58:	b1 3e 20 10 	sra  %i0, 0x10, %i0
    4c5c:	81 c7 e0 08 	ret 
    4c60:	81 e8 00 00 	restore 
    4c64:	88 10 20 00 	clr  %g4
    4c68:	b1 29 20 10 	sll  %g4, 0x10, %i0
    4c6c:	b1 3e 20 10 	sra  %i0, 0x10, %i0
    4c70:	81 c7 e0 08 	ret 
    4c74:	81 e8 00 00 	restore 

00004c78 <matrix_mul_const>:
    4c78:	80 a2 20 00 	cmp  %o0, 0
    4c7c:	02 80 00 11 	be  4cc0 <matrix_mul_const+0x48>
    4c80:	88 02 00 08 	add  %o0, %o0, %g4
    4c84:	99 2a 20 02 	sll  %o0, 2, %o4
    4c88:	9a 10 20 00 	clr  %o5
    4c8c:	82 10 20 00 	clr  %g1
    4c90:	c6 52 80 01 	ldsh  [ %o2 + %g1 ], %g3
    4c94:	84 00 40 01 	add  %g1, %g1, %g2
    4c98:	82 00 60 02 	add  %g1, 2, %g1
    4c9c:	86 58 c0 0b 	smul  %g3, %o3, %g3
    4ca0:	80 a1 00 01 	cmp  %g4, %g1
    4ca4:	12 bf ff fb 	bne  4c90 <matrix_mul_const+0x18>
    4ca8:	c6 22 40 02 	st  %g3, [ %o1 + %g2 ]
    4cac:	9a 03 60 01 	inc  %o5
    4cb0:	94 02 80 04 	add  %o2, %g4, %o2
    4cb4:	80 a3 40 08 	cmp  %o5, %o0
    4cb8:	12 bf ff f5 	bne  4c8c <matrix_mul_const+0x14>
    4cbc:	92 02 40 0c 	add  %o1, %o4, %o1
    4cc0:	81 c3 e0 08 	retl 
    4cc4:	01 00 00 00 	nop 

00004cc8 <matrix_add_const>:
    4cc8:	80 a2 20 00 	cmp  %o0, 0
    4ccc:	02 80 00 0f 	be  4d08 <matrix_add_const+0x40>
    4cd0:	88 02 00 08 	add  %o0, %o0, %g4
    4cd4:	86 10 20 00 	clr  %g3
    4cd8:	84 01 00 09 	add  %g4, %o1, %g2
    4cdc:	c2 12 40 00 	lduh  [ %o1 ], %g1
    4ce0:	82 00 40 0a 	add  %g1, %o2, %g1
    4ce4:	c2 32 40 00 	sth  %g1, [ %o1 ]
    4ce8:	92 02 60 02 	add  %o1, 2, %o1
    4cec:	80 a2 40 02 	cmp  %o1, %g2
    4cf0:	32 bf ff fc 	bne,a   4ce0 <matrix_add_const+0x18>
    4cf4:	c2 12 40 00 	lduh  [ %o1 ], %g1
    4cf8:	86 00 e0 01 	inc  %g3
    4cfc:	80 a0 c0 08 	cmp  %g3, %o0
    4d00:	12 bf ff f7 	bne  4cdc <matrix_add_const+0x14>
    4d04:	84 01 00 09 	add  %g4, %o1, %g2
    4d08:	81 c3 e0 08 	retl 
    4d0c:	01 00 00 00 	nop 

00004d10 <matrix_mul_vect>:
    4d10:	80 a2 20 00 	cmp  %o0, 0
    4d14:	02 80 00 13 	be  4d60 <matrix_mul_vect+0x50>
    4d18:	9a 02 00 08 	add  %o0, %o0, %o5
    4d1c:	98 10 20 00 	clr  %o4
    4d20:	91 2a 20 02 	sll  %o0, 2, %o0
    4d24:	82 10 20 00 	clr  %g1
    4d28:	84 10 20 00 	clr  %g2
    4d2c:	c0 22 40 0c 	clr  [ %o1 + %o4 ]
    4d30:	c8 52 80 01 	ldsh  [ %o2 + %g1 ], %g4
    4d34:	c6 52 c0 01 	ldsh  [ %o3 + %g1 ], %g3
    4d38:	82 00 60 02 	add  %g1, 2, %g1
    4d3c:	88 59 00 03 	smul  %g4, %g3, %g4
    4d40:	80 a0 40 0d 	cmp  %g1, %o5
    4d44:	12 bf ff fb 	bne  4d30 <matrix_mul_vect+0x20>
    4d48:	84 00 80 04 	add  %g2, %g4, %g2
    4d4c:	c4 22 40 0c 	st  %g2, [ %o1 + %o4 ]
    4d50:	98 03 20 04 	add  %o4, 4, %o4
    4d54:	80 a3 00 08 	cmp  %o4, %o0
    4d58:	12 bf ff f3 	bne  4d24 <matrix_mul_vect+0x14>
    4d5c:	94 02 80 0d 	add  %o2, %o5, %o2
    4d60:	81 c3 e0 08 	retl 
    4d64:	01 00 00 00 	nop 

00004d68 <matrix_mul_matrix>:
    4d68:	9d e3 bf a0 	save  %sp, -96, %sp
    4d6c:	80 a6 20 00 	cmp  %i0, 0
    4d70:	02 80 00 1d 	be  4de4 <matrix_mul_matrix+0x7c>
    4d74:	88 06 00 18 	add  %i0, %i0, %g4
    4d78:	97 2e 20 02 	sll  %i0, 2, %o3
    4d7c:	98 10 00 19 	mov  %i1, %o4
    4d80:	9a 10 20 00 	clr  %o5
    4d84:	b2 10 20 00 	clr  %i1
    4d88:	9e 10 00 0c 	mov  %o4, %o7
    4d8c:	c0 23 c0 00 	clr  [ %o7 ]
    4d90:	84 06 c0 19 	add  %i3, %i1, %g2
    4d94:	82 10 20 00 	clr  %g1
    4d98:	86 10 20 00 	clr  %g3
    4d9c:	f8 56 80 01 	ldsh  [ %i2 + %g1 ], %i4
    4da0:	fa 50 80 00 	ldsh  [ %g2 ], %i5
    4da4:	82 00 60 02 	add  %g1, 2, %g1
    4da8:	84 00 80 04 	add  %g2, %g4, %g2
    4dac:	b8 5f 00 1d 	smul  %i4, %i5, %i4
    4db0:	80 a1 00 01 	cmp  %g4, %g1
    4db4:	12 bf ff fa 	bne  4d9c <matrix_mul_matrix+0x34>
    4db8:	86 00 c0 1c 	add  %g3, %i4, %g3
    4dbc:	b2 06 60 02 	add  %i1, 2, %i1
    4dc0:	c6 23 c0 00 	st  %g3, [ %o7 ]
    4dc4:	80 a1 00 19 	cmp  %g4, %i1
    4dc8:	12 bf ff f1 	bne  4d8c <matrix_mul_matrix+0x24>
    4dcc:	9e 03 e0 04 	add  %o7, 4, %o7
    4dd0:	9a 03 60 01 	inc  %o5
    4dd4:	b4 06 80 04 	add  %i2, %g4, %i2
    4dd8:	80 a3 40 18 	cmp  %o5, %i0
    4ddc:	12 bf ff ea 	bne  4d84 <matrix_mul_matrix+0x1c>
    4de0:	98 03 00 0b 	add  %o4, %o3, %o4
    4de4:	81 c7 e0 08 	ret 
    4de8:	81 e8 00 00 	restore 

00004dec <matrix_mul_matrix_bitextract>:
    4dec:	9d e3 bf a0 	save  %sp, -96, %sp
    4df0:	80 a6 20 00 	cmp  %i0, 0
    4df4:	02 80 00 22 	be  4e7c <matrix_mul_matrix_bitextract+0x90>
    4df8:	ba 06 00 18 	add  %i0, %i0, %i5
    4dfc:	97 2e 20 02 	sll  %i0, 2, %o3
    4e00:	98 10 00 19 	mov  %i1, %o4
    4e04:	9a 10 20 00 	clr  %o5
    4e08:	9e 10 00 0c 	mov  %o4, %o7
    4e0c:	b2 10 20 00 	clr  %i1
    4e10:	84 06 c0 19 	add  %i3, %i1, %g2
    4e14:	82 10 20 00 	clr  %g1
    4e18:	88 10 20 00 	clr  %g4
    4e1c:	c0 23 c0 00 	clr  [ %o7 ]
    4e20:	f8 56 80 01 	ldsh  [ %i2 + %g1 ], %i4
    4e24:	c6 50 80 00 	ldsh  [ %g2 ], %g3
    4e28:	82 00 60 02 	add  %g1, 2, %g1
    4e2c:	84 00 80 1d 	add  %g2, %i5, %g2
    4e30:	86 5f 00 03 	smul  %i4, %g3, %g3
    4e34:	80 a7 40 01 	cmp  %i5, %g1
    4e38:	b9 38 e0 05 	sra  %g3, 5, %i4
    4e3c:	87 38 e0 02 	sra  %g3, 2, %g3
    4e40:	b8 0f 20 7f 	and  %i4, 0x7f, %i4
    4e44:	86 08 e0 0f 	and  %g3, 0xf, %g3
    4e48:	b8 5f 00 03 	smul  %i4, %g3, %i4
    4e4c:	12 bf ff f5 	bne  4e20 <matrix_mul_matrix_bitextract+0x34>
    4e50:	88 07 00 04 	add  %i4, %g4, %g4
    4e54:	b2 06 60 02 	add  %i1, 2, %i1
    4e58:	c8 23 c0 00 	st  %g4, [ %o7 ]
    4e5c:	80 a7 40 19 	cmp  %i5, %i1
    4e60:	12 bf ff ec 	bne  4e10 <matrix_mul_matrix_bitextract+0x24>
    4e64:	9e 03 e0 04 	add  %o7, 4, %o7
    4e68:	9a 03 60 01 	inc  %o5
    4e6c:	b4 06 80 1d 	add  %i2, %i5, %i2
    4e70:	80 a3 40 18 	cmp  %o5, %i0
    4e74:	12 bf ff e5 	bne  4e08 <matrix_mul_matrix_bitextract+0x1c>
    4e78:	98 03 00 0b 	add  %o4, %o3, %o4
    4e7c:	81 c7 e0 08 	ret 
    4e80:	81 e8 00 00 	restore 

00004e84 <barebones_clock>:
    4e84:	9d e3 bf a0 	save  %sp, -96, %sp
    4e88:	40 00 12 fc 	call  9a78 <__ajit_read_cycle_count_register_high__>
    4e8c:	01 00 00 00 	nop 
    4e90:	40 00 12 fd 	call  9a84 <__ajit_read_cycle_count_register_low__>
    4e94:	b0 10 00 08 	mov  %o0, %i0
    4e98:	83 2e 20 18 	sll  %i0, 0x18, %g1
    4e9c:	91 32 20 08 	srl  %o0, 8, %o0
    4ea0:	b0 12 00 01 	or  %o0, %g1, %i0
    4ea4:	81 c7 e0 08 	ret 
    4ea8:	81 e8 00 00 	restore 

00004eac <start_time>:
    4eac:	9d e3 bf a0 	save  %sp, -96, %sp
    4eb0:	40 00 12 f2 	call  9a78 <__ajit_read_cycle_count_register_high__>
    4eb4:	01 00 00 00 	nop 
    4eb8:	40 00 12 f3 	call  9a84 <__ajit_read_cycle_count_register_low__>
    4ebc:	ba 10 00 08 	mov  %o0, %i5
    4ec0:	83 2f 60 18 	sll  %i5, 0x18, %g1
    4ec4:	91 32 20 08 	srl  %o0, 8, %o0
    4ec8:	84 12 00 01 	or  %o0, %g1, %g2
    4ecc:	03 00 00 83 	sethi  %hi(0x20c00), %g1
    4ed0:	c4 20 62 e8 	st  %g2, [ %g1 + 0x2e8 ]	! 20ee8 <start_time_val>
    4ed4:	81 c7 e0 08 	ret 
    4ed8:	81 e8 00 00 	restore 

00004edc <stop_time>:
    4edc:	9d e3 bf a0 	save  %sp, -96, %sp
    4ee0:	40 00 12 e6 	call  9a78 <__ajit_read_cycle_count_register_high__>
    4ee4:	01 00 00 00 	nop 
    4ee8:	40 00 12 e7 	call  9a84 <__ajit_read_cycle_count_register_low__>
    4eec:	ba 10 00 08 	mov  %o0, %i5
    4ef0:	83 2f 60 18 	sll  %i5, 0x18, %g1
    4ef4:	91 32 20 08 	srl  %o0, 8, %o0
    4ef8:	84 12 00 01 	or  %o0, %g1, %g2
    4efc:	03 00 00 83 	sethi  %hi(0x20c00), %g1
    4f00:	c4 20 62 ec 	st  %g2, [ %g1 + 0x2ec ]	! 20eec <stop_time_val>
    4f04:	81 c7 e0 08 	ret 
    4f08:	81 e8 00 00 	restore 

00004f0c <get_time>:
    4f0c:	03 00 00 83 	sethi  %hi(0x20c00), %g1
    4f10:	d0 00 62 ec 	ld  [ %g1 + 0x2ec ], %o0	! 20eec <stop_time_val>
    4f14:	03 00 00 83 	sethi  %hi(0x20c00), %g1
    4f18:	c2 00 62 e8 	ld  [ %g1 + 0x2e8 ], %g1	! 20ee8 <start_time_val>
    4f1c:	81 c3 e0 08 	retl 
    4f20:	90 22 00 01 	sub  %o0, %g1, %o0

00004f24 <time_in_secs>:
    4f24:	9c 03 bf b0 	add  %sp, -80, %sp
    4f28:	80 a2 20 00 	cmp  %o0, 0
    4f2c:	d0 23 a0 4c 	st  %o0, [ %sp + 0x4c ]
    4f30:	d5 03 a0 4c 	ld  [ %sp + 0x4c ], %f10
    4f34:	06 80 00 07 	bl  4f50 <time_in_secs+0x2c>
    4f38:	91 a0 19 0a 	fitod  %f10, %f8
    4f3c:	03 00 00 81 	sethi  %hi(0x20400), %g1
    4f40:	9c 23 bf b0 	sub  %sp, -80, %sp
    4f44:	c5 18 62 a0 	ldd  [ %g1 + 0x2a0 ], %f2
    4f48:	81 c3 e0 08 	retl 
    4f4c:	81 a2 09 c2 	fdivd  %f8, %f2, %f0
    4f50:	03 00 00 81 	sethi  %hi(0x20400), %g1
    4f54:	9c 23 bf b0 	sub  %sp, -80, %sp
    4f58:	c1 18 62 90 	ldd  [ %g1 + 0x290 ], %f0
    4f5c:	03 00 00 81 	sethi  %hi(0x20400), %g1
    4f60:	91 a2 08 40 	faddd  %f8, %f0, %f8
    4f64:	c5 18 62 a0 	ldd  [ %g1 + 0x2a0 ], %f2
    4f68:	81 c3 e0 08 	retl 
    4f6c:	81 a2 09 c2 	fdivd  %f8, %f2, %f0

00004f70 <portable_init>:
    4f70:	9d e3 bf a0 	save  %sp, -96, %sp
    4f74:	90 10 20 01 	mov  1, %o0
    4f78:	92 10 20 00 	clr  %o1
    4f7c:	40 00 13 29 	call  9c20 <__ajit_serial_configure__>
    4f80:	94 10 20 00 	clr  %o2
    4f84:	92 10 20 0d 	mov  0xd, %o1
    4f88:	11 00 00 81 	sethi  %hi(0x20400), %o0
    4f8c:	40 00 13 65 	call  9d20 <__ajit_serial_puts__>
    4f90:	90 12 21 20 	or  %o0, 0x120, %o0	! 20520 <state_known_crc+0x50c>
    4f94:	03 00 00 83 	sethi  %hi(0x20c00), %g1
    4f98:	84 10 20 66 	mov  0x66, %g2
    4f9c:	86 10 27 d0 	mov  0x7d0, %g3
    4fa0:	c0 20 62 e4 	clr  [ %g1 + 0x2e4 ]
    4fa4:	03 00 00 83 	sethi  %hi(0x20c00), %g1
    4fa8:	c0 20 62 e0 	clr  [ %g1 + 0x2e0 ]	! 20ee0 <seed2_volatile>
    4fac:	03 00 00 81 	sethi  %hi(0x20400), %g1
    4fb0:	c4 20 62 c8 	st  %g2, [ %g1 + 0x2c8 ]	! 206c8 <seed3_volatile>
    4fb4:	03 00 00 81 	sethi  %hi(0x20400), %g1
    4fb8:	c6 20 62 c4 	st  %g3, [ %g1 + 0x2c4 ]	! 206c4 <seed4_volatile>
    4fbc:	03 00 00 81 	sethi  %hi(0x20400), %g1
    4fc0:	c0 20 62 c0 	clr  [ %g1 + 0x2c0 ]	! 206c0 <seed5_volatile>
    4fc4:	82 10 20 01 	mov  1, %g1
    4fc8:	c2 2e 00 00 	stb  %g1, [ %i0 ]
    4fcc:	81 c7 e0 08 	ret 
    4fd0:	81 e8 00 00 	restore 

00004fd4 <portable_fini>:
    4fd4:	9d e3 bf a0 	save  %sp, -96, %sp
    4fd8:	92 10 20 0e 	mov  0xe, %o1
    4fdc:	11 00 00 81 	sethi  %hi(0x20400), %o0
    4fe0:	40 00 13 50 	call  9d20 <__ajit_serial_puts__>
    4fe4:	90 12 21 30 	or  %o0, 0x130, %o0	! 20530 <state_known_crc+0x51c>
    4fe8:	c0 2e 00 00 	clrb  [ %i0 ]
    4fec:	81 c7 e0 08 	ret 
    4ff0:	81 e8 00 00 	restore 
    4ff4:	00 00 52 40 	unimp  0x5240
    4ff8:	00 00 52 40 	unimp  0x5240
    4ffc:	00 00 52 58 	unimp  0x5258
    5000:	00 00 52 58 	unimp  0x5258
    5004:	00 00 52 70 	unimp  0x5270
    5008:	00 00 52 d8 	unimp  0x52d8
    500c:	00 00 53 2c 	unimp  0x532c
    5010:	00 00 54 00 	unimp  0x5400
    5014:	00 00 54 28 	unimp  0x5428
    5018:	00 00 53 d4 	unimp  0x53d4
    501c:	00 00 53 b0 	unimp  0x53b0
    5020:	00 00 53 8c 	unimp  0x538c
    5024:	00 00 53 64 	unimp  0x5364

00005028 <core_init_state>:
    5028:	9d e3 bf a0 	save  %sp, -96, %sp
    502c:	88 10 20 00 	clr  %g4
    5030:	96 06 3f ff 	add  %i0, -1, %o3
    5034:	b6 10 20 00 	clr  %i3
    5038:	ba 10 20 00 	clr  %i5
    503c:	92 10 20 2c 	mov  0x2c, %o1
    5040:	25 00 00 81 	sethi  %hi(0x20400), %l2
    5044:	23 00 00 81 	sethi  %hi(0x20400), %l1
    5048:	21 00 00 81 	sethi  %hi(0x20400), %l0
    504c:	11 00 00 81 	sethi  %hi(0x20400), %o0
    5050:	15 00 00 13 	sethi  %hi(0x4c00), %o2
    5054:	98 07 40 1b 	add  %i5, %i3, %o4
    5058:	9a 03 20 01 	add  %o4, 1, %o5
    505c:	80 a2 c0 0d 	cmp  %o3, %o5
    5060:	08 80 00 44 	bleu  5170 <core_init_state+0x148>
    5064:	80 a6 00 1d 	cmp  %i0, %i5
    5068:	80 a6 e0 00 	cmp  %i3, 0
    506c:	22 80 00 2e 	be,a   5124 <core_init_state+0xfc>
    5070:	b2 06 60 01 	inc  %i1
    5074:	86 60 3f ff 	subx  %g0, -1, %g3
    5078:	84 60 3f ff 	subx  %g0, -1, %g2
    507c:	9f 36 e0 02 	srl  %i3, 2, %o7
    5080:	ba 06 80 1d 	add  %i2, %i5, %i5
    5084:	86 10 c0 02 	or  %g3, %g2, %g3
    5088:	82 07 60 04 	add  %i5, 4, %g1
    508c:	80 a1 00 01 	cmp  %g4, %g1
    5090:	82 01 20 04 	add  %g4, 4, %g1
    5094:	80 a7 40 01 	cmp  %i5, %g1
    5098:	83 2b e0 02 	sll  %o7, 2, %g1
    509c:	80 a6 e0 03 	cmp  %i3, 3
    50a0:	18 80 00 03 	bgu  50ac <core_init_state+0x84>
    50a4:	84 10 20 01 	mov  1, %g2
    50a8:	84 10 20 00 	clr  %g2
    50ac:	b8 17 40 04 	or  %i5, %g4, %i4
    50b0:	84 08 c0 02 	and  %g3, %g2, %g2
    50b4:	b8 0f 20 03 	and  %i4, 3, %i4
    50b8:	80 a0 00 1c 	cmp  %g0, %i4
    50bc:	86 60 3f ff 	subx  %g0, -1, %g3
    50c0:	80 88 80 03 	btst  %g2, %g3
    50c4:	02 80 00 73 	be  5290 <core_init_state+0x268>
    50c8:	80 a0 60 00 	cmp  %g1, 0
    50cc:	22 80 00 0d 	be,a   5100 <core_init_state+0xd8>
    50d0:	82 10 20 00 	clr  %g1
    50d4:	84 10 20 00 	clr  %g2
    50d8:	86 10 20 00 	clr  %g3
    50dc:	f8 01 00 02 	ld  [ %g4 + %g2 ], %i4
    50e0:	86 00 e0 01 	inc  %g3
    50e4:	f8 27 40 02 	st  %i4, [ %i5 + %g2 ]
    50e8:	80 a3 c0 03 	cmp  %o7, %g3
    50ec:	18 bf ff fc 	bgu  50dc <core_init_state+0xb4>
    50f0:	84 00 a0 04 	add  %g2, 4, %g2
    50f4:	80 a6 c0 01 	cmp  %i3, %g1
    50f8:	22 80 00 09 	be,a   511c <core_init_state+0xf4>
    50fc:	d2 2e 80 0c 	stb  %o1, [ %i2 + %o4 ]
    5100:	f8 09 00 01 	ldub  [ %g4 + %g1 ], %i4
    5104:	f8 2f 40 01 	stb  %i4, [ %i5 + %g1 ]
    5108:	82 00 60 01 	inc  %g1
    510c:	80 a6 c0 01 	cmp  %i3, %g1
    5110:	38 bf ff fd 	bgu,a   5104 <core_init_state+0xdc>
    5114:	f8 09 00 01 	ldub  [ %g4 + %g1 ], %i4
    5118:	d2 2e 80 0c 	stb  %o1, [ %i2 + %o4 ]
    511c:	ba 10 00 0d 	mov  %o5, %i5
    5120:	b2 06 60 01 	inc  %i1
    5124:	89 2e 60 10 	sll  %i1, 0x10, %g4
    5128:	b3 39 20 10 	sra  %g4, 0x10, %i1
    512c:	82 0e 60 07 	and  %i1, 7, %g1
    5130:	82 00 7f fd 	add  %g1, -3, %g1
    5134:	83 28 60 10 	sll  %g1, 0x10, %g1
    5138:	83 30 60 10 	srl  %g1, 0x10, %g1
    513c:	80 a0 60 04 	cmp  %g1, 4
    5140:	08 80 00 3c 	bleu  5230 <core_init_state+0x208>
    5144:	b6 12 a3 f4 	or  %o2, 0x3f4, %i3
    5148:	b6 10 20 04 	mov  4, %i3
    514c:	87 31 20 11 	srl  %g4, 0x11, %g3
    5150:	82 14 a2 fc 	or  %l2, 0x2fc, %g1
    5154:	98 07 40 1b 	add  %i5, %i3, %o4
    5158:	84 08 e0 0c 	and  %g3, 0xc, %g2
    515c:	9a 03 20 01 	add  %o4, 1, %o5
    5160:	80 a2 c0 0d 	cmp  %o3, %o5
    5164:	18 bf ff c1 	bgu  5068 <core_init_state+0x40>
    5168:	c8 00 40 02 	ld  [ %g1 + %g2 ], %g4
    516c:	80 a6 00 1d 	cmp  %i0, %i5
    5170:	08 80 00 2e 	bleu  5228 <core_init_state+0x200>
    5174:	86 10 00 1d 	mov  %i5, %g3
    5178:	88 26 00 1d 	sub  %i0, %i5, %g4
    517c:	b6 06 80 1d 	add  %i2, %i5, %i3
    5180:	84 20 00 1b 	neg  %i3, %g2
    5184:	b2 08 a0 03 	and  %g2, 3, %i1
    5188:	80 a6 40 04 	cmp  %i1, %g4
    518c:	18 80 00 3f 	bgu  5288 <core_init_state+0x260>
    5190:	82 38 00 1d 	xnor  %g0, %i5, %g1
    5194:	82 06 00 01 	add  %i0, %g1, %g1
    5198:	82 00 60 01 	inc  %g1
    519c:	80 a0 60 03 	cmp  %g1, 3
    51a0:	28 80 00 02 	bleu,a   51a8 <core_init_state+0x180>
    51a4:	b2 10 00 01 	mov  %g1, %i1
    51a8:	80 a6 60 00 	cmp  %i1, 0
    51ac:	22 80 00 0b 	be,a   51d8 <core_init_state+0x1b0>
    51b0:	88 21 00 19 	sub  %g4, %i1, %g4
    51b4:	c0 2e 80 1d 	clrb  [ %i2 + %i5 ]
    51b8:	ba 07 60 01 	inc  %i5
    51bc:	82 27 40 03 	sub  %i5, %g3, %g1
    51c0:	80 a6 40 01 	cmp  %i1, %g1
    51c4:	38 bf ff fd 	bgu,a   51b8 <core_init_state+0x190>
    51c8:	c0 2e 80 1d 	clrb  [ %i2 + %i5 ]
    51cc:	80 a1 00 19 	cmp  %g4, %i1
    51d0:	02 80 00 16 	be  5228 <core_init_state+0x200>
    51d4:	88 21 00 19 	sub  %g4, %i1, %g4
    51d8:	87 31 20 02 	srl  %g4, 2, %g3
    51dc:	b9 28 e0 02 	sll  %g3, 2, %i4
    51e0:	80 a7 20 00 	cmp  %i4, 0
    51e4:	22 80 00 0d 	be,a   5218 <core_init_state+0x1f0>
    51e8:	c0 2e 80 1d 	clrb  [ %i2 + %i5 ]
    51ec:	82 10 20 00 	clr  %g1
    51f0:	b6 06 c0 19 	add  %i3, %i1, %i3
    51f4:	82 00 60 01 	inc  %g1
    51f8:	c0 26 c0 00 	clr  [ %i3 ]
    51fc:	80 a0 40 03 	cmp  %g1, %g3
    5200:	0a bf ff fd 	bcs  51f4 <core_init_state+0x1cc>
    5204:	b6 06 e0 04 	add  %i3, 4, %i3
    5208:	80 a1 00 1c 	cmp  %g4, %i4
    520c:	02 80 00 07 	be  5228 <core_init_state+0x200>
    5210:	ba 07 40 1c 	add  %i5, %i4, %i5
    5214:	c0 2e 80 1d 	clrb  [ %i2 + %i5 ]
    5218:	ba 07 60 01 	inc  %i5
    521c:	80 a6 00 1d 	cmp  %i0, %i5
    5220:	38 bf ff fe 	bgu,a   5218 <core_init_state+0x1f0>
    5224:	c0 2e 80 1d 	clrb  [ %i2 + %i5 ]
    5228:	81 c7 e0 08 	ret 
    522c:	81 e8 00 00 	restore 
    5230:	83 28 60 02 	sll  %g1, 2, %g1
    5234:	c2 06 c0 01 	ld  [ %i3 + %g1 ], %g1
    5238:	81 c0 40 00 	jmp  %g1
    523c:	01 00 00 00 	nop 
    5240:	83 36 60 01 	srl  %i1, 1, %g1
    5244:	86 12 22 ec 	or  %o0, 0x2ec, %g3
    5248:	b6 10 20 08 	mov  8, %i3
    524c:	82 08 60 0c 	and  %g1, 0xc, %g1
    5250:	10 bf ff 81 	b  5054 <core_init_state+0x2c>
    5254:	c8 00 c0 01 	ld  [ %g3 + %g1 ], %g4
    5258:	83 36 60 01 	srl  %i1, 1, %g1
    525c:	b6 10 20 08 	mov  8, %i3
    5260:	84 14 22 dc 	or  %l0, 0x2dc, %g2
    5264:	82 08 60 0c 	and  %g1, 0xc, %g1
    5268:	10 bf ff 7b 	b  5054 <core_init_state+0x2c>
    526c:	c8 00 80 01 	ld  [ %g2 + %g1 ], %g4
    5270:	83 36 60 01 	srl  %i1, 1, %g1
    5274:	b8 14 62 cc 	or  %l1, 0x2cc, %i4
    5278:	b6 10 20 08 	mov  8, %i3
    527c:	82 08 60 0c 	and  %g1, 0xc, %g1
    5280:	10 bf ff 75 	b  5054 <core_init_state+0x2c>
    5284:	c8 07 00 01 	ld  [ %i4 + %g1 ], %g4
    5288:	10 bf ff c3 	b  5194 <core_init_state+0x16c>
    528c:	b2 10 00 04 	mov  %g4, %i1
    5290:	10 bf ff 9c 	b  5100 <core_init_state+0xd8>
    5294:	82 10 20 00 	clr  %g1

00005298 <core_state_transition>:
    5298:	da 02 00 00 	ld  [ %o0 ], %o5
    529c:	c2 0b 40 00 	ldub  [ %o5 ], %g1
    52a0:	88 88 60 ff 	andcc  %g1, 0xff, %g4
    52a4:	02 80 00 90 	be  54e4 <core_state_transition+0x24c>
    52a8:	94 10 00 08 	mov  %o0, %o2
    52ac:	80 a1 20 2c 	cmp  %g4, 0x2c
    52b0:	02 80 00 8f 	be  54ec <core_state_transition+0x254>
    52b4:	84 03 60 01 	add  %o5, 1, %g2
    52b8:	86 10 00 0d 	mov  %o5, %g3
    52bc:	90 10 20 00 	clr  %o0
    52c0:	17 00 00 14 	sethi  %hi(0x5000), %o3
    52c4:	98 12 e0 08 	or  %o3, 8, %o4	! 5008 <portable_fini+0x34>
    52c8:	9b 2a 20 02 	sll  %o0, 2, %o5
    52cc:	d8 03 00 0d 	ld  [ %o4 + %o5 ], %o4
    52d0:	81 c3 00 00 	jmp  %o4
    52d4:	01 00 00 00 	nop 
    52d8:	82 00 7f d0 	add  %g1, -48, %g1
    52dc:	82 08 60 ff 	and  %g1, 0xff, %g1
    52e0:	80 a0 60 09 	cmp  %g1, 9
    52e4:	08 80 00 0f 	bleu  5320 <core_state_transition+0x88>
    52e8:	90 10 20 04 	mov  4, %o0
    52ec:	80 a1 20 2d 	cmp  %g4, 0x2d
    52f0:	22 80 00 70 	be,a   54b0 <core_state_transition+0x218>
    52f4:	c2 02 40 00 	ld  [ %o1 ], %g1
    52f8:	80 a1 20 2b 	cmp  %g4, 0x2b
    52fc:	22 80 00 6d 	be,a   54b0 <core_state_transition+0x218>
    5300:	c2 02 40 00 	ld  [ %o1 ], %g1
    5304:	80 a1 20 2e 	cmp  %g4, 0x2e
    5308:	02 80 00 06 	be  5320 <core_state_transition+0x88>
    530c:	90 10 20 05 	mov  5, %o0
    5310:	c2 02 60 04 	ld  [ %o1 + 4 ], %g1
    5314:	90 10 20 01 	mov  1, %o0
    5318:	82 00 60 01 	inc  %g1
    531c:	c2 22 60 04 	st  %g1, [ %o1 + 4 ]
    5320:	c2 02 40 00 	ld  [ %o1 ], %g1
    5324:	82 00 60 01 	inc  %g1
    5328:	c2 22 40 00 	st  %g1, [ %o1 ]
    532c:	c2 08 e0 01 	ldub  [ %g3 + 1 ], %g1
    5330:	88 88 60 ff 	andcc  %g1, 0xff, %g4
    5334:	02 80 00 0a 	be  535c <core_state_transition+0xc4>
    5338:	9a 10 00 02 	mov  %g2, %o5
    533c:	80 a2 20 01 	cmp  %o0, 1
    5340:	22 80 00 43 	be,a   544c <core_state_transition+0x1b4>
    5344:	90 10 20 01 	mov  1, %o0
    5348:	84 00 a0 01 	inc  %g2
    534c:	80 a1 20 2c 	cmp  %g4, 0x2c
    5350:	12 bf ff dd 	bne  52c4 <core_state_transition+0x2c>
    5354:	86 00 e0 01 	inc  %g3
    5358:	9a 03 60 01 	inc  %o5
    535c:	81 c3 e0 08 	retl 
    5360:	da 22 80 00 	st  %o5, [ %o2 ]
    5364:	82 00 7f d0 	add  %g1, -48, %g1
    5368:	82 08 60 ff 	and  %g1, 0xff, %g1
    536c:	80 a0 60 09 	cmp  %g1, 9
    5370:	38 80 00 4a 	bgu,a   5498 <core_state_transition+0x200>
    5374:	c2 02 60 04 	ld  [ %o1 + 4 ], %g1
    5378:	c2 08 e0 01 	ldub  [ %g3 + 1 ], %g1
    537c:	88 88 60 ff 	andcc  %g1, 0xff, %g4
    5380:	12 bf ff f2 	bne  5348 <core_state_transition+0xb0>
    5384:	9a 10 00 02 	mov  %g2, %o5
    5388:	30 bf ff f5 	b,a   535c <core_state_transition+0xc4>
    538c:	82 00 7f d0 	add  %g1, -48, %g1
    5390:	82 08 60 ff 	and  %g1, 0xff, %g1
    5394:	80 a0 60 09 	cmp  %g1, 9
    5398:	18 80 00 43 	bgu  54a4 <core_state_transition+0x20c>
    539c:	c2 02 60 18 	ld  [ %o1 + 0x18 ], %g1
    53a0:	90 10 20 07 	mov  7, %o0
    53a4:	82 00 60 01 	inc  %g1
    53a8:	10 bf ff f4 	b  5378 <core_state_transition+0xe0>
    53ac:	c2 22 60 18 	st  %g1, [ %o1 + 0x18 ]
    53b0:	88 08 60 df 	and  %g1, 0xdf, %g4
    53b4:	80 a1 20 45 	cmp  %g4, 0x45
    53b8:	12 80 00 2b 	bne  5464 <core_state_transition+0x1cc>
    53bc:	82 00 7f d0 	add  %g1, -48, %g1
    53c0:	c2 02 60 14 	ld  [ %o1 + 0x14 ], %g1
    53c4:	90 10 20 03 	mov  3, %o0
    53c8:	82 00 60 01 	inc  %g1
    53cc:	10 bf ff eb 	b  5378 <core_state_transition+0xe0>
    53d0:	c2 22 60 14 	st  %g1, [ %o1 + 0x14 ]
    53d4:	80 a1 20 2e 	cmp  %g4, 0x2e
    53d8:	02 80 00 3a 	be  54c0 <core_state_transition+0x228>
    53dc:	82 00 7f d0 	add  %g1, -48, %g1
    53e0:	82 08 60 ff 	and  %g1, 0xff, %g1
    53e4:	80 a0 60 09 	cmp  %g1, 9
    53e8:	28 bf ff e5 	bleu,a   537c <core_state_transition+0xe4>
    53ec:	c2 08 e0 01 	ldub  [ %g3 + 1 ], %g1
    53f0:	c2 02 60 10 	ld  [ %o1 + 0x10 ], %g1
    53f4:	82 00 60 01 	inc  %g1
    53f8:	10 80 00 13 	b  5444 <core_state_transition+0x1ac>
    53fc:	c2 22 60 10 	st  %g1, [ %o1 + 0x10 ]
    5400:	82 00 7f d0 	add  %g1, -48, %g1
    5404:	82 08 60 ff 	and  %g1, 0xff, %g1
    5408:	80 a0 60 09 	cmp  %g1, 9
    540c:	18 80 00 1e 	bgu  5484 <core_state_transition+0x1ec>
    5410:	80 a1 20 2e 	cmp  %g4, 0x2e
    5414:	c2 02 60 08 	ld  [ %o1 + 8 ], %g1
    5418:	90 10 20 04 	mov  4, %o0
    541c:	82 00 60 01 	inc  %g1
    5420:	10 bf ff d6 	b  5378 <core_state_transition+0xe0>
    5424:	c2 22 60 08 	st  %g1, [ %o1 + 8 ]
    5428:	80 a1 20 2d 	cmp  %g4, 0x2d
    542c:	02 80 00 0a 	be  5454 <core_state_transition+0x1bc>
    5430:	c2 02 60 0c 	ld  [ %o1 + 0xc ], %g1
    5434:	80 a1 20 2b 	cmp  %g4, 0x2b
    5438:	02 80 00 08 	be  5458 <core_state_transition+0x1c0>
    543c:	82 00 60 01 	inc  %g1
    5440:	c2 22 60 0c 	st  %g1, [ %o1 + 0xc ]
    5444:	9a 10 00 02 	mov  %g2, %o5
    5448:	90 10 20 01 	mov  1, %o0
    544c:	81 c3 e0 08 	retl 
    5450:	da 22 80 00 	st  %o5, [ %o2 ]
    5454:	82 00 60 01 	inc  %g1
    5458:	90 10 20 06 	mov  6, %o0
    545c:	10 bf ff c7 	b  5378 <core_state_transition+0xe0>
    5460:	c2 22 60 0c 	st  %g1, [ %o1 + 0xc ]
    5464:	82 08 60 ff 	and  %g1, 0xff, %g1
    5468:	80 a0 60 09 	cmp  %g1, 9
    546c:	28 bf ff c4 	bleu,a   537c <core_state_transition+0xe4>
    5470:	c2 08 e0 01 	ldub  [ %g3 + 1 ], %g1
    5474:	c2 02 60 14 	ld  [ %o1 + 0x14 ], %g1
    5478:	82 00 60 01 	inc  %g1
    547c:	10 bf ff f2 	b  5444 <core_state_transition+0x1ac>
    5480:	c2 22 60 14 	st  %g1, [ %o1 + 0x14 ]
    5484:	02 80 00 14 	be  54d4 <core_state_transition+0x23c>
    5488:	c2 02 60 08 	ld  [ %o1 + 8 ], %g1
    548c:	82 00 60 01 	inc  %g1
    5490:	10 bf ff ed 	b  5444 <core_state_transition+0x1ac>
    5494:	c2 22 60 08 	st  %g1, [ %o1 + 8 ]
    5498:	82 00 60 01 	inc  %g1
    549c:	10 bf ff ea 	b  5444 <core_state_transition+0x1ac>
    54a0:	c2 22 60 04 	st  %g1, [ %o1 + 4 ]
    54a4:	82 00 60 01 	inc  %g1
    54a8:	10 bf ff e7 	b  5444 <core_state_transition+0x1ac>
    54ac:	c2 22 60 18 	st  %g1, [ %o1 + 0x18 ]
    54b0:	90 10 20 02 	mov  2, %o0
    54b4:	82 00 60 01 	inc  %g1
    54b8:	10 bf ff 9d 	b  532c <core_state_transition+0x94>
    54bc:	c2 22 40 00 	st  %g1, [ %o1 ]
    54c0:	c2 02 60 10 	ld  [ %o1 + 0x10 ], %g1
    54c4:	90 10 20 05 	mov  5, %o0
    54c8:	82 00 60 01 	inc  %g1
    54cc:	10 bf ff ab 	b  5378 <core_state_transition+0xe0>
    54d0:	c2 22 60 10 	st  %g1, [ %o1 + 0x10 ]
    54d4:	90 10 20 05 	mov  5, %o0
    54d8:	82 00 60 01 	inc  %g1
    54dc:	10 bf ff a7 	b  5378 <core_state_transition+0xe0>
    54e0:	c2 22 60 08 	st  %g1, [ %o1 + 8 ]
    54e4:	10 bf ff 9e 	b  535c <core_state_transition+0xc4>
    54e8:	90 10 20 00 	clr  %o0
    54ec:	90 10 20 00 	clr  %o0
    54f0:	10 bf ff 9b 	b  535c <core_state_transition+0xc4>
    54f4:	9a 03 60 01 	inc  %o5

000054f8 <core_bench_state>:
    54f8:	9d e3 bf 58 	save  %sp, -168, %sp
    54fc:	c2 0e 40 00 	ldub  [ %i1 ], %g1
    5500:	c0 27 bf c4 	clr  [ %fp + -60 ]
    5504:	c0 27 bf c8 	clr  [ %fp + -56 ]
    5508:	c0 27 bf cc 	clr  [ %fp + -52 ]
    550c:	c0 27 bf d0 	clr  [ %fp + -48 ]
    5510:	c0 27 bf d4 	clr  [ %fp + -44 ]
    5514:	c0 27 bf d8 	clr  [ %fp + -40 ]
    5518:	c0 27 bf dc 	clr  [ %fp + -36 ]
    551c:	80 a0 60 00 	cmp  %g1, 0
    5520:	c0 27 bf e0 	clr  [ %fp + -32 ]
    5524:	c0 27 bf e4 	clr  [ %fp + -28 ]
    5528:	f2 27 bf bc 	st  %i1, [ %fp + -68 ]
    552c:	c0 27 bf e8 	clr  [ %fp + -24 ]
    5530:	c0 27 bf ec 	clr  [ %fp + -20 ]
    5534:	c0 27 bf f0 	clr  [ %fp + -16 ]
    5538:	c0 27 bf f4 	clr  [ %fp + -12 ]
    553c:	c0 27 bf f8 	clr  [ %fp + -8 ]
    5540:	c0 27 bf fc 	clr  [ %fp + -4 ]
    5544:	c0 27 bf c0 	clr  [ %fp + -64 ]
    5548:	02 80 00 11 	be  558c <core_bench_state+0x94>
    554c:	94 10 20 00 	clr  %o2
    5550:	a0 07 bf bc 	add  %fp, -68, %l0
    5554:	90 10 00 10 	mov  %l0, %o0
    5558:	7f ff ff 50 	call  5298 <core_state_transition>
    555c:	92 07 bf e0 	add  %fp, -32, %o1
    5560:	91 2a 20 02 	sll  %o0, 2, %o0
    5564:	82 07 80 08 	add  %fp, %o0, %g1
    5568:	c4 00 7f c0 	ld  [ %g1 + -64 ], %g2
    556c:	86 00 a0 01 	add  %g2, 1, %g3
    5570:	c6 20 7f c0 	st  %g3, [ %g1 + -64 ]
    5574:	c2 07 bf bc 	ld  [ %fp + -68 ], %g1
    5578:	c2 08 40 00 	ldub  [ %g1 ], %g1
    557c:	80 a0 60 00 	cmp  %g1, 0
    5580:	12 bf ff f6 	bne  5558 <core_bench_state+0x60>
    5584:	90 10 00 10 	mov  %l0, %o0
    5588:	d4 0e 40 00 	ldub  [ %i1 ], %o2
    558c:	b0 06 40 18 	add  %i1, %i0, %i0
    5590:	80 a6 40 18 	cmp  %i1, %i0
    5594:	1a 80 00 10 	bcc  55d4 <core_bench_state+0xdc>
    5598:	f2 27 bf bc 	st  %i1, [ %fp + -68 ]
    559c:	10 80 00 03 	b  55a8 <core_bench_state+0xb0>
    55a0:	82 10 00 19 	mov  %i1, %g1
    55a4:	d4 08 40 00 	ldub  [ %g1 ], %o2
    55a8:	88 0a a0 ff 	and  %o2, 0xff, %g4
    55ac:	80 a1 20 2c 	cmp  %g4, 0x2c
    55b0:	02 80 00 04 	be  55c0 <core_bench_state+0xc8>
    55b4:	92 1a 80 1a 	xor  %o2, %i2, %o1
    55b8:	d2 28 40 00 	stb  %o1, [ %g1 ]
    55bc:	c2 07 bf bc 	ld  [ %fp + -68 ], %g1
    55c0:	82 00 40 1c 	add  %g1, %i4, %g1
    55c4:	80 a0 40 18 	cmp  %g1, %i0
    55c8:	0a bf ff f7 	bcs  55a4 <core_bench_state+0xac>
    55cc:	c2 27 bf bc 	st  %g1, [ %fp + -68 ]
    55d0:	d4 0e 40 00 	ldub  [ %i1 ], %o2
    55d4:	f2 27 bf bc 	st  %i1, [ %fp + -68 ]
    55d8:	80 8a a0 ff 	btst  0xff, %o2
    55dc:	02 80 00 0f 	be  5618 <core_bench_state+0x120>
    55e0:	b4 07 bf bc 	add  %fp, -68, %i2
    55e4:	90 10 00 1a 	mov  %i2, %o0
    55e8:	7f ff ff 2c 	call  5298 <core_state_transition>
    55ec:	92 07 bf e0 	add  %fp, -32, %o1
    55f0:	97 2a 20 02 	sll  %o0, 2, %o3
    55f4:	82 07 80 0b 	add  %fp, %o3, %g1
    55f8:	d8 00 7f c0 	ld  [ %g1 + -64 ], %o4
    55fc:	9a 03 20 01 	add  %o4, 1, %o5
    5600:	da 20 7f c0 	st  %o5, [ %g1 + -64 ]
    5604:	c2 07 bf bc 	ld  [ %fp + -68 ], %g1
    5608:	c2 08 40 00 	ldub  [ %g1 ], %g1
    560c:	80 a0 60 00 	cmp  %g1, 0
    5610:	12 bf ff f6 	bne  55e8 <core_bench_state+0xf0>
    5614:	90 10 00 1a 	mov  %i2, %o0
    5618:	80 a6 40 18 	cmp  %i1, %i0
    561c:	1a 80 00 0d 	bcc  5650 <core_bench_state+0x158>
    5620:	f2 27 bf bc 	st  %i1, [ %fp + -68 ]
    5624:	c2 0e 40 00 	ldub  [ %i1 ], %g1
    5628:	9e 08 60 ff 	and  %g1, 0xff, %o7
    562c:	80 a3 e0 2c 	cmp  %o7, 0x2c
    5630:	02 80 00 04 	be  5640 <core_bench_state+0x148>
    5634:	82 18 40 1b 	xor  %g1, %i3, %g1
    5638:	c2 2e 40 00 	stb  %g1, [ %i1 ]
    563c:	f2 07 bf bc 	ld  [ %fp + -68 ], %i1
    5640:	b2 06 40 1c 	add  %i1, %i4, %i1
    5644:	80 a6 40 18 	cmp  %i1, %i0
    5648:	0a bf ff f7 	bcs  5624 <core_bench_state+0x12c>
    564c:	f2 27 bf bc 	st  %i1, [ %fp + -68 ]
    5650:	92 10 00 1d 	mov  %i5, %o1
    5654:	40 00 02 f7 	call  6230 <crcu32>
    5658:	d0 07 bf c0 	ld  [ %fp + -64 ], %o0
    565c:	92 10 00 08 	mov  %o0, %o1
    5660:	40 00 02 f4 	call  6230 <crcu32>
    5664:	d0 07 bf e0 	ld  [ %fp + -32 ], %o0
    5668:	92 10 00 08 	mov  %o0, %o1
    566c:	40 00 02 f1 	call  6230 <crcu32>
    5670:	d0 07 bf c4 	ld  [ %fp + -60 ], %o0
    5674:	92 10 00 08 	mov  %o0, %o1
    5678:	40 00 02 ee 	call  6230 <crcu32>
    567c:	d0 07 bf e4 	ld  [ %fp + -28 ], %o0
    5680:	92 10 00 08 	mov  %o0, %o1
    5684:	40 00 02 eb 	call  6230 <crcu32>
    5688:	d0 07 bf c8 	ld  [ %fp + -56 ], %o0
    568c:	92 10 00 08 	mov  %o0, %o1
    5690:	40 00 02 e8 	call  6230 <crcu32>
    5694:	d0 07 bf e8 	ld  [ %fp + -24 ], %o0
    5698:	92 10 00 08 	mov  %o0, %o1
    569c:	40 00 02 e5 	call  6230 <crcu32>
    56a0:	d0 07 bf cc 	ld  [ %fp + -52 ], %o0
    56a4:	92 10 00 08 	mov  %o0, %o1
    56a8:	40 00 02 e2 	call  6230 <crcu32>
    56ac:	d0 07 bf ec 	ld  [ %fp + -20 ], %o0
    56b0:	92 10 00 08 	mov  %o0, %o1
    56b4:	40 00 02 df 	call  6230 <crcu32>
    56b8:	d0 07 bf d0 	ld  [ %fp + -48 ], %o0
    56bc:	92 10 00 08 	mov  %o0, %o1
    56c0:	40 00 02 dc 	call  6230 <crcu32>
    56c4:	d0 07 bf f0 	ld  [ %fp + -16 ], %o0
    56c8:	92 10 00 08 	mov  %o0, %o1
    56cc:	40 00 02 d9 	call  6230 <crcu32>
    56d0:	d0 07 bf d4 	ld  [ %fp + -44 ], %o0
    56d4:	92 10 00 08 	mov  %o0, %o1
    56d8:	40 00 02 d6 	call  6230 <crcu32>
    56dc:	d0 07 bf f4 	ld  [ %fp + -12 ], %o0
    56e0:	92 10 00 08 	mov  %o0, %o1
    56e4:	40 00 02 d3 	call  6230 <crcu32>
    56e8:	d0 07 bf d8 	ld  [ %fp + -40 ], %o0
    56ec:	92 10 00 08 	mov  %o0, %o1
    56f0:	40 00 02 d0 	call  6230 <crcu32>
    56f4:	d0 07 bf f8 	ld  [ %fp + -8 ], %o0
    56f8:	92 10 00 08 	mov  %o0, %o1
    56fc:	40 00 02 cd 	call  6230 <crcu32>
    5700:	d0 07 bf dc 	ld  [ %fp + -36 ], %o0
    5704:	92 10 00 08 	mov  %o0, %o1
    5708:	40 00 02 ca 	call  6230 <crcu32>
    570c:	d0 07 bf fc 	ld  [ %fp + -4 ], %o0
    5710:	81 c7 e0 08 	ret 
    5714:	91 e8 00 08 	restore  %g0, %o0, %o0
    5718:	00 00 57 3c 	unimp  0x573c
    571c:	00 00 57 68 	unimp  0x5768
    5720:	00 00 57 78 	unimp  0x5778
    5724:	00 00 57 88 	unimp  0x5788
    5728:	00 00 57 98 	unimp  0x5798
    572c:	00 00 57 58 	unimp  0x5758

00005730 <get_seed_32>:
    5730:	80 a2 20 05 	cmp  %o0, 5
    5734:	28 80 00 04 	bleu,a   5744 <get_seed_32+0x14>
    5738:	91 2a 20 02 	sll  %o0, 2, %o0
    573c:	81 c3 e0 08 	retl 
    5740:	90 10 20 00 	clr  %o0
    5744:	03 00 00 15 	sethi  %hi(0x5400), %g1
    5748:	82 10 63 18 	or  %g1, 0x318, %g1	! 5718 <core_bench_state+0x220>
    574c:	c2 00 40 08 	ld  [ %g1 + %o0 ], %g1
    5750:	81 c0 40 00 	jmp  %g1
    5754:	01 00 00 00 	nop 
    5758:	03 00 00 81 	sethi  %hi(0x20400), %g1
    575c:	d0 00 62 c0 	ld  [ %g1 + 0x2c0 ], %o0	! 206c0 <seed5_volatile>
    5760:	81 c3 e0 08 	retl 
    5764:	01 00 00 00 	nop 
    5768:	03 00 00 83 	sethi  %hi(0x20c00), %g1
    576c:	d0 00 62 e4 	ld  [ %g1 + 0x2e4 ], %o0	! 20ee4 <seed1_volatile>
    5770:	81 c3 e0 08 	retl 
    5774:	01 00 00 00 	nop 
    5778:	03 00 00 83 	sethi  %hi(0x20c00), %g1
    577c:	d0 00 62 e0 	ld  [ %g1 + 0x2e0 ], %o0	! 20ee0 <seed2_volatile>
    5780:	81 c3 e0 08 	retl 
    5784:	01 00 00 00 	nop 
    5788:	03 00 00 81 	sethi  %hi(0x20400), %g1
    578c:	d0 00 62 c8 	ld  [ %g1 + 0x2c8 ], %o0	! 206c8 <seed3_volatile>
    5790:	81 c3 e0 08 	retl 
    5794:	01 00 00 00 	nop 
    5798:	03 00 00 81 	sethi  %hi(0x20400), %g1
    579c:	d0 00 62 c4 	ld  [ %g1 + 0x2c4 ], %o0	! 206c4 <seed4_volatile>
    57a0:	81 c3 e0 08 	retl 
    57a4:	01 00 00 00 	nop 

000057a8 <crcu8>:
    57a8:	86 1a 00 09 	xor  %o0, %o1, %g3
    57ac:	1b 00 00 10 	sethi  %hi(0x4000), %o5
    57b0:	85 32 20 01 	srl  %o0, 1, %g2
    57b4:	80 88 e0 01 	btst  1, %g3
    57b8:	82 13 60 02 	or  %o5, 2, %g1
    57bc:	88 1a 40 01 	xor  %o1, %g1, %g4
    57c0:	83 32 60 01 	srl  %o1, 1, %g1
    57c4:	13 00 00 20 	sethi  %hi(0x8000), %o1
    57c8:	91 31 20 01 	srl  %g4, 1, %o0
    57cc:	12 80 00 5f 	bne  5948 <crcu8+0x1a0>
    57d0:	98 12 00 09 	or  %o0, %o1, %o4
    57d4:	1b 00 00 10 	sethi  %hi(0x4000), %o5
    57d8:	83 28 60 10 	sll  %g1, 0x10, %g1
    57dc:	90 13 60 02 	or  %o5, 2, %o0
    57e0:	87 30 60 10 	srl  %g1, 0x10, %g3
    57e4:	83 30 60 11 	srl  %g1, 0x11, %g1
    57e8:	88 18 80 03 	xor  %g2, %g3, %g4
    57ec:	92 18 c0 08 	xor  %g3, %o0, %o1
    57f0:	85 30 a0 01 	srl  %g2, 1, %g2
    57f4:	80 89 20 01 	btst  1, %g4
    57f8:	99 32 60 01 	srl  %o1, 1, %o4
    57fc:	07 00 00 20 	sethi  %hi(0x8000), %g3
    5800:	12 80 00 60 	bne  5980 <crcu8+0x1d8>
    5804:	9a 13 00 03 	or  %o4, %g3, %o5
    5808:	1b 00 00 20 	sethi  %hi(0x8000), %o5
    580c:	83 28 60 10 	sll  %g1, 0x10, %g1
    5810:	13 00 00 10 	sethi  %hi(0x4000), %o1
    5814:	91 30 60 10 	srl  %g1, 0x10, %o0
    5818:	98 12 60 02 	or  %o1, 2, %o4
    581c:	88 18 80 08 	xor  %g2, %o0, %g4
    5820:	85 30 a0 01 	srl  %g2, 1, %g2
    5824:	86 1a 00 0c 	xor  %o0, %o4, %g3
    5828:	80 89 20 01 	btst  1, %g4
    582c:	91 30 e0 01 	srl  %g3, 1, %o0
    5830:	92 12 00 0d 	or  %o0, %o5, %o1
    5834:	12 80 00 61 	bne  59b8 <crcu8+0x210>
    5838:	83 30 60 11 	srl  %g1, 0x11, %g1
    583c:	83 28 60 10 	sll  %g1, 0x10, %g1
    5840:	07 00 00 10 	sethi  %hi(0x4000), %g3
    5844:	99 30 60 10 	srl  %g1, 0x10, %o4
    5848:	83 30 60 11 	srl  %g1, 0x11, %g1
    584c:	90 10 e0 02 	or  %g3, 2, %o0
    5850:	88 18 80 0c 	xor  %g2, %o4, %g4
    5854:	85 30 a0 01 	srl  %g2, 1, %g2
    5858:	9a 1b 00 08 	xor  %o4, %o0, %o5
    585c:	19 00 00 20 	sethi  %hi(0x8000), %o4
    5860:	80 89 20 01 	btst  1, %g4
    5864:	93 33 60 01 	srl  %o5, 1, %o1
    5868:	12 80 00 62 	bne  59f0 <crcu8+0x248>
    586c:	86 12 40 0c 	or  %o1, %o4, %g3
    5870:	83 28 60 10 	sll  %g1, 0x10, %g1
    5874:	1b 00 00 10 	sethi  %hi(0x4000), %o5
    5878:	91 30 60 10 	srl  %g1, 0x10, %o0
    587c:	83 30 60 11 	srl  %g1, 0x11, %g1
    5880:	92 13 60 02 	or  %o5, 2, %o1
    5884:	88 18 80 08 	xor  %g2, %o0, %g4
    5888:	85 30 a0 01 	srl  %g2, 1, %g2
    588c:	98 1a 00 09 	xor  %o0, %o1, %o4
    5890:	11 00 00 20 	sethi  %hi(0x8000), %o0
    5894:	80 89 20 01 	btst  1, %g4
    5898:	87 33 20 01 	srl  %o4, 1, %g3
    589c:	12 80 00 63 	bne  5a28 <crcu8+0x280>
    58a0:	9a 10 c0 08 	or  %g3, %o0, %o5
    58a4:	1b 00 00 20 	sethi  %hi(0x8000), %o5
    58a8:	83 28 60 10 	sll  %g1, 0x10, %g1
    58ac:	19 00 00 10 	sethi  %hi(0x4000), %o4
    58b0:	93 30 60 10 	srl  %g1, 0x10, %o1
    58b4:	86 13 20 02 	or  %o4, 2, %g3
    58b8:	88 18 80 09 	xor  %g2, %o1, %g4
    58bc:	85 30 a0 01 	srl  %g2, 1, %g2
    58c0:	90 1a 40 03 	xor  %o1, %g3, %o0
    58c4:	80 89 20 01 	btst  1, %g4
    58c8:	93 32 20 01 	srl  %o0, 1, %o1
    58cc:	98 12 40 0d 	or  %o1, %o5, %o4
    58d0:	12 80 00 64 	bne  5a60 <crcu8+0x2b8>
    58d4:	83 30 60 11 	srl  %g1, 0x11, %g1
    58d8:	83 28 60 10 	sll  %g1, 0x10, %g1
    58dc:	11 00 00 10 	sethi  %hi(0x4000), %o0
    58e0:	87 30 60 10 	srl  %g1, 0x10, %g3
    58e4:	83 30 60 11 	srl  %g1, 0x11, %g1
    58e8:	92 12 20 02 	or  %o0, 2, %o1
    58ec:	88 18 80 03 	xor  %g2, %g3, %g4
    58f0:	9a 18 c0 09 	xor  %g3, %o1, %o5
    58f4:	07 00 00 20 	sethi  %hi(0x8000), %g3
    58f8:	80 89 20 01 	btst  1, %g4
    58fc:	99 33 60 01 	srl  %o5, 1, %o4
    5900:	12 80 00 65 	bne  5a94 <crcu8+0x2ec>
    5904:	90 13 00 03 	or  %o4, %g3, %o0
    5908:	93 30 a0 01 	srl  %g2, 1, %o1
    590c:	83 28 60 10 	sll  %g1, 0x10, %g1
    5910:	09 00 00 10 	sethi  %hi(0x4000), %g4
    5914:	85 30 60 10 	srl  %g1, 0x10, %g2
    5918:	83 30 60 11 	srl  %g1, 0x11, %g1
    591c:	98 11 20 02 	or  %g4, 2, %o4
    5920:	9a 08 a0 01 	and  %g2, 1, %o5
    5924:	86 18 80 0c 	xor  %g2, %o4, %g3
    5928:	80 a3 40 09 	cmp  %o5, %o1
    592c:	13 00 00 20 	sethi  %hi(0x8000), %o1
    5930:	91 30 e0 01 	srl  %g3, 1, %o0
    5934:	12 80 00 66 	bne  5acc <crcu8+0x324>
    5938:	84 12 00 09 	or  %o0, %o1, %g2
    593c:	9b 28 60 10 	sll  %g1, 0x10, %o5
    5940:	81 c3 e0 08 	retl 
    5944:	91 33 60 10 	srl  %o5, 0x10, %o0
    5948:	82 10 00 0c 	mov  %o4, %g1
    594c:	1b 00 00 10 	sethi  %hi(0x4000), %o5
    5950:	83 28 60 10 	sll  %g1, 0x10, %g1
    5954:	90 13 60 02 	or  %o5, 2, %o0
    5958:	87 30 60 10 	srl  %g1, 0x10, %g3
    595c:	83 30 60 11 	srl  %g1, 0x11, %g1
    5960:	88 18 80 03 	xor  %g2, %g3, %g4
    5964:	92 18 c0 08 	xor  %g3, %o0, %o1
    5968:	85 30 a0 01 	srl  %g2, 1, %g2
    596c:	80 89 20 01 	btst  1, %g4
    5970:	99 32 60 01 	srl  %o1, 1, %o4
    5974:	07 00 00 20 	sethi  %hi(0x8000), %g3
    5978:	02 bf ff a4 	be  5808 <crcu8+0x60>
    597c:	9a 13 00 03 	or  %o4, %g3, %o5
    5980:	82 10 00 0d 	mov  %o5, %g1
    5984:	1b 00 00 20 	sethi  %hi(0x8000), %o5
    5988:	13 00 00 10 	sethi  %hi(0x4000), %o1
    598c:	83 28 60 10 	sll  %g1, 0x10, %g1
    5990:	98 12 60 02 	or  %o1, 2, %o4
    5994:	91 30 60 10 	srl  %g1, 0x10, %o0
    5998:	88 18 80 08 	xor  %g2, %o0, %g4
    599c:	85 30 a0 01 	srl  %g2, 1, %g2
    59a0:	86 1a 00 0c 	xor  %o0, %o4, %g3
    59a4:	80 89 20 01 	btst  1, %g4
    59a8:	91 30 e0 01 	srl  %g3, 1, %o0
    59ac:	92 12 00 0d 	or  %o0, %o5, %o1
    59b0:	02 bf ff a3 	be  583c <crcu8+0x94>
    59b4:	83 30 60 11 	srl  %g1, 0x11, %g1
    59b8:	82 10 00 09 	mov  %o1, %g1
    59bc:	07 00 00 10 	sethi  %hi(0x4000), %g3
    59c0:	83 28 60 10 	sll  %g1, 0x10, %g1
    59c4:	90 10 e0 02 	or  %g3, 2, %o0
    59c8:	99 30 60 10 	srl  %g1, 0x10, %o4
    59cc:	83 30 60 11 	srl  %g1, 0x11, %g1
    59d0:	88 18 80 0c 	xor  %g2, %o4, %g4
    59d4:	9a 1b 00 08 	xor  %o4, %o0, %o5
    59d8:	85 30 a0 01 	srl  %g2, 1, %g2
    59dc:	80 89 20 01 	btst  1, %g4
    59e0:	93 33 60 01 	srl  %o5, 1, %o1
    59e4:	19 00 00 20 	sethi  %hi(0x8000), %o4
    59e8:	02 bf ff a2 	be  5870 <crcu8+0xc8>
    59ec:	86 12 40 0c 	or  %o1, %o4, %g3
    59f0:	82 10 00 03 	mov  %g3, %g1
    59f4:	1b 00 00 10 	sethi  %hi(0x4000), %o5
    59f8:	83 28 60 10 	sll  %g1, 0x10, %g1
    59fc:	92 13 60 02 	or  %o5, 2, %o1
    5a00:	91 30 60 10 	srl  %g1, 0x10, %o0
    5a04:	83 30 60 11 	srl  %g1, 0x11, %g1
    5a08:	88 18 80 08 	xor  %g2, %o0, %g4
    5a0c:	98 1a 00 09 	xor  %o0, %o1, %o4
    5a10:	85 30 a0 01 	srl  %g2, 1, %g2
    5a14:	11 00 00 20 	sethi  %hi(0x8000), %o0
    5a18:	87 33 20 01 	srl  %o4, 1, %g3
    5a1c:	80 89 20 01 	btst  1, %g4
    5a20:	02 bf ff a1 	be  58a4 <crcu8+0xfc>
    5a24:	9a 10 c0 08 	or  %g3, %o0, %o5
    5a28:	82 10 00 0d 	mov  %o5, %g1
    5a2c:	1b 00 00 20 	sethi  %hi(0x8000), %o5
    5a30:	19 00 00 10 	sethi  %hi(0x4000), %o4
    5a34:	83 28 60 10 	sll  %g1, 0x10, %g1
    5a38:	86 13 20 02 	or  %o4, 2, %g3
    5a3c:	93 30 60 10 	srl  %g1, 0x10, %o1
    5a40:	88 18 80 09 	xor  %g2, %o1, %g4
    5a44:	85 30 a0 01 	srl  %g2, 1, %g2
    5a48:	90 1a 40 03 	xor  %o1, %g3, %o0
    5a4c:	80 89 20 01 	btst  1, %g4
    5a50:	93 32 20 01 	srl  %o0, 1, %o1
    5a54:	98 12 40 0d 	or  %o1, %o5, %o4
    5a58:	02 bf ff a0 	be  58d8 <crcu8+0x130>
    5a5c:	83 30 60 11 	srl  %g1, 0x11, %g1
    5a60:	82 10 00 0c 	mov  %o4, %g1
    5a64:	11 00 00 10 	sethi  %hi(0x4000), %o0
    5a68:	83 28 60 10 	sll  %g1, 0x10, %g1
    5a6c:	92 12 20 02 	or  %o0, 2, %o1
    5a70:	87 30 60 10 	srl  %g1, 0x10, %g3
    5a74:	83 30 60 11 	srl  %g1, 0x11, %g1
    5a78:	88 18 80 03 	xor  %g2, %g3, %g4
    5a7c:	9a 18 c0 09 	xor  %g3, %o1, %o5
    5a80:	07 00 00 20 	sethi  %hi(0x8000), %g3
    5a84:	80 89 20 01 	btst  1, %g4
    5a88:	99 33 60 01 	srl  %o5, 1, %o4
    5a8c:	02 bf ff 9f 	be  5908 <crcu8+0x160>
    5a90:	90 13 00 03 	or  %o4, %g3, %o0
    5a94:	09 00 00 10 	sethi  %hi(0x4000), %g4
    5a98:	93 30 a0 01 	srl  %g2, 1, %o1
    5a9c:	82 10 00 08 	mov  %o0, %g1
    5aa0:	98 11 20 02 	or  %g4, 2, %o4
    5aa4:	83 28 60 10 	sll  %g1, 0x10, %g1
    5aa8:	85 30 60 10 	srl  %g1, 0x10, %g2
    5aac:	83 30 60 11 	srl  %g1, 0x11, %g1
    5ab0:	9a 08 a0 01 	and  %g2, 1, %o5
    5ab4:	86 18 80 0c 	xor  %g2, %o4, %g3
    5ab8:	80 a3 40 09 	cmp  %o5, %o1
    5abc:	13 00 00 20 	sethi  %hi(0x8000), %o1
    5ac0:	91 30 e0 01 	srl  %g3, 1, %o0
    5ac4:	02 bf ff 9e 	be  593c <crcu8+0x194>
    5ac8:	84 12 00 09 	or  %o0, %o1, %g2
    5acc:	82 10 00 02 	mov  %g2, %g1
    5ad0:	9b 28 60 10 	sll  %g1, 0x10, %o5
    5ad4:	81 c3 e0 08 	retl 
    5ad8:	91 33 60 10 	srl  %o5, 0x10, %o0

00005adc <crcu16>:
    5adc:	88 0a 20 ff 	and  %o0, 0xff, %g4
    5ae0:	1b 00 00 10 	sethi  %hi(0x4000), %o5
    5ae4:	82 1a 00 09 	xor  %o0, %o1, %g1
    5ae8:	99 31 20 01 	srl  %g4, 1, %o4
    5aec:	84 13 60 02 	or  %o5, 2, %g2
    5af0:	1b 00 00 20 	sethi  %hi(0x8000), %o5
    5af4:	86 1a 40 02 	xor  %o1, %g2, %g3
    5af8:	93 32 60 01 	srl  %o1, 1, %o1
    5afc:	89 30 e0 01 	srl  %g3, 1, %g4
    5b00:	86 10 00 0c 	mov  %o4, %g3
    5b04:	80 88 60 01 	btst  1, %g1
    5b08:	12 80 00 de 	bne  5e80 <crcu16+0x3a4>
    5b0c:	88 11 00 0d 	or  %g4, %o5, %g4
    5b10:	86 08 e0 ff 	and  %g3, 0xff, %g3
    5b14:	1b 00 00 10 	sethi  %hi(0x4000), %o5
    5b18:	85 2a 60 10 	sll  %o1, 0x10, %g2
    5b1c:	93 30 e0 01 	srl  %g3, 1, %o1
    5b20:	86 13 60 02 	or  %o5, 2, %g3
    5b24:	83 30 a0 10 	srl  %g2, 0x10, %g1
    5b28:	85 30 a0 11 	srl  %g2, 0x11, %g2
    5b2c:	98 1b 00 01 	xor  %o4, %g1, %o4
    5b30:	82 18 40 03 	xor  %g1, %g3, %g1
    5b34:	80 8b 20 01 	btst  1, %o4
    5b38:	19 00 00 20 	sethi  %hi(0x8000), %o4
    5b3c:	83 30 60 01 	srl  %g1, 1, %g1
    5b40:	88 10 00 09 	mov  %o1, %g4
    5b44:	12 80 00 df 	bne  5ec0 <crcu16+0x3e4>
    5b48:	82 10 40 0c 	or  %g1, %o4, %g1
    5b4c:	85 28 a0 10 	sll  %g2, 0x10, %g2
    5b50:	88 09 20 ff 	and  %g4, 0xff, %g4
    5b54:	1b 00 00 10 	sethi  %hi(0x4000), %o5
    5b58:	83 30 a0 10 	srl  %g2, 0x10, %g1
    5b5c:	89 31 20 01 	srl  %g4, 1, %g4
    5b60:	98 13 60 02 	or  %o5, 2, %o4
    5b64:	92 1a 40 01 	xor  %o1, %g1, %o1
    5b68:	85 30 a0 11 	srl  %g2, 0x11, %g2
    5b6c:	82 18 40 0c 	xor  %g1, %o4, %g1
    5b70:	80 8a 60 01 	btst  1, %o1
    5b74:	13 00 00 20 	sethi  %hi(0x8000), %o1
    5b78:	83 30 60 01 	srl  %g1, 1, %g1
    5b7c:	86 10 00 04 	mov  %g4, %g3
    5b80:	12 80 00 e0 	bne  5f00 <crcu16+0x424>
    5b84:	82 10 40 09 	or  %g1, %o1, %g1
    5b88:	93 28 a0 10 	sll  %g2, 0x10, %o1
    5b8c:	1b 00 00 10 	sethi  %hi(0x4000), %o5
    5b90:	86 08 e0 ff 	and  %g3, 0xff, %g3
    5b94:	83 32 60 10 	srl  %o1, 0x10, %g1
    5b98:	84 13 60 02 	or  %o5, 2, %g2
    5b9c:	87 30 e0 01 	srl  %g3, 1, %g3
    5ba0:	9b 32 60 11 	srl  %o1, 0x11, %o5
    5ba4:	13 00 00 20 	sethi  %hi(0x8000), %o1
    5ba8:	98 19 00 01 	xor  %g4, %g1, %o4
    5bac:	82 18 40 02 	xor  %g1, %g2, %g1
    5bb0:	88 10 00 03 	mov  %g3, %g4
    5bb4:	80 8b 20 01 	btst  1, %o4
    5bb8:	83 30 60 01 	srl  %g1, 1, %g1
    5bbc:	12 80 00 e1 	bne  5f40 <crcu16+0x464>
    5bc0:	82 10 40 09 	or  %g1, %o1, %g1
    5bc4:	98 09 20 ff 	and  %g4, 0xff, %o4
    5bc8:	85 2b 60 10 	sll  %o5, 0x10, %g2
    5bcc:	1b 00 00 10 	sethi  %hi(0x4000), %o5
    5bd0:	89 33 20 01 	srl  %o4, 1, %g4
    5bd4:	83 30 a0 10 	srl  %g2, 0x10, %g1
    5bd8:	98 13 60 02 	or  %o5, 2, %o4
    5bdc:	85 30 a0 11 	srl  %g2, 0x11, %g2
    5be0:	92 18 c0 01 	xor  %g3, %g1, %o1
    5be4:	82 18 40 0c 	xor  %g1, %o4, %g1
    5be8:	80 8a 60 01 	btst  1, %o1
    5bec:	13 00 00 20 	sethi  %hi(0x8000), %o1
    5bf0:	83 30 60 01 	srl  %g1, 1, %g1
    5bf4:	86 10 00 04 	mov  %g4, %g3
    5bf8:	12 80 00 e2 	bne  5f80 <crcu16+0x4a4>
    5bfc:	82 10 40 09 	or  %g1, %o1, %g1
    5c00:	93 28 a0 10 	sll  %g2, 0x10, %o1
    5c04:	19 00 00 10 	sethi  %hi(0x4000), %o4
    5c08:	86 08 e0 ff 	and  %g3, 0xff, %g3
    5c0c:	83 32 60 10 	srl  %o1, 0x10, %g1
    5c10:	84 13 20 02 	or  %o4, 2, %g2
    5c14:	87 30 e0 01 	srl  %g3, 1, %g3
    5c18:	88 19 00 01 	xor  %g4, %g1, %g4
    5c1c:	82 18 40 02 	xor  %g1, %g2, %g1
    5c20:	99 32 60 11 	srl  %o1, 0x11, %o4
    5c24:	13 00 00 20 	sethi  %hi(0x8000), %o1
    5c28:	83 30 60 01 	srl  %g1, 1, %g1
    5c2c:	9a 10 00 03 	mov  %g3, %o5
    5c30:	80 89 20 01 	btst  1, %g4
    5c34:	12 80 00 e3 	bne  5fc0 <crcu16+0x4e4>
    5c38:	82 10 40 09 	or  %g1, %o1, %g1
    5c3c:	09 00 00 10 	sethi  %hi(0x4000), %g4
    5c40:	85 2b 20 10 	sll  %o4, 0x10, %g2
    5c44:	19 00 00 20 	sethi  %hi(0x8000), %o4
    5c48:	92 11 20 02 	or  %g4, 2, %o1
    5c4c:	83 30 a0 10 	srl  %g2, 0x10, %g1
    5c50:	85 30 a0 11 	srl  %g2, 0x11, %g2
    5c54:	86 18 c0 01 	xor  %g3, %g1, %g3
    5c58:	82 18 40 09 	xor  %g1, %o1, %g1
    5c5c:	80 88 e0 01 	btst  1, %g3
    5c60:	83 30 60 01 	srl  %g1, 1, %g1
    5c64:	12 80 00 e4 	bne  5ff4 <crcu16+0x518>
    5c68:	82 10 40 0c 	or  %g1, %o4, %g1
    5c6c:	93 28 a0 10 	sll  %g2, 0x10, %o1
    5c70:	9a 0b 60 ff 	and  %o5, 0xff, %o5
    5c74:	19 00 00 10 	sethi  %hi(0x4000), %o4
    5c78:	83 32 60 10 	srl  %o1, 0x10, %g1
    5c7c:	87 33 60 01 	srl  %o5, 1, %g3
    5c80:	1b 00 00 20 	sethi  %hi(0x8000), %o5
    5c84:	88 08 60 01 	and  %g1, 1, %g4
    5c88:	85 32 60 11 	srl  %o1, 0x11, %g2
    5c8c:	92 13 20 02 	or  %o4, 2, %o1
    5c90:	80 a1 00 03 	cmp  %g4, %g3
    5c94:	82 18 40 09 	xor  %g1, %o1, %g1
    5c98:	83 30 60 01 	srl  %g1, 1, %g1
    5c9c:	12 80 00 e5 	bne  6030 <crcu16+0x554>
    5ca0:	82 10 40 0d 	or  %g1, %o5, %g1
    5ca4:	99 28 a0 10 	sll  %g2, 0x10, %o4
    5ca8:	91 32 20 08 	srl  %o0, 8, %o0
    5cac:	1b 00 00 10 	sethi  %hi(0x4000), %o5
    5cb0:	83 33 20 10 	srl  %o4, 0x10, %g1
    5cb4:	89 32 20 01 	srl  %o0, 1, %g4
    5cb8:	84 13 60 02 	or  %o5, 2, %g2
    5cbc:	92 1a 00 01 	xor  %o0, %g1, %o1
    5cc0:	91 33 20 11 	srl  %o4, 0x11, %o0
    5cc4:	82 18 40 02 	xor  %g1, %g2, %g1
    5cc8:	19 00 00 20 	sethi  %hi(0x8000), %o4
    5ccc:	86 10 00 04 	mov  %g4, %g3
    5cd0:	83 30 60 01 	srl  %g1, 1, %g1
    5cd4:	80 8a 60 01 	btst  1, %o1
    5cd8:	12 80 00 e6 	bne  6070 <crcu16+0x594>
    5cdc:	82 10 40 0c 	or  %g1, %o4, %g1
    5ce0:	93 2a 20 10 	sll  %o0, 0x10, %o1
    5ce4:	86 08 e0 ff 	and  %g3, 0xff, %g3
    5ce8:	1b 00 00 10 	sethi  %hi(0x4000), %o5
    5cec:	83 32 60 10 	srl  %o1, 0x10, %g1
    5cf0:	91 30 e0 01 	srl  %g3, 1, %o0
    5cf4:	84 13 60 02 	or  %o5, 2, %g2
    5cf8:	87 32 60 11 	srl  %o1, 0x11, %g3
    5cfc:	13 00 00 20 	sethi  %hi(0x8000), %o1
    5d00:	98 19 00 01 	xor  %g4, %g1, %o4
    5d04:	82 18 40 02 	xor  %g1, %g2, %g1
    5d08:	88 10 00 08 	mov  %o0, %g4
    5d0c:	80 8b 20 01 	btst  1, %o4
    5d10:	83 30 60 01 	srl  %g1, 1, %g1
    5d14:	12 80 00 e7 	bne  60b0 <crcu16+0x5d4>
    5d18:	82 10 40 09 	or  %g1, %o1, %g1
    5d1c:	85 28 e0 10 	sll  %g3, 0x10, %g2
    5d20:	1b 00 00 10 	sethi  %hi(0x4000), %o5
    5d24:	98 09 20 ff 	and  %g4, 0xff, %o4
    5d28:	83 30 a0 10 	srl  %g2, 0x10, %g1
    5d2c:	86 13 60 02 	or  %o5, 2, %g3
    5d30:	89 33 20 01 	srl  %o4, 1, %g4
    5d34:	90 1a 00 01 	xor  %o0, %g1, %o0
    5d38:	82 18 40 03 	xor  %g1, %g3, %g1
    5d3c:	92 10 00 04 	mov  %g4, %o1
    5d40:	85 30 a0 11 	srl  %g2, 0x11, %g2
    5d44:	83 30 60 01 	srl  %g1, 1, %g1
    5d48:	80 8a 20 01 	btst  1, %o0
    5d4c:	19 00 00 20 	sethi  %hi(0x8000), %o4
    5d50:	12 80 00 e8 	bne  60f0 <crcu16+0x614>
    5d54:	82 10 40 0c 	or  %g1, %o4, %g1
    5d58:	91 28 a0 10 	sll  %g2, 0x10, %o0
    5d5c:	1b 00 00 10 	sethi  %hi(0x4000), %o5
    5d60:	92 0a 60 ff 	and  %o1, 0xff, %o1
    5d64:	83 32 20 10 	srl  %o0, 0x10, %g1
    5d68:	84 13 60 02 	or  %o5, 2, %g2
    5d6c:	87 32 60 01 	srl  %o1, 1, %g3
    5d70:	98 19 00 01 	xor  %g4, %g1, %o4
    5d74:	82 18 40 02 	xor  %g1, %g2, %g1
    5d78:	93 32 20 11 	srl  %o0, 0x11, %o1
    5d7c:	11 00 00 20 	sethi  %hi(0x8000), %o0
    5d80:	88 10 00 03 	mov  %g3, %g4
    5d84:	80 8b 20 01 	btst  1, %o4
    5d88:	83 30 60 01 	srl  %g1, 1, %g1
    5d8c:	12 80 00 e9 	bne  6130 <crcu16+0x654>
    5d90:	82 10 40 08 	or  %g1, %o0, %g1
    5d94:	98 09 20 ff 	and  %g4, 0xff, %o4
    5d98:	85 2a 60 10 	sll  %o1, 0x10, %g2
    5d9c:	1b 00 00 10 	sethi  %hi(0x4000), %o5
    5da0:	89 33 20 01 	srl  %o4, 1, %g4
    5da4:	83 30 a0 10 	srl  %g2, 0x10, %g1
    5da8:	92 13 60 02 	or  %o5, 2, %o1
    5dac:	19 00 00 20 	sethi  %hi(0x8000), %o4
    5db0:	85 30 a0 11 	srl  %g2, 0x11, %g2
    5db4:	90 18 c0 01 	xor  %g3, %g1, %o0
    5db8:	82 18 40 09 	xor  %g1, %o1, %g1
    5dbc:	86 10 00 04 	mov  %g4, %g3
    5dc0:	80 8a 20 01 	btst  1, %o0
    5dc4:	83 30 60 01 	srl  %g1, 1, %g1
    5dc8:	12 80 00 ea 	bne  6170 <crcu16+0x694>
    5dcc:	82 10 40 0c 	or  %g1, %o4, %g1
    5dd0:	91 28 a0 10 	sll  %g2, 0x10, %o0
    5dd4:	19 00 00 10 	sethi  %hi(0x4000), %o4
    5dd8:	86 08 e0 ff 	and  %g3, 0xff, %g3
    5ddc:	83 32 20 10 	srl  %o0, 0x10, %g1
    5de0:	84 13 20 02 	or  %o4, 2, %g2
    5de4:	93 30 e0 01 	srl  %g3, 1, %o1
    5de8:	88 19 00 01 	xor  %g4, %g1, %g4
    5dec:	82 18 40 02 	xor  %g1, %g2, %g1
    5df0:	9a 10 00 09 	mov  %o1, %o5
    5df4:	80 89 20 01 	btst  1, %g4
    5df8:	83 30 60 01 	srl  %g1, 1, %g1
    5dfc:	87 32 20 11 	srl  %o0, 0x11, %g3
    5e00:	11 00 00 20 	sethi  %hi(0x8000), %o0
    5e04:	12 80 00 eb 	bne  61b0 <crcu16+0x6d4>
    5e08:	82 10 40 08 	or  %g1, %o0, %g1
    5e0c:	99 28 e0 10 	sll  %g3, 0x10, %o4
    5e10:	09 00 00 10 	sethi  %hi(0x4000), %g4
    5e14:	11 00 00 20 	sethi  %hi(0x8000), %o0
    5e18:	83 33 20 10 	srl  %o4, 0x10, %g1
    5e1c:	84 11 20 02 	or  %g4, 2, %g2
    5e20:	87 33 20 11 	srl  %o4, 0x11, %g3
    5e24:	92 1a 40 01 	xor  %o1, %g1, %o1
    5e28:	82 18 40 02 	xor  %g1, %g2, %g1
    5e2c:	80 8a 60 01 	btst  1, %o1
    5e30:	83 30 60 01 	srl  %g1, 1, %g1
    5e34:	12 80 00 ec 	bne  61e4 <crcu16+0x708>
    5e38:	82 10 40 08 	or  %g1, %o0, %g1
    5e3c:	99 28 e0 10 	sll  %g3, 0x10, %o4
    5e40:	11 00 00 10 	sethi  %hi(0x4000), %o0
    5e44:	9a 0b 60 ff 	and  %o5, 0xff, %o5
    5e48:	83 33 20 10 	srl  %o4, 0x10, %g1
    5e4c:	86 12 20 02 	or  %o0, 2, %g3
    5e50:	93 33 60 01 	srl  %o5, 1, %o1
    5e54:	88 08 60 01 	and  %g1, 1, %g4
    5e58:	82 18 40 03 	xor  %g1, %g3, %g1
    5e5c:	85 33 20 11 	srl  %o4, 0x11, %g2
    5e60:	19 00 00 20 	sethi  %hi(0x8000), %o4
    5e64:	83 30 60 01 	srl  %g1, 1, %g1
    5e68:	80 a1 00 09 	cmp  %g4, %o1
    5e6c:	12 80 00 ed 	bne  6220 <crcu16+0x744>
    5e70:	82 10 40 0c 	or  %g1, %o4, %g1
    5e74:	9b 28 a0 10 	sll  %g2, 0x10, %o5
    5e78:	81 c3 e0 08 	retl 
    5e7c:	91 33 60 10 	srl  %o5, 0x10, %o0
    5e80:	86 08 e0 ff 	and  %g3, 0xff, %g3
    5e84:	1b 00 00 10 	sethi  %hi(0x4000), %o5
    5e88:	92 10 00 04 	mov  %g4, %o1
    5e8c:	85 2a 60 10 	sll  %o1, 0x10, %g2
    5e90:	93 30 e0 01 	srl  %g3, 1, %o1
    5e94:	86 13 60 02 	or  %o5, 2, %g3
    5e98:	83 30 a0 10 	srl  %g2, 0x10, %g1
    5e9c:	85 30 a0 11 	srl  %g2, 0x11, %g2
    5ea0:	98 1b 00 01 	xor  %o4, %g1, %o4
    5ea4:	82 18 40 03 	xor  %g1, %g3, %g1
    5ea8:	80 8b 20 01 	btst  1, %o4
    5eac:	19 00 00 20 	sethi  %hi(0x8000), %o4
    5eb0:	83 30 60 01 	srl  %g1, 1, %g1
    5eb4:	88 10 00 09 	mov  %o1, %g4
    5eb8:	02 bf ff 25 	be  5b4c <crcu16+0x70>
    5ebc:	82 10 40 0c 	or  %g1, %o4, %g1
    5ec0:	84 10 00 01 	mov  %g1, %g2
    5ec4:	88 09 20 ff 	and  %g4, 0xff, %g4
    5ec8:	1b 00 00 10 	sethi  %hi(0x4000), %o5
    5ecc:	85 28 a0 10 	sll  %g2, 0x10, %g2
    5ed0:	89 31 20 01 	srl  %g4, 1, %g4
    5ed4:	98 13 60 02 	or  %o5, 2, %o4
    5ed8:	83 30 a0 10 	srl  %g2, 0x10, %g1
    5edc:	85 30 a0 11 	srl  %g2, 0x11, %g2
    5ee0:	92 1a 40 01 	xor  %o1, %g1, %o1
    5ee4:	82 18 40 0c 	xor  %g1, %o4, %g1
    5ee8:	80 8a 60 01 	btst  1, %o1
    5eec:	13 00 00 20 	sethi  %hi(0x8000), %o1
    5ef0:	83 30 60 01 	srl  %g1, 1, %g1
    5ef4:	86 10 00 04 	mov  %g4, %g3
    5ef8:	02 bf ff 24 	be  5b88 <crcu16+0xac>
    5efc:	82 10 40 09 	or  %g1, %o1, %g1
    5f00:	84 10 00 01 	mov  %g1, %g2
    5f04:	1b 00 00 10 	sethi  %hi(0x4000), %o5
    5f08:	86 08 e0 ff 	and  %g3, 0xff, %g3
    5f0c:	93 28 a0 10 	sll  %g2, 0x10, %o1
    5f10:	84 13 60 02 	or  %o5, 2, %g2
    5f14:	87 30 e0 01 	srl  %g3, 1, %g3
    5f18:	83 32 60 10 	srl  %o1, 0x10, %g1
    5f1c:	9b 32 60 11 	srl  %o1, 0x11, %o5
    5f20:	13 00 00 20 	sethi  %hi(0x8000), %o1
    5f24:	98 19 00 01 	xor  %g4, %g1, %o4
    5f28:	82 18 40 02 	xor  %g1, %g2, %g1
    5f2c:	88 10 00 03 	mov  %g3, %g4
    5f30:	80 8b 20 01 	btst  1, %o4
    5f34:	83 30 60 01 	srl  %g1, 1, %g1
    5f38:	02 bf ff 23 	be  5bc4 <crcu16+0xe8>
    5f3c:	82 10 40 09 	or  %g1, %o1, %g1
    5f40:	9a 10 00 01 	mov  %g1, %o5
    5f44:	98 09 20 ff 	and  %g4, 0xff, %o4
    5f48:	85 2b 60 10 	sll  %o5, 0x10, %g2
    5f4c:	1b 00 00 10 	sethi  %hi(0x4000), %o5
    5f50:	89 33 20 01 	srl  %o4, 1, %g4
    5f54:	83 30 a0 10 	srl  %g2, 0x10, %g1
    5f58:	98 13 60 02 	or  %o5, 2, %o4
    5f5c:	85 30 a0 11 	srl  %g2, 0x11, %g2
    5f60:	92 18 c0 01 	xor  %g3, %g1, %o1
    5f64:	82 18 40 0c 	xor  %g1, %o4, %g1
    5f68:	80 8a 60 01 	btst  1, %o1
    5f6c:	13 00 00 20 	sethi  %hi(0x8000), %o1
    5f70:	83 30 60 01 	srl  %g1, 1, %g1
    5f74:	86 10 00 04 	mov  %g4, %g3
    5f78:	02 bf ff 22 	be  5c00 <crcu16+0x124>
    5f7c:	82 10 40 09 	or  %g1, %o1, %g1
    5f80:	84 10 00 01 	mov  %g1, %g2
    5f84:	19 00 00 10 	sethi  %hi(0x4000), %o4
    5f88:	86 08 e0 ff 	and  %g3, 0xff, %g3
    5f8c:	93 28 a0 10 	sll  %g2, 0x10, %o1
    5f90:	84 13 20 02 	or  %o4, 2, %g2
    5f94:	87 30 e0 01 	srl  %g3, 1, %g3
    5f98:	83 32 60 10 	srl  %o1, 0x10, %g1
    5f9c:	99 32 60 11 	srl  %o1, 0x11, %o4
    5fa0:	13 00 00 20 	sethi  %hi(0x8000), %o1
    5fa4:	88 19 00 01 	xor  %g4, %g1, %g4
    5fa8:	82 18 40 02 	xor  %g1, %g2, %g1
    5fac:	9a 10 00 03 	mov  %g3, %o5
    5fb0:	80 89 20 01 	btst  1, %g4
    5fb4:	83 30 60 01 	srl  %g1, 1, %g1
    5fb8:	02 bf ff 21 	be  5c3c <crcu16+0x160>
    5fbc:	82 10 40 09 	or  %g1, %o1, %g1
    5fc0:	98 10 00 01 	mov  %g1, %o4
    5fc4:	09 00 00 10 	sethi  %hi(0x4000), %g4
    5fc8:	85 2b 20 10 	sll  %o4, 0x10, %g2
    5fcc:	19 00 00 20 	sethi  %hi(0x8000), %o4
    5fd0:	92 11 20 02 	or  %g4, 2, %o1
    5fd4:	83 30 a0 10 	srl  %g2, 0x10, %g1
    5fd8:	85 30 a0 11 	srl  %g2, 0x11, %g2
    5fdc:	86 18 c0 01 	xor  %g3, %g1, %g3
    5fe0:	82 18 40 09 	xor  %g1, %o1, %g1
    5fe4:	80 88 e0 01 	btst  1, %g3
    5fe8:	83 30 60 01 	srl  %g1, 1, %g1
    5fec:	02 bf ff 20 	be  5c6c <crcu16+0x190>
    5ff0:	82 10 40 0c 	or  %g1, %o4, %g1
    5ff4:	19 00 00 10 	sethi  %hi(0x4000), %o4
    5ff8:	84 10 00 01 	mov  %g1, %g2
    5ffc:	9a 0b 60 ff 	and  %o5, 0xff, %o5
    6000:	93 28 a0 10 	sll  %g2, 0x10, %o1
    6004:	87 33 60 01 	srl  %o5, 1, %g3
    6008:	1b 00 00 20 	sethi  %hi(0x8000), %o5
    600c:	83 32 60 10 	srl  %o1, 0x10, %g1
    6010:	85 32 60 11 	srl  %o1, 0x11, %g2
    6014:	92 13 20 02 	or  %o4, 2, %o1
    6018:	88 08 60 01 	and  %g1, 1, %g4
    601c:	82 18 40 09 	xor  %g1, %o1, %g1
    6020:	80 a1 00 03 	cmp  %g4, %g3
    6024:	83 30 60 01 	srl  %g1, 1, %g1
    6028:	02 bf ff 1f 	be  5ca4 <crcu16+0x1c8>
    602c:	82 10 40 0d 	or  %g1, %o5, %g1
    6030:	84 10 00 01 	mov  %g1, %g2
    6034:	91 32 20 08 	srl  %o0, 8, %o0
    6038:	1b 00 00 10 	sethi  %hi(0x4000), %o5
    603c:	99 28 a0 10 	sll  %g2, 0x10, %o4
    6040:	89 32 20 01 	srl  %o0, 1, %g4
    6044:	84 13 60 02 	or  %o5, 2, %g2
    6048:	83 33 20 10 	srl  %o4, 0x10, %g1
    604c:	86 10 00 04 	mov  %g4, %g3
    6050:	92 1a 00 01 	xor  %o0, %g1, %o1
    6054:	82 18 40 02 	xor  %g1, %g2, %g1
    6058:	91 33 20 11 	srl  %o4, 0x11, %o0
    605c:	19 00 00 20 	sethi  %hi(0x8000), %o4
    6060:	83 30 60 01 	srl  %g1, 1, %g1
    6064:	80 8a 60 01 	btst  1, %o1
    6068:	02 bf ff 1e 	be  5ce0 <crcu16+0x204>
    606c:	82 10 40 0c 	or  %g1, %o4, %g1
    6070:	90 10 00 01 	mov  %g1, %o0
    6074:	86 08 e0 ff 	and  %g3, 0xff, %g3
    6078:	1b 00 00 10 	sethi  %hi(0x4000), %o5
    607c:	93 2a 20 10 	sll  %o0, 0x10, %o1
    6080:	91 30 e0 01 	srl  %g3, 1, %o0
    6084:	84 13 60 02 	or  %o5, 2, %g2
    6088:	83 32 60 10 	srl  %o1, 0x10, %g1
    608c:	87 32 60 11 	srl  %o1, 0x11, %g3
    6090:	13 00 00 20 	sethi  %hi(0x8000), %o1
    6094:	98 19 00 01 	xor  %g4, %g1, %o4
    6098:	82 18 40 02 	xor  %g1, %g2, %g1
    609c:	88 10 00 08 	mov  %o0, %g4
    60a0:	80 8b 20 01 	btst  1, %o4
    60a4:	83 30 60 01 	srl  %g1, 1, %g1
    60a8:	02 bf ff 1d 	be  5d1c <crcu16+0x240>
    60ac:	82 10 40 09 	or  %g1, %o1, %g1
    60b0:	86 10 00 01 	mov  %g1, %g3
    60b4:	1b 00 00 10 	sethi  %hi(0x4000), %o5
    60b8:	98 09 20 ff 	and  %g4, 0xff, %o4
    60bc:	85 28 e0 10 	sll  %g3, 0x10, %g2
    60c0:	86 13 60 02 	or  %o5, 2, %g3
    60c4:	89 33 20 01 	srl  %o4, 1, %g4
    60c8:	83 30 a0 10 	srl  %g2, 0x10, %g1
    60cc:	85 30 a0 11 	srl  %g2, 0x11, %g2
    60d0:	19 00 00 20 	sethi  %hi(0x8000), %o4
    60d4:	90 1a 00 01 	xor  %o0, %g1, %o0
    60d8:	82 18 40 03 	xor  %g1, %g3, %g1
    60dc:	92 10 00 04 	mov  %g4, %o1
    60e0:	80 8a 20 01 	btst  1, %o0
    60e4:	83 30 60 01 	srl  %g1, 1, %g1
    60e8:	02 bf ff 1c 	be  5d58 <crcu16+0x27c>
    60ec:	82 10 40 0c 	or  %g1, %o4, %g1
    60f0:	84 10 00 01 	mov  %g1, %g2
    60f4:	1b 00 00 10 	sethi  %hi(0x4000), %o5
    60f8:	92 0a 60 ff 	and  %o1, 0xff, %o1
    60fc:	91 28 a0 10 	sll  %g2, 0x10, %o0
    6100:	84 13 60 02 	or  %o5, 2, %g2
    6104:	87 32 60 01 	srl  %o1, 1, %g3
    6108:	83 32 20 10 	srl  %o0, 0x10, %g1
    610c:	93 32 20 11 	srl  %o0, 0x11, %o1
    6110:	11 00 00 20 	sethi  %hi(0x8000), %o0
    6114:	98 19 00 01 	xor  %g4, %g1, %o4
    6118:	82 18 40 02 	xor  %g1, %g2, %g1
    611c:	88 10 00 03 	mov  %g3, %g4
    6120:	80 8b 20 01 	btst  1, %o4
    6124:	83 30 60 01 	srl  %g1, 1, %g1
    6128:	02 bf ff 1b 	be  5d94 <crcu16+0x2b8>
    612c:	82 10 40 08 	or  %g1, %o0, %g1
    6130:	92 10 00 01 	mov  %g1, %o1
    6134:	98 09 20 ff 	and  %g4, 0xff, %o4
    6138:	1b 00 00 10 	sethi  %hi(0x4000), %o5
    613c:	85 2a 60 10 	sll  %o1, 0x10, %g2
    6140:	89 33 20 01 	srl  %o4, 1, %g4
    6144:	92 13 60 02 	or  %o5, 2, %o1
    6148:	83 30 a0 10 	srl  %g2, 0x10, %g1
    614c:	19 00 00 20 	sethi  %hi(0x8000), %o4
    6150:	85 30 a0 11 	srl  %g2, 0x11, %g2
    6154:	90 18 c0 01 	xor  %g3, %g1, %o0
    6158:	82 18 40 09 	xor  %g1, %o1, %g1
    615c:	86 10 00 04 	mov  %g4, %g3
    6160:	80 8a 20 01 	btst  1, %o0
    6164:	83 30 60 01 	srl  %g1, 1, %g1
    6168:	02 bf ff 1a 	be  5dd0 <crcu16+0x2f4>
    616c:	82 10 40 0c 	or  %g1, %o4, %g1
    6170:	84 10 00 01 	mov  %g1, %g2
    6174:	86 08 e0 ff 	and  %g3, 0xff, %g3
    6178:	19 00 00 10 	sethi  %hi(0x4000), %o4
    617c:	91 28 a0 10 	sll  %g2, 0x10, %o0
    6180:	93 30 e0 01 	srl  %g3, 1, %o1
    6184:	84 13 20 02 	or  %o4, 2, %g2
    6188:	83 32 20 10 	srl  %o0, 0x10, %g1
    618c:	9a 10 00 09 	mov  %o1, %o5
    6190:	87 32 20 11 	srl  %o0, 0x11, %g3
    6194:	88 19 00 01 	xor  %g4, %g1, %g4
    6198:	82 18 40 02 	xor  %g1, %g2, %g1
    619c:	11 00 00 20 	sethi  %hi(0x8000), %o0
    61a0:	80 89 20 01 	btst  1, %g4
    61a4:	83 30 60 01 	srl  %g1, 1, %g1
    61a8:	02 bf ff 19 	be  5e0c <crcu16+0x330>
    61ac:	82 10 40 08 	or  %g1, %o0, %g1
    61b0:	86 10 00 01 	mov  %g1, %g3
    61b4:	09 00 00 10 	sethi  %hi(0x4000), %g4
    61b8:	11 00 00 20 	sethi  %hi(0x8000), %o0
    61bc:	99 28 e0 10 	sll  %g3, 0x10, %o4
    61c0:	84 11 20 02 	or  %g4, 2, %g2
    61c4:	83 33 20 10 	srl  %o4, 0x10, %g1
    61c8:	87 33 20 11 	srl  %o4, 0x11, %g3
    61cc:	92 1a 40 01 	xor  %o1, %g1, %o1
    61d0:	82 18 40 02 	xor  %g1, %g2, %g1
    61d4:	80 8a 60 01 	btst  1, %o1
    61d8:	83 30 60 01 	srl  %g1, 1, %g1
    61dc:	02 bf ff 18 	be  5e3c <crcu16+0x360>
    61e0:	82 10 40 08 	or  %g1, %o0, %g1
    61e4:	86 10 00 01 	mov  %g1, %g3
    61e8:	9a 0b 60 ff 	and  %o5, 0xff, %o5
    61ec:	11 00 00 10 	sethi  %hi(0x4000), %o0
    61f0:	99 28 e0 10 	sll  %g3, 0x10, %o4
    61f4:	93 33 60 01 	srl  %o5, 1, %o1
    61f8:	86 12 20 02 	or  %o0, 2, %g3
    61fc:	83 33 20 10 	srl  %o4, 0x10, %g1
    6200:	85 33 20 11 	srl  %o4, 0x11, %g2
    6204:	19 00 00 20 	sethi  %hi(0x8000), %o4
    6208:	88 08 60 01 	and  %g1, 1, %g4
    620c:	82 18 40 03 	xor  %g1, %g3, %g1
    6210:	80 a1 00 09 	cmp  %g4, %o1
    6214:	83 30 60 01 	srl  %g1, 1, %g1
    6218:	02 bf ff 17 	be  5e74 <crcu16+0x398>
    621c:	82 10 40 0c 	or  %g1, %o4, %g1
    6220:	84 10 00 01 	mov  %g1, %g2
    6224:	9b 28 a0 10 	sll  %g2, 0x10, %o5
    6228:	81 c3 e0 08 	retl 
    622c:	91 33 60 10 	srl  %o5, 0x10, %o0

00006230 <crcu32>:
    6230:	88 0a 20 ff 	and  %o0, 0xff, %g4
    6234:	1b 00 00 10 	sethi  %hi(0x4000), %o5
    6238:	82 1a 00 09 	xor  %o0, %o1, %g1
    623c:	99 31 20 01 	srl  %g4, 1, %o4
    6240:	84 13 60 02 	or  %o5, 2, %g2
    6244:	1b 00 00 20 	sethi  %hi(0x8000), %o5
    6248:	86 1a 40 02 	xor  %o1, %g2, %g3
    624c:	93 32 60 01 	srl  %o1, 1, %o1
    6250:	89 30 e0 01 	srl  %g3, 1, %g4
    6254:	86 10 00 0c 	mov  %o4, %g3
    6258:	80 88 60 01 	btst  1, %g1
    625c:	12 80 01 c8 	bne  697c <crcu32+0x74c>
    6260:	88 11 00 0d 	or  %g4, %o5, %g4
    6264:	86 08 e0 ff 	and  %g3, 0xff, %g3
    6268:	1b 00 00 10 	sethi  %hi(0x4000), %o5
    626c:	85 2a 60 10 	sll  %o1, 0x10, %g2
    6270:	93 30 e0 01 	srl  %g3, 1, %o1
    6274:	86 13 60 02 	or  %o5, 2, %g3
    6278:	83 30 a0 10 	srl  %g2, 0x10, %g1
    627c:	85 30 a0 11 	srl  %g2, 0x11, %g2
    6280:	98 1b 00 01 	xor  %o4, %g1, %o4
    6284:	82 18 40 03 	xor  %g1, %g3, %g1
    6288:	80 8b 20 01 	btst  1, %o4
    628c:	19 00 00 20 	sethi  %hi(0x8000), %o4
    6290:	83 30 60 01 	srl  %g1, 1, %g1
    6294:	88 10 00 09 	mov  %o1, %g4
    6298:	12 80 01 c9 	bne  69bc <crcu32+0x78c>
    629c:	82 10 40 0c 	or  %g1, %o4, %g1
    62a0:	85 28 a0 10 	sll  %g2, 0x10, %g2
    62a4:	88 09 20 ff 	and  %g4, 0xff, %g4
    62a8:	1b 00 00 10 	sethi  %hi(0x4000), %o5
    62ac:	83 30 a0 10 	srl  %g2, 0x10, %g1
    62b0:	89 31 20 01 	srl  %g4, 1, %g4
    62b4:	98 13 60 02 	or  %o5, 2, %o4
    62b8:	92 1a 40 01 	xor  %o1, %g1, %o1
    62bc:	85 30 a0 11 	srl  %g2, 0x11, %g2
    62c0:	82 18 40 0c 	xor  %g1, %o4, %g1
    62c4:	80 8a 60 01 	btst  1, %o1
    62c8:	13 00 00 20 	sethi  %hi(0x8000), %o1
    62cc:	83 30 60 01 	srl  %g1, 1, %g1
    62d0:	86 10 00 04 	mov  %g4, %g3
    62d4:	12 80 01 ca 	bne  69fc <crcu32+0x7cc>
    62d8:	82 10 40 09 	or  %g1, %o1, %g1
    62dc:	86 08 e0 ff 	and  %g3, 0xff, %g3
    62e0:	93 28 a0 10 	sll  %g2, 0x10, %o1
    62e4:	1b 00 00 10 	sethi  %hi(0x4000), %o5
    62e8:	87 30 e0 01 	srl  %g3, 1, %g3
    62ec:	83 32 60 10 	srl  %o1, 0x10, %g1
    62f0:	84 13 60 02 	or  %o5, 2, %g2
    62f4:	9b 32 60 11 	srl  %o1, 0x11, %o5
    62f8:	98 19 00 01 	xor  %g4, %g1, %o4
    62fc:	82 18 40 02 	xor  %g1, %g2, %g1
    6300:	88 10 00 03 	mov  %g3, %g4
    6304:	80 8b 20 01 	btst  1, %o4
    6308:	83 30 60 01 	srl  %g1, 1, %g1
    630c:	13 00 00 20 	sethi  %hi(0x8000), %o1
    6310:	12 80 01 cb 	bne  6a3c <crcu32+0x80c>
    6314:	82 10 40 09 	or  %g1, %o1, %g1
    6318:	98 09 20 ff 	and  %g4, 0xff, %o4
    631c:	85 2b 60 10 	sll  %o5, 0x10, %g2
    6320:	1b 00 00 10 	sethi  %hi(0x4000), %o5
    6324:	89 33 20 01 	srl  %o4, 1, %g4
    6328:	83 30 a0 10 	srl  %g2, 0x10, %g1
    632c:	98 13 60 02 	or  %o5, 2, %o4
    6330:	85 30 a0 11 	srl  %g2, 0x11, %g2
    6334:	92 18 c0 01 	xor  %g3, %g1, %o1
    6338:	82 18 40 0c 	xor  %g1, %o4, %g1
    633c:	80 8a 60 01 	btst  1, %o1
    6340:	13 00 00 20 	sethi  %hi(0x8000), %o1
    6344:	83 30 60 01 	srl  %g1, 1, %g1
    6348:	86 10 00 04 	mov  %g4, %g3
    634c:	12 80 01 cc 	bne  6a7c <crcu32+0x84c>
    6350:	82 10 40 09 	or  %g1, %o1, %g1
    6354:	19 00 00 10 	sethi  %hi(0x4000), %o4
    6358:	86 08 e0 ff 	and  %g3, 0xff, %g3
    635c:	93 28 a0 10 	sll  %g2, 0x10, %o1
    6360:	84 13 20 02 	or  %o4, 2, %g2
    6364:	87 30 e0 01 	srl  %g3, 1, %g3
    6368:	83 32 60 10 	srl  %o1, 0x10, %g1
    636c:	99 32 60 11 	srl  %o1, 0x11, %o4
    6370:	13 00 00 20 	sethi  %hi(0x8000), %o1
    6374:	88 19 00 01 	xor  %g4, %g1, %g4
    6378:	82 18 40 02 	xor  %g1, %g2, %g1
    637c:	9a 10 00 03 	mov  %g3, %o5
    6380:	80 89 20 01 	btst  1, %g4
    6384:	83 30 60 01 	srl  %g1, 1, %g1
    6388:	12 80 01 cd 	bne  6abc <crcu32+0x88c>
    638c:	82 10 40 09 	or  %g1, %o1, %g1
    6390:	85 2b 20 10 	sll  %o4, 0x10, %g2
    6394:	09 00 00 10 	sethi  %hi(0x4000), %g4
    6398:	19 00 00 20 	sethi  %hi(0x8000), %o4
    639c:	83 30 a0 10 	srl  %g2, 0x10, %g1
    63a0:	92 11 20 02 	or  %g4, 2, %o1
    63a4:	85 30 a0 11 	srl  %g2, 0x11, %g2
    63a8:	86 18 c0 01 	xor  %g3, %g1, %g3
    63ac:	82 18 40 09 	xor  %g1, %o1, %g1
    63b0:	80 88 e0 01 	btst  1, %g3
    63b4:	83 30 60 01 	srl  %g1, 1, %g1
    63b8:	12 80 01 ce 	bne  6af0 <crcu32+0x8c0>
    63bc:	82 10 40 0c 	or  %g1, %o4, %g1
    63c0:	93 28 a0 10 	sll  %g2, 0x10, %o1
    63c4:	19 00 00 10 	sethi  %hi(0x4000), %o4
    63c8:	9a 0b 60 ff 	and  %o5, 0xff, %o5
    63cc:	83 32 60 10 	srl  %o1, 0x10, %g1
    63d0:	85 32 60 11 	srl  %o1, 0x11, %g2
    63d4:	87 33 60 01 	srl  %o5, 1, %g3
    63d8:	88 08 60 01 	and  %g1, 1, %g4
    63dc:	92 13 20 02 	or  %o4, 2, %o1
    63e0:	1b 00 00 20 	sethi  %hi(0x8000), %o5
    63e4:	80 a1 00 03 	cmp  %g4, %g3
    63e8:	82 18 40 09 	xor  %g1, %o1, %g1
    63ec:	83 30 60 01 	srl  %g1, 1, %g1
    63f0:	12 80 01 cf 	bne  6b2c <crcu32+0x8fc>
    63f4:	82 10 40 0d 	or  %g1, %o5, %g1
    63f8:	87 2a 20 10 	sll  %o0, 0x10, %g3
    63fc:	99 28 a0 10 	sll  %g2, 0x10, %o4
    6400:	05 00 00 10 	sethi  %hi(0x4000), %g2
    6404:	89 30 e0 18 	srl  %g3, 0x18, %g4
    6408:	83 33 20 10 	srl  %o4, 0x10, %g1
    640c:	86 10 a0 02 	or  %g2, 2, %g3
    6410:	9b 31 20 01 	srl  %g4, 1, %o5
    6414:	92 19 00 01 	xor  %g4, %g1, %o1
    6418:	82 18 40 03 	xor  %g1, %g3, %g1
    641c:	85 33 20 11 	srl  %o4, 0x11, %g2
    6420:	19 00 00 20 	sethi  %hi(0x8000), %o4
    6424:	83 30 60 01 	srl  %g1, 1, %g1
    6428:	88 10 00 0d 	mov  %o5, %g4
    642c:	80 8a 60 01 	btst  1, %o1
    6430:	12 80 01 f1 	bne  6bf4 <crcu32+0x9c4>
    6434:	82 10 40 0c 	or  %g1, %o4, %g1
    6438:	93 28 a0 10 	sll  %g2, 0x10, %o1
    643c:	86 09 20 ff 	and  %g4, 0xff, %g3
    6440:	83 32 60 10 	srl  %o1, 0x10, %g1
    6444:	87 30 e0 01 	srl  %g3, 1, %g3
    6448:	98 1b 40 01 	xor  %o5, %g1, %o4
    644c:	1b 00 00 10 	sethi  %hi(0x4000), %o5
    6450:	88 10 00 03 	mov  %g3, %g4
    6454:	80 8b 20 01 	btst  1, %o4
    6458:	84 13 60 02 	or  %o5, 2, %g2
    645c:	9b 32 60 11 	srl  %o1, 0x11, %o5
    6460:	13 00 00 20 	sethi  %hi(0x8000), %o1
    6464:	82 18 40 02 	xor  %g1, %g2, %g1
    6468:	83 30 60 01 	srl  %g1, 1, %g1
    646c:	12 80 01 e0 	bne  6bec <crcu32+0x9bc>
    6470:	82 10 40 09 	or  %g1, %o1, %g1
    6474:	98 09 20 ff 	and  %g4, 0xff, %o4
    6478:	85 2b 60 10 	sll  %o5, 0x10, %g2
    647c:	1b 00 00 10 	sethi  %hi(0x4000), %o5
    6480:	89 33 20 01 	srl  %o4, 1, %g4
    6484:	83 30 a0 10 	srl  %g2, 0x10, %g1
    6488:	98 13 60 02 	or  %o5, 2, %o4
    648c:	85 30 a0 11 	srl  %g2, 0x11, %g2
    6490:	92 18 c0 01 	xor  %g3, %g1, %o1
    6494:	82 18 40 0c 	xor  %g1, %o4, %g1
    6498:	80 8a 60 01 	btst  1, %o1
    649c:	13 00 00 20 	sethi  %hi(0x8000), %o1
    64a0:	83 30 60 01 	srl  %g1, 1, %g1
    64a4:	86 10 00 04 	mov  %g4, %g3
    64a8:	12 80 01 cf 	bne  6be4 <crcu32+0x9b4>
    64ac:	82 10 40 09 	or  %g1, %o1, %g1
    64b0:	93 28 a0 10 	sll  %g2, 0x10, %o1
    64b4:	1b 00 00 10 	sethi  %hi(0x4000), %o5
    64b8:	86 08 e0 ff 	and  %g3, 0xff, %g3
    64bc:	83 32 60 10 	srl  %o1, 0x10, %g1
    64c0:	84 13 60 02 	or  %o5, 2, %g2
    64c4:	87 30 e0 01 	srl  %g3, 1, %g3
    64c8:	9b 32 60 11 	srl  %o1, 0x11, %o5
    64cc:	13 00 00 20 	sethi  %hi(0x8000), %o1
    64d0:	98 19 00 01 	xor  %g4, %g1, %o4
    64d4:	82 18 40 02 	xor  %g1, %g2, %g1
    64d8:	88 10 00 03 	mov  %g3, %g4
    64dc:	80 8b 20 01 	btst  1, %o4
    64e0:	83 30 60 01 	srl  %g1, 1, %g1
    64e4:	12 80 01 be 	bne  6bdc <crcu32+0x9ac>
    64e8:	82 10 40 09 	or  %g1, %o1, %g1
    64ec:	98 09 20 ff 	and  %g4, 0xff, %o4
    64f0:	85 2b 60 10 	sll  %o5, 0x10, %g2
    64f4:	1b 00 00 10 	sethi  %hi(0x4000), %o5
    64f8:	89 33 20 01 	srl  %o4, 1, %g4
    64fc:	83 30 a0 10 	srl  %g2, 0x10, %g1
    6500:	98 13 60 02 	or  %o5, 2, %o4
    6504:	85 30 a0 11 	srl  %g2, 0x11, %g2
    6508:	92 18 c0 01 	xor  %g3, %g1, %o1
    650c:	82 18 40 0c 	xor  %g1, %o4, %g1
    6510:	80 8a 60 01 	btst  1, %o1
    6514:	13 00 00 20 	sethi  %hi(0x8000), %o1
    6518:	83 30 60 01 	srl  %g1, 1, %g1
    651c:	86 10 00 04 	mov  %g4, %g3
    6520:	12 80 01 ad 	bne  6bd4 <crcu32+0x9a4>
    6524:	82 10 40 09 	or  %g1, %o1, %g1
    6528:	86 08 e0 ff 	and  %g3, 0xff, %g3
    652c:	93 28 a0 10 	sll  %g2, 0x10, %o1
    6530:	19 00 00 10 	sethi  %hi(0x4000), %o4
    6534:	87 30 e0 01 	srl  %g3, 1, %g3
    6538:	83 32 60 10 	srl  %o1, 0x10, %g1
    653c:	84 13 20 02 	or  %o4, 2, %g2
    6540:	99 32 60 11 	srl  %o1, 0x11, %o4
    6544:	88 19 00 01 	xor  %g4, %g1, %g4
    6548:	82 18 40 02 	xor  %g1, %g2, %g1
    654c:	13 00 00 20 	sethi  %hi(0x8000), %o1
    6550:	9a 10 00 03 	mov  %g3, %o5
    6554:	80 89 20 01 	btst  1, %g4
    6558:	83 30 60 01 	srl  %g1, 1, %g1
    655c:	12 80 01 9c 	bne  6bcc <crcu32+0x99c>
    6560:	82 10 40 09 	or  %g1, %o1, %g1
    6564:	85 2b 20 10 	sll  %o4, 0x10, %g2
    6568:	09 00 00 10 	sethi  %hi(0x4000), %g4
    656c:	19 00 00 20 	sethi  %hi(0x8000), %o4
    6570:	83 30 a0 10 	srl  %g2, 0x10, %g1
    6574:	92 11 20 02 	or  %g4, 2, %o1
    6578:	85 30 a0 11 	srl  %g2, 0x11, %g2
    657c:	86 18 c0 01 	xor  %g3, %g1, %g3
    6580:	82 18 40 09 	xor  %g1, %o1, %g1
    6584:	80 88 e0 01 	btst  1, %g3
    6588:	83 30 60 01 	srl  %g1, 1, %g1
    658c:	12 80 01 8e 	bne  6bc4 <crcu32+0x994>
    6590:	82 10 40 0c 	or  %g1, %o4, %g1
    6594:	93 28 a0 10 	sll  %g2, 0x10, %o1
    6598:	19 00 00 10 	sethi  %hi(0x4000), %o4
    659c:	9a 0b 60 ff 	and  %o5, 0xff, %o5
    65a0:	83 32 60 10 	srl  %o1, 0x10, %g1
    65a4:	85 32 60 11 	srl  %o1, 0x11, %g2
    65a8:	92 13 20 02 	or  %o4, 2, %o1
    65ac:	87 33 60 01 	srl  %o5, 1, %g3
    65b0:	88 08 60 01 	and  %g1, 1, %g4
    65b4:	82 18 40 09 	xor  %g1, %o1, %g1
    65b8:	1b 00 00 20 	sethi  %hi(0x8000), %o5
    65bc:	80 a1 00 03 	cmp  %g4, %g3
    65c0:	83 30 60 01 	srl  %g1, 1, %g1
    65c4:	12 80 01 7e 	bne  6bbc <crcu32+0x98c>
    65c8:	82 10 40 0d 	or  %g1, %o5, %g1
    65cc:	91 32 20 10 	srl  %o0, 0x10, %o0
    65d0:	1b 00 00 10 	sethi  %hi(0x4000), %o5
    65d4:	93 28 a0 10 	sll  %g2, 0x10, %o1
    65d8:	86 0a 20 ff 	and  %o0, 0xff, %g3
    65dc:	84 13 60 02 	or  %o5, 2, %g2
    65e0:	83 32 60 10 	srl  %o1, 0x10, %g1
    65e4:	89 30 e0 01 	srl  %g3, 1, %g4
    65e8:	9b 32 60 11 	srl  %o1, 0x11, %o5
    65ec:	98 1a 00 01 	xor  %o0, %g1, %o4
    65f0:	82 18 40 02 	xor  %g1, %g2, %g1
    65f4:	13 00 00 20 	sethi  %hi(0x8000), %o1
    65f8:	86 10 00 04 	mov  %g4, %g3
    65fc:	83 30 60 01 	srl  %g1, 1, %g1
    6600:	80 8b 20 01 	btst  1, %o4
    6604:	12 80 01 6c 	bne  6bb4 <crcu32+0x984>
    6608:	82 10 40 09 	or  %g1, %o1, %g1
    660c:	98 08 e0 ff 	and  %g3, 0xff, %o4
    6610:	85 2b 60 10 	sll  %o5, 0x10, %g2
    6614:	1b 00 00 10 	sethi  %hi(0x4000), %o5
    6618:	87 33 20 01 	srl  %o4, 1, %g3
    661c:	83 30 a0 10 	srl  %g2, 0x10, %g1
    6620:	98 13 60 02 	or  %o5, 2, %o4
    6624:	85 30 a0 11 	srl  %g2, 0x11, %g2
    6628:	92 19 00 01 	xor  %g4, %g1, %o1
    662c:	82 18 40 0c 	xor  %g1, %o4, %g1
    6630:	80 8a 60 01 	btst  1, %o1
    6634:	13 00 00 20 	sethi  %hi(0x8000), %o1
    6638:	83 30 60 01 	srl  %g1, 1, %g1
    663c:	88 10 00 03 	mov  %g3, %g4
    6640:	12 80 01 5b 	bne  6bac <crcu32+0x97c>
    6644:	82 10 40 09 	or  %g1, %o1, %g1
    6648:	93 28 a0 10 	sll  %g2, 0x10, %o1
    664c:	1b 00 00 10 	sethi  %hi(0x4000), %o5
    6650:	88 09 20 ff 	and  %g4, 0xff, %g4
    6654:	83 32 60 10 	srl  %o1, 0x10, %g1
    6658:	84 13 60 02 	or  %o5, 2, %g2
    665c:	89 31 20 01 	srl  %g4, 1, %g4
    6660:	9b 32 60 11 	srl  %o1, 0x11, %o5
    6664:	13 00 00 20 	sethi  %hi(0x8000), %o1
    6668:	98 18 c0 01 	xor  %g3, %g1, %o4
    666c:	82 18 40 02 	xor  %g1, %g2, %g1
    6670:	86 10 00 04 	mov  %g4, %g3
    6674:	80 8b 20 01 	btst  1, %o4
    6678:	83 30 60 01 	srl  %g1, 1, %g1
    667c:	12 80 01 4a 	bne  6ba4 <crcu32+0x974>
    6680:	82 10 40 09 	or  %g1, %o1, %g1
    6684:	98 08 e0 ff 	and  %g3, 0xff, %o4
    6688:	85 2b 60 10 	sll  %o5, 0x10, %g2
    668c:	1b 00 00 10 	sethi  %hi(0x4000), %o5
    6690:	87 33 20 01 	srl  %o4, 1, %g3
    6694:	83 30 a0 10 	srl  %g2, 0x10, %g1
    6698:	98 13 60 02 	or  %o5, 2, %o4
    669c:	85 30 a0 11 	srl  %g2, 0x11, %g2
    66a0:	92 19 00 01 	xor  %g4, %g1, %o1
    66a4:	82 18 40 0c 	xor  %g1, %o4, %g1
    66a8:	80 8a 60 01 	btst  1, %o1
    66ac:	13 00 00 20 	sethi  %hi(0x8000), %o1
    66b0:	83 30 60 01 	srl  %g1, 1, %g1
    66b4:	88 10 00 03 	mov  %g3, %g4
    66b8:	12 80 01 39 	bne  6b9c <crcu32+0x96c>
    66bc:	82 10 40 09 	or  %g1, %o1, %g1
    66c0:	88 09 20 ff 	and  %g4, 0xff, %g4
    66c4:	93 28 a0 10 	sll  %g2, 0x10, %o1
    66c8:	1b 00 00 10 	sethi  %hi(0x4000), %o5
    66cc:	89 31 20 01 	srl  %g4, 1, %g4
    66d0:	83 32 60 10 	srl  %o1, 0x10, %g1
    66d4:	84 13 60 02 	or  %o5, 2, %g2
    66d8:	9b 32 60 11 	srl  %o1, 0x11, %o5
    66dc:	98 18 c0 01 	xor  %g3, %g1, %o4
    66e0:	82 18 40 02 	xor  %g1, %g2, %g1
    66e4:	13 00 00 20 	sethi  %hi(0x8000), %o1
    66e8:	86 10 00 04 	mov  %g4, %g3
    66ec:	80 8b 20 01 	btst  1, %o4
    66f0:	83 30 60 01 	srl  %g1, 1, %g1
    66f4:	12 80 01 28 	bne  6b94 <crcu32+0x964>
    66f8:	82 10 40 09 	or  %g1, %o1, %g1
    66fc:	98 08 e0 ff 	and  %g3, 0xff, %o4
    6700:	85 2b 60 10 	sll  %o5, 0x10, %g2
    6704:	1b 00 00 10 	sethi  %hi(0x4000), %o5
    6708:	87 33 20 01 	srl  %o4, 1, %g3
    670c:	83 30 a0 10 	srl  %g2, 0x10, %g1
    6710:	98 13 60 02 	or  %o5, 2, %o4
    6714:	85 30 a0 11 	srl  %g2, 0x11, %g2
    6718:	88 19 00 01 	xor  %g4, %g1, %g4
    671c:	82 18 40 0c 	xor  %g1, %o4, %g1
    6720:	80 89 20 01 	btst  1, %g4
    6724:	09 00 00 20 	sethi  %hi(0x8000), %g4
    6728:	83 30 60 01 	srl  %g1, 1, %g1
    672c:	92 10 00 03 	mov  %g3, %o1
    6730:	12 80 01 17 	bne  6b8c <crcu32+0x95c>
    6734:	82 10 40 04 	or  %g1, %g4, %g1
    6738:	9b 28 a0 10 	sll  %g2, 0x10, %o5
    673c:	19 00 00 10 	sethi  %hi(0x4000), %o4
    6740:	83 33 60 10 	srl  %o5, 0x10, %g1
    6744:	85 33 60 11 	srl  %o5, 0x11, %g2
    6748:	88 13 20 02 	or  %o4, 2, %g4
    674c:	86 18 c0 01 	xor  %g3, %g1, %g3
    6750:	1b 00 00 20 	sethi  %hi(0x8000), %o5
    6754:	82 18 40 04 	xor  %g1, %g4, %g1
    6758:	80 88 e0 01 	btst  1, %g3
    675c:	83 30 60 01 	srl  %g1, 1, %g1
    6760:	12 80 01 09 	bne  6b84 <crcu32+0x954>
    6764:	82 10 40 0d 	or  %g1, %o5, %g1
    6768:	99 28 a0 10 	sll  %g2, 0x10, %o4
    676c:	92 0a 60 ff 	and  %o1, 0xff, %o1
    6770:	1b 00 00 10 	sethi  %hi(0x4000), %o5
    6774:	83 33 20 10 	srl  %o4, 0x10, %g1
    6778:	87 32 60 01 	srl  %o1, 1, %g3
    677c:	85 33 20 11 	srl  %o4, 0x11, %g2
    6780:	98 13 60 02 	or  %o5, 2, %o4
    6784:	88 08 60 01 	and  %g1, 1, %g4
    6788:	13 00 00 20 	sethi  %hi(0x8000), %o1
    678c:	82 18 40 0c 	xor  %g1, %o4, %g1
    6790:	80 a1 00 03 	cmp  %g4, %g3
    6794:	83 30 60 01 	srl  %g1, 1, %g1
    6798:	12 80 00 f9 	bne  6b7c <crcu32+0x94c>
    679c:	82 10 40 09 	or  %g1, %o1, %g1
    67a0:	99 28 a0 10 	sll  %g2, 0x10, %o4
    67a4:	91 32 20 08 	srl  %o0, 8, %o0
    67a8:	1b 00 00 10 	sethi  %hi(0x4000), %o5
    67ac:	83 33 20 10 	srl  %o4, 0x10, %g1
    67b0:	89 32 20 01 	srl  %o0, 1, %g4
    67b4:	84 13 60 02 	or  %o5, 2, %g2
    67b8:	92 1a 00 01 	xor  %o0, %g1, %o1
    67bc:	91 33 20 11 	srl  %o4, 0x11, %o0
    67c0:	82 18 40 02 	xor  %g1, %g2, %g1
    67c4:	19 00 00 20 	sethi  %hi(0x8000), %o4
    67c8:	86 10 00 04 	mov  %g4, %g3
    67cc:	80 8a 60 01 	btst  1, %o1
    67d0:	83 30 60 01 	srl  %g1, 1, %g1
    67d4:	12 80 00 e8 	bne  6b74 <crcu32+0x944>
    67d8:	82 10 40 0c 	or  %g1, %o4, %g1
    67dc:	93 2a 20 10 	sll  %o0, 0x10, %o1
    67e0:	86 08 e0 ff 	and  %g3, 0xff, %g3
    67e4:	1b 00 00 10 	sethi  %hi(0x4000), %o5
    67e8:	83 32 60 10 	srl  %o1, 0x10, %g1
    67ec:	91 30 e0 01 	srl  %g3, 1, %o0
    67f0:	84 13 60 02 	or  %o5, 2, %g2
    67f4:	98 19 00 01 	xor  %g4, %g1, %o4
    67f8:	88 10 00 08 	mov  %o0, %g4
    67fc:	82 18 40 02 	xor  %g1, %g2, %g1
    6800:	80 8b 20 01 	btst  1, %o4
    6804:	87 32 60 11 	srl  %o1, 0x11, %g3
    6808:	13 00 00 20 	sethi  %hi(0x8000), %o1
    680c:	83 30 60 01 	srl  %g1, 1, %g1
    6810:	12 80 00 d7 	bne  6b6c <crcu32+0x93c>
    6814:	82 10 40 09 	or  %g1, %o1, %g1
    6818:	1b 00 00 10 	sethi  %hi(0x4000), %o5
    681c:	98 09 20 ff 	and  %g4, 0xff, %o4
    6820:	85 28 e0 10 	sll  %g3, 0x10, %g2
    6824:	86 13 60 02 	or  %o5, 2, %g3
    6828:	89 33 20 01 	srl  %o4, 1, %g4
    682c:	83 30 a0 10 	srl  %g2, 0x10, %g1
    6830:	85 30 a0 11 	srl  %g2, 0x11, %g2
    6834:	19 00 00 20 	sethi  %hi(0x8000), %o4
    6838:	90 1a 00 01 	xor  %o0, %g1, %o0
    683c:	82 18 40 03 	xor  %g1, %g3, %g1
    6840:	92 10 00 04 	mov  %g4, %o1
    6844:	80 8a 20 01 	btst  1, %o0
    6848:	83 30 60 01 	srl  %g1, 1, %g1
    684c:	12 80 00 c6 	bne  6b64 <crcu32+0x934>
    6850:	82 10 40 0c 	or  %g1, %o4, %g1
    6854:	91 28 a0 10 	sll  %g2, 0x10, %o0
    6858:	1b 00 00 10 	sethi  %hi(0x4000), %o5
    685c:	92 0a 60 ff 	and  %o1, 0xff, %o1
    6860:	83 32 20 10 	srl  %o0, 0x10, %g1
    6864:	84 13 60 02 	or  %o5, 2, %g2
    6868:	87 32 60 01 	srl  %o1, 1, %g3
    686c:	93 32 20 11 	srl  %o0, 0x11, %o1
    6870:	11 00 00 20 	sethi  %hi(0x8000), %o0
    6874:	98 19 00 01 	xor  %g4, %g1, %o4
    6878:	82 18 40 02 	xor  %g1, %g2, %g1
    687c:	88 10 00 03 	mov  %g3, %g4
    6880:	80 8b 20 01 	btst  1, %o4
    6884:	83 30 60 01 	srl  %g1, 1, %g1
    6888:	12 80 00 b5 	bne  6b5c <crcu32+0x92c>
    688c:	82 10 40 08 	or  %g1, %o0, %g1
    6890:	98 09 20 ff 	and  %g4, 0xff, %o4
    6894:	85 2a 60 10 	sll  %o1, 0x10, %g2
    6898:	1b 00 00 10 	sethi  %hi(0x4000), %o5
    689c:	89 33 20 01 	srl  %o4, 1, %g4
    68a0:	83 30 a0 10 	srl  %g2, 0x10, %g1
    68a4:	92 13 60 02 	or  %o5, 2, %o1
    68a8:	85 30 a0 11 	srl  %g2, 0x11, %g2
    68ac:	90 18 c0 01 	xor  %g3, %g1, %o0
    68b0:	82 18 40 09 	xor  %g1, %o1, %g1
    68b4:	86 10 00 04 	mov  %g4, %g3
    68b8:	80 8a 20 01 	btst  1, %o0
    68bc:	83 30 60 01 	srl  %g1, 1, %g1
    68c0:	19 00 00 20 	sethi  %hi(0x8000), %o4
    68c4:	12 80 00 a4 	bne  6b54 <crcu32+0x924>
    68c8:	82 10 40 0c 	or  %g1, %o4, %g1
    68cc:	91 28 a0 10 	sll  %g2, 0x10, %o0
    68d0:	19 00 00 10 	sethi  %hi(0x4000), %o4
    68d4:	86 08 e0 ff 	and  %g3, 0xff, %g3
    68d8:	83 32 20 10 	srl  %o0, 0x10, %g1
    68dc:	84 13 20 02 	or  %o4, 2, %g2
    68e0:	93 30 e0 01 	srl  %g3, 1, %o1
    68e4:	88 19 00 01 	xor  %g4, %g1, %g4
    68e8:	82 18 40 02 	xor  %g1, %g2, %g1
    68ec:	87 32 20 11 	srl  %o0, 0x11, %g3
    68f0:	11 00 00 20 	sethi  %hi(0x8000), %o0
    68f4:	83 30 60 01 	srl  %g1, 1, %g1
    68f8:	9a 10 00 09 	mov  %o1, %o5
    68fc:	80 89 20 01 	btst  1, %g4
    6900:	12 80 00 93 	bne  6b4c <crcu32+0x91c>
    6904:	82 10 40 08 	or  %g1, %o0, %g1
    6908:	99 28 e0 10 	sll  %g3, 0x10, %o4
    690c:	09 00 00 10 	sethi  %hi(0x4000), %g4
    6910:	11 00 00 20 	sethi  %hi(0x8000), %o0
    6914:	83 33 20 10 	srl  %o4, 0x10, %g1
    6918:	84 11 20 02 	or  %g4, 2, %g2
    691c:	87 33 20 11 	srl  %o4, 0x11, %g3
    6920:	92 1a 40 01 	xor  %o1, %g1, %o1
    6924:	82 18 40 02 	xor  %g1, %g2, %g1
    6928:	80 8a 60 01 	btst  1, %o1
    692c:	83 30 60 01 	srl  %g1, 1, %g1
    6930:	12 80 00 85 	bne  6b44 <crcu32+0x914>
    6934:	82 10 40 08 	or  %g1, %o0, %g1
    6938:	99 28 e0 10 	sll  %g3, 0x10, %o4
    693c:	11 00 00 10 	sethi  %hi(0x4000), %o0
    6940:	9a 0b 60 ff 	and  %o5, 0xff, %o5
    6944:	83 33 20 10 	srl  %o4, 0x10, %g1
    6948:	86 12 20 02 	or  %o0, 2, %g3
    694c:	93 33 60 01 	srl  %o5, 1, %o1
    6950:	88 08 60 01 	and  %g1, 1, %g4
    6954:	82 18 40 03 	xor  %g1, %g3, %g1
    6958:	85 33 20 11 	srl  %o4, 0x11, %g2
    695c:	19 00 00 20 	sethi  %hi(0x8000), %o4
    6960:	80 a1 00 09 	cmp  %g4, %o1
    6964:	83 30 60 01 	srl  %g1, 1, %g1
    6968:	12 80 00 73 	bne  6b34 <crcu32+0x904>
    696c:	82 10 40 0c 	or  %g1, %o4, %g1
    6970:	9b 28 a0 10 	sll  %g2, 0x10, %o5
    6974:	81 c3 e0 08 	retl 
    6978:	91 33 60 10 	srl  %o5, 0x10, %o0
    697c:	86 08 e0 ff 	and  %g3, 0xff, %g3
    6980:	1b 00 00 10 	sethi  %hi(0x4000), %o5
    6984:	92 10 00 04 	mov  %g4, %o1
    6988:	85 2a 60 10 	sll  %o1, 0x10, %g2
    698c:	93 30 e0 01 	srl  %g3, 1, %o1
    6990:	86 13 60 02 	or  %o5, 2, %g3
    6994:	83 30 a0 10 	srl  %g2, 0x10, %g1
    6998:	85 30 a0 11 	srl  %g2, 0x11, %g2
    699c:	98 1b 00 01 	xor  %o4, %g1, %o4
    69a0:	82 18 40 03 	xor  %g1, %g3, %g1
    69a4:	80 8b 20 01 	btst  1, %o4
    69a8:	19 00 00 20 	sethi  %hi(0x8000), %o4
    69ac:	83 30 60 01 	srl  %g1, 1, %g1
    69b0:	88 10 00 09 	mov  %o1, %g4
    69b4:	02 bf fe 3b 	be  62a0 <crcu32+0x70>
    69b8:	82 10 40 0c 	or  %g1, %o4, %g1
    69bc:	84 10 00 01 	mov  %g1, %g2
    69c0:	88 09 20 ff 	and  %g4, 0xff, %g4
    69c4:	1b 00 00 10 	sethi  %hi(0x4000), %o5
    69c8:	85 28 a0 10 	sll  %g2, 0x10, %g2
    69cc:	89 31 20 01 	srl  %g4, 1, %g4
    69d0:	98 13 60 02 	or  %o5, 2, %o4
    69d4:	83 30 a0 10 	srl  %g2, 0x10, %g1
    69d8:	85 30 a0 11 	srl  %g2, 0x11, %g2
    69dc:	92 1a 40 01 	xor  %o1, %g1, %o1
    69e0:	82 18 40 0c 	xor  %g1, %o4, %g1
    69e4:	80 8a 60 01 	btst  1, %o1
    69e8:	13 00 00 20 	sethi  %hi(0x8000), %o1
    69ec:	83 30 60 01 	srl  %g1, 1, %g1
    69f0:	86 10 00 04 	mov  %g4, %g3
    69f4:	02 bf fe 3a 	be  62dc <crcu32+0xac>
    69f8:	82 10 40 09 	or  %g1, %o1, %g1
    69fc:	84 10 00 01 	mov  %g1, %g2
    6a00:	86 08 e0 ff 	and  %g3, 0xff, %g3
    6a04:	1b 00 00 10 	sethi  %hi(0x4000), %o5
    6a08:	93 28 a0 10 	sll  %g2, 0x10, %o1
    6a0c:	87 30 e0 01 	srl  %g3, 1, %g3
    6a10:	84 13 60 02 	or  %o5, 2, %g2
    6a14:	83 32 60 10 	srl  %o1, 0x10, %g1
    6a18:	9b 32 60 11 	srl  %o1, 0x11, %o5
    6a1c:	13 00 00 20 	sethi  %hi(0x8000), %o1
    6a20:	98 19 00 01 	xor  %g4, %g1, %o4
    6a24:	82 18 40 02 	xor  %g1, %g2, %g1
    6a28:	88 10 00 03 	mov  %g3, %g4
    6a2c:	80 8b 20 01 	btst  1, %o4
    6a30:	83 30 60 01 	srl  %g1, 1, %g1
    6a34:	02 bf fe 39 	be  6318 <crcu32+0xe8>
    6a38:	82 10 40 09 	or  %g1, %o1, %g1
    6a3c:	9a 10 00 01 	mov  %g1, %o5
    6a40:	98 09 20 ff 	and  %g4, 0xff, %o4
    6a44:	85 2b 60 10 	sll  %o5, 0x10, %g2
    6a48:	1b 00 00 10 	sethi  %hi(0x4000), %o5
    6a4c:	89 33 20 01 	srl  %o4, 1, %g4
    6a50:	83 30 a0 10 	srl  %g2, 0x10, %g1
    6a54:	98 13 60 02 	or  %o5, 2, %o4
    6a58:	85 30 a0 11 	srl  %g2, 0x11, %g2
    6a5c:	92 18 c0 01 	xor  %g3, %g1, %o1
    6a60:	82 18 40 0c 	xor  %g1, %o4, %g1
    6a64:	80 8a 60 01 	btst  1, %o1
    6a68:	13 00 00 20 	sethi  %hi(0x8000), %o1
    6a6c:	83 30 60 01 	srl  %g1, 1, %g1
    6a70:	86 10 00 04 	mov  %g4, %g3
    6a74:	02 bf fe 38 	be  6354 <crcu32+0x124>
    6a78:	82 10 40 09 	or  %g1, %o1, %g1
    6a7c:	84 10 00 01 	mov  %g1, %g2
    6a80:	19 00 00 10 	sethi  %hi(0x4000), %o4
    6a84:	86 08 e0 ff 	and  %g3, 0xff, %g3
    6a88:	93 28 a0 10 	sll  %g2, 0x10, %o1
    6a8c:	84 13 20 02 	or  %o4, 2, %g2
    6a90:	87 30 e0 01 	srl  %g3, 1, %g3
    6a94:	83 32 60 10 	srl  %o1, 0x10, %g1
    6a98:	99 32 60 11 	srl  %o1, 0x11, %o4
    6a9c:	13 00 00 20 	sethi  %hi(0x8000), %o1
    6aa0:	88 19 00 01 	xor  %g4, %g1, %g4
    6aa4:	82 18 40 02 	xor  %g1, %g2, %g1
    6aa8:	9a 10 00 03 	mov  %g3, %o5
    6aac:	80 89 20 01 	btst  1, %g4
    6ab0:	83 30 60 01 	srl  %g1, 1, %g1
    6ab4:	02 bf fe 37 	be  6390 <crcu32+0x160>
    6ab8:	82 10 40 09 	or  %g1, %o1, %g1
    6abc:	98 10 00 01 	mov  %g1, %o4
    6ac0:	09 00 00 10 	sethi  %hi(0x4000), %g4
    6ac4:	85 2b 20 10 	sll  %o4, 0x10, %g2
    6ac8:	19 00 00 20 	sethi  %hi(0x8000), %o4
    6acc:	92 11 20 02 	or  %g4, 2, %o1
    6ad0:	83 30 a0 10 	srl  %g2, 0x10, %g1
    6ad4:	85 30 a0 11 	srl  %g2, 0x11, %g2
    6ad8:	86 18 c0 01 	xor  %g3, %g1, %g3
    6adc:	82 18 40 09 	xor  %g1, %o1, %g1
    6ae0:	80 88 e0 01 	btst  1, %g3
    6ae4:	83 30 60 01 	srl  %g1, 1, %g1
    6ae8:	02 bf fe 36 	be  63c0 <crcu32+0x190>
    6aec:	82 10 40 0c 	or  %g1, %o4, %g1
    6af0:	19 00 00 10 	sethi  %hi(0x4000), %o4
    6af4:	84 10 00 01 	mov  %g1, %g2
    6af8:	9a 0b 60 ff 	and  %o5, 0xff, %o5
    6afc:	93 28 a0 10 	sll  %g2, 0x10, %o1
    6b00:	87 33 60 01 	srl  %o5, 1, %g3
    6b04:	1b 00 00 20 	sethi  %hi(0x8000), %o5
    6b08:	83 32 60 10 	srl  %o1, 0x10, %g1
    6b0c:	85 32 60 11 	srl  %o1, 0x11, %g2
    6b10:	92 13 20 02 	or  %o4, 2, %o1
    6b14:	88 08 60 01 	and  %g1, 1, %g4
    6b18:	82 18 40 09 	xor  %g1, %o1, %g1
    6b1c:	80 a1 00 03 	cmp  %g4, %g3
    6b20:	83 30 60 01 	srl  %g1, 1, %g1
    6b24:	02 bf fe 35 	be  63f8 <crcu32+0x1c8>
    6b28:	82 10 40 0d 	or  %g1, %o5, %g1
    6b2c:	10 bf fe 33 	b  63f8 <crcu32+0x1c8>
    6b30:	84 10 00 01 	mov  %g1, %g2
    6b34:	84 10 00 01 	mov  %g1, %g2
    6b38:	9b 28 a0 10 	sll  %g2, 0x10, %o5
    6b3c:	81 c3 e0 08 	retl 
    6b40:	91 33 60 10 	srl  %o5, 0x10, %o0
    6b44:	10 bf ff 7d 	b  6938 <crcu32+0x708>
    6b48:	86 10 00 01 	mov  %g1, %g3
    6b4c:	10 bf ff 6f 	b  6908 <crcu32+0x6d8>
    6b50:	86 10 00 01 	mov  %g1, %g3
    6b54:	10 bf ff 5e 	b  68cc <crcu32+0x69c>
    6b58:	84 10 00 01 	mov  %g1, %g2
    6b5c:	10 bf ff 4d 	b  6890 <crcu32+0x660>
    6b60:	92 10 00 01 	mov  %g1, %o1
    6b64:	10 bf ff 3c 	b  6854 <crcu32+0x624>
    6b68:	84 10 00 01 	mov  %g1, %g2
    6b6c:	10 bf ff 2b 	b  6818 <crcu32+0x5e8>
    6b70:	86 10 00 01 	mov  %g1, %g3
    6b74:	10 bf ff 1a 	b  67dc <crcu32+0x5ac>
    6b78:	90 10 00 01 	mov  %g1, %o0
    6b7c:	10 bf ff 09 	b  67a0 <crcu32+0x570>
    6b80:	84 10 00 01 	mov  %g1, %g2
    6b84:	10 bf fe f9 	b  6768 <crcu32+0x538>
    6b88:	84 10 00 01 	mov  %g1, %g2
    6b8c:	10 bf fe eb 	b  6738 <crcu32+0x508>
    6b90:	84 10 00 01 	mov  %g1, %g2
    6b94:	10 bf fe da 	b  66fc <crcu32+0x4cc>
    6b98:	9a 10 00 01 	mov  %g1, %o5
    6b9c:	10 bf fe c9 	b  66c0 <crcu32+0x490>
    6ba0:	84 10 00 01 	mov  %g1, %g2
    6ba4:	10 bf fe b8 	b  6684 <crcu32+0x454>
    6ba8:	9a 10 00 01 	mov  %g1, %o5
    6bac:	10 bf fe a7 	b  6648 <crcu32+0x418>
    6bb0:	84 10 00 01 	mov  %g1, %g2
    6bb4:	10 bf fe 96 	b  660c <crcu32+0x3dc>
    6bb8:	9a 10 00 01 	mov  %g1, %o5
    6bbc:	10 bf fe 84 	b  65cc <crcu32+0x39c>
    6bc0:	84 10 00 01 	mov  %g1, %g2
    6bc4:	10 bf fe 74 	b  6594 <crcu32+0x364>
    6bc8:	84 10 00 01 	mov  %g1, %g2
    6bcc:	10 bf fe 66 	b  6564 <crcu32+0x334>
    6bd0:	98 10 00 01 	mov  %g1, %o4
    6bd4:	10 bf fe 55 	b  6528 <crcu32+0x2f8>
    6bd8:	84 10 00 01 	mov  %g1, %g2
    6bdc:	10 bf fe 44 	b  64ec <crcu32+0x2bc>
    6be0:	9a 10 00 01 	mov  %g1, %o5
    6be4:	10 bf fe 33 	b  64b0 <crcu32+0x280>
    6be8:	84 10 00 01 	mov  %g1, %g2
    6bec:	10 bf fe 22 	b  6474 <crcu32+0x244>
    6bf0:	9a 10 00 01 	mov  %g1, %o5
    6bf4:	10 bf fe 11 	b  6438 <crcu32+0x208>
    6bf8:	84 10 00 01 	mov  %g1, %g2

00006bfc <crc16>:
    6bfc:	88 0a 20 ff 	and  %o0, 0xff, %g4
    6c00:	1b 00 00 10 	sethi  %hi(0x4000), %o5
    6c04:	82 1a 00 09 	xor  %o0, %o1, %g1
    6c08:	99 31 20 01 	srl  %g4, 1, %o4
    6c0c:	84 13 60 02 	or  %o5, 2, %g2
    6c10:	1b 00 00 20 	sethi  %hi(0x8000), %o5
    6c14:	86 1a 40 02 	xor  %o1, %g2, %g3
    6c18:	93 32 60 01 	srl  %o1, 1, %o1
    6c1c:	89 30 e0 01 	srl  %g3, 1, %g4
    6c20:	86 10 00 0c 	mov  %o4, %g3
    6c24:	80 88 60 01 	btst  1, %g1
    6c28:	12 80 00 df 	bne  6fa4 <crc16+0x3a8>
    6c2c:	88 11 00 0d 	or  %g4, %o5, %g4
    6c30:	86 08 e0 ff 	and  %g3, 0xff, %g3
    6c34:	1b 00 00 10 	sethi  %hi(0x4000), %o5
    6c38:	85 2a 60 10 	sll  %o1, 0x10, %g2
    6c3c:	93 30 e0 01 	srl  %g3, 1, %o1
    6c40:	86 13 60 02 	or  %o5, 2, %g3
    6c44:	83 30 a0 10 	srl  %g2, 0x10, %g1
    6c48:	85 30 a0 11 	srl  %g2, 0x11, %g2
    6c4c:	98 1b 00 01 	xor  %o4, %g1, %o4
    6c50:	82 18 40 03 	xor  %g1, %g3, %g1
    6c54:	80 8b 20 01 	btst  1, %o4
    6c58:	19 00 00 20 	sethi  %hi(0x8000), %o4
    6c5c:	83 30 60 01 	srl  %g1, 1, %g1
    6c60:	88 10 00 09 	mov  %o1, %g4
    6c64:	12 80 00 e0 	bne  6fe4 <crc16+0x3e8>
    6c68:	82 10 40 0c 	or  %g1, %o4, %g1
    6c6c:	85 28 a0 10 	sll  %g2, 0x10, %g2
    6c70:	88 09 20 ff 	and  %g4, 0xff, %g4
    6c74:	1b 00 00 10 	sethi  %hi(0x4000), %o5
    6c78:	83 30 a0 10 	srl  %g2, 0x10, %g1
    6c7c:	89 31 20 01 	srl  %g4, 1, %g4
    6c80:	98 13 60 02 	or  %o5, 2, %o4
    6c84:	92 1a 40 01 	xor  %o1, %g1, %o1
    6c88:	85 30 a0 11 	srl  %g2, 0x11, %g2
    6c8c:	82 18 40 0c 	xor  %g1, %o4, %g1
    6c90:	80 8a 60 01 	btst  1, %o1
    6c94:	13 00 00 20 	sethi  %hi(0x8000), %o1
    6c98:	83 30 60 01 	srl  %g1, 1, %g1
    6c9c:	86 10 00 04 	mov  %g4, %g3
    6ca0:	12 80 00 e1 	bne  7024 <crc16+0x428>
    6ca4:	82 10 40 09 	or  %g1, %o1, %g1
    6ca8:	93 28 a0 10 	sll  %g2, 0x10, %o1
    6cac:	1b 00 00 10 	sethi  %hi(0x4000), %o5
    6cb0:	86 08 e0 ff 	and  %g3, 0xff, %g3
    6cb4:	83 32 60 10 	srl  %o1, 0x10, %g1
    6cb8:	84 13 60 02 	or  %o5, 2, %g2
    6cbc:	87 30 e0 01 	srl  %g3, 1, %g3
    6cc0:	9b 32 60 11 	srl  %o1, 0x11, %o5
    6cc4:	13 00 00 20 	sethi  %hi(0x8000), %o1
    6cc8:	98 19 00 01 	xor  %g4, %g1, %o4
    6ccc:	82 18 40 02 	xor  %g1, %g2, %g1
    6cd0:	88 10 00 03 	mov  %g3, %g4
    6cd4:	80 8b 20 01 	btst  1, %o4
    6cd8:	83 30 60 01 	srl  %g1, 1, %g1
    6cdc:	12 80 00 e2 	bne  7064 <crc16+0x468>
    6ce0:	82 10 40 09 	or  %g1, %o1, %g1
    6ce4:	98 09 20 ff 	and  %g4, 0xff, %o4
    6ce8:	85 2b 60 10 	sll  %o5, 0x10, %g2
    6cec:	1b 00 00 10 	sethi  %hi(0x4000), %o5
    6cf0:	89 33 20 01 	srl  %o4, 1, %g4
    6cf4:	83 30 a0 10 	srl  %g2, 0x10, %g1
    6cf8:	98 13 60 02 	or  %o5, 2, %o4
    6cfc:	85 30 a0 11 	srl  %g2, 0x11, %g2
    6d00:	92 18 c0 01 	xor  %g3, %g1, %o1
    6d04:	82 18 40 0c 	xor  %g1, %o4, %g1
    6d08:	80 8a 60 01 	btst  1, %o1
    6d0c:	13 00 00 20 	sethi  %hi(0x8000), %o1
    6d10:	83 30 60 01 	srl  %g1, 1, %g1
    6d14:	86 10 00 04 	mov  %g4, %g3
    6d18:	12 80 00 e3 	bne  70a4 <crc16+0x4a8>
    6d1c:	82 10 40 09 	or  %g1, %o1, %g1
    6d20:	93 28 a0 10 	sll  %g2, 0x10, %o1
    6d24:	19 00 00 10 	sethi  %hi(0x4000), %o4
    6d28:	86 08 e0 ff 	and  %g3, 0xff, %g3
    6d2c:	83 32 60 10 	srl  %o1, 0x10, %g1
    6d30:	84 13 20 02 	or  %o4, 2, %g2
    6d34:	87 30 e0 01 	srl  %g3, 1, %g3
    6d38:	88 19 00 01 	xor  %g4, %g1, %g4
    6d3c:	82 18 40 02 	xor  %g1, %g2, %g1
    6d40:	99 32 60 11 	srl  %o1, 0x11, %o4
    6d44:	13 00 00 20 	sethi  %hi(0x8000), %o1
    6d48:	83 30 60 01 	srl  %g1, 1, %g1
    6d4c:	9a 10 00 03 	mov  %g3, %o5
    6d50:	80 89 20 01 	btst  1, %g4
    6d54:	12 80 00 e4 	bne  70e4 <crc16+0x4e8>
    6d58:	82 10 40 09 	or  %g1, %o1, %g1
    6d5c:	09 00 00 10 	sethi  %hi(0x4000), %g4
    6d60:	85 2b 20 10 	sll  %o4, 0x10, %g2
    6d64:	19 00 00 20 	sethi  %hi(0x8000), %o4
    6d68:	92 11 20 02 	or  %g4, 2, %o1
    6d6c:	83 30 a0 10 	srl  %g2, 0x10, %g1
    6d70:	85 30 a0 11 	srl  %g2, 0x11, %g2
    6d74:	86 18 c0 01 	xor  %g3, %g1, %g3
    6d78:	82 18 40 09 	xor  %g1, %o1, %g1
    6d7c:	80 88 e0 01 	btst  1, %g3
    6d80:	83 30 60 01 	srl  %g1, 1, %g1
    6d84:	12 80 00 e5 	bne  7118 <crc16+0x51c>
    6d88:	82 10 40 0c 	or  %g1, %o4, %g1
    6d8c:	93 28 a0 10 	sll  %g2, 0x10, %o1
    6d90:	9a 0b 60 ff 	and  %o5, 0xff, %o5
    6d94:	19 00 00 10 	sethi  %hi(0x4000), %o4
    6d98:	83 32 60 10 	srl  %o1, 0x10, %g1
    6d9c:	87 33 60 01 	srl  %o5, 1, %g3
    6da0:	1b 00 00 20 	sethi  %hi(0x8000), %o5
    6da4:	88 08 60 01 	and  %g1, 1, %g4
    6da8:	85 32 60 11 	srl  %o1, 0x11, %g2
    6dac:	92 13 20 02 	or  %o4, 2, %o1
    6db0:	80 a1 00 03 	cmp  %g4, %g3
    6db4:	82 18 40 09 	xor  %g1, %o1, %g1
    6db8:	83 30 60 01 	srl  %g1, 1, %g1
    6dbc:	12 80 00 e6 	bne  7154 <crc16+0x558>
    6dc0:	82 10 40 0d 	or  %g1, %o5, %g1
    6dc4:	99 28 a0 10 	sll  %g2, 0x10, %o4
    6dc8:	1b 00 00 10 	sethi  %hi(0x4000), %o5
    6dcc:	91 2a 20 10 	sll  %o0, 0x10, %o0
    6dd0:	83 33 20 10 	srl  %o4, 0x10, %g1
    6dd4:	84 13 60 02 	or  %o5, 2, %g2
    6dd8:	87 32 20 18 	srl  %o0, 0x18, %g3
    6ddc:	93 30 e0 01 	srl  %g3, 1, %o1
    6de0:	88 18 c0 01 	xor  %g3, %g1, %g4
    6de4:	82 18 40 02 	xor  %g1, %g2, %g1
    6de8:	90 10 00 09 	mov  %o1, %o0
    6dec:	80 89 20 01 	btst  1, %g4
    6df0:	83 30 60 01 	srl  %g1, 1, %g1
    6df4:	87 33 20 11 	srl  %o4, 0x11, %g3
    6df8:	19 00 00 20 	sethi  %hi(0x8000), %o4
    6dfc:	12 80 00 e8 	bne  719c <crc16+0x5a0>
    6e00:	82 10 40 0c 	or  %g1, %o4, %g1
    6e04:	88 0a 20 ff 	and  %o0, 0xff, %g4
    6e08:	85 28 e0 10 	sll  %g3, 0x10, %g2
    6e0c:	1b 00 00 10 	sethi  %hi(0x4000), %o5
    6e10:	99 31 20 01 	srl  %g4, 1, %o4
    6e14:	83 30 a0 10 	srl  %g2, 0x10, %g1
    6e18:	86 13 60 02 	or  %o5, 2, %g3
    6e1c:	09 00 00 20 	sethi  %hi(0x8000), %g4
    6e20:	92 1a 40 01 	xor  %o1, %g1, %o1
    6e24:	82 18 40 03 	xor  %g1, %g3, %g1
    6e28:	90 10 00 0c 	mov  %o4, %o0
    6e2c:	85 30 a0 11 	srl  %g2, 0x11, %g2
    6e30:	83 30 60 01 	srl  %g1, 1, %g1
    6e34:	80 8a 60 01 	btst  1, %o1
    6e38:	12 80 00 d7 	bne  7194 <crc16+0x598>
    6e3c:	82 10 40 04 	or  %g1, %g4, %g1
    6e40:	93 28 a0 10 	sll  %g2, 0x10, %o1
    6e44:	90 0a 20 ff 	and  %o0, 0xff, %o0
    6e48:	1b 00 00 10 	sethi  %hi(0x4000), %o5
    6e4c:	83 32 60 10 	srl  %o1, 0x10, %g1
    6e50:	89 32 20 01 	srl  %o0, 1, %g4
    6e54:	84 13 60 02 	or  %o5, 2, %g2
    6e58:	98 1b 00 01 	xor  %o4, %g1, %o4
    6e5c:	86 10 00 04 	mov  %g4, %g3
    6e60:	82 18 40 02 	xor  %g1, %g2, %g1
    6e64:	80 8b 20 01 	btst  1, %o4
    6e68:	91 32 60 11 	srl  %o1, 0x11, %o0
    6e6c:	13 00 00 20 	sethi  %hi(0x8000), %o1
    6e70:	83 30 60 01 	srl  %g1, 1, %g1
    6e74:	12 80 00 c6 	bne  718c <crc16+0x590>
    6e78:	82 10 40 09 	or  %g1, %o1, %g1
    6e7c:	1b 00 00 10 	sethi  %hi(0x4000), %o5
    6e80:	98 08 e0 ff 	and  %g3, 0xff, %o4
    6e84:	85 2a 20 10 	sll  %o0, 0x10, %g2
    6e88:	90 13 60 02 	or  %o5, 2, %o0
    6e8c:	87 33 20 01 	srl  %o4, 1, %g3
    6e90:	83 30 a0 10 	srl  %g2, 0x10, %g1
    6e94:	85 30 a0 11 	srl  %g2, 0x11, %g2
    6e98:	19 00 00 20 	sethi  %hi(0x8000), %o4
    6e9c:	92 19 00 01 	xor  %g4, %g1, %o1
    6ea0:	82 18 40 08 	xor  %g1, %o0, %g1
    6ea4:	88 10 00 03 	mov  %g3, %g4
    6ea8:	80 8a 60 01 	btst  1, %o1
    6eac:	83 30 60 01 	srl  %g1, 1, %g1
    6eb0:	12 80 00 b5 	bne  7184 <crc16+0x588>
    6eb4:	82 10 40 0c 	or  %g1, %o4, %g1
    6eb8:	93 28 a0 10 	sll  %g2, 0x10, %o1
    6ebc:	88 09 20 ff 	and  %g4, 0xff, %g4
    6ec0:	1b 00 00 10 	sethi  %hi(0x4000), %o5
    6ec4:	83 32 60 10 	srl  %o1, 0x10, %g1
    6ec8:	91 31 20 01 	srl  %g4, 1, %o0
    6ecc:	84 13 60 02 	or  %o5, 2, %g2
    6ed0:	89 32 60 11 	srl  %o1, 0x11, %g4
    6ed4:	13 00 00 20 	sethi  %hi(0x8000), %o1
    6ed8:	98 18 c0 01 	xor  %g3, %g1, %o4
    6edc:	82 18 40 02 	xor  %g1, %g2, %g1
    6ee0:	86 10 00 08 	mov  %o0, %g3
    6ee4:	80 8b 20 01 	btst  1, %o4
    6ee8:	83 30 60 01 	srl  %g1, 1, %g1
    6eec:	12 80 00 a4 	bne  717c <crc16+0x580>
    6ef0:	82 10 40 09 	or  %g1, %o1, %g1
    6ef4:	85 29 20 10 	sll  %g4, 0x10, %g2
    6ef8:	13 00 00 10 	sethi  %hi(0x4000), %o1
    6efc:	98 08 e0 ff 	and  %g3, 0xff, %o4
    6f00:	83 30 a0 10 	srl  %g2, 0x10, %g1
    6f04:	88 12 60 02 	or  %o1, 2, %g4
    6f08:	87 33 20 01 	srl  %o4, 1, %g3
    6f0c:	90 1a 00 01 	xor  %o0, %g1, %o0
    6f10:	82 18 40 04 	xor  %g1, %g4, %g1
    6f14:	9a 10 00 03 	mov  %g3, %o5
    6f18:	85 30 a0 11 	srl  %g2, 0x11, %g2
    6f1c:	83 30 60 01 	srl  %g1, 1, %g1
    6f20:	80 8a 20 01 	btst  1, %o0
    6f24:	19 00 00 20 	sethi  %hi(0x8000), %o4
    6f28:	12 80 00 93 	bne  7174 <crc16+0x578>
    6f2c:	82 10 40 0c 	or  %g1, %o4, %g1
    6f30:	91 28 a0 10 	sll  %g2, 0x10, %o0
    6f34:	13 00 00 10 	sethi  %hi(0x4000), %o1
    6f38:	19 00 00 20 	sethi  %hi(0x8000), %o4
    6f3c:	83 32 20 10 	srl  %o0, 0x10, %g1
    6f40:	88 12 60 02 	or  %o1, 2, %g4
    6f44:	85 32 20 11 	srl  %o0, 0x11, %g2
    6f48:	86 18 c0 01 	xor  %g3, %g1, %g3
    6f4c:	82 18 40 04 	xor  %g1, %g4, %g1
    6f50:	80 88 e0 01 	btst  1, %g3
    6f54:	83 30 60 01 	srl  %g1, 1, %g1
    6f58:	12 80 00 85 	bne  716c <crc16+0x570>
    6f5c:	82 10 40 0c 	or  %g1, %o4, %g1
    6f60:	91 28 a0 10 	sll  %g2, 0x10, %o0
    6f64:	09 00 00 10 	sethi  %hi(0x4000), %g4
    6f68:	9a 0b 60 ff 	and  %o5, 0xff, %o5
    6f6c:	83 32 20 10 	srl  %o0, 0x10, %g1
    6f70:	98 11 20 02 	or  %g4, 2, %o4
    6f74:	87 33 60 01 	srl  %o5, 1, %g3
    6f78:	92 08 60 01 	and  %g1, 1, %o1
    6f7c:	82 18 40 0c 	xor  %g1, %o4, %g1
    6f80:	85 32 20 11 	srl  %o0, 0x11, %g2
    6f84:	11 00 00 20 	sethi  %hi(0x8000), %o0
    6f88:	83 30 60 01 	srl  %g1, 1, %g1
    6f8c:	80 a2 40 03 	cmp  %o1, %g3
    6f90:	12 80 00 73 	bne  715c <crc16+0x560>
    6f94:	82 10 40 08 	or  %g1, %o0, %g1
    6f98:	9b 28 a0 10 	sll  %g2, 0x10, %o5
    6f9c:	81 c3 e0 08 	retl 
    6fa0:	91 33 60 10 	srl  %o5, 0x10, %o0
    6fa4:	86 08 e0 ff 	and  %g3, 0xff, %g3
    6fa8:	1b 00 00 10 	sethi  %hi(0x4000), %o5
    6fac:	92 10 00 04 	mov  %g4, %o1
    6fb0:	85 2a 60 10 	sll  %o1, 0x10, %g2
    6fb4:	93 30 e0 01 	srl  %g3, 1, %o1
    6fb8:	86 13 60 02 	or  %o5, 2, %g3
    6fbc:	83 30 a0 10 	srl  %g2, 0x10, %g1
    6fc0:	85 30 a0 11 	srl  %g2, 0x11, %g2
    6fc4:	98 1b 00 01 	xor  %o4, %g1, %o4
    6fc8:	82 18 40 03 	xor  %g1, %g3, %g1
    6fcc:	80 8b 20 01 	btst  1, %o4
    6fd0:	19 00 00 20 	sethi  %hi(0x8000), %o4
    6fd4:	83 30 60 01 	srl  %g1, 1, %g1
    6fd8:	88 10 00 09 	mov  %o1, %g4
    6fdc:	02 bf ff 24 	be  6c6c <crc16+0x70>
    6fe0:	82 10 40 0c 	or  %g1, %o4, %g1
    6fe4:	84 10 00 01 	mov  %g1, %g2
    6fe8:	88 09 20 ff 	and  %g4, 0xff, %g4
    6fec:	1b 00 00 10 	sethi  %hi(0x4000), %o5
    6ff0:	85 28 a0 10 	sll  %g2, 0x10, %g2
    6ff4:	89 31 20 01 	srl  %g4, 1, %g4
    6ff8:	98 13 60 02 	or  %o5, 2, %o4
    6ffc:	83 30 a0 10 	srl  %g2, 0x10, %g1
    7000:	85 30 a0 11 	srl  %g2, 0x11, %g2
    7004:	92 1a 40 01 	xor  %o1, %g1, %o1
    7008:	82 18 40 0c 	xor  %g1, %o4, %g1
    700c:	80 8a 60 01 	btst  1, %o1
    7010:	13 00 00 20 	sethi  %hi(0x8000), %o1
    7014:	83 30 60 01 	srl  %g1, 1, %g1
    7018:	86 10 00 04 	mov  %g4, %g3
    701c:	02 bf ff 23 	be  6ca8 <crc16+0xac>
    7020:	82 10 40 09 	or  %g1, %o1, %g1
    7024:	84 10 00 01 	mov  %g1, %g2
    7028:	1b 00 00 10 	sethi  %hi(0x4000), %o5
    702c:	86 08 e0 ff 	and  %g3, 0xff, %g3
    7030:	93 28 a0 10 	sll  %g2, 0x10, %o1
    7034:	84 13 60 02 	or  %o5, 2, %g2
    7038:	87 30 e0 01 	srl  %g3, 1, %g3
    703c:	83 32 60 10 	srl  %o1, 0x10, %g1
    7040:	9b 32 60 11 	srl  %o1, 0x11, %o5
    7044:	13 00 00 20 	sethi  %hi(0x8000), %o1
    7048:	98 19 00 01 	xor  %g4, %g1, %o4
    704c:	82 18 40 02 	xor  %g1, %g2, %g1
    7050:	88 10 00 03 	mov  %g3, %g4
    7054:	80 8b 20 01 	btst  1, %o4
    7058:	83 30 60 01 	srl  %g1, 1, %g1
    705c:	02 bf ff 22 	be  6ce4 <crc16+0xe8>
    7060:	82 10 40 09 	or  %g1, %o1, %g1
    7064:	9a 10 00 01 	mov  %g1, %o5
    7068:	98 09 20 ff 	and  %g4, 0xff, %o4
    706c:	85 2b 60 10 	sll  %o5, 0x10, %g2
    7070:	1b 00 00 10 	sethi  %hi(0x4000), %o5
    7074:	89 33 20 01 	srl  %o4, 1, %g4
    7078:	83 30 a0 10 	srl  %g2, 0x10, %g1
    707c:	98 13 60 02 	or  %o5, 2, %o4
    7080:	85 30 a0 11 	srl  %g2, 0x11, %g2
    7084:	92 18 c0 01 	xor  %g3, %g1, %o1
    7088:	82 18 40 0c 	xor  %g1, %o4, %g1
    708c:	80 8a 60 01 	btst  1, %o1
    7090:	13 00 00 20 	sethi  %hi(0x8000), %o1
    7094:	83 30 60 01 	srl  %g1, 1, %g1
    7098:	86 10 00 04 	mov  %g4, %g3
    709c:	02 bf ff 21 	be  6d20 <crc16+0x124>
    70a0:	82 10 40 09 	or  %g1, %o1, %g1
    70a4:	84 10 00 01 	mov  %g1, %g2
    70a8:	19 00 00 10 	sethi  %hi(0x4000), %o4
    70ac:	86 08 e0 ff 	and  %g3, 0xff, %g3
    70b0:	93 28 a0 10 	sll  %g2, 0x10, %o1
    70b4:	84 13 20 02 	or  %o4, 2, %g2
    70b8:	87 30 e0 01 	srl  %g3, 1, %g3
    70bc:	83 32 60 10 	srl  %o1, 0x10, %g1
    70c0:	99 32 60 11 	srl  %o1, 0x11, %o4
    70c4:	9a 10 00 03 	mov  %g3, %o5
    70c8:	88 19 00 01 	xor  %g4, %g1, %g4
    70cc:	82 18 40 02 	xor  %g1, %g2, %g1
    70d0:	13 00 00 20 	sethi  %hi(0x8000), %o1
    70d4:	80 89 20 01 	btst  1, %g4
    70d8:	83 30 60 01 	srl  %g1, 1, %g1
    70dc:	02 bf ff 20 	be  6d5c <crc16+0x160>
    70e0:	82 10 40 09 	or  %g1, %o1, %g1
    70e4:	98 10 00 01 	mov  %g1, %o4
    70e8:	09 00 00 10 	sethi  %hi(0x4000), %g4
    70ec:	85 2b 20 10 	sll  %o4, 0x10, %g2
    70f0:	19 00 00 20 	sethi  %hi(0x8000), %o4
    70f4:	92 11 20 02 	or  %g4, 2, %o1
    70f8:	83 30 a0 10 	srl  %g2, 0x10, %g1
    70fc:	85 30 a0 11 	srl  %g2, 0x11, %g2
    7100:	86 18 c0 01 	xor  %g3, %g1, %g3
    7104:	82 18 40 09 	xor  %g1, %o1, %g1
    7108:	80 88 e0 01 	btst  1, %g3
    710c:	83 30 60 01 	srl  %g1, 1, %g1
    7110:	02 bf ff 1f 	be  6d8c <crc16+0x190>
    7114:	82 10 40 0c 	or  %g1, %o4, %g1
    7118:	19 00 00 10 	sethi  %hi(0x4000), %o4
    711c:	84 10 00 01 	mov  %g1, %g2
    7120:	9a 0b 60 ff 	and  %o5, 0xff, %o5
    7124:	93 28 a0 10 	sll  %g2, 0x10, %o1
    7128:	87 33 60 01 	srl  %o5, 1, %g3
    712c:	1b 00 00 20 	sethi  %hi(0x8000), %o5
    7130:	83 32 60 10 	srl  %o1, 0x10, %g1
    7134:	85 32 60 11 	srl  %o1, 0x11, %g2
    7138:	92 13 20 02 	or  %o4, 2, %o1
    713c:	88 08 60 01 	and  %g1, 1, %g4
    7140:	82 18 40 09 	xor  %g1, %o1, %g1
    7144:	80 a1 00 03 	cmp  %g4, %g3
    7148:	83 30 60 01 	srl  %g1, 1, %g1
    714c:	02 bf ff 1e 	be  6dc4 <crc16+0x1c8>
    7150:	82 10 40 0d 	or  %g1, %o5, %g1
    7154:	10 bf ff 1c 	b  6dc4 <crc16+0x1c8>
    7158:	84 10 00 01 	mov  %g1, %g2
    715c:	84 10 00 01 	mov  %g1, %g2
    7160:	9b 28 a0 10 	sll  %g2, 0x10, %o5
    7164:	81 c3 e0 08 	retl 
    7168:	91 33 60 10 	srl  %o5, 0x10, %o0
    716c:	10 bf ff 7d 	b  6f60 <crc16+0x364>
    7170:	84 10 00 01 	mov  %g1, %g2
    7174:	10 bf ff 6f 	b  6f30 <crc16+0x334>
    7178:	84 10 00 01 	mov  %g1, %g2
    717c:	10 bf ff 5e 	b  6ef4 <crc16+0x2f8>
    7180:	88 10 00 01 	mov  %g1, %g4
    7184:	10 bf ff 4d 	b  6eb8 <crc16+0x2bc>
    7188:	84 10 00 01 	mov  %g1, %g2
    718c:	10 bf ff 3c 	b  6e7c <crc16+0x280>
    7190:	90 10 00 01 	mov  %g1, %o0
    7194:	10 bf ff 2b 	b  6e40 <crc16+0x244>
    7198:	84 10 00 01 	mov  %g1, %g2
    719c:	10 bf ff 1a 	b  6e04 <crc16+0x208>
    71a0:	86 10 00 01 	mov  %g1, %g3

000071a4 <check_data_types>:
    71a4:	81 c3 e0 08 	retl 
    71a8:	90 10 20 00 	clr  %o0

000071ac <cvt>:
    71ac:	9d e3 bf 90 	save  %sp, -112, %sp
    71b0:	f0 3f bf f8 	std  %i0, [ %fp + -8 ]
    71b4:	da 07 a0 5c 	ld  [ %fp + 0x5c ], %o5
    71b8:	d5 1f bf f8 	ldd  [ %fp + -8 ], %f10
    71bc:	80 a6 a0 00 	cmp  %i2, 0
    71c0:	06 80 00 05 	bl  71d4 <cvt+0x28>
    71c4:	9e 10 20 00 	clr  %o7
    71c8:	80 a6 a0 4e 	cmp  %i2, 0x4e
    71cc:	04 80 00 df 	ble  7548 <cvt+0x39c>
    71d0:	9e 10 20 4e 	mov  0x4e, %o7
    71d4:	05 00 00 81 	sethi  %hi(0x20400), %g2
    71d8:	d1 18 a2 88 	ldd  [ %g2 + 0x288 ], %f8	! 20688 <state_known_crc+0x674>
    71dc:	81 aa 8a c8 	fcmped  %f10, %f8
    71e0:	01 00 00 00 	nop 
    71e4:	09 80 00 d3 	fbl  7530 <cvt+0x384>
    71e8:	82 10 20 01 	mov  1, %g1	! 1 <_start+0x1>
    71ec:	c0 27 00 00 	clr  [ %i4 ]
    71f0:	81 a0 1a 4a 	fdtoi  %f10, %f0
    71f4:	d9 18 a2 88 	ldd  [ %g2 + 0x288 ], %f12
    71f8:	a9 a0 19 00 	fitod  %f0, %f20
    71fc:	81 ad 0a 4c 	fcmpd  %f20, %f12
    7200:	01 00 00 00 	nop 
    7204:	13 80 00 8b 	fbe  7430 <cvt+0x284>
    7208:	95 a2 88 d4 	fsubd  %f10, %f20, %f10
    720c:	b2 07 60 50 	add  %i5, 0x50, %i1
    7210:	31 00 00 81 	sethi  %hi(0x20400), %i0
    7214:	35 00 00 81 	sethi  %hi(0x20400), %i2
    7218:	39 00 00 81 	sethi  %hi(0x20400), %i4
    721c:	82 10 00 19 	mov  %i1, %g1
    7220:	88 10 20 00 	clr  %g4
    7224:	c9 1f 22 88 	ldd  [ %i4 + 0x288 ], %f4
    7228:	dd 1e 22 98 	ldd  [ %i0 + 0x298 ], %f14
    722c:	e5 1e a2 a8 	ldd  [ %i2 + 0x2a8 ], %f18
    7230:	8d a5 09 ce 	fdivd  %f20, %f14, %f6
    7234:	82 00 7f ff 	add  %g1, -1, %g1
    7238:	c4 07 bf f4 	ld  [ %fp + -12 ], %g2
    723c:	83 a0 1a 46 	fdtoi  %f6, %f1
    7240:	86 00 a0 30 	add  %g2, 0x30, %g3
    7244:	a9 a0 19 01 	fitod  %f1, %f20
    7248:	c6 28 40 00 	stb  %g3, [ %g1 ]
    724c:	ad a1 88 d4 	fsubd  %f6, %f20, %f22
    7250:	81 ad 0a 44 	fcmpd  %f20, %f4
    7254:	b1 a5 88 52 	faddd  %f22, %f18, %f24
    7258:	99 a6 09 4e 	fmuld  %f24, %f14, %f12
    725c:	87 a0 1a 4c 	fdtoi  %f12, %f3
    7260:	c7 27 bf f4 	st  %f3, [ %fp + -12 ]
    7264:	01 00 00 00 	nop 
    7268:	03 bf ff f2 	fbne  7230 <cvt+0x84>
    726c:	88 01 20 01 	inc  %g4
    7270:	80 a6 40 01 	cmp  %i1, %g1
    7274:	08 80 00 30 	bleu  7334 <cvt+0x188>
    7278:	84 10 00 1d 	mov  %i5, %g2
    727c:	b0 00 60 04 	add  %g1, 4, %i0
    7280:	b4 07 60 04 	add  %i5, 4, %i2
    7284:	b8 60 3f ff 	subx  %g0, -1, %i4
    7288:	86 60 3f ff 	subx  %g0, -1, %g3
    728c:	96 27 40 01 	sub  %i5, %g1, %o3
    7290:	84 10 00 01 	mov  %g1, %g2
    7294:	80 a7 40 18 	cmp  %i5, %i0
    7298:	96 02 e0 50 	add  %o3, 0x50, %o3
    729c:	80 a0 40 1a 	cmp  %g1, %i2
    72a0:	b8 17 00 03 	or  %i4, %g3, %i4
    72a4:	b1 32 e0 02 	srl  %o3, 2, %i0
    72a8:	86 10 20 01 	mov  1, %g3
    72ac:	80 a2 e0 03 	cmp  %o3, 3
    72b0:	18 80 00 03 	bgu  72bc <cvt+0x110>
    72b4:	99 2e 20 02 	sll  %i0, 2, %o4
    72b8:	86 10 20 00 	clr  %g3
    72bc:	b4 10 40 1d 	or  %g1, %i5, %i2
    72c0:	86 0f 00 03 	and  %i4, %g3, %g3
    72c4:	b4 0e a0 03 	and  %i2, 3, %i2
    72c8:	80 a0 00 1a 	cmp  %g0, %i2
    72cc:	b8 60 3f ff 	subx  %g0, -1, %i4
    72d0:	80 88 c0 1c 	btst  %g3, %i4
    72d4:	02 80 00 a2 	be  755c <cvt+0x3b0>
    72d8:	80 a3 20 00 	cmp  %o4, 0
    72dc:	02 80 00 0e 	be  7314 <cvt+0x168>
    72e0:	b4 10 00 1d 	mov  %i5, %i2
    72e4:	86 10 20 00 	clr  %g3
    72e8:	b8 10 20 00 	clr  %i4
    72ec:	b8 07 20 01 	inc  %i4
    72f0:	f4 00 40 03 	ld  [ %g1 + %g3 ], %i2
    72f4:	80 a6 00 1c 	cmp  %i0, %i4
    72f8:	f4 27 40 03 	st  %i2, [ %i5 + %g3 ]
    72fc:	18 bf ff fc 	bgu  72ec <cvt+0x140>
    7300:	86 00 e0 04 	add  %g3, 4, %g3
    7304:	b4 07 40 0c 	add  %i5, %o4, %i2
    7308:	80 a2 c0 0c 	cmp  %o3, %o4
    730c:	02 80 00 08 	be  732c <cvt+0x180>
    7310:	82 00 40 0c 	add  %g1, %o4, %g1
    7314:	f0 08 40 00 	ldub  [ %g1 ], %i0
    7318:	82 00 60 01 	inc  %g1
    731c:	f0 2e 80 00 	stb  %i0, [ %i2 ]
    7320:	80 a6 40 01 	cmp  %i1, %g1
    7324:	18 bf ff fc 	bgu  7314 <cvt+0x168>
    7328:	b4 06 a0 01 	inc  %i2
    732c:	b2 26 40 02 	sub  %i1, %g2, %i1
    7330:	84 07 40 19 	add  %i5, %i1, %g2
    7334:	80 a3 60 00 	cmp  %o5, 0
    7338:	12 80 00 03 	bne  7344 <cvt+0x198>
    733c:	82 07 40 0f 	add  %i5, %o7, %g1
    7340:	82 00 40 04 	add  %g1, %g4, %g1
    7344:	80 a0 40 1d 	cmp  %g1, %i5
    7348:	0a 80 00 77 	bcs  7524 <cvt+0x378>
    734c:	c8 26 c0 00 	st  %g4, [ %i3 ]
    7350:	80 a0 80 01 	cmp  %g2, %g1
    7354:	18 80 00 17 	bgu  73b0 <cvt+0x204>
    7358:	88 07 60 50 	add  %i5, 0x50, %g4
    735c:	39 00 00 81 	sethi  %hi(0x20400), %i4
    7360:	80 a0 80 04 	cmp  %g2, %g4
    7364:	1a 80 00 13 	bcc  73b0 <cvt+0x204>
    7368:	86 17 22 98 	or  %i4, 0x298, %g3
    736c:	10 80 00 05 	b  7380 <cvt+0x1d4>
    7370:	f5 18 c0 00 	ldd  [ %g3 ], %f26
    7374:	80 a0 80 04 	cmp  %g2, %g4
    7378:	02 80 00 0f 	be  73b4 <cvt+0x208>
    737c:	80 a0 40 04 	cmp  %g1, %g4
    7380:	b9 a2 89 5a 	fmuld  %f10, %f26, %f28
    7384:	f0 07 bf f4 	ld  [ %fp + -12 ], %i0
    7388:	8b a0 1a 5c 	fdtoi  %f28, %f5
    738c:	b4 06 20 30 	add  %i0, 0x30, %i2
    7390:	bd a0 19 05 	fitod  %f5, %f30
    7394:	f4 28 80 00 	stb  %i2, [ %g2 ]
    7398:	84 00 a0 01 	inc  %g2
    739c:	8f a0 1a 5e 	fdtoi  %f30, %f7
    73a0:	80 a0 40 02 	cmp  %g1, %g2
    73a4:	cf 27 bf f4 	st  %f7, [ %fp + -12 ]
    73a8:	1a bf ff f3 	bcc  7374 <cvt+0x1c8>
    73ac:	95 a7 08 de 	fsubd  %f28, %f30, %f10
    73b0:	80 a0 40 04 	cmp  %g1, %g4
