
.//core_mark.elf:     file format elf32-sparc


Disassembly of section .text:

00000000 <_start>:
       0:	90 10 21 00 	mov  0x100, %o0
       4:	d0 a0 00 80 	sta  %o0, [ %g0 ] #ASI_N
       8:	9c 10 30 00 	mov  -4096, %sp
       c:	bc 10 00 00 	mov  %g0, %fp
      10:	a0 10 20 01 	mov  1, %l0
      14:	81 94 20 00 	mov  %l0, %wim
      18:	21 00 00 04 	sethi  %hi(0x1000), %l0
      1c:	a0 14 20 e0 	or  %l0, 0xe0, %l0	! 10e0 <window_underflow_trap_handler+0x7c>
      20:	81 88 00 10 	mov  %l0, %psr
      24:	21 00 00 08 	sethi  %hi(0x2000), %l0
      28:	a0 14 20 00 	mov  %l0, %l0	! 2000 <trap_table_base>
      2c:	81 9c 20 00 	mov  %l0, %tbr
      30:	40 00 17 62 	call  5db8 <ajit_main>
      34:	01 00 00 00 	nop 
      38:	91 d0 20 00 	ta  0
	...

00001000 <window_overflow_trap_handler>:
    1000:	a7 50 00 00 	rd  %wim, %l3
    1004:	a9 2c e0 07 	sll  %l3, 7, %l4
    1008:	a7 34 e0 01 	srl  %l3, 1, %l3
    100c:	a6 14 c0 14 	or  %l3, %l4, %l3
    1010:	a6 0c e0 ff 	and  %l3, 0xff, %l3
    1014:	81 90 00 00 	mov  %g0, %wim
    1018:	01 00 00 00 	nop 
    101c:	01 00 00 00 	nop 
    1020:	01 00 00 00 	nop 
    1024:	81 e0 00 00 	save 
    1028:	e0 3b a0 00 	std  %l0, [ %sp ]
    102c:	e4 3b a0 08 	std  %l2, [ %sp + 8 ]
    1030:	e8 3b a0 10 	std  %l4, [ %sp + 0x10 ]
    1034:	ec 3b a0 18 	std  %l6, [ %sp + 0x18 ]
    1038:	f0 3b a0 20 	std  %i0, [ %sp + 0x20 ]
    103c:	f4 3b a0 28 	std  %i2, [ %sp + 0x28 ]
    1040:	f8 3b a0 30 	std  %i4, [ %sp + 0x30 ]
    1044:	fc 3b a0 38 	std  %fp, [ %sp + 0x38 ]
    1048:	81 e8 00 00 	restore 
    104c:	81 90 00 13 	mov  %l3, %wim
    1050:	01 00 00 00 	nop 
    1054:	01 00 00 00 	nop 
    1058:	01 00 00 00 	nop 
    105c:	81 c4 40 00 	jmp  %l1
    1060:	81 cc 80 00 	rett  %l2

00001064 <window_underflow_trap_handler>:
    1064:	a7 50 00 00 	rd  %wim, %l3
    1068:	a9 34 e0 07 	srl  %l3, 7, %l4
    106c:	a7 2c e0 01 	sll  %l3, 1, %l3
    1070:	a6 14 c0 14 	or  %l3, %l4, %l3
    1074:	a6 0c e0 ff 	and  %l3, 0xff, %l3
    1078:	81 90 00 00 	mov  %g0, %wim
    107c:	01 00 00 00 	nop 
    1080:	01 00 00 00 	nop 
    1084:	01 00 00 00 	nop 
    1088:	81 e8 00 00 	restore 
    108c:	81 e8 00 00 	restore 
    1090:	e0 1b a0 00 	ldd  [ %sp ], %l0
    1094:	e4 1b a0 08 	ldd  [ %sp + 8 ], %l2
    1098:	e8 1b a0 10 	ldd  [ %sp + 0x10 ], %l4
    109c:	ec 1b a0 18 	ldd  [ %sp + 0x18 ], %l6
    10a0:	f0 1b a0 20 	ldd  [ %sp + 0x20 ], %i0
    10a4:	f4 1b a0 28 	ldd  [ %sp + 0x28 ], %i2
    10a8:	f8 1b a0 30 	ldd  [ %sp + 0x30 ], %i4
    10ac:	fc 1b a0 38 	ldd  [ %sp + 0x38 ], %fp
    10b0:	81 e0 00 00 	save 
    10b4:	81 e0 00 00 	save 
    10b8:	81 90 00 13 	mov  %l3, %wim
    10bc:	01 00 00 00 	nop 
    10c0:	01 00 00 00 	nop 
    10c4:	01 00 00 00 	nop 
    10c8:	81 c4 40 00 	jmp  %l1
    10cc:	81 cc 80 00 	rett  %l2
    10d0:	01 00 00 00 	nop 
    10d4:	01 00 00 00 	nop 
    10d8:	01 00 00 00 	nop 
    10dc:	01 00 00 00 	nop 
    10e0:	01 00 00 00 	nop 
    10e4:	01 00 00 00 	nop 
    10e8:	01 00 00 00 	nop 
    10ec:	01 00 00 00 	nop 
    10f0:	01 00 00 00 	nop 
    10f4:	01 00 00 00 	nop 
    10f8:	01 00 00 00 	nop 
    10fc:	01 00 00 00 	nop 
    1100:	01 00 00 00 	nop 
    1104:	01 00 00 00 	nop 
    1108:	01 00 00 00 	nop 
    110c:	01 00 00 00 	nop 
    1110:	01 00 00 00 	nop 
    1114:	01 00 00 00 	nop 
    1118:	01 00 00 00 	nop 
    111c:	01 00 00 00 	nop 
    1120:	01 00 00 00 	nop 
    1124:	01 00 00 00 	nop 
    1128:	01 00 00 00 	nop 
    112c:	01 00 00 00 	nop 
    1130:	01 00 00 00 	nop 
    1134:	01 00 00 00 	nop 
    1138:	01 00 00 00 	nop 
    113c:	01 00 00 00 	nop 
    1140:	01 00 00 00 	nop 
    1144:	01 00 00 00 	nop 
    1148:	01 00 00 00 	nop 
    114c:	01 00 00 00 	nop 
    1150:	01 00 00 00 	nop 
    1154:	01 00 00 00 	nop 
    1158:	01 00 00 00 	nop 
    115c:	01 00 00 00 	nop 
    1160:	01 00 00 00 	nop 
    1164:	01 00 00 00 	nop 
    1168:	01 00 00 00 	nop 
    116c:	01 00 00 00 	nop 
    1170:	01 00 00 00 	nop 
    1174:	01 00 00 00 	nop 
    1178:	01 00 00 00 	nop 
    117c:	01 00 00 00 	nop 
    1180:	01 00 00 00 	nop 
    1184:	01 00 00 00 	nop 
    1188:	01 00 00 00 	nop 
    118c:	01 00 00 00 	nop 
    1190:	01 00 00 00 	nop 
    1194:	01 00 00 00 	nop 
    1198:	01 00 00 00 	nop 
    119c:	01 00 00 00 	nop 
    11a0:	01 00 00 00 	nop 
    11a4:	01 00 00 00 	nop 
    11a8:	01 00 00 00 	nop 
    11ac:	01 00 00 00 	nop 
    11b0:	01 00 00 00 	nop 
    11b4:	01 00 00 00 	nop 
    11b8:	01 00 00 00 	nop 
    11bc:	01 00 00 00 	nop 
    11c0:	01 00 00 00 	nop 
    11c4:	01 00 00 00 	nop 
    11c8:	01 00 00 00 	nop 
    11cc:	01 00 00 00 	nop 
    11d0:	01 00 00 00 	nop 
    11d4:	01 00 00 00 	nop 
    11d8:	01 00 00 00 	nop 
    11dc:	01 00 00 00 	nop 
    11e0:	01 00 00 00 	nop 
    11e4:	01 00 00 00 	nop 
    11e8:	01 00 00 00 	nop 
    11ec:	01 00 00 00 	nop 
    11f0:	01 00 00 00 	nop 
    11f4:	01 00 00 00 	nop 
    11f8:	01 00 00 00 	nop 
    11fc:	01 00 00 00 	nop 
    1200:	01 00 00 00 	nop 
    1204:	01 00 00 00 	nop 
    1208:	01 00 00 00 	nop 
    120c:	01 00 00 00 	nop 
    1210:	01 00 00 00 	nop 
    1214:	01 00 00 00 	nop 
    1218:	01 00 00 00 	nop 
    121c:	01 00 00 00 	nop 
    1220:	01 00 00 00 	nop 
    1224:	01 00 00 00 	nop 
    1228:	01 00 00 00 	nop 
    122c:	01 00 00 00 	nop 
    1230:	01 00 00 00 	nop 
    1234:	01 00 00 00 	nop 
    1238:	01 00 00 00 	nop 
    123c:	01 00 00 00 	nop 
    1240:	01 00 00 00 	nop 
    1244:	01 00 00 00 	nop 
    1248:	01 00 00 00 	nop 
    124c:	01 00 00 00 	nop 
    1250:	01 00 00 00 	nop 
    1254:	01 00 00 00 	nop 
    1258:	01 00 00 00 	nop 
    125c:	01 00 00 00 	nop 
    1260:	01 00 00 00 	nop 
    1264:	01 00 00 00 	nop 
    1268:	01 00 00 00 	nop 
    126c:	01 00 00 00 	nop 
    1270:	01 00 00 00 	nop 
    1274:	01 00 00 00 	nop 
    1278:	01 00 00 00 	nop 
    127c:	01 00 00 00 	nop 
    1280:	01 00 00 00 	nop 
    1284:	01 00 00 00 	nop 
    1288:	01 00 00 00 	nop 
    128c:	01 00 00 00 	nop 
    1290:	01 00 00 00 	nop 
    1294:	01 00 00 00 	nop 
    1298:	01 00 00 00 	nop 
    129c:	01 00 00 00 	nop 
    12a0:	01 00 00 00 	nop 
    12a4:	01 00 00 00 	nop 
    12a8:	01 00 00 00 	nop 
    12ac:	01 00 00 00 	nop 
    12b0:	01 00 00 00 	nop 
    12b4:	01 00 00 00 	nop 
    12b8:	01 00 00 00 	nop 
    12bc:	01 00 00 00 	nop 
    12c0:	01 00 00 00 	nop 
    12c4:	01 00 00 00 	nop 
    12c8:	01 00 00 00 	nop 
    12cc:	01 00 00 00 	nop 
    12d0:	01 00 00 00 	nop 
    12d4:	01 00 00 00 	nop 
    12d8:	01 00 00 00 	nop 
    12dc:	01 00 00 00 	nop 
    12e0:	01 00 00 00 	nop 
    12e4:	01 00 00 00 	nop 
    12e8:	01 00 00 00 	nop 
    12ec:	01 00 00 00 	nop 
    12f0:	01 00 00 00 	nop 
    12f4:	01 00 00 00 	nop 
    12f8:	01 00 00 00 	nop 
    12fc:	01 00 00 00 	nop 
    1300:	01 00 00 00 	nop 
    1304:	01 00 00 00 	nop 
    1308:	01 00 00 00 	nop 
    130c:	01 00 00 00 	nop 
    1310:	01 00 00 00 	nop 
    1314:	01 00 00 00 	nop 
    1318:	01 00 00 00 	nop 
    131c:	01 00 00 00 	nop 
    1320:	01 00 00 00 	nop 
    1324:	01 00 00 00 	nop 
    1328:	01 00 00 00 	nop 
    132c:	01 00 00 00 	nop 
    1330:	01 00 00 00 	nop 
    1334:	01 00 00 00 	nop 
    1338:	01 00 00 00 	nop 
    133c:	01 00 00 00 	nop 
    1340:	01 00 00 00 	nop 
    1344:	01 00 00 00 	nop 
    1348:	01 00 00 00 	nop 
    134c:	01 00 00 00 	nop 
    1350:	01 00 00 00 	nop 
    1354:	01 00 00 00 	nop 
    1358:	01 00 00 00 	nop 
    135c:	01 00 00 00 	nop 
    1360:	01 00 00 00 	nop 
    1364:	01 00 00 00 	nop 
    1368:	01 00 00 00 	nop 
    136c:	01 00 00 00 	nop 
    1370:	01 00 00 00 	nop 
    1374:	01 00 00 00 	nop 
    1378:	01 00 00 00 	nop 
    137c:	01 00 00 00 	nop 
    1380:	01 00 00 00 	nop 
    1384:	01 00 00 00 	nop 
    1388:	01 00 00 00 	nop 
    138c:	01 00 00 00 	nop 
    1390:	01 00 00 00 	nop 
    1394:	01 00 00 00 	nop 
    1398:	01 00 00 00 	nop 
    139c:	01 00 00 00 	nop 
    13a0:	01 00 00 00 	nop 
    13a4:	01 00 00 00 	nop 
    13a8:	01 00 00 00 	nop 
    13ac:	01 00 00 00 	nop 
    13b0:	01 00 00 00 	nop 
    13b4:	01 00 00 00 	nop 
    13b8:	01 00 00 00 	nop 
    13bc:	01 00 00 00 	nop 
    13c0:	01 00 00 00 	nop 
    13c4:	01 00 00 00 	nop 
    13c8:	01 00 00 00 	nop 
    13cc:	01 00 00 00 	nop 
    13d0:	01 00 00 00 	nop 
    13d4:	01 00 00 00 	nop 
    13d8:	01 00 00 00 	nop 
    13dc:	01 00 00 00 	nop 
    13e0:	01 00 00 00 	nop 
    13e4:	01 00 00 00 	nop 
    13e8:	01 00 00 00 	nop 
    13ec:	01 00 00 00 	nop 
    13f0:	01 00 00 00 	nop 
    13f4:	01 00 00 00 	nop 
    13f8:	01 00 00 00 	nop 
    13fc:	01 00 00 00 	nop 
    1400:	01 00 00 00 	nop 
    1404:	01 00 00 00 	nop 
    1408:	01 00 00 00 	nop 
    140c:	01 00 00 00 	nop 
    1410:	01 00 00 00 	nop 
    1414:	01 00 00 00 	nop 
    1418:	01 00 00 00 	nop 
    141c:	01 00 00 00 	nop 
    1420:	01 00 00 00 	nop 
    1424:	01 00 00 00 	nop 
    1428:	01 00 00 00 	nop 
    142c:	01 00 00 00 	nop 
    1430:	01 00 00 00 	nop 
    1434:	01 00 00 00 	nop 
    1438:	01 00 00 00 	nop 
    143c:	01 00 00 00 	nop 
    1440:	01 00 00 00 	nop 
    1444:	01 00 00 00 	nop 
    1448:	01 00 00 00 	nop 
    144c:	01 00 00 00 	nop 
    1450:	01 00 00 00 	nop 
    1454:	01 00 00 00 	nop 
    1458:	01 00 00 00 	nop 
    145c:	01 00 00 00 	nop 
    1460:	01 00 00 00 	nop 
    1464:	01 00 00 00 	nop 
    1468:	01 00 00 00 	nop 
    146c:	01 00 00 00 	nop 
    1470:	01 00 00 00 	nop 
    1474:	01 00 00 00 	nop 
    1478:	01 00 00 00 	nop 
    147c:	01 00 00 00 	nop 
    1480:	01 00 00 00 	nop 
    1484:	01 00 00 00 	nop 
    1488:	01 00 00 00 	nop 
    148c:	01 00 00 00 	nop 
    1490:	01 00 00 00 	nop 
    1494:	01 00 00 00 	nop 
    1498:	01 00 00 00 	nop 
    149c:	01 00 00 00 	nop 
    14a0:	01 00 00 00 	nop 
    14a4:	01 00 00 00 	nop 
    14a8:	01 00 00 00 	nop 
    14ac:	01 00 00 00 	nop 
    14b0:	01 00 00 00 	nop 
    14b4:	01 00 00 00 	nop 
    14b8:	01 00 00 00 	nop 
    14bc:	01 00 00 00 	nop 
    14c0:	01 00 00 00 	nop 
    14c4:	01 00 00 00 	nop 
    14c8:	01 00 00 00 	nop 
    14cc:	01 00 00 00 	nop 
    14d0:	01 00 00 00 	nop 
    14d4:	01 00 00 00 	nop 
    14d8:	01 00 00 00 	nop 
    14dc:	01 00 00 00 	nop 
    14e0:	01 00 00 00 	nop 
    14e4:	01 00 00 00 	nop 
    14e8:	01 00 00 00 	nop 
    14ec:	01 00 00 00 	nop 
    14f0:	01 00 00 00 	nop 
    14f4:	01 00 00 00 	nop 
    14f8:	01 00 00 00 	nop 
    14fc:	01 00 00 00 	nop 
    1500:	01 00 00 00 	nop 
    1504:	01 00 00 00 	nop 
    1508:	01 00 00 00 	nop 
    150c:	01 00 00 00 	nop 
    1510:	01 00 00 00 	nop 
    1514:	01 00 00 00 	nop 
    1518:	01 00 00 00 	nop 
    151c:	01 00 00 00 	nop 
    1520:	01 00 00 00 	nop 
    1524:	01 00 00 00 	nop 
    1528:	01 00 00 00 	nop 
    152c:	01 00 00 00 	nop 
    1530:	01 00 00 00 	nop 
    1534:	01 00 00 00 	nop 
    1538:	01 00 00 00 	nop 
    153c:	01 00 00 00 	nop 
    1540:	01 00 00 00 	nop 
    1544:	01 00 00 00 	nop 
    1548:	01 00 00 00 	nop 
    154c:	01 00 00 00 	nop 
    1550:	01 00 00 00 	nop 
    1554:	01 00 00 00 	nop 
    1558:	01 00 00 00 	nop 
    155c:	01 00 00 00 	nop 
    1560:	01 00 00 00 	nop 
    1564:	01 00 00 00 	nop 
    1568:	01 00 00 00 	nop 
    156c:	01 00 00 00 	nop 
    1570:	01 00 00 00 	nop 
    1574:	01 00 00 00 	nop 
    1578:	01 00 00 00 	nop 
    157c:	01 00 00 00 	nop 
    1580:	01 00 00 00 	nop 
    1584:	01 00 00 00 	nop 
    1588:	01 00 00 00 	nop 
    158c:	01 00 00 00 	nop 
    1590:	01 00 00 00 	nop 
    1594:	01 00 00 00 	nop 
    1598:	01 00 00 00 	nop 
    159c:	01 00 00 00 	nop 
    15a0:	01 00 00 00 	nop 
    15a4:	01 00 00 00 	nop 
    15a8:	01 00 00 00 	nop 
    15ac:	01 00 00 00 	nop 
    15b0:	01 00 00 00 	nop 
    15b4:	01 00 00 00 	nop 
    15b8:	01 00 00 00 	nop 
    15bc:	01 00 00 00 	nop 
    15c0:	01 00 00 00 	nop 
    15c4:	01 00 00 00 	nop 
    15c8:	01 00 00 00 	nop 
    15cc:	01 00 00 00 	nop 
    15d0:	01 00 00 00 	nop 
    15d4:	01 00 00 00 	nop 
    15d8:	01 00 00 00 	nop 
    15dc:	01 00 00 00 	nop 
    15e0:	01 00 00 00 	nop 
    15e4:	01 00 00 00 	nop 
    15e8:	01 00 00 00 	nop 
    15ec:	01 00 00 00 	nop 
    15f0:	01 00 00 00 	nop 
    15f4:	01 00 00 00 	nop 
    15f8:	01 00 00 00 	nop 
    15fc:	01 00 00 00 	nop 
    1600:	01 00 00 00 	nop 
    1604:	01 00 00 00 	nop 
    1608:	01 00 00 00 	nop 
    160c:	01 00 00 00 	nop 
    1610:	01 00 00 00 	nop 
    1614:	01 00 00 00 	nop 
    1618:	01 00 00 00 	nop 
    161c:	01 00 00 00 	nop 
    1620:	01 00 00 00 	nop 
    1624:	01 00 00 00 	nop 
    1628:	01 00 00 00 	nop 
    162c:	01 00 00 00 	nop 
    1630:	01 00 00 00 	nop 
    1634:	01 00 00 00 	nop 
    1638:	01 00 00 00 	nop 
    163c:	01 00 00 00 	nop 
    1640:	01 00 00 00 	nop 
    1644:	01 00 00 00 	nop 
    1648:	01 00 00 00 	nop 
    164c:	01 00 00 00 	nop 
    1650:	01 00 00 00 	nop 
    1654:	01 00 00 00 	nop 
    1658:	01 00 00 00 	nop 
    165c:	01 00 00 00 	nop 
    1660:	01 00 00 00 	nop 
    1664:	01 00 00 00 	nop 
    1668:	01 00 00 00 	nop 
    166c:	01 00 00 00 	nop 
    1670:	01 00 00 00 	nop 
    1674:	01 00 00 00 	nop 
    1678:	01 00 00 00 	nop 
    167c:	01 00 00 00 	nop 
    1680:	01 00 00 00 	nop 
    1684:	01 00 00 00 	nop 
    1688:	01 00 00 00 	nop 
    168c:	01 00 00 00 	nop 
    1690:	01 00 00 00 	nop 
    1694:	01 00 00 00 	nop 
    1698:	01 00 00 00 	nop 
    169c:	01 00 00 00 	nop 
    16a0:	01 00 00 00 	nop 
    16a4:	01 00 00 00 	nop 
    16a8:	01 00 00 00 	nop 
    16ac:	01 00 00 00 	nop 
    16b0:	01 00 00 00 	nop 
    16b4:	01 00 00 00 	nop 
    16b8:	01 00 00 00 	nop 
    16bc:	01 00 00 00 	nop 
    16c0:	01 00 00 00 	nop 
    16c4:	01 00 00 00 	nop 
    16c8:	01 00 00 00 	nop 
    16cc:	01 00 00 00 	nop 
    16d0:	01 00 00 00 	nop 
    16d4:	01 00 00 00 	nop 
    16d8:	01 00 00 00 	nop 
    16dc:	01 00 00 00 	nop 
    16e0:	01 00 00 00 	nop 
    16e4:	01 00 00 00 	nop 
    16e8:	01 00 00 00 	nop 
    16ec:	01 00 00 00 	nop 
    16f0:	01 00 00 00 	nop 
    16f4:	01 00 00 00 	nop 
    16f8:	01 00 00 00 	nop 
    16fc:	01 00 00 00 	nop 
    1700:	01 00 00 00 	nop 
    1704:	01 00 00 00 	nop 
    1708:	01 00 00 00 	nop 
    170c:	01 00 00 00 	nop 
    1710:	01 00 00 00 	nop 
    1714:	01 00 00 00 	nop 
    1718:	01 00 00 00 	nop 
    171c:	01 00 00 00 	nop 
    1720:	01 00 00 00 	nop 
    1724:	01 00 00 00 	nop 
    1728:	01 00 00 00 	nop 
    172c:	01 00 00 00 	nop 
    1730:	01 00 00 00 	nop 
    1734:	01 00 00 00 	nop 
    1738:	01 00 00 00 	nop 
    173c:	01 00 00 00 	nop 
    1740:	01 00 00 00 	nop 
    1744:	01 00 00 00 	nop 
    1748:	01 00 00 00 	nop 
    174c:	01 00 00 00 	nop 
    1750:	01 00 00 00 	nop 
    1754:	01 00 00 00 	nop 
    1758:	01 00 00 00 	nop 
    175c:	01 00 00 00 	nop 
    1760:	01 00 00 00 	nop 
    1764:	01 00 00 00 	nop 
    1768:	01 00 00 00 	nop 
    176c:	01 00 00 00 	nop 
    1770:	01 00 00 00 	nop 
    1774:	01 00 00 00 	nop 
    1778:	01 00 00 00 	nop 
    177c:	01 00 00 00 	nop 
    1780:	01 00 00 00 	nop 
    1784:	01 00 00 00 	nop 
    1788:	01 00 00 00 	nop 
    178c:	01 00 00 00 	nop 
    1790:	01 00 00 00 	nop 
    1794:	01 00 00 00 	nop 
    1798:	01 00 00 00 	nop 
    179c:	01 00 00 00 	nop 
    17a0:	01 00 00 00 	nop 
    17a4:	01 00 00 00 	nop 
    17a8:	01 00 00 00 	nop 
    17ac:	01 00 00 00 	nop 
    17b0:	01 00 00 00 	nop 
    17b4:	01 00 00 00 	nop 
    17b8:	01 00 00 00 	nop 
    17bc:	01 00 00 00 	nop 
    17c0:	01 00 00 00 	nop 
    17c4:	01 00 00 00 	nop 
    17c8:	01 00 00 00 	nop 
    17cc:	01 00 00 00 	nop 
    17d0:	01 00 00 00 	nop 
    17d4:	01 00 00 00 	nop 
    17d8:	01 00 00 00 	nop 
    17dc:	01 00 00 00 	nop 
    17e0:	01 00 00 00 	nop 
    17e4:	01 00 00 00 	nop 
    17e8:	01 00 00 00 	nop 
    17ec:	01 00 00 00 	nop 
    17f0:	01 00 00 00 	nop 
    17f4:	01 00 00 00 	nop 
    17f8:	01 00 00 00 	nop 
    17fc:	01 00 00 00 	nop 
    1800:	01 00 00 00 	nop 
    1804:	01 00 00 00 	nop 
    1808:	01 00 00 00 	nop 
    180c:	01 00 00 00 	nop 
    1810:	01 00 00 00 	nop 
    1814:	01 00 00 00 	nop 
    1818:	01 00 00 00 	nop 
    181c:	01 00 00 00 	nop 
    1820:	01 00 00 00 	nop 
    1824:	01 00 00 00 	nop 
    1828:	01 00 00 00 	nop 
    182c:	01 00 00 00 	nop 
    1830:	01 00 00 00 	nop 
    1834:	01 00 00 00 	nop 
    1838:	01 00 00 00 	nop 
    183c:	01 00 00 00 	nop 
    1840:	01 00 00 00 	nop 
    1844:	01 00 00 00 	nop 
    1848:	01 00 00 00 	nop 
    184c:	01 00 00 00 	nop 
    1850:	01 00 00 00 	nop 
    1854:	01 00 00 00 	nop 
    1858:	01 00 00 00 	nop 
    185c:	01 00 00 00 	nop 
    1860:	01 00 00 00 	nop 
    1864:	01 00 00 00 	nop 
    1868:	01 00 00 00 	nop 
    186c:	01 00 00 00 	nop 
    1870:	01 00 00 00 	nop 
    1874:	01 00 00 00 	nop 
    1878:	01 00 00 00 	nop 
    187c:	01 00 00 00 	nop 
    1880:	01 00 00 00 	nop 
    1884:	01 00 00 00 	nop 
    1888:	01 00 00 00 	nop 
    188c:	01 00 00 00 	nop 
    1890:	01 00 00 00 	nop 
    1894:	01 00 00 00 	nop 
    1898:	01 00 00 00 	nop 
    189c:	01 00 00 00 	nop 
    18a0:	01 00 00 00 	nop 
    18a4:	01 00 00 00 	nop 
    18a8:	01 00 00 00 	nop 
    18ac:	01 00 00 00 	nop 
    18b0:	01 00 00 00 	nop 
    18b4:	01 00 00 00 	nop 
    18b8:	01 00 00 00 	nop 
    18bc:	01 00 00 00 	nop 
    18c0:	01 00 00 00 	nop 
    18c4:	01 00 00 00 	nop 
    18c8:	01 00 00 00 	nop 
    18cc:	01 00 00 00 	nop 
    18d0:	01 00 00 00 	nop 
    18d4:	01 00 00 00 	nop 
    18d8:	01 00 00 00 	nop 
    18dc:	01 00 00 00 	nop 
    18e0:	01 00 00 00 	nop 
    18e4:	01 00 00 00 	nop 
    18e8:	01 00 00 00 	nop 
    18ec:	01 00 00 00 	nop 
    18f0:	01 00 00 00 	nop 
    18f4:	01 00 00 00 	nop 
    18f8:	01 00 00 00 	nop 
    18fc:	01 00 00 00 	nop 
    1900:	01 00 00 00 	nop 
    1904:	01 00 00 00 	nop 
    1908:	01 00 00 00 	nop 
    190c:	01 00 00 00 	nop 
    1910:	01 00 00 00 	nop 
    1914:	01 00 00 00 	nop 
    1918:	01 00 00 00 	nop 
    191c:	01 00 00 00 	nop 
    1920:	01 00 00 00 	nop 
    1924:	01 00 00 00 	nop 
    1928:	01 00 00 00 	nop 
    192c:	01 00 00 00 	nop 
    1930:	01 00 00 00 	nop 
    1934:	01 00 00 00 	nop 
    1938:	01 00 00 00 	nop 
    193c:	01 00 00 00 	nop 
    1940:	01 00 00 00 	nop 
    1944:	01 00 00 00 	nop 
    1948:	01 00 00 00 	nop 
    194c:	01 00 00 00 	nop 
    1950:	01 00 00 00 	nop 
    1954:	01 00 00 00 	nop 
    1958:	01 00 00 00 	nop 
    195c:	01 00 00 00 	nop 
    1960:	01 00 00 00 	nop 
    1964:	01 00 00 00 	nop 
    1968:	01 00 00 00 	nop 
    196c:	01 00 00 00 	nop 
    1970:	01 00 00 00 	nop 
    1974:	01 00 00 00 	nop 
    1978:	01 00 00 00 	nop 
    197c:	01 00 00 00 	nop 
    1980:	01 00 00 00 	nop 
    1984:	01 00 00 00 	nop 
    1988:	01 00 00 00 	nop 
    198c:	01 00 00 00 	nop 
    1990:	01 00 00 00 	nop 
    1994:	01 00 00 00 	nop 
    1998:	01 00 00 00 	nop 
    199c:	01 00 00 00 	nop 
    19a0:	01 00 00 00 	nop 
    19a4:	01 00 00 00 	nop 
    19a8:	01 00 00 00 	nop 
    19ac:	01 00 00 00 	nop 
    19b0:	01 00 00 00 	nop 
    19b4:	01 00 00 00 	nop 
    19b8:	01 00 00 00 	nop 
    19bc:	01 00 00 00 	nop 
    19c0:	01 00 00 00 	nop 
    19c4:	01 00 00 00 	nop 
    19c8:	01 00 00 00 	nop 
    19cc:	01 00 00 00 	nop 
    19d0:	01 00 00 00 	nop 
    19d4:	01 00 00 00 	nop 
    19d8:	01 00 00 00 	nop 
    19dc:	01 00 00 00 	nop 
    19e0:	01 00 00 00 	nop 
    19e4:	01 00 00 00 	nop 
    19e8:	01 00 00 00 	nop 
    19ec:	01 00 00 00 	nop 
    19f0:	01 00 00 00 	nop 
    19f4:	01 00 00 00 	nop 
    19f8:	01 00 00 00 	nop 
    19fc:	01 00 00 00 	nop 
    1a00:	01 00 00 00 	nop 
    1a04:	01 00 00 00 	nop 
    1a08:	01 00 00 00 	nop 
    1a0c:	01 00 00 00 	nop 
    1a10:	01 00 00 00 	nop 
    1a14:	01 00 00 00 	nop 
    1a18:	01 00 00 00 	nop 
    1a1c:	01 00 00 00 	nop 
    1a20:	01 00 00 00 	nop 
    1a24:	01 00 00 00 	nop 
    1a28:	01 00 00 00 	nop 
    1a2c:	01 00 00 00 	nop 
    1a30:	01 00 00 00 	nop 
    1a34:	01 00 00 00 	nop 
    1a38:	01 00 00 00 	nop 
    1a3c:	01 00 00 00 	nop 
    1a40:	01 00 00 00 	nop 
    1a44:	01 00 00 00 	nop 
    1a48:	01 00 00 00 	nop 
    1a4c:	01 00 00 00 	nop 
    1a50:	01 00 00 00 	nop 
    1a54:	01 00 00 00 	nop 
    1a58:	01 00 00 00 	nop 
    1a5c:	01 00 00 00 	nop 
    1a60:	01 00 00 00 	nop 
    1a64:	01 00 00 00 	nop 
    1a68:	01 00 00 00 	nop 
    1a6c:	01 00 00 00 	nop 
    1a70:	01 00 00 00 	nop 
    1a74:	01 00 00 00 	nop 
    1a78:	01 00 00 00 	nop 
    1a7c:	01 00 00 00 	nop 
    1a80:	01 00 00 00 	nop 
    1a84:	01 00 00 00 	nop 
    1a88:	01 00 00 00 	nop 
    1a8c:	01 00 00 00 	nop 
    1a90:	01 00 00 00 	nop 
    1a94:	01 00 00 00 	nop 
    1a98:	01 00 00 00 	nop 
    1a9c:	01 00 00 00 	nop 
    1aa0:	01 00 00 00 	nop 
    1aa4:	01 00 00 00 	nop 
    1aa8:	01 00 00 00 	nop 
    1aac:	01 00 00 00 	nop 
    1ab0:	01 00 00 00 	nop 
    1ab4:	01 00 00 00 	nop 
    1ab8:	01 00 00 00 	nop 
    1abc:	01 00 00 00 	nop 
    1ac0:	01 00 00 00 	nop 
    1ac4:	01 00 00 00 	nop 
    1ac8:	01 00 00 00 	nop 
    1acc:	01 00 00 00 	nop 
    1ad0:	01 00 00 00 	nop 
    1ad4:	01 00 00 00 	nop 
    1ad8:	01 00 00 00 	nop 
    1adc:	01 00 00 00 	nop 
    1ae0:	01 00 00 00 	nop 
    1ae4:	01 00 00 00 	nop 
    1ae8:	01 00 00 00 	nop 
    1aec:	01 00 00 00 	nop 
    1af0:	01 00 00 00 	nop 
    1af4:	01 00 00 00 	nop 
    1af8:	01 00 00 00 	nop 
    1afc:	01 00 00 00 	nop 
    1b00:	01 00 00 00 	nop 
    1b04:	01 00 00 00 	nop 
    1b08:	01 00 00 00 	nop 
    1b0c:	01 00 00 00 	nop 
    1b10:	01 00 00 00 	nop 
    1b14:	01 00 00 00 	nop 
    1b18:	01 00 00 00 	nop 
    1b1c:	01 00 00 00 	nop 
    1b20:	01 00 00 00 	nop 
    1b24:	01 00 00 00 	nop 
    1b28:	01 00 00 00 	nop 
    1b2c:	01 00 00 00 	nop 
    1b30:	01 00 00 00 	nop 
    1b34:	01 00 00 00 	nop 
    1b38:	01 00 00 00 	nop 
    1b3c:	01 00 00 00 	nop 
    1b40:	01 00 00 00 	nop 
    1b44:	01 00 00 00 	nop 
    1b48:	01 00 00 00 	nop 
    1b4c:	01 00 00 00 	nop 
    1b50:	01 00 00 00 	nop 
    1b54:	01 00 00 00 	nop 
    1b58:	01 00 00 00 	nop 
    1b5c:	01 00 00 00 	nop 
    1b60:	01 00 00 00 	nop 
    1b64:	01 00 00 00 	nop 
    1b68:	01 00 00 00 	nop 
    1b6c:	01 00 00 00 	nop 
    1b70:	01 00 00 00 	nop 
    1b74:	01 00 00 00 	nop 
    1b78:	01 00 00 00 	nop 
    1b7c:	01 00 00 00 	nop 
    1b80:	01 00 00 00 	nop 
    1b84:	01 00 00 00 	nop 
    1b88:	01 00 00 00 	nop 
    1b8c:	01 00 00 00 	nop 
    1b90:	01 00 00 00 	nop 
    1b94:	01 00 00 00 	nop 
    1b98:	01 00 00 00 	nop 
    1b9c:	01 00 00 00 	nop 
    1ba0:	01 00 00 00 	nop 
    1ba4:	01 00 00 00 	nop 
    1ba8:	01 00 00 00 	nop 
    1bac:	01 00 00 00 	nop 
    1bb0:	01 00 00 00 	nop 
    1bb4:	01 00 00 00 	nop 
    1bb8:	01 00 00 00 	nop 
    1bbc:	01 00 00 00 	nop 
    1bc0:	01 00 00 00 	nop 
    1bc4:	01 00 00 00 	nop 
    1bc8:	01 00 00 00 	nop 
    1bcc:	01 00 00 00 	nop 
    1bd0:	01 00 00 00 	nop 
    1bd4:	01 00 00 00 	nop 
    1bd8:	01 00 00 00 	nop 
    1bdc:	01 00 00 00 	nop 
    1be0:	01 00 00 00 	nop 
    1be4:	01 00 00 00 	nop 
    1be8:	01 00 00 00 	nop 
    1bec:	01 00 00 00 	nop 
    1bf0:	01 00 00 00 	nop 
    1bf4:	01 00 00 00 	nop 
    1bf8:	01 00 00 00 	nop 
    1bfc:	01 00 00 00 	nop 
    1c00:	01 00 00 00 	nop 
    1c04:	01 00 00 00 	nop 
    1c08:	01 00 00 00 	nop 
    1c0c:	01 00 00 00 	nop 
    1c10:	01 00 00 00 	nop 
    1c14:	01 00 00 00 	nop 
    1c18:	01 00 00 00 	nop 
    1c1c:	01 00 00 00 	nop 
    1c20:	01 00 00 00 	nop 
    1c24:	01 00 00 00 	nop 
    1c28:	01 00 00 00 	nop 
    1c2c:	01 00 00 00 	nop 
    1c30:	01 00 00 00 	nop 
    1c34:	01 00 00 00 	nop 
    1c38:	01 00 00 00 	nop 
    1c3c:	01 00 00 00 	nop 
    1c40:	01 00 00 00 	nop 
    1c44:	01 00 00 00 	nop 
    1c48:	01 00 00 00 	nop 
    1c4c:	01 00 00 00 	nop 
    1c50:	01 00 00 00 	nop 
    1c54:	01 00 00 00 	nop 
    1c58:	01 00 00 00 	nop 
    1c5c:	01 00 00 00 	nop 
    1c60:	01 00 00 00 	nop 
    1c64:	01 00 00 00 	nop 
    1c68:	01 00 00 00 	nop 
    1c6c:	01 00 00 00 	nop 
    1c70:	01 00 00 00 	nop 
    1c74:	01 00 00 00 	nop 
    1c78:	01 00 00 00 	nop 
    1c7c:	01 00 00 00 	nop 
    1c80:	01 00 00 00 	nop 
    1c84:	01 00 00 00 	nop 
    1c88:	01 00 00 00 	nop 
    1c8c:	01 00 00 00 	nop 
    1c90:	01 00 00 00 	nop 
    1c94:	01 00 00 00 	nop 
    1c98:	01 00 00 00 	nop 
    1c9c:	01 00 00 00 	nop 
    1ca0:	01 00 00 00 	nop 
    1ca4:	01 00 00 00 	nop 
    1ca8:	01 00 00 00 	nop 
    1cac:	01 00 00 00 	nop 
    1cb0:	01 00 00 00 	nop 
    1cb4:	01 00 00 00 	nop 
    1cb8:	01 00 00 00 	nop 
    1cbc:	01 00 00 00 	nop 
    1cc0:	01 00 00 00 	nop 
    1cc4:	01 00 00 00 	nop 
    1cc8:	01 00 00 00 	nop 
    1ccc:	01 00 00 00 	nop 
    1cd0:	01 00 00 00 	nop 
    1cd4:	01 00 00 00 	nop 
    1cd8:	01 00 00 00 	nop 
    1cdc:	01 00 00 00 	nop 
    1ce0:	01 00 00 00 	nop 
    1ce4:	01 00 00 00 	nop 
    1ce8:	01 00 00 00 	nop 
    1cec:	01 00 00 00 	nop 
    1cf0:	01 00 00 00 	nop 
    1cf4:	01 00 00 00 	nop 
    1cf8:	01 00 00 00 	nop 
    1cfc:	01 00 00 00 	nop 
    1d00:	01 00 00 00 	nop 
    1d04:	01 00 00 00 	nop 
    1d08:	01 00 00 00 	nop 
    1d0c:	01 00 00 00 	nop 
    1d10:	01 00 00 00 	nop 
    1d14:	01 00 00 00 	nop 
    1d18:	01 00 00 00 	nop 
    1d1c:	01 00 00 00 	nop 
    1d20:	01 00 00 00 	nop 
    1d24:	01 00 00 00 	nop 
    1d28:	01 00 00 00 	nop 
    1d2c:	01 00 00 00 	nop 
    1d30:	01 00 00 00 	nop 
    1d34:	01 00 00 00 	nop 
    1d38:	01 00 00 00 	nop 
    1d3c:	01 00 00 00 	nop 
    1d40:	01 00 00 00 	nop 
    1d44:	01 00 00 00 	nop 
    1d48:	01 00 00 00 	nop 
    1d4c:	01 00 00 00 	nop 
    1d50:	01 00 00 00 	nop 
    1d54:	01 00 00 00 	nop 
    1d58:	01 00 00 00 	nop 
    1d5c:	01 00 00 00 	nop 
    1d60:	01 00 00 00 	nop 
    1d64:	01 00 00 00 	nop 
    1d68:	01 00 00 00 	nop 
    1d6c:	01 00 00 00 	nop 
    1d70:	01 00 00 00 	nop 
    1d74:	01 00 00 00 	nop 
    1d78:	01 00 00 00 	nop 
    1d7c:	01 00 00 00 	nop 
    1d80:	01 00 00 00 	nop 
    1d84:	01 00 00 00 	nop 
    1d88:	01 00 00 00 	nop 
    1d8c:	01 00 00 00 	nop 
    1d90:	01 00 00 00 	nop 
    1d94:	01 00 00 00 	nop 
    1d98:	01 00 00 00 	nop 
    1d9c:	01 00 00 00 	nop 
    1da0:	01 00 00 00 	nop 
    1da4:	01 00 00 00 	nop 
    1da8:	01 00 00 00 	nop 
    1dac:	01 00 00 00 	nop 
    1db0:	01 00 00 00 	nop 
    1db4:	01 00 00 00 	nop 
    1db8:	01 00 00 00 	nop 
    1dbc:	01 00 00 00 	nop 
    1dc0:	01 00 00 00 	nop 
    1dc4:	01 00 00 00 	nop 
    1dc8:	01 00 00 00 	nop 
    1dcc:	01 00 00 00 	nop 
    1dd0:	01 00 00 00 	nop 
    1dd4:	01 00 00 00 	nop 
    1dd8:	01 00 00 00 	nop 
    1ddc:	01 00 00 00 	nop 
    1de0:	01 00 00 00 	nop 
    1de4:	01 00 00 00 	nop 
    1de8:	01 00 00 00 	nop 
    1dec:	01 00 00 00 	nop 
    1df0:	01 00 00 00 	nop 
    1df4:	01 00 00 00 	nop 
    1df8:	01 00 00 00 	nop 
    1dfc:	01 00 00 00 	nop 
    1e00:	01 00 00 00 	nop 
    1e04:	01 00 00 00 	nop 
    1e08:	01 00 00 00 	nop 
    1e0c:	01 00 00 00 	nop 
    1e10:	01 00 00 00 	nop 
    1e14:	01 00 00 00 	nop 
    1e18:	01 00 00 00 	nop 
    1e1c:	01 00 00 00 	nop 
    1e20:	01 00 00 00 	nop 
    1e24:	01 00 00 00 	nop 
    1e28:	01 00 00 00 	nop 
    1e2c:	01 00 00 00 	nop 
    1e30:	01 00 00 00 	nop 
    1e34:	01 00 00 00 	nop 
    1e38:	01 00 00 00 	nop 
    1e3c:	01 00 00 00 	nop 
    1e40:	01 00 00 00 	nop 
    1e44:	01 00 00 00 	nop 
    1e48:	01 00 00 00 	nop 
    1e4c:	01 00 00 00 	nop 
    1e50:	01 00 00 00 	nop 
    1e54:	01 00 00 00 	nop 
    1e58:	01 00 00 00 	nop 
    1e5c:	01 00 00 00 	nop 
    1e60:	01 00 00 00 	nop 
    1e64:	01 00 00 00 	nop 
    1e68:	01 00 00 00 	nop 
    1e6c:	01 00 00 00 	nop 
    1e70:	01 00 00 00 	nop 
    1e74:	01 00 00 00 	nop 
    1e78:	01 00 00 00 	nop 
    1e7c:	01 00 00 00 	nop 
    1e80:	01 00 00 00 	nop 
    1e84:	01 00 00 00 	nop 
    1e88:	01 00 00 00 	nop 
    1e8c:	01 00 00 00 	nop 
    1e90:	01 00 00 00 	nop 
    1e94:	01 00 00 00 	nop 
    1e98:	01 00 00 00 	nop 
    1e9c:	01 00 00 00 	nop 
    1ea0:	01 00 00 00 	nop 
    1ea4:	01 00 00 00 	nop 
    1ea8:	01 00 00 00 	nop 
    1eac:	01 00 00 00 	nop 
    1eb0:	01 00 00 00 	nop 
    1eb4:	01 00 00 00 	nop 
    1eb8:	01 00 00 00 	nop 
    1ebc:	01 00 00 00 	nop 
    1ec0:	01 00 00 00 	nop 
    1ec4:	01 00 00 00 	nop 
    1ec8:	01 00 00 00 	nop 
    1ecc:	01 00 00 00 	nop 
    1ed0:	01 00 00 00 	nop 
    1ed4:	01 00 00 00 	nop 
    1ed8:	01 00 00 00 	nop 
    1edc:	01 00 00 00 	nop 
    1ee0:	01 00 00 00 	nop 
    1ee4:	01 00 00 00 	nop 
    1ee8:	01 00 00 00 	nop 
    1eec:	01 00 00 00 	nop 
    1ef0:	01 00 00 00 	nop 
    1ef4:	01 00 00 00 	nop 
    1ef8:	01 00 00 00 	nop 
    1efc:	01 00 00 00 	nop 
    1f00:	01 00 00 00 	nop 
    1f04:	01 00 00 00 	nop 
    1f08:	01 00 00 00 	nop 
    1f0c:	01 00 00 00 	nop 
    1f10:	01 00 00 00 	nop 
    1f14:	01 00 00 00 	nop 
    1f18:	01 00 00 00 	nop 
    1f1c:	01 00 00 00 	nop 
    1f20:	01 00 00 00 	nop 
    1f24:	01 00 00 00 	nop 
    1f28:	01 00 00 00 	nop 
    1f2c:	01 00 00 00 	nop 
    1f30:	01 00 00 00 	nop 
    1f34:	01 00 00 00 	nop 
    1f38:	01 00 00 00 	nop 
    1f3c:	01 00 00 00 	nop 
    1f40:	01 00 00 00 	nop 
    1f44:	01 00 00 00 	nop 
    1f48:	01 00 00 00 	nop 
    1f4c:	01 00 00 00 	nop 
    1f50:	01 00 00 00 	nop 
    1f54:	01 00 00 00 	nop 
    1f58:	01 00 00 00 	nop 
    1f5c:	01 00 00 00 	nop 
    1f60:	01 00 00 00 	nop 
    1f64:	01 00 00 00 	nop 
    1f68:	01 00 00 00 	nop 
    1f6c:	01 00 00 00 	nop 
    1f70:	01 00 00 00 	nop 
    1f74:	01 00 00 00 	nop 
    1f78:	01 00 00 00 	nop 
    1f7c:	01 00 00 00 	nop 
    1f80:	01 00 00 00 	nop 
    1f84:	01 00 00 00 	nop 
    1f88:	01 00 00 00 	nop 
    1f8c:	01 00 00 00 	nop 
    1f90:	01 00 00 00 	nop 
    1f94:	01 00 00 00 	nop 
    1f98:	01 00 00 00 	nop 
    1f9c:	01 00 00 00 	nop 
    1fa0:	01 00 00 00 	nop 
    1fa4:	01 00 00 00 	nop 
    1fa8:	01 00 00 00 	nop 
    1fac:	01 00 00 00 	nop 
    1fb0:	01 00 00 00 	nop 
    1fb4:	01 00 00 00 	nop 
    1fb8:	01 00 00 00 	nop 
    1fbc:	01 00 00 00 	nop 
    1fc0:	01 00 00 00 	nop 
    1fc4:	01 00 00 00 	nop 
    1fc8:	01 00 00 00 	nop 
    1fcc:	01 00 00 00 	nop 
    1fd0:	01 00 00 00 	nop 
    1fd4:	01 00 00 00 	nop 
    1fd8:	01 00 00 00 	nop 
    1fdc:	01 00 00 00 	nop 
    1fe0:	01 00 00 00 	nop 
    1fe4:	01 00 00 00 	nop 
    1fe8:	01 00 00 00 	nop 
    1fec:	01 00 00 00 	nop 
    1ff0:	01 00 00 00 	nop 
    1ff4:	01 00 00 00 	nop 
    1ff8:	01 00 00 00 	nop 
    1ffc:	01 00 00 00 	nop 

00002000 <trap_table_base>:
    2000:	91 d0 20 00 	ta  0
    2004:	01 00 00 00 	nop 
    2008:	01 00 00 00 	nop 
    200c:	01 00 00 00 	nop 

00002010 <HW_trap_0x01>:
    2010:	91 d0 20 00 	ta  0
    2014:	01 00 00 00 	nop 
    2018:	01 00 00 00 	nop 
    201c:	01 00 00 00 	nop 

00002020 <HW_trap_0x02>:
    2020:	91 d0 20 00 	ta  0
    2024:	01 00 00 00 	nop 
    2028:	01 00 00 00 	nop 
    202c:	01 00 00 00 	nop 

00002030 <HW_trap_0x03>:
    2030:	91 d0 20 00 	ta  0
    2034:	01 00 00 00 	nop 
    2038:	01 00 00 00 	nop 
    203c:	01 00 00 00 	nop 

00002040 <HW_trap_0x04>:
    2040:	91 d0 20 00 	ta  0
    2044:	01 00 00 00 	nop 
    2048:	01 00 00 00 	nop 
    204c:	01 00 00 00 	nop 

00002050 <HW_trap_0x05>:
    2050:	10 bf fb ec 	b  1000 <window_overflow_trap_handler>
    2054:	01 00 00 00 	nop 
    2058:	01 00 00 00 	nop 
    205c:	01 00 00 00 	nop 

00002060 <HW_trap_0x06>:
    2060:	10 bf fc 01 	b  1064 <window_underflow_trap_handler>
    2064:	01 00 00 00 	nop 
    2068:	01 00 00 00 	nop 
    206c:	01 00 00 00 	nop 

00002070 <HW_trap_0x07>:
    2070:	91 d0 20 00 	ta  0
    2074:	01 00 00 00 	nop 
    2078:	01 00 00 00 	nop 
    207c:	01 00 00 00 	nop 

00002080 <HW_trap_0x08>:
    2080:	91 d0 20 00 	ta  0
    2084:	01 00 00 00 	nop 
    2088:	01 00 00 00 	nop 
    208c:	01 00 00 00 	nop 

00002090 <HW_trap_0x09>:
    2090:	91 d0 20 00 	ta  0
    2094:	01 00 00 00 	nop 
    2098:	01 00 00 00 	nop 
    209c:	01 00 00 00 	nop 

000020a0 <HW_trap_0x0a>:
    20a0:	91 d0 20 00 	ta  0
    20a4:	01 00 00 00 	nop 
    20a8:	01 00 00 00 	nop 
    20ac:	01 00 00 00 	nop 

000020b0 <HW_trap_0x0b>:
    20b0:	91 d0 20 00 	ta  0
    20b4:	01 00 00 00 	nop 
    20b8:	01 00 00 00 	nop 
    20bc:	01 00 00 00 	nop 

000020c0 <HW_trap_0x0c>:
    20c0:	91 d0 20 00 	ta  0
    20c4:	01 00 00 00 	nop 
    20c8:	01 00 00 00 	nop 
    20cc:	01 00 00 00 	nop 

000020d0 <HW_trap_0x0d>:
    20d0:	91 d0 20 00 	ta  0
    20d4:	01 00 00 00 	nop 
    20d8:	01 00 00 00 	nop 
    20dc:	01 00 00 00 	nop 

000020e0 <HW_trap_0x0e>:
    20e0:	91 d0 20 00 	ta  0
    20e4:	01 00 00 00 	nop 
    20e8:	01 00 00 00 	nop 
    20ec:	01 00 00 00 	nop 

000020f0 <HW_trap_0x0f>:
    20f0:	91 d0 20 00 	ta  0
    20f4:	01 00 00 00 	nop 
    20f8:	01 00 00 00 	nop 
    20fc:	01 00 00 00 	nop 

00002100 <HW_trap_0x10>:
    2100:	91 d0 20 00 	ta  0
    2104:	01 00 00 00 	nop 
    2108:	01 00 00 00 	nop 
    210c:	01 00 00 00 	nop 

00002110 <HW_trap_0x11>:
    2110:	91 d0 20 00 	ta  0
    2114:	01 00 00 00 	nop 
    2118:	01 00 00 00 	nop 
    211c:	01 00 00 00 	nop 

00002120 <HW_trap_0x12>:
    2120:	91 d0 20 00 	ta  0
    2124:	01 00 00 00 	nop 
    2128:	01 00 00 00 	nop 
    212c:	01 00 00 00 	nop 

00002130 <HW_trap_0x13>:
    2130:	91 d0 20 00 	ta  0
    2134:	01 00 00 00 	nop 
    2138:	01 00 00 00 	nop 
    213c:	01 00 00 00 	nop 

00002140 <HW_trap_0x14>:
    2140:	91 d0 20 00 	ta  0
    2144:	01 00 00 00 	nop 
    2148:	01 00 00 00 	nop 
    214c:	01 00 00 00 	nop 

00002150 <HW_trap_0x15>:
    2150:	91 d0 20 00 	ta  0
    2154:	01 00 00 00 	nop 
    2158:	01 00 00 00 	nop 
    215c:	01 00 00 00 	nop 

00002160 <HW_trap_0x16>:
    2160:	91 d0 20 00 	ta  0
    2164:	01 00 00 00 	nop 
    2168:	01 00 00 00 	nop 
    216c:	01 00 00 00 	nop 

00002170 <HW_trap_0x17>:
    2170:	91 d0 20 00 	ta  0
    2174:	01 00 00 00 	nop 
    2178:	01 00 00 00 	nop 
    217c:	01 00 00 00 	nop 

00002180 <HW_trap_0x18>:
    2180:	91 d0 20 00 	ta  0
    2184:	01 00 00 00 	nop 
    2188:	01 00 00 00 	nop 
    218c:	01 00 00 00 	nop 

00002190 <HW_trap_0x19>:
    2190:	91 d0 20 00 	ta  0
    2194:	01 00 00 00 	nop 
    2198:	01 00 00 00 	nop 
    219c:	01 00 00 00 	nop 

000021a0 <HW_trap_0x1a>:
    21a0:	91 d0 20 00 	ta  0
    21a4:	01 00 00 00 	nop 
    21a8:	01 00 00 00 	nop 
    21ac:	01 00 00 00 	nop 

000021b0 <HW_trap_0x1b>:
    21b0:	91 d0 20 00 	ta  0
    21b4:	01 00 00 00 	nop 
    21b8:	01 00 00 00 	nop 
    21bc:	01 00 00 00 	nop 

000021c0 <HW_trap_0x1c>:
    21c0:	91 d0 20 00 	ta  0
    21c4:	01 00 00 00 	nop 
    21c8:	01 00 00 00 	nop 
    21cc:	01 00 00 00 	nop 

000021d0 <HW_trap_0x1d>:
    21d0:	91 d0 20 00 	ta  0
    21d4:	01 00 00 00 	nop 
    21d8:	01 00 00 00 	nop 
    21dc:	01 00 00 00 	nop 

000021e0 <HW_trap_0x1e>:
    21e0:	91 d0 20 00 	ta  0
    21e4:	01 00 00 00 	nop 
    21e8:	01 00 00 00 	nop 
    21ec:	01 00 00 00 	nop 

000021f0 <HW_trap_0x1f>:
    21f0:	91 d0 20 00 	ta  0
    21f4:	01 00 00 00 	nop 
    21f8:	01 00 00 00 	nop 
    21fc:	01 00 00 00 	nop 

00002200 <HW_trap_0x20>:
    2200:	91 d0 20 00 	ta  0
    2204:	01 00 00 00 	nop 
    2208:	01 00 00 00 	nop 
    220c:	01 00 00 00 	nop 

00002210 <HW_trap_0x21>:
    2210:	91 d0 20 00 	ta  0
    2214:	01 00 00 00 	nop 
    2218:	01 00 00 00 	nop 
    221c:	01 00 00 00 	nop 

00002220 <HW_trap_0x22>:
    2220:	91 d0 20 00 	ta  0
    2224:	01 00 00 00 	nop 
    2228:	01 00 00 00 	nop 
    222c:	01 00 00 00 	nop 

00002230 <HW_trap_0x23>:
    2230:	91 d0 20 00 	ta  0
    2234:	01 00 00 00 	nop 
    2238:	01 00 00 00 	nop 
    223c:	01 00 00 00 	nop 

00002240 <HW_trap_0x24>:
    2240:	91 d0 20 00 	ta  0
    2244:	01 00 00 00 	nop 
    2248:	01 00 00 00 	nop 
    224c:	01 00 00 00 	nop 

00002250 <HW_trap_0x25>:
    2250:	91 d0 20 00 	ta  0
    2254:	01 00 00 00 	nop 
    2258:	01 00 00 00 	nop 
    225c:	01 00 00 00 	nop 

00002260 <HW_trap_0x26>:
    2260:	91 d0 20 00 	ta  0
    2264:	01 00 00 00 	nop 
    2268:	01 00 00 00 	nop 
    226c:	01 00 00 00 	nop 

00002270 <HW_trap_0x27>:
    2270:	91 d0 20 00 	ta  0
    2274:	01 00 00 00 	nop 
    2278:	01 00 00 00 	nop 
    227c:	01 00 00 00 	nop 

00002280 <HW_trap_0x28>:
    2280:	91 d0 20 00 	ta  0
    2284:	01 00 00 00 	nop 
    2288:	01 00 00 00 	nop 
    228c:	01 00 00 00 	nop 

00002290 <HW_trap_0x29>:
    2290:	91 d0 20 00 	ta  0
    2294:	01 00 00 00 	nop 
    2298:	01 00 00 00 	nop 
    229c:	01 00 00 00 	nop 

000022a0 <HW_trap_0x2a>:
    22a0:	91 d0 20 00 	ta  0
    22a4:	01 00 00 00 	nop 
    22a8:	01 00 00 00 	nop 
    22ac:	01 00 00 00 	nop 

000022b0 <HW_trap_0x2b>:
    22b0:	91 d0 20 00 	ta  0
    22b4:	01 00 00 00 	nop 
    22b8:	01 00 00 00 	nop 
    22bc:	01 00 00 00 	nop 

000022c0 <HW_trap_0x2c>:
    22c0:	91 d0 20 00 	ta  0
    22c4:	01 00 00 00 	nop 
    22c8:	01 00 00 00 	nop 
    22cc:	01 00 00 00 	nop 

000022d0 <HW_trap_0x2d>:
    22d0:	91 d0 20 00 	ta  0
    22d4:	01 00 00 00 	nop 
    22d8:	01 00 00 00 	nop 
    22dc:	01 00 00 00 	nop 

000022e0 <HW_trap_0x2e>:
    22e0:	91 d0 20 00 	ta  0
    22e4:	01 00 00 00 	nop 
    22e8:	01 00 00 00 	nop 
    22ec:	01 00 00 00 	nop 

000022f0 <HW_trap_0x2f>:
    22f0:	91 d0 20 00 	ta  0
    22f4:	01 00 00 00 	nop 
    22f8:	01 00 00 00 	nop 
    22fc:	01 00 00 00 	nop 

00002300 <HW_trap_0x30>:
    2300:	91 d0 20 00 	ta  0
    2304:	01 00 00 00 	nop 
    2308:	01 00 00 00 	nop 
    230c:	01 00 00 00 	nop 

00002310 <HW_trap_0x31>:
    2310:	91 d0 20 00 	ta  0
    2314:	01 00 00 00 	nop 
    2318:	01 00 00 00 	nop 
    231c:	01 00 00 00 	nop 

00002320 <HW_trap_0x32>:
    2320:	91 d0 20 00 	ta  0
    2324:	01 00 00 00 	nop 
    2328:	01 00 00 00 	nop 
    232c:	01 00 00 00 	nop 

00002330 <HW_trap_0x33>:
    2330:	91 d0 20 00 	ta  0
    2334:	01 00 00 00 	nop 
    2338:	01 00 00 00 	nop 
    233c:	01 00 00 00 	nop 

00002340 <HW_trap_0x34>:
    2340:	91 d0 20 00 	ta  0
    2344:	01 00 00 00 	nop 
    2348:	01 00 00 00 	nop 
    234c:	01 00 00 00 	nop 

00002350 <HW_trap_0x35>:
    2350:	91 d0 20 00 	ta  0
    2354:	01 00 00 00 	nop 
    2358:	01 00 00 00 	nop 
    235c:	01 00 00 00 	nop 

00002360 <HW_trap_0x36>:
    2360:	91 d0 20 00 	ta  0
    2364:	01 00 00 00 	nop 
    2368:	01 00 00 00 	nop 
    236c:	01 00 00 00 	nop 

00002370 <HW_trap_0x37>:
    2370:	91 d0 20 00 	ta  0
    2374:	01 00 00 00 	nop 
    2378:	01 00 00 00 	nop 
    237c:	01 00 00 00 	nop 

00002380 <HW_trap_0x38>:
    2380:	91 d0 20 00 	ta  0
    2384:	01 00 00 00 	nop 
    2388:	01 00 00 00 	nop 
    238c:	01 00 00 00 	nop 

00002390 <HW_trap_0x39>:
    2390:	91 d0 20 00 	ta  0
    2394:	01 00 00 00 	nop 
    2398:	01 00 00 00 	nop 
    239c:	01 00 00 00 	nop 

000023a0 <HW_trap_0x3a>:
    23a0:	91 d0 20 00 	ta  0
    23a4:	01 00 00 00 	nop 
    23a8:	01 00 00 00 	nop 
    23ac:	01 00 00 00 	nop 

000023b0 <HW_trap_0x3b>:
    23b0:	91 d0 20 00 	ta  0
    23b4:	01 00 00 00 	nop 
    23b8:	01 00 00 00 	nop 
    23bc:	01 00 00 00 	nop 

000023c0 <HW_trap_0x3c>:
    23c0:	91 d0 20 00 	ta  0
    23c4:	01 00 00 00 	nop 
    23c8:	01 00 00 00 	nop 
    23cc:	01 00 00 00 	nop 

000023d0 <HW_trap_0x3d>:
    23d0:	91 d0 20 00 	ta  0
    23d4:	01 00 00 00 	nop 
    23d8:	01 00 00 00 	nop 
    23dc:	01 00 00 00 	nop 

000023e0 <HW_trap_0x3e>:
    23e0:	91 d0 20 00 	ta  0
    23e4:	01 00 00 00 	nop 
    23e8:	01 00 00 00 	nop 
    23ec:	01 00 00 00 	nop 

000023f0 <HW_trap_0x3f>:
    23f0:	91 d0 20 00 	ta  0
    23f4:	01 00 00 00 	nop 
    23f8:	01 00 00 00 	nop 
    23fc:	01 00 00 00 	nop 

00002400 <HW_trap_0x40>:
    2400:	91 d0 20 00 	ta  0
    2404:	01 00 00 00 	nop 
    2408:	01 00 00 00 	nop 
    240c:	01 00 00 00 	nop 

00002410 <HW_trap_0x41>:
    2410:	91 d0 20 00 	ta  0
    2414:	01 00 00 00 	nop 
    2418:	01 00 00 00 	nop 
    241c:	01 00 00 00 	nop 

00002420 <HW_trap_0x42>:
    2420:	91 d0 20 00 	ta  0
    2424:	01 00 00 00 	nop 
    2428:	01 00 00 00 	nop 
    242c:	01 00 00 00 	nop 

00002430 <HW_trap_0x43>:
    2430:	91 d0 20 00 	ta  0
    2434:	01 00 00 00 	nop 
    2438:	01 00 00 00 	nop 
    243c:	01 00 00 00 	nop 

00002440 <HW_trap_0x44>:
    2440:	91 d0 20 00 	ta  0
    2444:	01 00 00 00 	nop 
    2448:	01 00 00 00 	nop 
    244c:	01 00 00 00 	nop 

00002450 <HW_trap_0x45>:
    2450:	91 d0 20 00 	ta  0
    2454:	01 00 00 00 	nop 
    2458:	01 00 00 00 	nop 
    245c:	01 00 00 00 	nop 

00002460 <HW_trap_0x46>:
    2460:	91 d0 20 00 	ta  0
    2464:	01 00 00 00 	nop 
    2468:	01 00 00 00 	nop 
    246c:	01 00 00 00 	nop 

00002470 <HW_trap_0x47>:
    2470:	91 d0 20 00 	ta  0
    2474:	01 00 00 00 	nop 
    2478:	01 00 00 00 	nop 
    247c:	01 00 00 00 	nop 

00002480 <HW_trap_0x48>:
    2480:	91 d0 20 00 	ta  0
    2484:	01 00 00 00 	nop 
    2488:	01 00 00 00 	nop 
    248c:	01 00 00 00 	nop 

00002490 <HW_trap_0x49>:
    2490:	91 d0 20 00 	ta  0
    2494:	01 00 00 00 	nop 
    2498:	01 00 00 00 	nop 
    249c:	01 00 00 00 	nop 

000024a0 <HW_trap_0x4a>:
    24a0:	91 d0 20 00 	ta  0
    24a4:	01 00 00 00 	nop 
    24a8:	01 00 00 00 	nop 
    24ac:	01 00 00 00 	nop 

000024b0 <HW_trap_0x4b>:
    24b0:	91 d0 20 00 	ta  0
    24b4:	01 00 00 00 	nop 
    24b8:	01 00 00 00 	nop 
    24bc:	01 00 00 00 	nop 

000024c0 <HW_trap_0x4c>:
    24c0:	91 d0 20 00 	ta  0
    24c4:	01 00 00 00 	nop 
    24c8:	01 00 00 00 	nop 
    24cc:	01 00 00 00 	nop 

000024d0 <HW_trap_0x4d>:
    24d0:	91 d0 20 00 	ta  0
    24d4:	01 00 00 00 	nop 
    24d8:	01 00 00 00 	nop 
    24dc:	01 00 00 00 	nop 

000024e0 <HW_trap_0x4e>:
    24e0:	91 d0 20 00 	ta  0
    24e4:	01 00 00 00 	nop 
    24e8:	01 00 00 00 	nop 
    24ec:	01 00 00 00 	nop 

000024f0 <HW_trap_0x4f>:
    24f0:	91 d0 20 00 	ta  0
    24f4:	01 00 00 00 	nop 
    24f8:	01 00 00 00 	nop 
    24fc:	01 00 00 00 	nop 

00002500 <HW_trap_0x50>:
    2500:	91 d0 20 00 	ta  0
    2504:	01 00 00 00 	nop 
    2508:	01 00 00 00 	nop 
    250c:	01 00 00 00 	nop 

00002510 <HW_trap_0x51>:
    2510:	91 d0 20 00 	ta  0
    2514:	01 00 00 00 	nop 
    2518:	01 00 00 00 	nop 
    251c:	01 00 00 00 	nop 

00002520 <HW_trap_0x52>:
    2520:	91 d0 20 00 	ta  0
    2524:	01 00 00 00 	nop 
    2528:	01 00 00 00 	nop 
    252c:	01 00 00 00 	nop 

00002530 <HW_trap_0x53>:
    2530:	91 d0 20 00 	ta  0
    2534:	01 00 00 00 	nop 
    2538:	01 00 00 00 	nop 
    253c:	01 00 00 00 	nop 

00002540 <HW_trap_0x54>:
    2540:	91 d0 20 00 	ta  0
    2544:	01 00 00 00 	nop 
    2548:	01 00 00 00 	nop 
    254c:	01 00 00 00 	nop 

00002550 <HW_trap_0x55>:
    2550:	91 d0 20 00 	ta  0
    2554:	01 00 00 00 	nop 
    2558:	01 00 00 00 	nop 
    255c:	01 00 00 00 	nop 

00002560 <HW_trap_0x56>:
    2560:	91 d0 20 00 	ta  0
    2564:	01 00 00 00 	nop 
    2568:	01 00 00 00 	nop 
    256c:	01 00 00 00 	nop 

00002570 <HW_trap_0x57>:
    2570:	91 d0 20 00 	ta  0
    2574:	01 00 00 00 	nop 
    2578:	01 00 00 00 	nop 
    257c:	01 00 00 00 	nop 

00002580 <HW_trap_0x58>:
    2580:	91 d0 20 00 	ta  0
    2584:	01 00 00 00 	nop 
    2588:	01 00 00 00 	nop 
    258c:	01 00 00 00 	nop 

00002590 <HW_trap_0x59>:
    2590:	91 d0 20 00 	ta  0
    2594:	01 00 00 00 	nop 
    2598:	01 00 00 00 	nop 
    259c:	01 00 00 00 	nop 

000025a0 <HW_trap_0x5a>:
    25a0:	91 d0 20 00 	ta  0
    25a4:	01 00 00 00 	nop 
    25a8:	01 00 00 00 	nop 
    25ac:	01 00 00 00 	nop 

000025b0 <HW_trap_0x5b>:
    25b0:	91 d0 20 00 	ta  0
    25b4:	01 00 00 00 	nop 
    25b8:	01 00 00 00 	nop 
    25bc:	01 00 00 00 	nop 

000025c0 <HW_trap_0x5c>:
    25c0:	91 d0 20 00 	ta  0
    25c4:	01 00 00 00 	nop 
    25c8:	01 00 00 00 	nop 
    25cc:	01 00 00 00 	nop 

000025d0 <HW_trap_0x5d>:
    25d0:	91 d0 20 00 	ta  0
    25d4:	01 00 00 00 	nop 
    25d8:	01 00 00 00 	nop 
    25dc:	01 00 00 00 	nop 

000025e0 <HW_trap_0x5e>:
    25e0:	91 d0 20 00 	ta  0
    25e4:	01 00 00 00 	nop 
    25e8:	01 00 00 00 	nop 
    25ec:	01 00 00 00 	nop 

000025f0 <HW_trap_0x5f>:
    25f0:	91 d0 20 00 	ta  0
    25f4:	01 00 00 00 	nop 
    25f8:	01 00 00 00 	nop 
    25fc:	01 00 00 00 	nop 

00002600 <HW_trap_0x60>:
    2600:	91 d0 20 00 	ta  0
    2604:	01 00 00 00 	nop 
    2608:	01 00 00 00 	nop 
    260c:	01 00 00 00 	nop 

00002610 <HW_trap_0x61>:
    2610:	91 d0 20 00 	ta  0
    2614:	01 00 00 00 	nop 
    2618:	01 00 00 00 	nop 
    261c:	01 00 00 00 	nop 

00002620 <HW_trap_0x62>:
    2620:	91 d0 20 00 	ta  0
    2624:	01 00 00 00 	nop 
    2628:	01 00 00 00 	nop 
    262c:	01 00 00 00 	nop 

00002630 <HW_trap_0x63>:
    2630:	91 d0 20 00 	ta  0
    2634:	01 00 00 00 	nop 
    2638:	01 00 00 00 	nop 
    263c:	01 00 00 00 	nop 

00002640 <HW_trap_0x64>:
    2640:	91 d0 20 00 	ta  0
    2644:	01 00 00 00 	nop 
    2648:	01 00 00 00 	nop 
    264c:	01 00 00 00 	nop 

00002650 <HW_trap_0x65>:
    2650:	91 d0 20 00 	ta  0
    2654:	01 00 00 00 	nop 
    2658:	01 00 00 00 	nop 
    265c:	01 00 00 00 	nop 

00002660 <HW_trap_0x66>:
    2660:	91 d0 20 00 	ta  0
    2664:	01 00 00 00 	nop 
    2668:	01 00 00 00 	nop 
    266c:	01 00 00 00 	nop 

00002670 <HW_trap_0x67>:
    2670:	91 d0 20 00 	ta  0
    2674:	01 00 00 00 	nop 
    2678:	01 00 00 00 	nop 
    267c:	01 00 00 00 	nop 

00002680 <HW_trap_0x68>:
    2680:	91 d0 20 00 	ta  0
    2684:	01 00 00 00 	nop 
    2688:	01 00 00 00 	nop 
    268c:	01 00 00 00 	nop 

00002690 <HW_trap_0x69>:
    2690:	91 d0 20 00 	ta  0
    2694:	01 00 00 00 	nop 
    2698:	01 00 00 00 	nop 
    269c:	01 00 00 00 	nop 

000026a0 <HW_trap_0x6a>:
    26a0:	91 d0 20 00 	ta  0
    26a4:	01 00 00 00 	nop 
    26a8:	01 00 00 00 	nop 
    26ac:	01 00 00 00 	nop 

000026b0 <HW_trap_0x6b>:
    26b0:	91 d0 20 00 	ta  0
    26b4:	01 00 00 00 	nop 
    26b8:	01 00 00 00 	nop 
    26bc:	01 00 00 00 	nop 

000026c0 <HW_trap_0x6c>:
    26c0:	91 d0 20 00 	ta  0
    26c4:	01 00 00 00 	nop 
    26c8:	01 00 00 00 	nop 
    26cc:	01 00 00 00 	nop 

000026d0 <HW_trap_0x6d>:
    26d0:	91 d0 20 00 	ta  0
    26d4:	01 00 00 00 	nop 
    26d8:	01 00 00 00 	nop 
    26dc:	01 00 00 00 	nop 

000026e0 <HW_trap_0x6e>:
    26e0:	91 d0 20 00 	ta  0
    26e4:	01 00 00 00 	nop 
    26e8:	01 00 00 00 	nop 
    26ec:	01 00 00 00 	nop 

000026f0 <HW_trap_0x6f>:
    26f0:	91 d0 20 00 	ta  0
    26f4:	01 00 00 00 	nop 
    26f8:	01 00 00 00 	nop 
    26fc:	01 00 00 00 	nop 

00002700 <HW_trap_0x70>:
    2700:	91 d0 20 00 	ta  0
    2704:	01 00 00 00 	nop 
    2708:	01 00 00 00 	nop 
    270c:	01 00 00 00 	nop 

00002710 <HW_trap_0x71>:
    2710:	91 d0 20 00 	ta  0
    2714:	01 00 00 00 	nop 
    2718:	01 00 00 00 	nop 
    271c:	01 00 00 00 	nop 

00002720 <HW_trap_0x72>:
    2720:	91 d0 20 00 	ta  0
    2724:	01 00 00 00 	nop 
    2728:	01 00 00 00 	nop 
    272c:	01 00 00 00 	nop 

00002730 <HW_trap_0x73>:
    2730:	91 d0 20 00 	ta  0
    2734:	01 00 00 00 	nop 
    2738:	01 00 00 00 	nop 
    273c:	01 00 00 00 	nop 

00002740 <HW_trap_0x74>:
    2740:	91 d0 20 00 	ta  0
    2744:	01 00 00 00 	nop 
    2748:	01 00 00 00 	nop 
    274c:	01 00 00 00 	nop 

00002750 <HW_trap_0x75>:
    2750:	91 d0 20 00 	ta  0
    2754:	01 00 00 00 	nop 
    2758:	01 00 00 00 	nop 
    275c:	01 00 00 00 	nop 

00002760 <HW_trap_0x76>:
    2760:	91 d0 20 00 	ta  0
    2764:	01 00 00 00 	nop 
    2768:	01 00 00 00 	nop 
    276c:	01 00 00 00 	nop 

00002770 <HW_trap_0x77>:
    2770:	91 d0 20 00 	ta  0
    2774:	01 00 00 00 	nop 
    2778:	01 00 00 00 	nop 
    277c:	01 00 00 00 	nop 

00002780 <HW_trap_0x78>:
    2780:	91 d0 20 00 	ta  0
    2784:	01 00 00 00 	nop 
    2788:	01 00 00 00 	nop 
    278c:	01 00 00 00 	nop 

00002790 <HW_trap_0x79>:
    2790:	91 d0 20 00 	ta  0
    2794:	01 00 00 00 	nop 
    2798:	01 00 00 00 	nop 
    279c:	01 00 00 00 	nop 

000027a0 <HW_trap_0x7a>:
    27a0:	91 d0 20 00 	ta  0
    27a4:	01 00 00 00 	nop 
    27a8:	01 00 00 00 	nop 
    27ac:	01 00 00 00 	nop 

000027b0 <HW_trap_0x7b>:
    27b0:	91 d0 20 00 	ta  0
    27b4:	01 00 00 00 	nop 
    27b8:	01 00 00 00 	nop 
    27bc:	01 00 00 00 	nop 

000027c0 <HW_trap_0x7c>:
    27c0:	91 d0 20 00 	ta  0
    27c4:	01 00 00 00 	nop 
    27c8:	01 00 00 00 	nop 
    27cc:	01 00 00 00 	nop 

000027d0 <HW_trap_0x7d>:
    27d0:	91 d0 20 00 	ta  0
    27d4:	01 00 00 00 	nop 
    27d8:	01 00 00 00 	nop 
    27dc:	01 00 00 00 	nop 

000027e0 <HW_trap_0x7e>:
    27e0:	91 d0 20 00 	ta  0
    27e4:	01 00 00 00 	nop 
    27e8:	01 00 00 00 	nop 
    27ec:	01 00 00 00 	nop 

000027f0 <HW_trap_0x7f>:
    27f0:	91 d0 20 00 	ta  0
    27f4:	01 00 00 00 	nop 
    27f8:	01 00 00 00 	nop 
    27fc:	01 00 00 00 	nop 

00002800 <SW_trap_0x80>:
    2800:	91 d0 20 00 	ta  0
    2804:	01 00 00 00 	nop 
    2808:	01 00 00 00 	nop 
    280c:	01 00 00 00 	nop 

00002810 <SW_trap_0x81>:
    2810:	91 d0 20 00 	ta  0
    2814:	01 00 00 00 	nop 
    2818:	01 00 00 00 	nop 
    281c:	01 00 00 00 	nop 

00002820 <SW_trap_0x82>:
    2820:	91 d0 20 00 	ta  0
    2824:	01 00 00 00 	nop 
    2828:	01 00 00 00 	nop 
    282c:	01 00 00 00 	nop 

00002830 <SW_trap_0x83>:
    2830:	91 d0 20 00 	ta  0
    2834:	01 00 00 00 	nop 
    2838:	01 00 00 00 	nop 
    283c:	01 00 00 00 	nop 

00002840 <SW_trap_0x84>:
    2840:	91 d0 20 00 	ta  0
    2844:	01 00 00 00 	nop 
    2848:	01 00 00 00 	nop 
    284c:	01 00 00 00 	nop 

00002850 <SW_trap_0x85>:
    2850:	91 d0 20 00 	ta  0
    2854:	01 00 00 00 	nop 
    2858:	01 00 00 00 	nop 
    285c:	01 00 00 00 	nop 

00002860 <SW_trap_0x86>:
    2860:	91 d0 20 00 	ta  0
    2864:	01 00 00 00 	nop 
    2868:	01 00 00 00 	nop 
    286c:	01 00 00 00 	nop 

00002870 <SW_trap_0x87>:
    2870:	91 d0 20 00 	ta  0
    2874:	01 00 00 00 	nop 
    2878:	01 00 00 00 	nop 
    287c:	01 00 00 00 	nop 

00002880 <SW_trap_0x88>:
    2880:	91 d0 20 00 	ta  0
    2884:	01 00 00 00 	nop 
    2888:	01 00 00 00 	nop 
    288c:	01 00 00 00 	nop 

00002890 <SW_trap_0x89>:
    2890:	91 d0 20 00 	ta  0
    2894:	01 00 00 00 	nop 
    2898:	01 00 00 00 	nop 
    289c:	01 00 00 00 	nop 

000028a0 <SW_trap_0x8a>:
    28a0:	91 d0 20 00 	ta  0
    28a4:	01 00 00 00 	nop 
    28a8:	01 00 00 00 	nop 
    28ac:	01 00 00 00 	nop 

000028b0 <SW_trap_0x8b>:
    28b0:	91 d0 20 00 	ta  0
    28b4:	01 00 00 00 	nop 
    28b8:	01 00 00 00 	nop 
    28bc:	01 00 00 00 	nop 

000028c0 <SW_trap_0x8c>:
    28c0:	91 d0 20 00 	ta  0
    28c4:	01 00 00 00 	nop 
    28c8:	01 00 00 00 	nop 
    28cc:	01 00 00 00 	nop 

000028d0 <SW_trap_0x8d>:
    28d0:	91 d0 20 00 	ta  0
    28d4:	01 00 00 00 	nop 
    28d8:	01 00 00 00 	nop 
    28dc:	01 00 00 00 	nop 

000028e0 <SW_trap_0x8e>:
    28e0:	91 d0 20 00 	ta  0
    28e4:	01 00 00 00 	nop 
    28e8:	01 00 00 00 	nop 
    28ec:	01 00 00 00 	nop 

000028f0 <SW_trap_0x8f>:
    28f0:	91 d0 20 00 	ta  0
    28f4:	01 00 00 00 	nop 
    28f8:	01 00 00 00 	nop 
    28fc:	01 00 00 00 	nop 

00002900 <SW_trap_0x90>:
    2900:	91 d0 20 00 	ta  0
    2904:	01 00 00 00 	nop 
    2908:	01 00 00 00 	nop 
    290c:	01 00 00 00 	nop 

00002910 <SW_trap_0x91>:
    2910:	91 d0 20 00 	ta  0
    2914:	01 00 00 00 	nop 
    2918:	01 00 00 00 	nop 
    291c:	01 00 00 00 	nop 

00002920 <SW_trap_0x92>:
    2920:	91 d0 20 00 	ta  0
    2924:	01 00 00 00 	nop 
    2928:	01 00 00 00 	nop 
    292c:	01 00 00 00 	nop 

00002930 <SW_trap_0x93>:
    2930:	91 d0 20 00 	ta  0
    2934:	01 00 00 00 	nop 
    2938:	01 00 00 00 	nop 
    293c:	01 00 00 00 	nop 

00002940 <SW_trap_0x94>:
    2940:	91 d0 20 00 	ta  0
    2944:	01 00 00 00 	nop 
    2948:	01 00 00 00 	nop 
    294c:	01 00 00 00 	nop 

00002950 <SW_trap_0x95>:
    2950:	91 d0 20 00 	ta  0
    2954:	01 00 00 00 	nop 
    2958:	01 00 00 00 	nop 
    295c:	01 00 00 00 	nop 

00002960 <SW_trap_0x96>:
    2960:	91 d0 20 00 	ta  0
    2964:	01 00 00 00 	nop 
    2968:	01 00 00 00 	nop 
    296c:	01 00 00 00 	nop 

00002970 <SW_trap_0x97>:
    2970:	91 d0 20 00 	ta  0
    2974:	01 00 00 00 	nop 
    2978:	01 00 00 00 	nop 
    297c:	01 00 00 00 	nop 

00002980 <SW_trap_0x98>:
    2980:	91 d0 20 00 	ta  0
    2984:	01 00 00 00 	nop 
    2988:	01 00 00 00 	nop 
    298c:	01 00 00 00 	nop 

00002990 <SW_trap_0x99>:
    2990:	91 d0 20 00 	ta  0
    2994:	01 00 00 00 	nop 
    2998:	01 00 00 00 	nop 
    299c:	01 00 00 00 	nop 

000029a0 <SW_trap_0x9a>:
    29a0:	91 d0 20 00 	ta  0
    29a4:	01 00 00 00 	nop 
    29a8:	01 00 00 00 	nop 
    29ac:	01 00 00 00 	nop 

000029b0 <SW_trap_0x9b>:
    29b0:	91 d0 20 00 	ta  0
    29b4:	01 00 00 00 	nop 
    29b8:	01 00 00 00 	nop 
    29bc:	01 00 00 00 	nop 

000029c0 <SW_trap_0x9c>:
    29c0:	91 d0 20 00 	ta  0
    29c4:	01 00 00 00 	nop 
    29c8:	01 00 00 00 	nop 
    29cc:	01 00 00 00 	nop 

000029d0 <SW_trap_0x9d>:
    29d0:	91 d0 20 00 	ta  0
    29d4:	01 00 00 00 	nop 
    29d8:	01 00 00 00 	nop 
    29dc:	01 00 00 00 	nop 

000029e0 <SW_trap_0x9e>:
    29e0:	91 d0 20 00 	ta  0
    29e4:	01 00 00 00 	nop 
    29e8:	01 00 00 00 	nop 
    29ec:	01 00 00 00 	nop 

000029f0 <SW_trap_0x9f>:
    29f0:	91 d0 20 00 	ta  0
    29f4:	01 00 00 00 	nop 
    29f8:	01 00 00 00 	nop 
    29fc:	01 00 00 00 	nop 

00002a00 <SW_trap_0xa0>:
    2a00:	91 d0 20 00 	ta  0
    2a04:	01 00 00 00 	nop 
    2a08:	01 00 00 00 	nop 
    2a0c:	01 00 00 00 	nop 

00002a10 <SW_trap_0xa1>:
    2a10:	91 d0 20 00 	ta  0
    2a14:	01 00 00 00 	nop 
    2a18:	01 00 00 00 	nop 
    2a1c:	01 00 00 00 	nop 

00002a20 <SW_trap_0xa2>:
    2a20:	91 d0 20 00 	ta  0
    2a24:	01 00 00 00 	nop 
    2a28:	01 00 00 00 	nop 
    2a2c:	01 00 00 00 	nop 

00002a30 <SW_trap_0xa3>:
    2a30:	91 d0 20 00 	ta  0
    2a34:	01 00 00 00 	nop 
    2a38:	01 00 00 00 	nop 
    2a3c:	01 00 00 00 	nop 

00002a40 <SW_trap_0xa4>:
    2a40:	91 d0 20 00 	ta  0
    2a44:	01 00 00 00 	nop 
    2a48:	01 00 00 00 	nop 
    2a4c:	01 00 00 00 	nop 

00002a50 <SW_trap_0xa5>:
    2a50:	91 d0 20 00 	ta  0
    2a54:	01 00 00 00 	nop 
    2a58:	01 00 00 00 	nop 
    2a5c:	01 00 00 00 	nop 

00002a60 <SW_trap_0xa6>:
    2a60:	91 d0 20 00 	ta  0
    2a64:	01 00 00 00 	nop 
    2a68:	01 00 00 00 	nop 
    2a6c:	01 00 00 00 	nop 

00002a70 <SW_trap_0xa7>:
    2a70:	91 d0 20 00 	ta  0
    2a74:	01 00 00 00 	nop 
    2a78:	01 00 00 00 	nop 
    2a7c:	01 00 00 00 	nop 

00002a80 <SW_trap_0xa8>:
    2a80:	91 d0 20 00 	ta  0
    2a84:	01 00 00 00 	nop 
    2a88:	01 00 00 00 	nop 
    2a8c:	01 00 00 00 	nop 

00002a90 <SW_trap_0xa9>:
    2a90:	91 d0 20 00 	ta  0
    2a94:	01 00 00 00 	nop 
    2a98:	01 00 00 00 	nop 
    2a9c:	01 00 00 00 	nop 

00002aa0 <SW_trap_0xaa>:
    2aa0:	91 d0 20 00 	ta  0
    2aa4:	01 00 00 00 	nop 
    2aa8:	01 00 00 00 	nop 
    2aac:	01 00 00 00 	nop 

00002ab0 <SW_trap_0xab>:
    2ab0:	91 d0 20 00 	ta  0
    2ab4:	01 00 00 00 	nop 
    2ab8:	01 00 00 00 	nop 
    2abc:	01 00 00 00 	nop 

00002ac0 <SW_trap_0xac>:
    2ac0:	91 d0 20 00 	ta  0
    2ac4:	01 00 00 00 	nop 
    2ac8:	01 00 00 00 	nop 
    2acc:	01 00 00 00 	nop 

00002ad0 <SW_trap_0xad>:
    2ad0:	91 d0 20 00 	ta  0
    2ad4:	01 00 00 00 	nop 
    2ad8:	01 00 00 00 	nop 
    2adc:	01 00 00 00 	nop 

00002ae0 <SW_trap_0xae>:
    2ae0:	91 d0 20 00 	ta  0
    2ae4:	01 00 00 00 	nop 
    2ae8:	01 00 00 00 	nop 
    2aec:	01 00 00 00 	nop 

00002af0 <SW_trap_0xaf>:
    2af0:	91 d0 20 00 	ta  0
    2af4:	01 00 00 00 	nop 
    2af8:	01 00 00 00 	nop 
    2afc:	01 00 00 00 	nop 

00002b00 <SW_trap_0xb0>:
    2b00:	91 d0 20 00 	ta  0
    2b04:	01 00 00 00 	nop 
    2b08:	01 00 00 00 	nop 
    2b0c:	01 00 00 00 	nop 

00002b10 <SW_trap_0xb1>:
    2b10:	91 d0 20 00 	ta  0
    2b14:	01 00 00 00 	nop 
    2b18:	01 00 00 00 	nop 
    2b1c:	01 00 00 00 	nop 

00002b20 <SW_trap_0xb2>:
    2b20:	91 d0 20 00 	ta  0
    2b24:	01 00 00 00 	nop 
    2b28:	01 00 00 00 	nop 
    2b2c:	01 00 00 00 	nop 

00002b30 <SW_trap_0xb3>:
    2b30:	91 d0 20 00 	ta  0
    2b34:	01 00 00 00 	nop 
    2b38:	01 00 00 00 	nop 
    2b3c:	01 00 00 00 	nop 

00002b40 <SW_trap_0xb4>:
    2b40:	91 d0 20 00 	ta  0
    2b44:	01 00 00 00 	nop 
    2b48:	01 00 00 00 	nop 
    2b4c:	01 00 00 00 	nop 

00002b50 <SW_trap_0xb5>:
    2b50:	91 d0 20 00 	ta  0
    2b54:	01 00 00 00 	nop 
    2b58:	01 00 00 00 	nop 
    2b5c:	01 00 00 00 	nop 

00002b60 <SW_trap_0xb6>:
    2b60:	91 d0 20 00 	ta  0
    2b64:	01 00 00 00 	nop 
    2b68:	01 00 00 00 	nop 
    2b6c:	01 00 00 00 	nop 

00002b70 <SW_trap_0xb7>:
    2b70:	91 d0 20 00 	ta  0
    2b74:	01 00 00 00 	nop 
    2b78:	01 00 00 00 	nop 
    2b7c:	01 00 00 00 	nop 

00002b80 <SW_trap_0xb8>:
    2b80:	91 d0 20 00 	ta  0
    2b84:	01 00 00 00 	nop 
    2b88:	01 00 00 00 	nop 
    2b8c:	01 00 00 00 	nop 

00002b90 <SW_trap_0xb9>:
    2b90:	91 d0 20 00 	ta  0
    2b94:	01 00 00 00 	nop 
    2b98:	01 00 00 00 	nop 
    2b9c:	01 00 00 00 	nop 

00002ba0 <SW_trap_0xba>:
    2ba0:	91 d0 20 00 	ta  0
    2ba4:	01 00 00 00 	nop 
    2ba8:	01 00 00 00 	nop 
    2bac:	01 00 00 00 	nop 

00002bb0 <SW_trap_0xbb>:
    2bb0:	91 d0 20 00 	ta  0
    2bb4:	01 00 00 00 	nop 
    2bb8:	01 00 00 00 	nop 
    2bbc:	01 00 00 00 	nop 

00002bc0 <SW_trap_0xbc>:
    2bc0:	91 d0 20 00 	ta  0
    2bc4:	01 00 00 00 	nop 
    2bc8:	01 00 00 00 	nop 
    2bcc:	01 00 00 00 	nop 

00002bd0 <SW_trap_0xbd>:
    2bd0:	91 d0 20 00 	ta  0
    2bd4:	01 00 00 00 	nop 
    2bd8:	01 00 00 00 	nop 
    2bdc:	01 00 00 00 	nop 

00002be0 <SW_trap_0xbe>:
    2be0:	91 d0 20 00 	ta  0
    2be4:	01 00 00 00 	nop 
    2be8:	01 00 00 00 	nop 
    2bec:	01 00 00 00 	nop 

00002bf0 <SW_trap_0xbf>:
    2bf0:	91 d0 20 00 	ta  0
    2bf4:	01 00 00 00 	nop 
    2bf8:	01 00 00 00 	nop 
    2bfc:	01 00 00 00 	nop 

00002c00 <SW_trap_0xc0>:
    2c00:	91 d0 20 00 	ta  0
    2c04:	01 00 00 00 	nop 
    2c08:	01 00 00 00 	nop 
    2c0c:	01 00 00 00 	nop 

00002c10 <SW_trap_0xc1>:
    2c10:	91 d0 20 00 	ta  0
    2c14:	01 00 00 00 	nop 
    2c18:	01 00 00 00 	nop 
    2c1c:	01 00 00 00 	nop 

00002c20 <SW_trap_0xc2>:
    2c20:	91 d0 20 00 	ta  0
    2c24:	01 00 00 00 	nop 
    2c28:	01 00 00 00 	nop 
    2c2c:	01 00 00 00 	nop 

00002c30 <SW_trap_0xc3>:
    2c30:	91 d0 20 00 	ta  0
    2c34:	01 00 00 00 	nop 
    2c38:	01 00 00 00 	nop 
    2c3c:	01 00 00 00 	nop 

00002c40 <SW_trap_0xc4>:
    2c40:	91 d0 20 00 	ta  0
    2c44:	01 00 00 00 	nop 
    2c48:	01 00 00 00 	nop 
    2c4c:	01 00 00 00 	nop 

00002c50 <SW_trap_0xc5>:
    2c50:	91 d0 20 00 	ta  0
    2c54:	01 00 00 00 	nop 
    2c58:	01 00 00 00 	nop 
    2c5c:	01 00 00 00 	nop 

00002c60 <SW_trap_0xc6>:
    2c60:	91 d0 20 00 	ta  0
    2c64:	01 00 00 00 	nop 
    2c68:	01 00 00 00 	nop 
    2c6c:	01 00 00 00 	nop 

00002c70 <SW_trap_0xc7>:
    2c70:	91 d0 20 00 	ta  0
    2c74:	01 00 00 00 	nop 
    2c78:	01 00 00 00 	nop 
    2c7c:	01 00 00 00 	nop 

00002c80 <SW_trap_0xc8>:
    2c80:	91 d0 20 00 	ta  0
    2c84:	01 00 00 00 	nop 
    2c88:	01 00 00 00 	nop 
    2c8c:	01 00 00 00 	nop 

00002c90 <SW_trap_0xc9>:
    2c90:	91 d0 20 00 	ta  0
    2c94:	01 00 00 00 	nop 
    2c98:	01 00 00 00 	nop 
    2c9c:	01 00 00 00 	nop 

00002ca0 <SW_trap_0xca>:
    2ca0:	91 d0 20 00 	ta  0
    2ca4:	01 00 00 00 	nop 
    2ca8:	01 00 00 00 	nop 
    2cac:	01 00 00 00 	nop 

00002cb0 <SW_trap_0xcb>:
    2cb0:	91 d0 20 00 	ta  0
    2cb4:	01 00 00 00 	nop 
    2cb8:	01 00 00 00 	nop 
    2cbc:	01 00 00 00 	nop 

00002cc0 <SW_trap_0xcc>:
    2cc0:	91 d0 20 00 	ta  0
    2cc4:	01 00 00 00 	nop 
    2cc8:	01 00 00 00 	nop 
    2ccc:	01 00 00 00 	nop 

00002cd0 <SW_trap_0xcd>:
    2cd0:	91 d0 20 00 	ta  0
    2cd4:	01 00 00 00 	nop 
    2cd8:	01 00 00 00 	nop 
    2cdc:	01 00 00 00 	nop 

00002ce0 <SW_trap_0xce>:
    2ce0:	91 d0 20 00 	ta  0
    2ce4:	01 00 00 00 	nop 
    2ce8:	01 00 00 00 	nop 
    2cec:	01 00 00 00 	nop 

00002cf0 <SW_trap_0xcf>:
    2cf0:	91 d0 20 00 	ta  0
    2cf4:	01 00 00 00 	nop 
    2cf8:	01 00 00 00 	nop 
    2cfc:	01 00 00 00 	nop 

00002d00 <SW_trap_0xd0>:
    2d00:	91 d0 20 00 	ta  0
    2d04:	01 00 00 00 	nop 
    2d08:	01 00 00 00 	nop 
    2d0c:	01 00 00 00 	nop 

00002d10 <SW_trap_0xd1>:
    2d10:	91 d0 20 00 	ta  0
    2d14:	01 00 00 00 	nop 
    2d18:	01 00 00 00 	nop 
    2d1c:	01 00 00 00 	nop 

00002d20 <SW_trap_0xd2>:
    2d20:	91 d0 20 00 	ta  0
    2d24:	01 00 00 00 	nop 
    2d28:	01 00 00 00 	nop 
    2d2c:	01 00 00 00 	nop 

00002d30 <SW_trap_0xd3>:
    2d30:	91 d0 20 00 	ta  0
    2d34:	01 00 00 00 	nop 
    2d38:	01 00 00 00 	nop 
    2d3c:	01 00 00 00 	nop 

00002d40 <SW_trap_0xd4>:
    2d40:	91 d0 20 00 	ta  0
    2d44:	01 00 00 00 	nop 
    2d48:	01 00 00 00 	nop 
    2d4c:	01 00 00 00 	nop 

00002d50 <SW_trap_0xd5>:
    2d50:	91 d0 20 00 	ta  0
    2d54:	01 00 00 00 	nop 
    2d58:	01 00 00 00 	nop 
    2d5c:	01 00 00 00 	nop 

00002d60 <SW_trap_0xd6>:
    2d60:	91 d0 20 00 	ta  0
    2d64:	01 00 00 00 	nop 
    2d68:	01 00 00 00 	nop 
    2d6c:	01 00 00 00 	nop 

00002d70 <SW_trap_0xd7>:
    2d70:	91 d0 20 00 	ta  0
    2d74:	01 00 00 00 	nop 
    2d78:	01 00 00 00 	nop 
    2d7c:	01 00 00 00 	nop 

00002d80 <SW_trap_0xd8>:
    2d80:	91 d0 20 00 	ta  0
    2d84:	01 00 00 00 	nop 
    2d88:	01 00 00 00 	nop 
    2d8c:	01 00 00 00 	nop 

00002d90 <SW_trap_0xd9>:
    2d90:	91 d0 20 00 	ta  0
    2d94:	01 00 00 00 	nop 
    2d98:	01 00 00 00 	nop 
    2d9c:	01 00 00 00 	nop 

00002da0 <SW_trap_0xda>:
    2da0:	91 d0 20 00 	ta  0
    2da4:	01 00 00 00 	nop 
    2da8:	01 00 00 00 	nop 
    2dac:	01 00 00 00 	nop 

00002db0 <SW_trap_0xdb>:
    2db0:	91 d0 20 00 	ta  0
    2db4:	01 00 00 00 	nop 
    2db8:	01 00 00 00 	nop 
    2dbc:	01 00 00 00 	nop 

00002dc0 <SW_trap_0xdc>:
    2dc0:	91 d0 20 00 	ta  0
    2dc4:	01 00 00 00 	nop 
    2dc8:	01 00 00 00 	nop 
    2dcc:	01 00 00 00 	nop 

00002dd0 <SW_trap_0xdd>:
    2dd0:	91 d0 20 00 	ta  0
    2dd4:	01 00 00 00 	nop 
    2dd8:	01 00 00 00 	nop 
    2ddc:	01 00 00 00 	nop 

00002de0 <SW_trap_0xde>:
    2de0:	91 d0 20 00 	ta  0
    2de4:	01 00 00 00 	nop 
    2de8:	01 00 00 00 	nop 
    2dec:	01 00 00 00 	nop 

00002df0 <SW_trap_0xdf>:
    2df0:	91 d0 20 00 	ta  0
    2df4:	01 00 00 00 	nop 
    2df8:	01 00 00 00 	nop 
    2dfc:	01 00 00 00 	nop 

00002e00 <SW_trap_0xe0>:
    2e00:	91 d0 20 00 	ta  0
    2e04:	01 00 00 00 	nop 
    2e08:	01 00 00 00 	nop 
    2e0c:	01 00 00 00 	nop 

00002e10 <SW_trap_0xe1>:
    2e10:	91 d0 20 00 	ta  0
    2e14:	01 00 00 00 	nop 
    2e18:	01 00 00 00 	nop 
    2e1c:	01 00 00 00 	nop 

00002e20 <SW_trap_0xe2>:
    2e20:	91 d0 20 00 	ta  0
    2e24:	01 00 00 00 	nop 
    2e28:	01 00 00 00 	nop 
    2e2c:	01 00 00 00 	nop 

00002e30 <SW_trap_0xe3>:
    2e30:	91 d0 20 00 	ta  0
    2e34:	01 00 00 00 	nop 
    2e38:	01 00 00 00 	nop 
    2e3c:	01 00 00 00 	nop 

00002e40 <SW_trap_0xe4>:
    2e40:	91 d0 20 00 	ta  0
    2e44:	01 00 00 00 	nop 
    2e48:	01 00 00 00 	nop 
    2e4c:	01 00 00 00 	nop 

00002e50 <SW_trap_0xe5>:
    2e50:	91 d0 20 00 	ta  0
    2e54:	01 00 00 00 	nop 
    2e58:	01 00 00 00 	nop 
    2e5c:	01 00 00 00 	nop 

00002e60 <SW_trap_0xe6>:
    2e60:	91 d0 20 00 	ta  0
    2e64:	01 00 00 00 	nop 
    2e68:	01 00 00 00 	nop 
    2e6c:	01 00 00 00 	nop 

00002e70 <SW_trap_0xe7>:
    2e70:	91 d0 20 00 	ta  0
    2e74:	01 00 00 00 	nop 
    2e78:	01 00 00 00 	nop 
    2e7c:	01 00 00 00 	nop 

00002e80 <SW_trap_0xe8>:
    2e80:	91 d0 20 00 	ta  0
    2e84:	01 00 00 00 	nop 
    2e88:	01 00 00 00 	nop 
    2e8c:	01 00 00 00 	nop 

00002e90 <SW_trap_0xe9>:
    2e90:	91 d0 20 00 	ta  0
    2e94:	01 00 00 00 	nop 
    2e98:	01 00 00 00 	nop 
    2e9c:	01 00 00 00 	nop 

00002ea0 <SW_trap_0xea>:
    2ea0:	91 d0 20 00 	ta  0
    2ea4:	01 00 00 00 	nop 
    2ea8:	01 00 00 00 	nop 
    2eac:	01 00 00 00 	nop 

00002eb0 <SW_trap_0xeb>:
    2eb0:	91 d0 20 00 	ta  0
    2eb4:	01 00 00 00 	nop 
    2eb8:	01 00 00 00 	nop 
    2ebc:	01 00 00 00 	nop 

00002ec0 <SW_trap_0xec>:
    2ec0:	91 d0 20 00 	ta  0
    2ec4:	01 00 00 00 	nop 
    2ec8:	01 00 00 00 	nop 
    2ecc:	01 00 00 00 	nop 

00002ed0 <SW_trap_0xed>:
    2ed0:	91 d0 20 00 	ta  0
    2ed4:	01 00 00 00 	nop 
    2ed8:	01 00 00 00 	nop 
    2edc:	01 00 00 00 	nop 

00002ee0 <SW_trap_0xee>:
    2ee0:	91 d0 20 00 	ta  0
    2ee4:	01 00 00 00 	nop 
    2ee8:	01 00 00 00 	nop 
    2eec:	01 00 00 00 	nop 

00002ef0 <SW_trap_0xef>:
    2ef0:	91 d0 20 00 	ta  0
    2ef4:	01 00 00 00 	nop 
    2ef8:	01 00 00 00 	nop 
    2efc:	01 00 00 00 	nop 

00002f00 <SW_trap_0xf0>:
    2f00:	91 d0 20 00 	ta  0
    2f04:	01 00 00 00 	nop 
    2f08:	01 00 00 00 	nop 
    2f0c:	01 00 00 00 	nop 

00002f10 <SW_trap_0xf1>:
    2f10:	91 d0 20 00 	ta  0
    2f14:	01 00 00 00 	nop 
    2f18:	01 00 00 00 	nop 
    2f1c:	01 00 00 00 	nop 

00002f20 <SW_trap_0xf2>:
    2f20:	91 d0 20 00 	ta  0
    2f24:	01 00 00 00 	nop 
    2f28:	01 00 00 00 	nop 
    2f2c:	01 00 00 00 	nop 

00002f30 <SW_trap_0xf3>:
    2f30:	91 d0 20 00 	ta  0
    2f34:	01 00 00 00 	nop 
    2f38:	01 00 00 00 	nop 
    2f3c:	01 00 00 00 	nop 

00002f40 <SW_trap_0xf4>:
    2f40:	91 d0 20 00 	ta  0
    2f44:	01 00 00 00 	nop 
    2f48:	01 00 00 00 	nop 
    2f4c:	01 00 00 00 	nop 

00002f50 <SW_trap_0xf5>:
    2f50:	91 d0 20 00 	ta  0
    2f54:	01 00 00 00 	nop 
    2f58:	01 00 00 00 	nop 
    2f5c:	01 00 00 00 	nop 

00002f60 <SW_trap_0xf6>:
    2f60:	91 d0 20 00 	ta  0
    2f64:	01 00 00 00 	nop 
    2f68:	01 00 00 00 	nop 
    2f6c:	01 00 00 00 	nop 

00002f70 <SW_trap_0xf7>:
    2f70:	91 d0 20 00 	ta  0
    2f74:	01 00 00 00 	nop 
    2f78:	01 00 00 00 	nop 
    2f7c:	01 00 00 00 	nop 

00002f80 <SW_trap_0xf8>:
    2f80:	91 d0 20 00 	ta  0
    2f84:	01 00 00 00 	nop 
    2f88:	01 00 00 00 	nop 
    2f8c:	01 00 00 00 	nop 

00002f90 <SW_trap_0xf9>:
    2f90:	91 d0 20 00 	ta  0
    2f94:	01 00 00 00 	nop 
    2f98:	01 00 00 00 	nop 
    2f9c:	01 00 00 00 	nop 

00002fa0 <SW_trap_0xfa>:
    2fa0:	91 d0 20 00 	ta  0
    2fa4:	01 00 00 00 	nop 
    2fa8:	01 00 00 00 	nop 
    2fac:	01 00 00 00 	nop 

00002fb0 <SW_trap_0xfb>:
    2fb0:	91 d0 20 00 	ta  0
    2fb4:	01 00 00 00 	nop 
    2fb8:	01 00 00 00 	nop 
    2fbc:	01 00 00 00 	nop 

00002fc0 <SW_trap_0xfc>:
    2fc0:	91 d0 20 00 	ta  0
    2fc4:	01 00 00 00 	nop 
    2fc8:	01 00 00 00 	nop 
    2fcc:	01 00 00 00 	nop 

00002fd0 <SW_trap_0xfd>:
    2fd0:	91 d0 20 00 	ta  0
    2fd4:	01 00 00 00 	nop 
    2fd8:	01 00 00 00 	nop 
    2fdc:	01 00 00 00 	nop 

00002fe0 <SW_trap_0xfe>:
    2fe0:	91 d0 20 00 	ta  0
    2fe4:	01 00 00 00 	nop 
    2fe8:	01 00 00 00 	nop 
    2fec:	01 00 00 00 	nop 
    2ff0:	01 00 00 00 	nop 
    2ff4:	01 00 00 00 	nop 
    2ff8:	01 00 00 00 	nop 
    2ffc:	01 00 00 00 	nop 
    3000:	00 00 30 d8 	unimp  0x30d8
    3004:	00 00 30 d8 	unimp  0x30d8
    3008:	00 00 30 d8 	unimp  0x30d8
    300c:	00 00 30 f0 	unimp  0x30f0
    3010:	00 00 30 f0 	unimp  0x30f0
    3014:	00 00 31 08 	unimp  0x3108
    3018:	00 00 31 08 	unimp  0x3108
    301c:	00 00 31 20 	unimp  0x3120
    3020:	00 00 31 e8 	unimp  0x31e8
    3024:	00 00 33 b4 	unimp  0x33b4
    3028:	00 00 32 48 	unimp  0x3248
    302c:	00 00 33 28 	unimp  0x3328
    3030:	00 00 32 98 	unimp  0x3298
    3034:	00 00 32 e0 	unimp  0x32e0
    3038:	00 00 33 60 	unimp  0x3360
    303c:	00 00 33 90 	unimp  0x3390

00003040 <ee_isdigit>:
    3040:	90 02 3f d0 	add  %o0, -48, %o0
    3044:	82 0a 20 ff 	and  %o0, 0xff, %g1
    3048:	80 a0 60 0a 	cmp  %g1, 0xa
    304c:	81 c3 e0 08 	retl 
    3050:	90 40 20 00 	addx  %g0, 0, %o0

00003054 <core_init_state>:
    3054:	9d e3 bf a0 	save  %sp, -96, %sp
    3058:	b8 10 20 00 	clr  %i4
    305c:	9a 06 3f ff 	add  %i0, -1, %o5
    3060:	88 10 20 00 	clr  %g4
    3064:	ba 10 20 00 	clr  %i5
    3068:	96 10 20 2c 	mov  0x2c, %o3
    306c:	19 00 00 0c 	sethi  %hi(0x3000), %o4
    3070:	21 00 00 81 	sethi  %hi(0x20400), %l0
    3074:	11 00 00 81 	sethi  %hi(0x20400), %o0
    3078:	13 00 00 81 	sethi  %hi(0x20400), %o1
    307c:	10 80 00 2e 	b  3134 <core_init_state+0xe0>
    3080:	15 00 00 81 	sethi  %hi(0x20400), %o2
    3084:	22 80 00 0d 	be,a   30b8 <core_init_state+0x64>
    3088:	b2 06 60 01 	inc  %i1
    308c:	82 10 20 00 	clr  %g1
    3090:	c6 0f 00 01 	ldub  [ %i4 + %g1 ], %g3
    3094:	84 06 80 1d 	add  %i2, %i5, %g2
    3098:	c6 28 80 01 	stb  %g3, [ %g2 + %g1 ]
    309c:	82 00 60 01 	inc  %g1
    30a0:	80 a0 40 04 	cmp  %g1, %g4
    30a4:	32 bf ff fd 	bne,a   3098 <core_init_state+0x44>
    30a8:	c6 0f 00 01 	ldub  [ %i4 + %g1 ], %g3
    30ac:	d6 2e 80 0f 	stb  %o3, [ %i2 + %o7 ]
    30b0:	ba 10 00 1b 	mov  %i3, %i5
    30b4:	b2 06 60 01 	inc  %i1
    30b8:	88 13 20 00 	mov  %o4, %g4
    30bc:	b9 2e 60 10 	sll  %i1, 0x10, %i4
    30c0:	b3 3f 20 10 	sra  %i4, 0x10, %i1
    30c4:	82 0e 60 07 	and  %i1, 7, %g1
    30c8:	83 28 60 02 	sll  %g1, 2, %g1
    30cc:	c2 01 00 01 	ld  [ %g4 + %g1 ], %g1
    30d0:	81 c0 40 00 	jmp  %g1
    30d4:	01 00 00 00 	nop 
    30d8:	84 12 a2 e0 	or  %o2, 0x2e0, %g2
    30dc:	83 36 60 01 	srl  %i1, 1, %g1
    30e0:	88 10 20 04 	mov  4, %g4
    30e4:	82 08 60 0c 	and  %g1, 0xc, %g1
    30e8:	10 80 00 13 	b  3134 <core_init_state+0xe0>
    30ec:	f8 00 80 01 	ld  [ %g2 + %g1 ], %i4
    30f0:	86 12 62 d0 	or  %o1, 0x2d0, %g3
    30f4:	83 36 60 01 	srl  %i1, 1, %g1
    30f8:	88 10 20 08 	mov  8, %g4
    30fc:	82 08 60 0c 	and  %g1, 0xc, %g1
    3100:	10 80 00 0d 	b  3134 <core_init_state+0xe0>
    3104:	f8 00 c0 01 	ld  [ %g3 + %g1 ], %i4
    3108:	b6 12 22 c0 	or  %o0, 0x2c0, %i3
    310c:	83 36 60 01 	srl  %i1, 1, %g1
    3110:	88 10 20 08 	mov  8, %g4
    3114:	82 08 60 0c 	and  %g1, 0xc, %g1
    3118:	10 80 00 07 	b  3134 <core_init_state+0xe0>
    311c:	f8 06 c0 01 	ld  [ %i3 + %g1 ], %i4
    3120:	b8 14 22 b0 	or  %l0, 0x2b0, %i4
    3124:	83 36 60 01 	srl  %i1, 1, %g1
    3128:	88 10 20 08 	mov  8, %g4
    312c:	82 08 60 0c 	and  %g1, 0xc, %g1
    3130:	f8 07 00 01 	ld  [ %i4 + %g1 ], %i4
    3134:	9e 07 40 04 	add  %i5, %g4, %o7
    3138:	b6 03 e0 01 	add  %o7, 1, %i3
    313c:	80 a3 40 1b 	cmp  %o5, %i3
    3140:	18 bf ff d1 	bgu  3084 <core_init_state+0x30>
    3144:	80 a1 20 00 	cmp  %g4, 0
    3148:	80 a6 00 1d 	cmp  %i0, %i5
    314c:	08 80 00 08 	bleu  316c <core_init_state+0x118>
    3150:	ba 06 80 1d 	add  %i2, %i5, %i5
    3154:	b4 06 80 18 	add  %i2, %i0, %i2
    3158:	c0 2f 40 00 	clrb  [ %i5 ]
    315c:	ba 07 60 01 	inc  %i5
    3160:	80 a7 40 1a 	cmp  %i5, %i2
    3164:	32 bf ff fe 	bne,a   315c <core_init_state+0x108>
    3168:	c0 2f 40 00 	clrb  [ %i5 ]
    316c:	81 c7 e0 08 	ret 
    3170:	81 e8 00 00 	restore 

00003174 <core_state_transition>:
    3174:	9d e3 bf a0 	save  %sp, -96, %sp
    3178:	c8 06 00 00 	ld  [ %i0 ], %g4
    317c:	fa 09 00 00 	ldub  [ %g4 ], %i5
    3180:	80 8f 60 ff 	btst  0xff, %i5
    3184:	02 80 00 96 	be  33dc <core_state_transition+0x268>
    3188:	a2 10 00 18 	mov  %i0, %l1
    318c:	82 0f 60 ff 	and  %i5, 0xff, %g1
    3190:	80 a0 60 2c 	cmp  %g1, 0x2c
    3194:	12 80 00 0d 	bne  31c8 <core_state_transition+0x54>
    3198:	b8 01 20 01 	add  %g4, 1, %i4
    319c:	10 80 00 09 	b  31c0 <core_state_transition+0x4c>
    31a0:	b0 10 20 00 	clr  %i0
    31a4:	82 0f 60 ff 	and  %i5, 0xff, %g1
    31a8:	b8 07 20 01 	inc  %i4
    31ac:	80 a0 60 2c 	cmp  %g1, 0x2c
    31b0:	12 80 00 09 	bne  31d4 <core_state_transition+0x60>
    31b4:	b6 06 e0 01 	inc  %i3
    31b8:	10 80 00 8a 	b  33e0 <core_state_transition+0x26c>
    31bc:	88 01 20 01 	inc  %g4
    31c0:	10 80 00 88 	b  33e0 <core_state_transition+0x26c>
    31c4:	88 01 20 01 	inc  %g4
    31c8:	b6 10 00 04 	mov  %g4, %i3
    31cc:	b0 10 20 00 	clr  %i0
    31d0:	21 00 00 0c 	sethi  %hi(0x3000), %l0
    31d4:	84 14 20 20 	or  %l0, 0x20, %g2	! 3020 <SW_trap_0xfe+0x40>
    31d8:	83 2e 20 02 	sll  %i0, 2, %g1
    31dc:	c2 00 80 01 	ld  [ %g2 + %g1 ], %g1
    31e0:	81 c0 40 00 	jmp  %g1
    31e4:	b4 10 00 1b 	mov  %i3, %i2
    31e8:	90 0f 60 ff 	and  %i5, 0xff, %o0
    31ec:	7f ff ff 95 	call  3040 <ee_isdigit>
    31f0:	b0 10 20 04 	mov  4, %i0
    31f4:	80 8a 20 ff 	btst  0xff, %o0
    31f8:	32 80 00 11 	bne,a   323c <core_state_transition+0xc8>
    31fc:	c2 06 40 00 	ld  [ %i1 ], %g1
    3200:	82 0f 60 ff 	and  %i5, 0xff, %g1
    3204:	80 a0 60 2d 	cmp  %g1, 0x2d
    3208:	22 80 00 0c 	be,a   3238 <core_state_transition+0xc4>
    320c:	b0 10 20 02 	mov  2, %i0
    3210:	80 a0 60 2b 	cmp  %g1, 0x2b
    3214:	22 80 00 09 	be,a   3238 <core_state_transition+0xc4>
    3218:	b0 10 20 02 	mov  2, %i0
    321c:	80 a0 60 2e 	cmp  %g1, 0x2e
    3220:	02 80 00 06 	be  3238 <core_state_transition+0xc4>
    3224:	b0 10 20 05 	mov  5, %i0
    3228:	c2 06 60 04 	ld  [ %i1 + 4 ], %g1
    322c:	b0 10 20 01 	mov  1, %i0
    3230:	82 00 60 01 	inc  %g1
    3234:	c2 26 60 04 	st  %g1, [ %i1 + 4 ]
    3238:	c2 06 40 00 	ld  [ %i1 ], %g1
    323c:	82 00 60 01 	inc  %g1
    3240:	10 80 00 5d 	b  33b4 <core_state_transition+0x240>
    3244:	c2 26 40 00 	st  %g1, [ %i1 ]
    3248:	7f ff ff 7e 	call  3040 <ee_isdigit>
    324c:	90 0f 60 ff 	and  %i5, 0xff, %o0
    3250:	80 8a 20 ff 	btst  0xff, %o0
    3254:	02 80 00 07 	be  3270 <core_state_transition+0xfc>
    3258:	86 0f 60 ff 	and  %i5, 0xff, %g3
    325c:	c2 06 60 08 	ld  [ %i1 + 8 ], %g1
    3260:	b0 10 20 04 	mov  4, %i0
    3264:	82 00 60 01 	inc  %g1
    3268:	10 80 00 64 	b  33f8 <core_state_transition+0x284>
    326c:	c2 26 60 08 	st  %g1, [ %i1 + 8 ]
    3270:	80 a0 e0 2e 	cmp  %g3, 0x2e
    3274:	12 80 00 06 	bne  328c <core_state_transition+0x118>
    3278:	c2 06 60 08 	ld  [ %i1 + 8 ], %g1
    327c:	b0 10 20 05 	mov  5, %i0
    3280:	82 00 60 01 	inc  %g1
    3284:	10 80 00 5d 	b  33f8 <core_state_transition+0x284>
    3288:	c2 26 60 08 	st  %g1, [ %i1 + 8 ]
    328c:	82 00 60 01 	inc  %g1
    3290:	10 80 00 57 	b  33ec <core_state_transition+0x278>
    3294:	c2 26 60 08 	st  %g1, [ %i1 + 8 ]
    3298:	82 0f 60 ff 	and  %i5, 0xff, %g1
    329c:	80 a0 60 2e 	cmp  %g1, 0x2e
    32a0:	12 80 00 07 	bne  32bc <core_state_transition+0x148>
    32a4:	01 00 00 00 	nop 
    32a8:	c2 06 60 10 	ld  [ %i1 + 0x10 ], %g1
    32ac:	b0 10 20 05 	mov  5, %i0
    32b0:	82 00 60 01 	inc  %g1
    32b4:	10 80 00 51 	b  33f8 <core_state_transition+0x284>
    32b8:	c2 26 60 10 	st  %g1, [ %i1 + 0x10 ]
    32bc:	7f ff ff 61 	call  3040 <ee_isdigit>
    32c0:	90 0f 60 ff 	and  %i5, 0xff, %o0
    32c4:	80 8a 20 ff 	btst  0xff, %o0
    32c8:	32 80 00 4d 	bne,a   33fc <core_state_transition+0x288>
    32cc:	fa 0e a0 01 	ldub  [ %i2 + 1 ], %i5
    32d0:	c2 06 60 10 	ld  [ %i1 + 0x10 ], %g1
    32d4:	82 00 60 01 	inc  %g1
    32d8:	10 80 00 45 	b  33ec <core_state_transition+0x278>
    32dc:	c2 26 60 10 	st  %g1, [ %i1 + 0x10 ]
    32e0:	82 0f 60 df 	and  %i5, 0xdf, %g1
    32e4:	80 a0 60 45 	cmp  %g1, 0x45
    32e8:	12 80 00 07 	bne  3304 <core_state_transition+0x190>
    32ec:	01 00 00 00 	nop 
    32f0:	c2 06 60 14 	ld  [ %i1 + 0x14 ], %g1
    32f4:	b0 10 20 03 	mov  3, %i0
    32f8:	82 00 60 01 	inc  %g1
    32fc:	10 80 00 3f 	b  33f8 <core_state_transition+0x284>
    3300:	c2 26 60 14 	st  %g1, [ %i1 + 0x14 ]
    3304:	7f ff ff 4f 	call  3040 <ee_isdigit>
    3308:	90 0f 60 ff 	and  %i5, 0xff, %o0
    330c:	80 8a 20 ff 	btst  0xff, %o0
    3310:	32 80 00 3b 	bne,a   33fc <core_state_transition+0x288>
    3314:	fa 0e a0 01 	ldub  [ %i2 + 1 ], %i5
    3318:	c2 06 60 14 	ld  [ %i1 + 0x14 ], %g1
    331c:	82 00 60 01 	inc  %g1
    3320:	10 80 00 33 	b  33ec <core_state_transition+0x278>
    3324:	c2 26 60 14 	st  %g1, [ %i1 + 0x14 ]
    3328:	82 0f 60 ff 	and  %i5, 0xff, %g1
    332c:	80 a0 60 2d 	cmp  %g1, 0x2d
    3330:	22 80 00 05 	be,a   3344 <core_state_transition+0x1d0>
    3334:	c2 06 60 0c 	ld  [ %i1 + 0xc ], %g1
    3338:	80 a0 60 2b 	cmp  %g1, 0x2b
    333c:	12 80 00 06 	bne  3354 <core_state_transition+0x1e0>
    3340:	c2 06 60 0c 	ld  [ %i1 + 0xc ], %g1
    3344:	b0 10 20 06 	mov  6, %i0
    3348:	82 00 60 01 	inc  %g1
    334c:	10 80 00 2b 	b  33f8 <core_state_transition+0x284>
    3350:	c2 26 60 0c 	st  %g1, [ %i1 + 0xc ]
    3354:	82 00 60 01 	inc  %g1
    3358:	10 80 00 25 	b  33ec <core_state_transition+0x278>
    335c:	c2 26 60 0c 	st  %g1, [ %i1 + 0xc ]
    3360:	7f ff ff 38 	call  3040 <ee_isdigit>
    3364:	90 0f 60 ff 	and  %i5, 0xff, %o0
    3368:	80 8a 20 ff 	btst  0xff, %o0
    336c:	02 80 00 06 	be  3384 <core_state_transition+0x210>
    3370:	c2 06 60 18 	ld  [ %i1 + 0x18 ], %g1
    3374:	b0 10 20 07 	mov  7, %i0
    3378:	82 00 60 01 	inc  %g1
    337c:	10 80 00 1f 	b  33f8 <core_state_transition+0x284>
    3380:	c2 26 60 18 	st  %g1, [ %i1 + 0x18 ]
    3384:	82 00 60 01 	inc  %g1
    3388:	10 80 00 19 	b  33ec <core_state_transition+0x278>
    338c:	c2 26 60 18 	st  %g1, [ %i1 + 0x18 ]
    3390:	7f ff ff 2c 	call  3040 <ee_isdigit>
    3394:	90 0f 60 ff 	and  %i5, 0xff, %o0
    3398:	80 8a 20 ff 	btst  0xff, %o0
    339c:	32 80 00 18 	bne,a   33fc <core_state_transition+0x288>
    33a0:	fa 0e a0 01 	ldub  [ %i2 + 1 ], %i5
    33a4:	c2 06 60 04 	ld  [ %i1 + 4 ], %g1
    33a8:	82 00 60 01 	inc  %g1
    33ac:	10 80 00 10 	b  33ec <core_state_transition+0x278>
    33b0:	c2 26 60 04 	st  %g1, [ %i1 + 4 ]
    33b4:	fa 0e a0 01 	ldub  [ %i2 + 1 ], %i5
    33b8:	80 8f 60 ff 	btst  0xff, %i5
    33bc:	02 80 00 09 	be  33e0 <core_state_transition+0x26c>
    33c0:	88 10 00 1c 	mov  %i4, %g4
    33c4:	80 a6 20 01 	cmp  %i0, 1
    33c8:	12 bf ff 78 	bne  31a8 <core_state_transition+0x34>
    33cc:	82 0f 60 ff 	and  %i5, 0xff, %g1
    33d0:	c8 24 40 00 	st  %g4, [ %l1 ]
    33d4:	81 c7 e0 08 	ret 
    33d8:	81 e8 00 00 	restore 
    33dc:	b0 10 20 00 	clr  %i0
    33e0:	c8 24 40 00 	st  %g4, [ %l1 ]
    33e4:	81 c7 e0 08 	ret 
    33e8:	81 e8 00 00 	restore 
    33ec:	88 06 a0 01 	add  %i2, 1, %g4
    33f0:	10 bf ff fc 	b  33e0 <core_state_transition+0x26c>
    33f4:	b0 10 20 01 	mov  1, %i0
    33f8:	fa 0e a0 01 	ldub  [ %i2 + 1 ], %i5
    33fc:	80 8f 60 ff 	btst  0xff, %i5
    3400:	12 bf ff 69 	bne  31a4 <core_state_transition+0x30>
    3404:	88 10 00 1c 	mov  %i4, %g4
    3408:	c8 24 40 00 	st  %g4, [ %l1 ]
    340c:	81 c7 e0 08 	ret 
    3410:	81 e8 00 00 	restore 

00003414 <core_bench_state>:
    3414:	9d e3 bf 58 	save  %sp, -168, %sp
    3418:	82 10 20 00 	clr  %g1
    341c:	f2 27 bf bc 	st  %i1, [ %fp + -68 ]
    3420:	84 07 bf c0 	add  %fp, -64, %g2
    3424:	86 07 bf e0 	add  %fp, -32, %g3
    3428:	c0 20 40 02 	clr  [ %g1 + %g2 ]
    342c:	c0 20 40 03 	clr  [ %g1 + %g3 ]
    3430:	82 00 60 04 	add  %g1, 4, %g1
    3434:	80 a0 60 20 	cmp  %g1, 0x20
    3438:	32 bf ff fd 	bne,a   342c <core_bench_state+0x18>
    343c:	c0 20 40 02 	clr  [ %g1 + %g2 ]
    3440:	c2 07 bf bc 	ld  [ %fp + -68 ], %g1
    3444:	c2 08 40 00 	ldub  [ %g1 ], %g1
    3448:	80 a0 60 00 	cmp  %g1, 0
    344c:	02 80 00 10 	be  348c <core_bench_state+0x78>
    3450:	a0 06 40 18 	add  %i1, %i0, %l0
    3454:	92 07 bf c0 	add  %fp, -64, %o1
    3458:	7f ff ff 47 	call  3174 <core_state_transition>
    345c:	90 07 bf bc 	add  %fp, -68, %o0
    3460:	91 2a 20 02 	sll  %o0, 2, %o0
    3464:	82 07 80 08 	add  %fp, %o0, %g1
    3468:	c8 00 7f e0 	ld  [ %g1 + -32 ], %g4
    346c:	92 01 20 01 	add  %g4, 1, %o1
    3470:	d2 20 7f e0 	st  %o1, [ %g1 + -32 ]
    3474:	c2 07 bf bc 	ld  [ %fp + -68 ], %g1
    3478:	c2 08 40 00 	ldub  [ %g1 ], %g1
    347c:	80 a0 60 00 	cmp  %g1, 0
    3480:	12 bf ff f6 	bne  3458 <core_bench_state+0x44>
    3484:	92 07 bf c0 	add  %fp, -64, %o1
    3488:	a0 06 40 18 	add  %i1, %i0, %l0
    348c:	80 a6 40 10 	cmp  %i1, %l0
    3490:	1a 80 00 0e 	bcc  34c8 <core_bench_state+0xb4>
    3494:	f2 27 bf bc 	st  %i1, [ %fp + -68 ]
    3498:	82 10 00 19 	mov  %i1, %g1
    349c:	d4 08 40 00 	ldub  [ %g1 ], %o2
    34a0:	96 0a a0 ff 	and  %o2, 0xff, %o3
    34a4:	80 a2 e0 2c 	cmp  %o3, 0x2c
    34a8:	02 80 00 03 	be  34b4 <core_bench_state+0xa0>
    34ac:	98 1a 80 1a 	xor  %o2, %i2, %o4
    34b0:	d8 28 40 00 	stb  %o4, [ %g1 ]
    34b4:	c2 07 bf bc 	ld  [ %fp + -68 ], %g1
    34b8:	82 00 40 1c 	add  %g1, %i4, %g1
    34bc:	80 a0 40 10 	cmp  %g1, %l0
    34c0:	0a bf ff f7 	bcs  349c <core_bench_state+0x88>
    34c4:	c2 27 bf bc 	st  %g1, [ %fp + -68 ]
    34c8:	f2 27 bf bc 	st  %i1, [ %fp + -68 ]
    34cc:	c2 0e 40 00 	ldub  [ %i1 ], %g1
    34d0:	80 a0 60 00 	cmp  %g1, 0
    34d4:	02 80 00 10 	be  3514 <core_bench_state+0x100>
    34d8:	80 a6 40 10 	cmp  %i1, %l0
    34dc:	90 07 bf bc 	add  %fp, -68, %o0
    34e0:	7f ff ff 25 	call  3174 <core_state_transition>
    34e4:	92 07 bf c0 	add  %fp, -64, %o1
    34e8:	9b 2a 20 02 	sll  %o0, 2, %o5
    34ec:	82 07 80 0d 	add  %fp, %o5, %g1
    34f0:	f0 00 7f e0 	ld  [ %g1 + -32 ], %i0
    34f4:	b4 06 20 01 	add  %i0, 1, %i2
    34f8:	f4 20 7f e0 	st  %i2, [ %g1 + -32 ]
    34fc:	c2 07 bf bc 	ld  [ %fp + -68 ], %g1
    3500:	c2 08 40 00 	ldub  [ %g1 ], %g1
    3504:	80 a0 60 00 	cmp  %g1, 0
    3508:	12 bf ff f6 	bne  34e0 <core_bench_state+0xcc>
    350c:	90 07 bf bc 	add  %fp, -68, %o0
    3510:	80 a6 40 10 	cmp  %i1, %l0
    3514:	1a 80 00 1d 	bcc  3588 <core_bench_state+0x174>
    3518:	f2 27 bf bc 	st  %i1, [ %fp + -68 ]
    351c:	c2 0e 40 00 	ldub  [ %i1 ], %g1
    3520:	9e 08 60 ff 	and  %g1, 0xff, %o7
    3524:	80 a3 e0 2c 	cmp  %o7, 0x2c
    3528:	02 80 00 03 	be  3534 <core_bench_state+0x120>
    352c:	82 18 40 1b 	xor  %g1, %i3, %g1
    3530:	c2 2e 40 00 	stb  %g1, [ %i1 ]
    3534:	f2 07 bf bc 	ld  [ %fp + -68 ], %i1
    3538:	b2 06 40 1c 	add  %i1, %i4, %i1
    353c:	80 a6 40 10 	cmp  %i1, %l0
    3540:	0a bf ff f7 	bcs  351c <core_bench_state+0x108>
    3544:	f2 27 bf bc 	st  %i1, [ %fp + -68 ]
    3548:	10 80 00 02 	b  3550 <core_bench_state+0x13c>
    354c:	b8 10 20 00 	clr  %i4
    3550:	82 07 bf e0 	add  %fp, -32, %g1
    3554:	92 10 00 1d 	mov  %i5, %o1
    3558:	40 00 0d 5e 	call  6ad0 <crcu32>
    355c:	d0 07 00 01 	ld  [ %i4 + %g1 ], %o0
    3560:	82 07 bf c0 	add  %fp, -64, %g1
    3564:	92 10 00 08 	mov  %o0, %o1
    3568:	40 00 0d 5a 	call  6ad0 <crcu32>
    356c:	d0 07 00 01 	ld  [ %i4 + %g1 ], %o0
    3570:	b8 07 20 04 	add  %i4, 4, %i4
    3574:	80 a7 20 20 	cmp  %i4, 0x20
    3578:	12 bf ff f6 	bne  3550 <core_bench_state+0x13c>
    357c:	ba 10 00 08 	mov  %o0, %i5
    3580:	81 c7 e0 08 	ret 
    3584:	91 e8 00 08 	restore  %g0, %o0, %o0
    3588:	10 bf ff f2 	b  3550 <core_bench_state+0x13c>
    358c:	b8 10 20 00 	clr  %i4

00003590 <__modf>:
    3590:	9c 03 bf b0 	add  %sp, -80, %sp
    3594:	d0 3b a0 48 	std  %o0, [ %sp + 0x48 ]
    3598:	c1 1b a0 48 	ldd  [ %sp + 0x48 ], %f0
    359c:	9c 23 bf b0 	sub  %sp, -80, %sp
    35a0:	91 a0 1a 40 	fdtoi  %f0, %f8
    35a4:	85 a0 19 08 	fitod  %f8, %f2
    35a8:	81 a0 08 c2 	fsubd  %f0, %f2, %f0
    35ac:	81 c3 e0 08 	retl 
    35b0:	c5 3a 80 00 	std  %f2, [ %o2 ]

000035b4 <cvt>:
    35b4:	9d e3 bf 70 	save  %sp, -144, %sp
    35b8:	f0 3f bf d8 	std  %i0, [ %fp + -40 ]
    35bc:	82 38 00 1a 	xnor  %g0, %i2, %g1
    35c0:	d1 1f bf d8 	ldd  [ %fp + -40 ], %f8
    35c4:	83 38 60 1f 	sra  %g1, 0x1f, %g1
    35c8:	f0 07 a0 5c 	ld  [ %fp + 0x5c ], %i0
    35cc:	b4 0e 80 01 	and  %i2, %g1, %i2
    35d0:	80 a6 a0 4e 	cmp  %i2, 0x4e
    35d4:	04 80 00 03 	ble  35e0 <cvt+0x2c>
    35d8:	a4 10 00 1a 	mov  %i2, %l2
    35dc:	a4 10 20 4e 	mov  0x4e, %l2
    35e0:	03 00 00 81 	sethi  %hi(0x20400), %g1
    35e4:	d5 18 62 78 	ldd  [ %g1 + 0x278 ], %f10	! 20678 <state_known_crc+0x664>
    35e8:	81 aa 0a ca 	fcmped  %f8, %f10
    35ec:	01 00 00 00 	nop 
    35f0:	09 80 00 04 	fbl  3600 <cvt+0x4c>
    35f4:	82 10 20 01 	mov  1, %g1	! 1 <_start+0x1>
    35f8:	10 80 00 04 	b  3608 <cvt+0x54>
    35fc:	c0 27 00 00 	clr  [ %i4 ]
    3600:	91 a0 00 a8 	fnegs  %f8, %f8
    3604:	c2 27 00 00 	st  %g1, [ %i4 ]
    3608:	d1 3f bf d8 	std  %f8, [ %fp + -40 ]
    360c:	94 07 bf f8 	add  %fp, -8, %o2
    3610:	7f ff ff e0 	call  3590 <__modf>
    3614:	d0 1f bf d8 	ldd  [ %fp + -40 ], %o0
    3618:	c1 3f bf e8 	std  %f0, [ %fp + -24 ]
    361c:	f5 1f bf f8 	ldd  [ %fp + -8 ], %f26
    3620:	03 00 00 81 	sethi  %hi(0x20400), %g1
    3624:	c1 18 62 78 	ldd  [ %g1 + 0x278 ], %f0	! 20678 <state_known_crc+0x664>
    3628:	81 ae 8a 40 	fcmpd  %f26, %f0
    362c:	01 00 00 00 	nop 
    3630:	13 80 00 2e 	fbe  36e8 <cvt+0x134>
    3634:	c9 1f bf e8 	ldd  [ %fp + -24 ], %f4
    3638:	b4 07 60 50 	add  %i5, 0x50, %i2
    363c:	a0 10 20 00 	clr  %l0
    3640:	b2 10 00 1a 	mov  %i2, %i1
    3644:	23 00 00 81 	sethi  %hi(0x20400), %l1
    3648:	b8 10 00 01 	mov  %g1, %i4
    364c:	03 00 00 81 	sethi  %hi(0x20400), %g1
    3650:	e1 18 62 80 	ldd  [ %g1 + 0x280 ], %f16	! 20680 <state_known_crc+0x66c>
    3654:	a5 a6 89 d0 	fdivd  %f26, %f16, %f18
    3658:	94 07 bf f8 	add  %fp, -8, %o2
    365c:	e5 3f bf d8 	std  %f18, [ %fp + -40 ]
    3660:	7f ff ff cc 	call  3590 <__modf>
    3664:	d0 1f bf d8 	ldd  [ %fp + -40 ], %o0
    3668:	03 00 00 81 	sethi  %hi(0x20400), %g1
    366c:	e9 1c 62 88 	ldd  [ %l1 + 0x288 ], %f20
    3670:	f1 18 62 80 	ldd  [ %g1 + 0x280 ], %f24
    3674:	c1 3f bf f0 	std  %f0, [ %fp + -16 ]
    3678:	ad a0 08 54 	faddd  %f0, %f20, %f22
    367c:	81 a5 89 58 	fmuld  %f22, %f24, %f0
    3680:	83 a0 1a 40 	fdtoi  %f0, %f1
    3684:	c3 27 bf d4 	st  %f1, [ %fp + -44 ]
    3688:	b2 06 7f ff 	add  %i1, -1, %i1
    368c:	c4 07 bf d4 	ld  [ %fp + -44 ], %g2
    3690:	82 00 a0 30 	add  %g2, 0x30, %g1
    3694:	c2 2e 40 00 	stb  %g1, [ %i1 ]
    3698:	f5 1f bf f8 	ldd  [ %fp + -8 ], %f26
    369c:	f9 1f 22 78 	ldd  [ %i4 + 0x278 ], %f28
    36a0:	81 ae 8a 5c 	fcmpd  %f26, %f28
    36a4:	01 00 00 00 	nop 
    36a8:	03 bf ff e9 	fbne  364c <cvt+0x98>
    36ac:	a0 04 20 01 	inc  %l0
    36b0:	80 a6 80 19 	cmp  %i2, %i1
    36b4:	08 80 00 31 	bleu  3778 <cvt+0x1c4>
    36b8:	a2 10 00 1d 	mov  %i5, %l1
    36bc:	86 07 60 50 	add  %i5, 0x50, %g3
    36c0:	82 10 20 00 	clr  %g1
    36c4:	88 20 c0 19 	sub  %g3, %i1, %g4
    36c8:	d0 0e 40 01 	ldub  [ %i1 + %g1 ], %o0
    36cc:	d0 2f 40 01 	stb  %o0, [ %i5 + %g1 ]
    36d0:	82 00 60 01 	inc  %g1
    36d4:	80 a0 40 04 	cmp  %g1, %g4
    36d8:	32 bf ff fd 	bne,a   36cc <cvt+0x118>
    36dc:	d0 0e 40 01 	ldub  [ %i1 + %g1 ], %o0
    36e0:	10 80 00 26 	b  3778 <cvt+0x1c4>
    36e4:	a2 07 40 04 	add  %i5, %g4, %l1
    36e8:	c5 18 62 78 	ldd  [ %g1 + 0x278 ], %f2
    36ec:	81 a9 0a c2 	fcmped  %f4, %f2
    36f0:	01 00 00 00 	nop 
    36f4:	1d 80 00 1d 	fbule  3768 <cvt+0x1b4>
    36f8:	01 00 00 00 	nop 
    36fc:	03 00 00 81 	sethi  %hi(0x20400), %g1
    3700:	d9 1f bf e8 	ldd  [ %fp + -24 ], %f12
    3704:	cd 18 62 80 	ldd  [ %g1 + 0x280 ], %f6
    3708:	95 a3 09 46 	fmuld  %f12, %f6, %f10
    370c:	d5 3f bf f0 	std  %f10, [ %fp + -16 ]
    3710:	dd 18 62 80 	ldd  [ %g1 + 0x280 ], %f14
    3714:	03 00 00 81 	sethi  %hi(0x20400), %g1
    3718:	d9 18 62 90 	ldd  [ %g1 + 0x290 ], %f12	! 20690 <state_known_crc+0x67c>
    371c:	91 a0 00 2c 	fmovs  %f12, %f8
    3720:	93 a0 00 2d 	fmovs  %f13, %f9
    3724:	81 aa 8a c8 	fcmped  %f10, %f8
    3728:	01 00 00 00 	nop 
    372c:	09 80 00 06 	fbl  3744 <cvt+0x190>
    3730:	a0 10 20 00 	clr  %l0	! 0 <_start>
    3734:	10 80 00 10 	b  3774 <cvt+0x1c0>
    3738:	a2 10 00 1d 	mov  %i5, %l1
    373c:	95 a0 00 28 	fmovs  %f8, %f10
    3740:	97 a0 00 29 	fmovs  %f9, %f11
    3744:	91 a2 89 4e 	fmuld  %f10, %f14, %f8
    3748:	81 aa 0a cc 	fcmped  %f8, %f12
    374c:	01 00 00 00 	nop 
    3750:	09 bf ff fb 	fbl  373c <cvt+0x188>
    3754:	a0 04 3f ff 	add  %l0, -1, %l0
    3758:	d1 3f bf f0 	std  %f8, [ %fp + -16 ]
    375c:	a2 10 00 1d 	mov  %i5, %l1
    3760:	10 80 00 06 	b  3778 <cvt+0x1c4>
    3764:	d5 3f bf e8 	std  %f10, [ %fp + -24 ]
    3768:	a2 10 00 1d 	mov  %i5, %l1
    376c:	10 80 00 03 	b  3778 <cvt+0x1c4>
    3770:	a0 10 20 00 	clr  %l0
    3774:	a0 10 20 00 	clr  %l0
    3778:	80 a6 20 00 	cmp  %i0, 0
    377c:	12 80 00 03 	bne  3788 <cvt+0x1d4>
    3780:	a4 07 40 12 	add  %i5, %l2, %l2
    3784:	a4 04 80 10 	add  %l2, %l0, %l2
    3788:	80 a4 80 1d 	cmp  %l2, %i5
    378c:	0a 80 00 0c 	bcs  37bc <cvt+0x208>
    3790:	e0 26 c0 00 	st  %l0, [ %i3 ]
    3794:	80 a4 40 12 	cmp  %l1, %l2
    3798:	18 80 00 1f 	bgu  3814 <cvt+0x260>
    379c:	03 00 00 81 	sethi  %hi(0x20400), %g1
    37a0:	fd 18 62 80 	ldd  [ %g1 + 0x280 ], %f30	! 20680 <state_known_crc+0x66c>
    37a4:	a0 07 60 50 	add  %i5, 0x50, %l0
    37a8:	80 a4 40 10 	cmp  %l1, %l0
    37ac:	0a 80 00 06 	bcs  37c4 <cvt+0x210>
    37b0:	fd 3f bf e0 	std  %f30, [ %fp + -32 ]
    37b4:	10 80 00 19 	b  3818 <cvt+0x264>
    37b8:	82 07 60 50 	add  %i5, 0x50, %g1
    37bc:	10 80 00 38 	b  389c <cvt+0x2e8>
    37c0:	c0 2f 40 00 	clrb  [ %i5 ]
    37c4:	d5 1f bf e0 	ldd  [ %fp + -32 ], %f10
    37c8:	d1 1f bf e8 	ldd  [ %fp + -24 ], %f8
    37cc:	81 a2 09 4a 	fmuld  %f8, %f10, %f0
    37d0:	94 07 bf f0 	add  %fp, -16, %o2
    37d4:	c1 3f bf d8 	std  %f0, [ %fp + -40 ]
    37d8:	7f ff ff 6e 	call  3590 <__modf>
    37dc:	d0 1f bf d8 	ldd  [ %fp + -40 ], %o0
    37e0:	c5 1f bf f0 	ldd  [ %fp + -16 ], %f2
    37e4:	97 a0 1a 42 	fdtoi  %f2, %f11
    37e8:	d7 27 bf d4 	st  %f11, [ %fp + -44 ]
    37ec:	c1 3f bf e8 	std  %f0, [ %fp + -24 ]
    37f0:	c2 07 bf d4 	ld  [ %fp + -44 ], %g1
    37f4:	82 00 60 30 	add  %g1, 0x30, %g1
    37f8:	c2 2c 40 00 	stb  %g1, [ %l1 ]
    37fc:	a2 04 60 01 	inc  %l1
    3800:	80 a4 80 11 	cmp  %l2, %l1
    3804:	0a 80 00 04 	bcs  3814 <cvt+0x260>
    3808:	80 a4 40 10 	cmp  %l1, %l0
    380c:	12 bf ff ef 	bne  37c8 <cvt+0x214>
    3810:	d5 1f bf e0 	ldd  [ %fp + -32 ], %f10
    3814:	82 07 60 50 	add  %i5, 0x50, %g1
    3818:	80 a4 80 01 	cmp  %l2, %g1
    381c:	2a 80 00 04 	bcs,a   382c <cvt+0x278>
    3820:	c2 0c 80 00 	ldub  [ %l2 ], %g1
    3824:	10 80 00 1e 	b  389c <cvt+0x2e8>
    3828:	c0 2f 60 4f 	clrb  [ %i5 + 0x4f ]
    382c:	96 10 00 12 	mov  %l2, %o3
    3830:	82 00 60 05 	add  %g1, 5, %g1
    3834:	92 10 20 30 	mov  0x30, %o1
    3838:	c2 2c 80 00 	stb  %g1, [ %l2 ]
    383c:	10 80 00 13 	b  3888 <cvt+0x2d4>
    3840:	94 10 20 31 	mov  0x31, %o2
    3844:	08 80 00 07 	bleu  3860 <cvt+0x2ac>
    3848:	d2 2c 80 00 	stb  %o1, [ %l2 ]
    384c:	c2 0c bf ff 	ldub  [ %l2 + -1 ], %g1
    3850:	82 00 60 01 	inc  %g1
    3854:	c2 2c bf ff 	stb  %g1, [ %l2 + -1 ]
    3858:	10 80 00 0c 	b  3888 <cvt+0x2d4>
    385c:	a4 04 bf ff 	add  %l2, -1, %l2
    3860:	d4 2c 80 00 	stb  %o2, [ %l2 ]
    3864:	c2 06 c0 00 	ld  [ %i3 ], %g1
    3868:	82 00 60 01 	inc  %g1
    386c:	80 a6 20 00 	cmp  %i0, 0
    3870:	12 80 00 06 	bne  3888 <cvt+0x2d4>
    3874:	c2 26 c0 00 	st  %g1, [ %i3 ]
    3878:	80 a2 c0 1d 	cmp  %o3, %i5
    387c:	38 80 00 02 	bgu,a   3884 <cvt+0x2d0>
    3880:	d2 2a c0 00 	stb  %o1, [ %o3 ]
    3884:	96 02 e0 01 	inc  %o3
    3888:	c2 4c 80 00 	ldsb  [ %l2 ], %g1
    388c:	80 a0 60 39 	cmp  %g1, 0x39
    3890:	14 bf ff ed 	bg  3844 <cvt+0x290>
    3894:	80 a4 80 1d 	cmp  %l2, %i5
    3898:	c0 2a c0 00 	clrb  [ %o3 ]
    389c:	81 c7 e0 08 	ret 
    38a0:	91 e8 00 1d 	restore  %g0, %i5, %o0

000038a4 <ecvt>:
    38a4:	9d e3 bf 98 	save  %sp, -104, %sp
    38a8:	82 10 20 01 	mov  1, %g1
    38ac:	90 10 00 18 	mov  %i0, %o0
    38b0:	92 10 00 19 	mov  %i1, %o1
    38b4:	c2 23 a0 5c 	st  %g1, [ %sp + 0x5c ]
    38b8:	94 10 00 1a 	mov  %i2, %o2
    38bc:	96 10 00 1b 	mov  %i3, %o3
    38c0:	98 10 00 1c 	mov  %i4, %o4
    38c4:	1b 00 00 81 	sethi  %hi(0x20400), %o5
    38c8:	7f ff ff 3b 	call  35b4 <cvt>
    38cc:	9a 13 63 10 	or  %o5, 0x310, %o5	! 20710 <CVTBUF>
    38d0:	81 c7 e0 08 	ret 
    38d4:	91 e8 00 08 	restore  %g0, %o0, %o0

000038d8 <ecvtbuf>:
    38d8:	9d e3 bf 98 	save  %sp, -104, %sp
    38dc:	82 10 20 01 	mov  1, %g1
    38e0:	90 10 00 18 	mov  %i0, %o0
    38e4:	92 10 00 19 	mov  %i1, %o1
    38e8:	c2 23 a0 5c 	st  %g1, [ %sp + 0x5c ]
    38ec:	94 10 00 1a 	mov  %i2, %o2
    38f0:	96 10 00 1b 	mov  %i3, %o3
    38f4:	98 10 00 1c 	mov  %i4, %o4
    38f8:	7f ff ff 2f 	call  35b4 <cvt>
    38fc:	9a 10 00 1d 	mov  %i5, %o5
    3900:	81 c7 e0 08 	ret 
    3904:	91 e8 00 08 	restore  %g0, %o0, %o0

00003908 <fcvt>:
    3908:	9d e3 bf 98 	save  %sp, -104, %sp
    390c:	1b 00 00 81 	sethi  %hi(0x20400), %o5
    3910:	c0 23 a0 5c 	clr  [ %sp + 0x5c ]
    3914:	90 10 00 18 	mov  %i0, %o0
    3918:	92 10 00 19 	mov  %i1, %o1
    391c:	94 10 00 1a 	mov  %i2, %o2
    3920:	96 10 00 1b 	mov  %i3, %o3
    3924:	98 10 00 1c 	mov  %i4, %o4
    3928:	7f ff ff 23 	call  35b4 <cvt>
    392c:	9a 13 63 10 	or  %o5, 0x310, %o5
    3930:	81 c7 e0 08 	ret 
    3934:	91 e8 00 08 	restore  %g0, %o0, %o0

00003938 <fcvtbuf>:
    3938:	9d e3 bf 98 	save  %sp, -104, %sp
    393c:	c0 23 a0 5c 	clr  [ %sp + 0x5c ]
    3940:	90 10 00 18 	mov  %i0, %o0
    3944:	92 10 00 19 	mov  %i1, %o1
    3948:	94 10 00 1a 	mov  %i2, %o2
    394c:	96 10 00 1b 	mov  %i3, %o3
    3950:	98 10 00 1c 	mov  %i4, %o4
    3954:	7f ff ff 18 	call  35b4 <cvt>
    3958:	9a 10 00 1d 	mov  %i5, %o5
    395c:	81 c7 e0 08 	ret 
    3960:	91 e8 00 08 	restore  %g0, %o0, %o0
    3964:	00 00 41 b4 	unimp  0x41b4
    3968:	00 00 48 24 	unimp  0x4824
    396c:	00 00 48 24 	unimp  0x4824
    3970:	00 00 48 24 	unimp  0x4824
    3974:	00 00 48 24 	unimp  0x4824
    3978:	00 00 48 24 	unimp  0x4824
    397c:	00 00 48 24 	unimp  0x4824
    3980:	00 00 48 24 	unimp  0x4824
    3984:	00 00 48 24 	unimp  0x4824
    3988:	00 00 48 24 	unimp  0x4824
    398c:	00 00 48 24 	unimp  0x4824
    3990:	00 00 48 24 	unimp  0x4824
    3994:	00 00 48 24 	unimp  0x4824
    3998:	00 00 48 24 	unimp  0x4824
    399c:	00 00 48 24 	unimp  0x4824
    39a0:	00 00 48 24 	unimp  0x4824
    39a4:	00 00 48 24 	unimp  0x4824
    39a8:	00 00 48 24 	unimp  0x4824
    39ac:	00 00 48 24 	unimp  0x4824
    39b0:	00 00 48 24 	unimp  0x4824
    39b4:	00 00 48 24 	unimp  0x4824
    39b8:	00 00 48 24 	unimp  0x4824
    39bc:	00 00 48 24 	unimp  0x4824
    39c0:	00 00 44 bc 	unimp  0x44bc
    39c4:	00 00 48 24 	unimp  0x4824
    39c8:	00 00 48 24 	unimp  0x4824
    39cc:	00 00 48 24 	unimp  0x4824
    39d0:	00 00 48 24 	unimp  0x4824
    39d4:	00 00 48 24 	unimp  0x4824
    39d8:	00 00 48 24 	unimp  0x4824
    39dc:	00 00 48 24 	unimp  0x4824
    39e0:	00 00 48 24 	unimp  0x4824
    39e4:	00 00 41 b8 	unimp  0x41b8
    39e8:	00 00 48 24 	unimp  0x4824
    39ec:	00 00 40 18 	unimp  0x4018
    39f0:	00 00 44 c8 	unimp  0x44c8
    39f4:	00 00 48 24 	unimp  0x4824
    39f8:	00 00 44 d4 	unimp  0x44d4
    39fc:	00 00 48 24 	unimp  0x4824
    3a00:	00 00 48 24 	unimp  0x4824
    3a04:	00 00 44 c8 	unimp  0x44c8
    3a08:	00 00 48 24 	unimp  0x4824
    3a0c:	00 00 48 24 	unimp  0x4824
    3a10:	00 00 48 24 	unimp  0x4824
    3a14:	00 00 48 24 	unimp  0x4824
    3a18:	00 00 48 24 	unimp  0x4824
    3a1c:	00 00 44 b4 	unimp  0x44b4
    3a20:	00 00 41 7c 	unimp  0x417c
    3a24:	00 00 48 24 	unimp  0x4824
    3a28:	00 00 48 24 	unimp  0x4824
    3a2c:	00 00 40 b0 	unimp  0x40b0
    3a30:	00 00 48 24 	unimp  0x4824
    3a34:	00 00 48 6c 	unimp  0x486c
    3a38:	00 00 48 24 	unimp  0x4824
    3a3c:	00 00 48 24 	unimp  0x4824
    3a40:	00 00 48 74 	unimp  0x4874
    3a44:	00 00 3e d8 	unimp  0x3ed8
    3a48:	00 00 3e f0 	unimp  0x3ef0
    3a4c:	00 00 3e f0 	unimp  0x3ef0
    3a50:	00 00 3e e0 	unimp  0x3ee0
    3a54:	00 00 3e f0 	unimp  0x3ef0
    3a58:	00 00 3e f0 	unimp  0x3ef0
    3a5c:	00 00 3e f0 	unimp  0x3ef0
    3a60:	00 00 3e f0 	unimp  0x3ef0
    3a64:	00 00 3e f0 	unimp  0x3ef0
    3a68:	00 00 3e f0 	unimp  0x3ef0
    3a6c:	00 00 3e f0 	unimp  0x3ef0
    3a70:	00 00 3e d0 	unimp  0x3ed0
    3a74:	00 00 3e f0 	unimp  0x3ef0
    3a78:	00 00 3e c8 	unimp  0x3ec8
    3a7c:	00 00 3e f0 	unimp  0x3ef0
    3a80:	00 00 3e f0 	unimp  0x3ef0
    3a84:	00 00 3e e8 	unimp  0x3ee8

00003a88 <strnlen>:
    3a88:	c2 4a 00 00 	ldsb  [ %o0 ], %g1
    3a8c:	80 a0 60 00 	cmp  %g1, 0
    3a90:	02 80 00 0d 	be  3ac4 <strnlen+0x3c>
    3a94:	80 a2 60 00 	cmp  %o1, 0
    3a98:	02 80 00 0c 	be  3ac8 <strnlen+0x40>
    3a9c:	82 10 00 08 	mov  %o0, %g1
    3aa0:	82 00 60 01 	inc  %g1
    3aa4:	c4 48 40 00 	ldsb  [ %g1 ], %g2
    3aa8:	80 a0 a0 00 	cmp  %g2, 0
    3aac:	02 80 00 07 	be  3ac8 <strnlen+0x40>
    3ab0:	92 82 7f ff 	addcc  %o1, -1, %o1
    3ab4:	32 bf ff fc 	bne,a   3aa4 <strnlen+0x1c>
    3ab8:	82 00 60 01 	inc  %g1
    3abc:	81 c3 e0 08 	retl 
    3ac0:	90 20 40 08 	sub  %g1, %o0, %o0
    3ac4:	82 10 00 08 	mov  %o0, %g1
    3ac8:	90 20 40 08 	sub  %g1, %o0, %o0
    3acc:	81 c3 e0 08 	retl 
    3ad0:	01 00 00 00 	nop 

00003ad4 <skip_atoi>:
    3ad4:	c4 02 00 00 	ld  [ %o0 ], %g2
    3ad8:	c6 08 80 00 	ldub  [ %g2 ], %g3
    3adc:	82 00 ff d0 	add  %g3, -48, %g1
    3ae0:	82 08 60 ff 	and  %g1, 0xff, %g1
    3ae4:	80 a0 60 09 	cmp  %g1, 9
    3ae8:	18 80 00 13 	bgu  3b34 <skip_atoi+0x60>
    3aec:	84 00 a0 01 	inc  %g2
    3af0:	82 10 20 00 	clr  %g1
    3af4:	88 00 40 01 	add  %g1, %g1, %g4
    3af8:	c4 22 00 00 	st  %g2, [ %o0 ]
    3afc:	9b 28 e0 18 	sll  %g3, 0x18, %o5
    3b00:	9b 3b 60 18 	sra  %o5, 0x18, %o5
    3b04:	c6 08 80 00 	ldub  [ %g2 ], %g3
    3b08:	83 28 60 03 	sll  %g1, 3, %g1
    3b0c:	84 00 a0 01 	inc  %g2
    3b10:	82 01 00 01 	add  %g4, %g1, %g1
    3b14:	88 00 ff d0 	add  %g3, -48, %g4
    3b18:	82 00 40 0d 	add  %g1, %o5, %g1
    3b1c:	9a 09 20 ff 	and  %g4, 0xff, %o5
    3b20:	80 a3 60 09 	cmp  %o5, 9
    3b24:	08 bf ff f4 	bleu  3af4 <skip_atoi+0x20>
    3b28:	82 00 7f d0 	add  %g1, -48, %g1
    3b2c:	81 c3 e0 08 	retl 
    3b30:	90 10 00 01 	mov  %g1, %o0
    3b34:	82 10 20 00 	clr  %g1
    3b38:	90 10 00 01 	mov  %g1, %o0
    3b3c:	81 c3 e0 08 	retl 
    3b40:	01 00 00 00 	nop 

00003b44 <number>:
    3b44:	9d e3 bf 58 	save  %sp, -168, %sp
    3b48:	80 8f 60 40 	btst  0x40, %i5
    3b4c:	12 80 00 05 	bne  3b60 <number+0x1c>
    3b50:	03 00 00 80 	sethi  %hi(0x20000), %g1
    3b54:	1f 00 00 80 	sethi  %hi(0x20000), %o7
    3b58:	10 80 00 03 	b  3b64 <number+0x20>
    3b5c:	9e 13 e1 00 	or  %o7, 0x100, %o7	! 20100 <state_known_crc+0xec>
    3b60:	9e 10 61 28 	or  %g1, 0x128, %o7
    3b64:	80 8f 60 10 	btst  0x10, %i5
    3b68:	32 80 00 02 	bne,a   3b70 <number+0x2c>
    3b6c:	ba 0f 7f fe 	and  %i5, -2, %i5
    3b70:	82 06 bf fe 	add  %i2, -2, %g1
    3b74:	80 a0 60 22 	cmp  %g1, 0x22
    3b78:	18 80 00 93 	bgu  3dc4 <number+0x280>
    3b7c:	84 10 00 1a 	mov  %i2, %g2
    3b80:	9a 8f 60 01 	andcc  %i5, 1, %o5
    3b84:	98 10 20 00 	clr  %o4
    3b88:	86 1b 60 01 	xor  %o5, 1, %g3
    3b8c:	80 8f 60 02 	btst  2, %i5
    3b90:	88 20 00 03 	neg  %g3, %g4
    3b94:	82 09 20 f0 	and  %g4, 0xf0, %g1
    3b98:	02 80 00 12 	be  3be0 <number+0x9c>
    3b9c:	9a 00 60 30 	add  %g1, 0x30, %o5
    3ba0:	80 a6 60 00 	cmp  %i1, 0
    3ba4:	16 80 00 06 	bge  3bbc <number+0x78>
    3ba8:	80 8f 60 04 	btst  4, %i5
    3bac:	b2 20 00 19 	neg  %i1
    3bb0:	b6 06 ff ff 	add  %i3, -1, %i3
    3bb4:	10 80 00 0b 	b  3be0 <number+0x9c>
    3bb8:	98 10 20 2d 	mov  0x2d, %o4
    3bbc:	02 80 00 05 	be  3bd0 <number+0x8c>
    3bc0:	80 8f 60 08 	btst  8, %i5
    3bc4:	b6 06 ff ff 	add  %i3, -1, %i3
    3bc8:	10 80 00 06 	b  3be0 <number+0x9c>
    3bcc:	98 10 20 2b 	mov  0x2b, %o4
    3bd0:	02 80 00 04 	be  3be0 <number+0x9c>
    3bd4:	98 10 20 00 	clr  %o4
    3bd8:	b6 06 ff ff 	add  %i3, -1, %i3
    3bdc:	98 10 20 20 	mov  0x20, %o4
    3be0:	96 8f 60 20 	andcc  %i5, 0x20, %o3
    3be4:	02 80 00 0a 	be  3c0c <number+0xc8>
    3be8:	80 a6 60 00 	cmp  %i1, 0
    3bec:	80 a6 a0 10 	cmp  %i2, 0x10
    3bf0:	12 80 00 04 	bne  3c00 <number+0xbc>
    3bf4:	82 1e a0 08 	xor  %i2, 8, %g1
    3bf8:	10 80 00 04 	b  3c08 <number+0xc4>
    3bfc:	b6 06 ff fe 	add  %i3, -2, %i3
    3c00:	80 a0 00 01 	cmp  %g0, %g1
    3c04:	b6 46 ff ff 	addx  %i3, -1, %i3
    3c08:	80 a6 60 00 	cmp  %i1, 0
    3c0c:	32 80 00 06 	bne,a   3c24 <number+0xe0>
    3c10:	88 10 20 00 	clr  %g4
    3c14:	82 10 20 30 	mov  0x30, %g1
    3c18:	88 10 20 01 	mov  1, %g4
    3c1c:	10 80 00 10 	b  3c5c <number+0x118>
    3c20:	c2 2f bf b8 	stb  %g1, [ %fp + -72 ]
    3c24:	81 80 20 00 	mov  %g0, %y
    3c28:	01 00 00 00 	nop 
    3c2c:	01 00 00 00 	nop 
    3c30:	01 00 00 00 	nop 
    3c34:	82 76 40 02 	udiv  %i1, %g2, %g1
    3c38:	86 58 40 02 	smul  %g1, %g2, %g3
    3c3c:	b2 26 40 03 	sub  %i1, %g3, %i1
    3c40:	86 07 bf b8 	add  %fp, -72, %g3
    3c44:	f2 0b c0 19 	ldub  [ %o7 + %i1 ], %i1
    3c48:	f2 29 00 03 	stb  %i1, [ %g4 + %g3 ]
    3c4c:	80 a0 60 00 	cmp  %g1, 0
    3c50:	b2 10 00 01 	mov  %g1, %i1
    3c54:	12 bf ff f4 	bne  3c24 <number+0xe0>
    3c58:	88 01 20 01 	inc  %g4
    3c5c:	80 a1 00 1c 	cmp  %g4, %i4
    3c60:	16 80 00 03 	bge  3c6c <number+0x128>
    3c64:	84 10 00 04 	mov  %g4, %g2
    3c68:	84 10 00 1c 	mov  %i4, %g2
    3c6c:	80 8f 60 11 	btst  0x11, %i5
    3c70:	12 80 00 0f 	bne  3cac <number+0x168>
    3c74:	b6 26 c0 02 	sub  %i3, %g2, %i3
    3c78:	80 a6 e0 00 	cmp  %i3, 0
    3c7c:	04 80 00 0b 	ble  3ca8 <number+0x164>
    3c80:	82 06 ff ff 	add  %i3, -1, %g1
    3c84:	b8 06 00 1b 	add  %i0, %i3, %i4
    3c88:	82 10 20 20 	mov  0x20, %g1
    3c8c:	c2 2e 00 00 	stb  %g1, [ %i0 ]
    3c90:	b0 06 20 01 	inc  %i0
    3c94:	80 a6 00 1c 	cmp  %i0, %i4
    3c98:	32 bf ff fe 	bne,a   3c90 <number+0x14c>
    3c9c:	c2 2e 00 00 	stb  %g1, [ %i0 ]
    3ca0:	10 80 00 03 	b  3cac <number+0x168>
    3ca4:	b6 10 3f ff 	mov  -1, %i3
    3ca8:	b6 10 00 01 	mov  %g1, %i3
    3cac:	80 8b 20 ff 	btst  0xff, %o4
    3cb0:	02 80 00 04 	be  3cc0 <number+0x17c>
    3cb4:	80 a2 e0 00 	cmp  %o3, 0
    3cb8:	d8 2e 00 00 	stb  %o4, [ %i0 ]
    3cbc:	b0 06 20 01 	inc  %i0
    3cc0:	02 80 00 11 	be  3d04 <number+0x1c0>
    3cc4:	80 8f 60 10 	btst  0x10, %i5
    3cc8:	80 a6 a0 08 	cmp  %i2, 8
    3ccc:	12 80 00 06 	bne  3ce4 <number+0x1a0>
    3cd0:	80 a6 a0 10 	cmp  %i2, 0x10
    3cd4:	82 10 20 30 	mov  0x30, %g1
    3cd8:	c2 2e 00 00 	stb  %g1, [ %i0 ]
    3cdc:	10 80 00 09 	b  3d00 <number+0x1bc>
    3ce0:	b0 06 20 01 	inc  %i0
    3ce4:	12 80 00 08 	bne  3d04 <number+0x1c0>
    3ce8:	80 8f 60 10 	btst  0x10, %i5
    3cec:	82 10 20 30 	mov  0x30, %g1
    3cf0:	c2 2e 00 00 	stb  %g1, [ %i0 ]
    3cf4:	82 10 20 78 	mov  0x78, %g1
    3cf8:	c2 2e 20 01 	stb  %g1, [ %i0 + 1 ]
    3cfc:	b0 06 20 02 	add  %i0, 2, %i0
    3d00:	80 8f 60 10 	btst  0x10, %i5
    3d04:	12 80 00 0f 	bne  3d40 <number+0x1fc>
    3d08:	80 a1 00 02 	cmp  %g4, %g2
    3d0c:	80 a6 e0 00 	cmp  %i3, 0
    3d10:	04 80 00 0a 	ble  3d38 <number+0x1f4>
    3d14:	82 06 ff ff 	add  %i3, -1, %g1
    3d18:	b4 06 00 1b 	add  %i0, %i3, %i2
    3d1c:	da 2e 00 00 	stb  %o5, [ %i0 ]
    3d20:	b0 06 20 01 	inc  %i0
    3d24:	80 a6 00 1a 	cmp  %i0, %i2
    3d28:	32 bf ff fe 	bne,a   3d20 <number+0x1dc>
    3d2c:	da 2e 00 00 	stb  %o5, [ %i0 ]
    3d30:	10 80 00 03 	b  3d3c <number+0x1f8>
    3d34:	b6 10 3f ff 	mov  -1, %i3
    3d38:	b6 10 00 01 	mov  %g1, %i3
    3d3c:	80 a1 00 02 	cmp  %g4, %g2
    3d40:	16 80 00 0b 	bge  3d6c <number+0x228>
    3d44:	80 a1 20 00 	cmp  %g4, 0
    3d48:	82 20 80 04 	sub  %g2, %g4, %g1
    3d4c:	ba 10 20 30 	mov  0x30, %i5
    3d50:	82 06 00 01 	add  %i0, %g1, %g1
    3d54:	fa 2e 00 00 	stb  %i5, [ %i0 ]
    3d58:	b0 06 20 01 	inc  %i0
    3d5c:	80 a6 00 01 	cmp  %i0, %g1
    3d60:	32 bf ff fe 	bne,a   3d58 <number+0x214>
    3d64:	fa 2e 00 00 	stb  %i5, [ %i0 ]
    3d68:	80 a1 20 00 	cmp  %g4, 0
    3d6c:	04 80 00 0b 	ble  3d98 <number+0x254>
    3d70:	82 01 3f ff 	add  %g4, -1, %g1
    3d74:	84 10 00 18 	mov  %i0, %g2
    3d78:	b2 07 bf b8 	add  %fp, -72, %i1
    3d7c:	c6 08 40 19 	ldub  [ %g1 + %i1 ], %g3
    3d80:	c6 28 80 00 	stb  %g3, [ %g2 ]
    3d84:	82 00 7f ff 	add  %g1, -1, %g1
    3d88:	80 a0 7f ff 	cmp  %g1, -1
    3d8c:	12 bf ff fc 	bne  3d7c <number+0x238>
    3d90:	84 00 a0 01 	inc  %g2
    3d94:	b0 06 00 04 	add  %i0, %g4, %i0
    3d98:	80 a6 e0 00 	cmp  %i3, 0
    3d9c:	04 80 00 08 	ble  3dbc <number+0x278>
    3da0:	88 06 00 1b 	add  %i0, %i3, %g4
    3da4:	82 10 20 20 	mov  0x20, %g1
    3da8:	c2 2e 00 00 	stb  %g1, [ %i0 ]
    3dac:	b0 06 20 01 	inc  %i0
    3db0:	80 a6 00 04 	cmp  %i0, %g4
    3db4:	32 bf ff fe 	bne,a   3dac <number+0x268>
    3db8:	c2 2e 00 00 	stb  %g1, [ %i0 ]
    3dbc:	81 c7 e0 08 	ret 
    3dc0:	81 e8 00 00 	restore 
    3dc4:	b0 10 20 00 	clr  %i0
    3dc8:	81 c7 e0 08 	ret 
    3dcc:	81 e8 00 00 	restore 

00003dd0 <memcpy>:
    3dd0:	80 a2 a0 00 	cmp  %o2, 0
    3dd4:	04 80 00 08 	ble  3df4 <memcpy+0x24>
    3dd8:	82 10 20 00 	clr  %g1
    3ddc:	c4 0a 40 01 	ldub  [ %o1 + %g1 ], %g2
    3de0:	c4 2a 00 01 	stb  %g2, [ %o0 + %g1 ]
    3de4:	82 00 60 01 	inc  %g1
    3de8:	80 a0 40 0a 	cmp  %g1, %o2
    3dec:	32 bf ff fd 	bne,a   3de0 <memcpy+0x10>
    3df0:	c4 0a 40 01 	ldub  [ %o1 + %g1 ], %g2
    3df4:	81 c3 e0 08 	retl 
    3df8:	01 00 00 00 	nop 

00003dfc <uart_send_char>:
    3dfc:	9d e3 bf a0 	save  %sp, -96, %sp
    3e00:	40 00 06 08 	call  5620 <__ajit_serial_putchar__>
    3e04:	90 10 00 18 	mov  %i0, %o0
    3e08:	80 a2 20 00 	cmp  %o0, 0
    3e0c:	02 bf ff fd 	be  3e00 <uart_send_char+0x4>
    3e10:	01 00 00 00 	nop 
    3e14:	81 c7 e0 08 	ret 
    3e18:	81 e8 00 00 	restore 

00003e1c <ee_printf>:
    3e1c:	9d e3 bd d8 	save  %sp, -552, %sp
    3e20:	f4 27 a0 4c 	st  %i2, [ %fp + 0x4c ]
    3e24:	82 07 a0 48 	add  %fp, 0x48, %g1
    3e28:	f2 27 a0 48 	st  %i1, [ %fp + 0x48 ]
    3e2c:	f6 27 a0 50 	st  %i3, [ %fp + 0x50 ]
    3e30:	f8 27 a0 54 	st  %i4, [ %fp + 0x54 ]
    3e34:	fa 27 a0 58 	st  %i5, [ %fp + 0x58 ]
    3e38:	c2 27 be f4 	st  %g1, [ %fp + -268 ]
    3e3c:	f0 27 be 44 	st  %i0, [ %fp + -444 ]
    3e40:	c4 4e 00 00 	ldsb  [ %i0 ], %g2
    3e44:	b4 10 00 01 	mov  %g1, %i2
    3e48:	80 a0 a0 00 	cmp  %g2, 0
    3e4c:	02 80 02 a7 	be  48e8 <ee_printf+0xacc>
    3e50:	e6 0e 00 00 	ldub  [ %i0 ], %l3
    3e54:	ba 07 be f8 	add  %fp, -264, %i5
    3e58:	33 00 00 0e 	sethi  %hi(0x3800), %i1
    3e5c:	31 00 00 0e 	sethi  %hi(0x3800), %i0
    3e60:	23 00 00 81 	sethi  %hi(0x20400), %l1
    3e64:	b6 07 be a0 	add  %fp, -352, %i3
    3e68:	21 00 00 80 	sethi  %hi(0x20000), %l0
    3e6c:	25 00 00 80 	sethi  %hi(0x20000), %l2
    3e70:	83 2c e0 18 	sll  %l3, 0x18, %g1
    3e74:	83 38 60 18 	sra  %g1, 0x18, %g1
    3e78:	80 a0 60 25 	cmp  %g1, 0x25
    3e7c:	02 80 00 05 	be  3e90 <ee_printf+0x74>
    3e80:	b8 10 20 00 	clr  %i4
    3e84:	e6 2f 40 00 	stb  %l3, [ %i5 ]
    3e88:	10 80 02 8f 	b  48c4 <ee_printf+0xaa8>
    3e8c:	ba 07 60 01 	inc  %i5
    3e90:	c2 07 be 44 	ld  [ %fp + -444 ], %g1
    3e94:	86 00 60 01 	add  %g1, 1, %g3
    3e98:	c6 27 be 44 	st  %g3, [ %fp + -444 ]
    3e9c:	d0 08 60 01 	ldub  [ %g1 + 1 ], %o0
    3ea0:	88 02 3f e0 	add  %o0, -32, %g4
    3ea4:	92 09 20 ff 	and  %g4, 0xff, %o1
    3ea8:	80 a2 60 10 	cmp  %o1, 0x10
    3eac:	18 80 00 12 	bgu  3ef4 <ee_printf+0xd8>
    3eb0:	9e 02 3f d0 	add  %o0, -48, %o7
    3eb4:	96 16 62 44 	or  %i1, 0x244, %o3
    3eb8:	99 2a 60 02 	sll  %o1, 2, %o4
    3ebc:	da 02 c0 0c 	ld  [ %o3 + %o4 ], %o5
    3ec0:	81 c3 40 00 	jmp  %o5
    3ec4:	01 00 00 00 	nop 
    3ec8:	10 bf ff f2 	b  3e90 <ee_printf+0x74>
    3ecc:	b8 17 20 10 	or  %i4, 0x10, %i4
    3ed0:	10 bf ff f0 	b  3e90 <ee_printf+0x74>
    3ed4:	b8 17 20 04 	or  %i4, 4, %i4
    3ed8:	10 bf ff ee 	b  3e90 <ee_printf+0x74>
    3edc:	b8 17 20 08 	or  %i4, 8, %i4
    3ee0:	10 bf ff ec 	b  3e90 <ee_printf+0x74>
    3ee4:	b8 17 20 20 	or  %i4, 0x20, %i4
    3ee8:	10 bf ff ea 	b  3e90 <ee_printf+0x74>
    3eec:	b8 17 20 01 	or  %i4, 1, %i4
    3ef0:	9e 02 3f d0 	add  %o0, -48, %o7
    3ef4:	a8 0b e0 ff 	and  %o7, 0xff, %l4
    3ef8:	80 a5 20 09 	cmp  %l4, 9
    3efc:	18 80 00 06 	bgu  3f14 <ee_printf+0xf8>
    3f00:	ad 2a 20 18 	sll  %o0, 0x18, %l6
    3f04:	7f ff fe f4 	call  3ad4 <skip_atoi>
    3f08:	90 07 be 44 	add  %fp, -444, %o0
    3f0c:	10 80 00 0e 	b  3f44 <ee_printf+0x128>
    3f10:	a8 10 00 08 	mov  %o0, %l4
    3f14:	85 3d a0 18 	sra  %l6, 0x18, %g2
    3f18:	80 a0 a0 2a 	cmp  %g2, 0x2a
    3f1c:	12 80 00 0a 	bne  3f44 <ee_printf+0x128>
    3f20:	a8 10 3f ff 	mov  -1, %l4
    3f24:	82 00 60 02 	add  %g1, 2, %g1
    3f28:	c2 27 be 44 	st  %g1, [ %fp + -444 ]
    3f2c:	e8 06 80 00 	ld  [ %i2 ], %l4
    3f30:	80 a5 20 00 	cmp  %l4, 0
    3f34:	16 80 00 04 	bge  3f44 <ee_printf+0x128>
    3f38:	b4 06 a0 04 	add  %i2, 4, %i2
    3f3c:	a8 20 00 14 	neg  %l4
    3f40:	b8 17 20 10 	or  %i4, 0x10, %i4
    3f44:	c2 07 be 44 	ld  [ %fp + -444 ], %g1
    3f48:	c6 48 40 00 	ldsb  [ %g1 ], %g3
    3f4c:	80 a0 e0 2e 	cmp  %g3, 0x2e
    3f50:	12 80 00 1b 	bne  3fbc <ee_printf+0x1a0>
    3f54:	aa 10 3f ff 	mov  -1, %l5
    3f58:	90 00 60 01 	add  %g1, 1, %o0
    3f5c:	d0 27 be 44 	st  %o0, [ %fp + -444 ]
    3f60:	c8 08 60 01 	ldub  [ %g1 + 1 ], %g4
    3f64:	92 01 3f d0 	add  %g4, -48, %o1
    3f68:	94 0a 60 ff 	and  %o1, 0xff, %o2
    3f6c:	80 a2 a0 09 	cmp  %o2, 9
    3f70:	18 80 00 06 	bgu  3f88 <ee_printf+0x16c>
    3f74:	97 29 20 18 	sll  %g4, 0x18, %o3
    3f78:	7f ff fe d7 	call  3ad4 <skip_atoi>
    3f7c:	90 07 be 44 	add  %fp, -444, %o0
    3f80:	10 80 00 0a 	b  3fa8 <ee_printf+0x18c>
    3f84:	aa 10 00 08 	mov  %o0, %l5
    3f88:	99 3a e0 18 	sra  %o3, 0x18, %o4
    3f8c:	80 a3 20 2a 	cmp  %o4, 0x2a
    3f90:	12 80 00 0a 	bne  3fb8 <ee_printf+0x19c>
    3f94:	aa 10 20 00 	clr  %l5
    3f98:	82 00 60 02 	add  %g1, 2, %g1
    3f9c:	ea 06 80 00 	ld  [ %i2 ], %l5
    3fa0:	c2 27 be 44 	st  %g1, [ %fp + -444 ]
    3fa4:	b4 06 a0 04 	add  %i2, 4, %i2
    3fa8:	80 a5 60 00 	cmp  %l5, 0
    3fac:	16 80 00 04 	bge  3fbc <ee_printf+0x1a0>
    3fb0:	c2 07 be 44 	ld  [ %fp + -444 ], %g1
    3fb4:	aa 10 20 00 	clr  %l5
    3fb8:	c2 07 be 44 	ld  [ %fp + -444 ], %g1
    3fbc:	da 08 40 00 	ldub  [ %g1 ], %o5
    3fc0:	9e 0b 7f df 	and  %o5, -33, %o7
    3fc4:	ad 2b e0 18 	sll  %o7, 0x18, %l6
    3fc8:	85 3d a0 18 	sra  %l6, 0x18, %g2
    3fcc:	80 a0 a0 4c 	cmp  %g2, 0x4c
    3fd0:	12 80 00 06 	bne  3fe8 <ee_printf+0x1cc>
    3fd4:	90 10 3f ff 	mov  -1, %o0
    3fd8:	87 2b 60 18 	sll  %o5, 0x18, %g3
    3fdc:	82 00 60 01 	inc  %g1
    3fe0:	91 38 e0 18 	sra  %g3, 0x18, %o0
    3fe4:	c2 27 be 44 	st  %g1, [ %fp + -444 ]
    3fe8:	c2 07 be 44 	ld  [ %fp + -444 ], %g1
    3fec:	c8 08 40 00 	ldub  [ %g1 ], %g4
    3ff0:	82 01 3f bf 	add  %g4, -65, %g1
    3ff4:	92 08 60 ff 	and  %g1, 0xff, %o1
    3ff8:	80 a2 60 37 	cmp  %o1, 0x37
    3ffc:	18 80 02 0b 	bgu  4828 <ee_printf+0xa0c>
    4000:	83 29 20 18 	sll  %g4, 0x18, %g1
    4004:	94 16 21 64 	or  %i0, 0x164, %o2
    4008:	83 2a 60 02 	sll  %o1, 2, %g1
    400c:	c2 02 80 01 	ld  [ %o2 + %g1 ], %g1
    4010:	81 c0 40 00 	jmp  %g1
    4014:	01 00 00 00 	nop 
    4018:	80 8f 20 10 	btst  0x10, %i4
    401c:	32 80 00 13 	bne,a   4068 <ee_printf+0x24c>
    4020:	c2 06 80 00 	ld  [ %i2 ], %g1
    4024:	82 05 3f ff 	add  %l4, -1, %g1
    4028:	80 a0 60 00 	cmp  %g1, 0
    402c:	04 80 00 0d 	ble  4060 <ee_printf+0x244>
    4030:	94 10 20 20 	mov  0x20, %o2
    4034:	82 07 40 01 	add  %i5, %g1, %g1
    4038:	d4 2f 40 00 	stb  %o2, [ %i5 ]
    403c:	ba 07 60 01 	inc  %i5
    4040:	80 a7 40 01 	cmp  %i5, %g1
    4044:	32 bf ff fe 	bne,a   403c <ee_printf+0x220>
    4048:	d4 2f 40 00 	stb  %o2, [ %i5 ]
    404c:	c8 06 80 00 	ld  [ %i2 ], %g4
    4050:	ba 00 60 01 	add  %g1, 1, %i5
    4054:	c8 28 40 00 	stb  %g4, [ %g1 ]
    4058:	10 80 02 1b 	b  48c4 <ee_printf+0xaa8>
    405c:	b4 06 a0 04 	add  %i2, 4, %i2
    4060:	a8 10 00 01 	mov  %g1, %l4
    4064:	c2 06 80 00 	ld  [ %i2 ], %g1
    4068:	c2 2f 40 00 	stb  %g1, [ %i5 ]
    406c:	98 07 60 01 	add  %i5, 1, %o4
    4070:	82 05 3f ff 	add  %l4, -1, %g1
    4074:	80 a0 60 00 	cmp  %g1, 0
    4078:	04 80 02 12 	ble  48c0 <ee_printf+0xaa4>
    407c:	b4 06 a0 04 	add  %i2, 4, %i2
    4080:	9a 10 00 14 	mov  %l4, %o5
    4084:	ba 07 40 14 	add  %i5, %l4, %i5
    4088:	82 10 00 0c 	mov  %o4, %g1
    408c:	9e 10 20 20 	mov  0x20, %o7
    4090:	de 28 40 00 	stb  %o7, [ %g1 ]
    4094:	82 00 60 01 	inc  %g1
    4098:	80 a0 40 1d 	cmp  %g1, %i5
    409c:	32 bf ff fe 	bne,a   4094 <ee_printf+0x278>
    40a0:	de 28 40 00 	stb  %o7, [ %g1 ]
    40a4:	92 03 7f ff 	add  %o5, -1, %o1
    40a8:	10 80 02 07 	b  48c4 <ee_printf+0xaa8>
    40ac:	ba 03 00 09 	add  %o4, %o1, %i5
    40b0:	ec 06 80 00 	ld  [ %i2 ], %l6
    40b4:	80 a5 a0 00 	cmp  %l6, 0
    40b8:	12 80 00 04 	bne  40c8 <ee_printf+0x2ac>
    40bc:	b4 06 a0 04 	add  %i2, 4, %i2
    40c0:	27 00 00 80 	sethi  %hi(0x20000), %l3
    40c4:	ac 14 e1 50 	or  %l3, 0x150, %l6	! 20150 <state_known_crc+0x13c>
    40c8:	90 10 00 16 	mov  %l6, %o0
    40cc:	7f ff fe 6f 	call  3a88 <strnlen>
    40d0:	92 10 00 15 	mov  %l5, %o1
    40d4:	80 8f 20 10 	btst  0x10, %i4
    40d8:	12 80 00 14 	bne  4128 <ee_printf+0x30c>
    40dc:	80 a2 20 00 	cmp  %o0, 0
    40e0:	80 a2 00 14 	cmp  %o0, %l4
    40e4:	16 80 00 0f 	bge  4120 <ee_printf+0x304>
    40e8:	82 05 3f ff 	add  %l4, -1, %g1
    40ec:	b8 25 00 08 	sub  %l4, %o0, %i4
    40f0:	aa 10 00 14 	mov  %l4, %l5
    40f4:	96 07 40 1c 	add  %i5, %i4, %o3
    40f8:	82 10 20 20 	mov  0x20, %g1
    40fc:	c2 2f 40 00 	stb  %g1, [ %i5 ]
    4100:	ba 07 60 01 	inc  %i5
    4104:	80 a7 40 0b 	cmp  %i5, %o3
    4108:	32 bf ff fe 	bne,a   4100 <ee_printf+0x2e4>
    410c:	c2 2f 40 00 	stb  %g1, [ %i5 ]
    4110:	82 22 00 15 	sub  %o0, %l5, %g1
    4114:	a8 05 00 01 	add  %l4, %g1, %l4
    4118:	10 80 00 03 	b  4124 <ee_printf+0x308>
    411c:	a8 05 3f ff 	add  %l4, -1, %l4
    4120:	a8 10 00 01 	mov  %g1, %l4
    4124:	80 a2 20 00 	cmp  %o0, 0
    4128:	04 80 00 09 	ble  414c <ee_printf+0x330>
    412c:	82 10 20 00 	clr  %g1
    4130:	d8 0d 80 01 	ldub  [ %l6 + %g1 ], %o4
    4134:	d8 2f 40 01 	stb  %o4, [ %i5 + %g1 ]
    4138:	82 00 60 01 	inc  %g1
    413c:	80 a0 40 08 	cmp  %g1, %o0
    4140:	32 bf ff fd 	bne,a   4134 <ee_printf+0x318>
    4144:	d8 0d 80 01 	ldub  [ %l6 + %g1 ], %o4
    4148:	ba 07 40 08 	add  %i5, %o0, %i5
    414c:	80 a2 00 14 	cmp  %o0, %l4
    4150:	16 80 01 dd 	bge  48c4 <ee_printf+0xaa8>
    4154:	82 25 00 08 	sub  %l4, %o0, %g1
    4158:	9a 10 20 20 	mov  0x20, %o5
    415c:	82 07 40 01 	add  %i5, %g1, %g1
    4160:	da 2f 40 00 	stb  %o5, [ %i5 ]
    4164:	ba 07 60 01 	inc  %i5
    4168:	80 a7 40 01 	cmp  %i5, %g1
    416c:	32 bf ff fe 	bne,a   4164 <ee_printf+0x348>
    4170:	da 2f 40 00 	stb  %o5, [ %i5 ]
    4174:	10 80 01 d5 	b  48c8 <ee_printf+0xaac>
    4178:	c2 07 be 44 	ld  [ %fp + -444 ], %g1
    417c:	80 a5 3f ff 	cmp  %l4, -1
    4180:	12 80 00 04 	bne  4190 <ee_printf+0x374>
    4184:	d2 06 80 00 	ld  [ %i2 ], %o1
    4188:	b8 17 20 01 	or  %i4, 1, %i4
    418c:	a8 10 20 08 	mov  8, %l4
    4190:	90 10 00 1d 	mov  %i5, %o0
    4194:	94 10 20 10 	mov  0x10, %o2
    4198:	96 10 00 14 	mov  %l4, %o3
    419c:	98 10 00 15 	mov  %l5, %o4
    41a0:	9a 10 00 1c 	mov  %i4, %o5
    41a4:	7f ff fe 68 	call  3b44 <number>
    41a8:	b4 06 a0 04 	add  %i2, 4, %i2
    41ac:	10 80 01 c6 	b  48c4 <ee_printf+0xaa8>
    41b0:	ba 10 00 08 	mov  %o0, %i5
    41b4:	b8 17 20 40 	or  %i4, 0x40, %i4
    41b8:	80 a2 20 6c 	cmp  %o0, 0x6c
    41bc:	32 80 00 4b 	bne,a   42e8 <ee_printf+0x4cc>
    41c0:	c8 06 80 00 	ld  [ %i2 ], %g4
    41c4:	d4 06 80 00 	ld  [ %i2 ], %o2
    41c8:	80 8f 20 40 	btst  0x40, %i4
    41cc:	12 80 00 04 	bne  41dc <ee_printf+0x3c0>
    41d0:	b4 06 a0 04 	add  %i2, 4, %i2
    41d4:	10 80 00 03 	b  41e0 <ee_printf+0x3c4>
    41d8:	9e 14 21 00 	or  %l0, 0x100, %o7
    41dc:	9e 14 a1 28 	or  %l2, 0x128, %o7
    41e0:	82 10 20 00 	clr  %g1
    41e4:	84 10 20 00 	clr  %g2
    41e8:	10 80 00 09 	b  420c <ee_printf+0x3f0>
    41ec:	a6 10 20 3a 	mov  0x3a, %l3
    41f0:	80 a0 60 00 	cmp  %g1, 0
    41f4:	02 80 00 05 	be  4208 <ee_printf+0x3ec>
    41f8:	aa 07 80 0c 	add  %fp, %o4, %l5
    41fc:	84 00 a0 03 	add  %g2, 3, %g2
    4200:	10 80 00 03 	b  420c <ee_printf+0x3f0>
    4204:	e6 2d 7e a0 	stb  %l3, [ %l5 + -352 ]
    4208:	84 10 00 0c 	mov  %o4, %g2
    420c:	ea 0a 80 01 	ldub  [ %o2 + %g1 ], %l5
    4210:	ac 07 80 02 	add  %fp, %g2, %l6
    4214:	90 0d 60 ff 	and  %l5, 0xff, %o0
    4218:	9a 0d 60 0f 	and  %l5, 0xf, %o5
    421c:	93 32 20 04 	srl  %o0, 4, %o1
    4220:	c6 0b c0 0d 	ldub  [ %o7 + %o5 ], %g3
    4224:	c8 0b c0 09 	ldub  [ %o7 + %o1 ], %g4
    4228:	c6 2d be a1 	stb  %g3, [ %l6 + -351 ]
    422c:	c8 2d be a0 	stb  %g4, [ %l6 + -352 ]
    4230:	82 00 60 01 	inc  %g1
    4234:	80 a0 60 06 	cmp  %g1, 6
    4238:	12 bf ff ee 	bne  41f0 <ee_printf+0x3d4>
    423c:	98 00 a0 02 	add  %g2, 2, %o4
    4240:	80 8f 20 10 	btst  0x10, %i4
    4244:	12 80 00 14 	bne  4294 <ee_printf+0x478>
    4248:	80 a3 20 00 	cmp  %o4, 0
    424c:	80 a5 00 0c 	cmp  %l4, %o4
    4250:	04 80 00 0f 	ble  428c <ee_printf+0x470>
    4254:	82 05 3f ff 	add  %l4, -1, %g1
    4258:	94 25 00 0c 	sub  %l4, %o4, %o2
    425c:	b8 10 00 14 	mov  %l4, %i4
    4260:	84 07 40 0a 	add  %i5, %o2, %g2
    4264:	82 10 20 20 	mov  0x20, %g1
    4268:	c2 2f 40 00 	stb  %g1, [ %i5 ]
    426c:	ba 07 60 01 	inc  %i5
    4270:	80 a7 40 02 	cmp  %i5, %g2
    4274:	32 bf ff fe 	bne,a   426c <ee_printf+0x450>
    4278:	c2 2f 40 00 	stb  %g1, [ %i5 ]
    427c:	82 23 00 1c 	sub  %o4, %i4, %g1
    4280:	a8 05 00 01 	add  %l4, %g1, %l4
    4284:	10 80 00 03 	b  4290 <ee_printf+0x474>
    4288:	a8 05 3f ff 	add  %l4, -1, %l4
    428c:	a8 10 00 01 	mov  %g1, %l4
    4290:	80 a3 20 00 	cmp  %o4, 0
    4294:	04 80 00 09 	ble  42b8 <ee_printf+0x49c>
    4298:	82 10 20 00 	clr  %g1
    429c:	de 08 40 1b 	ldub  [ %g1 + %i3 ], %o7
    42a0:	de 2f 40 01 	stb  %o7, [ %i5 + %g1 ]
    42a4:	82 00 60 01 	inc  %g1
    42a8:	80 a0 40 0c 	cmp  %g1, %o4
    42ac:	32 bf ff fd 	bne,a   42a0 <ee_printf+0x484>
    42b0:	de 08 40 1b 	ldub  [ %g1 + %i3 ], %o7
    42b4:	ba 07 40 0c 	add  %i5, %o4, %i5
    42b8:	80 a5 00 0c 	cmp  %l4, %o4
    42bc:	04 80 01 82 	ble  48c4 <ee_printf+0xaa8>
    42c0:	82 25 00 0c 	sub  %l4, %o4, %g1
    42c4:	96 10 20 20 	mov  0x20, %o3
    42c8:	82 07 40 01 	add  %i5, %g1, %g1
    42cc:	d6 2f 40 00 	stb  %o3, [ %i5 ]
    42d0:	ba 07 60 01 	inc  %i5
    42d4:	80 a7 40 01 	cmp  %i5, %g1
    42d8:	32 bf ff fe 	bne,a   42d0 <ee_printf+0x4b4>
    42dc:	d6 2f 40 00 	stb  %o3, [ %i5 ]
    42e0:	10 80 01 7a 	b  48c8 <ee_printf+0xaac>
    42e4:	c2 07 be 44 	ld  [ %fp + -444 ], %g1
    42e8:	82 10 20 00 	clr  %g1
    42ec:	b4 06 a0 04 	add  %i2, 4, %i2
    42f0:	84 10 20 00 	clr  %g2
    42f4:	96 10 20 30 	mov  0x30, %o3
    42f8:	10 80 00 06 	b  4310 <ee_printf+0x4f4>
    42fc:	98 10 20 2e 	mov  0x2e, %o4
    4300:	02 80 00 04 	be  4310 <ee_printf+0x4f4>
    4304:	a6 07 80 02 	add  %fp, %g2, %l3
    4308:	84 00 a0 01 	inc  %g2
    430c:	d8 2c fe a0 	stb  %o4, [ %l3 + -352 ]
    4310:	c6 09 00 01 	ldub  [ %g4 + %g1 ], %g3
    4314:	80 a0 e0 00 	cmp  %g3, 0
    4318:	12 80 00 06 	bne  4330 <ee_printf+0x514>
    431c:	80 a0 e0 63 	cmp  %g3, 0x63
    4320:	9a 07 80 02 	add  %fp, %g2, %o5
    4324:	84 00 a0 01 	inc  %g2
    4328:	10 80 00 34 	b  43f8 <ee_printf+0x5dc>
    432c:	d6 2b 7e a0 	stb  %o3, [ %o5 + -352 ]
    4330:	04 80 00 1c 	ble  43a0 <ee_printf+0x584>
    4334:	80 a0 e0 09 	cmp  %g3, 9
    4338:	93 38 e0 1f 	sra  %g3, 0x1f, %o1
    433c:	81 82 60 00 	mov  %o1, %y
    4340:	01 00 00 00 	nop 
    4344:	01 00 00 00 	nop 
    4348:	01 00 00 00 	nop 
    434c:	a6 78 e0 64 	sdiv  %g3, 0x64, %l3
    4350:	aa 07 80 02 	add  %fp, %g2, %l5
    4354:	ac 5c e0 64 	smul  %l3, 0x64, %l6
    4358:	9a 20 c0 16 	sub  %g3, %l6, %o5
    435c:	93 3b 60 1f 	sra  %o5, 0x1f, %o1
    4360:	81 82 60 00 	mov  %o1, %y
    4364:	01 00 00 00 	nop 
    4368:	01 00 00 00 	nop 
    436c:	01 00 00 00 	nop 
    4370:	9e 7b 60 0a 	sdiv  %o5, 0xa, %o7
    4374:	86 03 c0 0f 	add  %o7, %o7, %g3
    4378:	94 14 21 00 	or  %l0, 0x100, %o2
    437c:	84 00 a0 02 	add  %g2, 2, %g2
    4380:	d0 0a 80 13 	ldub  [ %o2 + %l3 ], %o0
    4384:	d2 0a 80 0f 	ldub  [ %o2 + %o7 ], %o1
    4388:	d0 2d 7e a0 	stb  %o0, [ %l5 + -352 ]
    438c:	a7 2b e0 03 	sll  %o7, 3, %l3
    4390:	d2 2d 7e a1 	stb  %o1, [ %l5 + -351 ]
    4394:	aa 00 c0 13 	add  %g3, %l3, %l5
    4398:	10 80 00 13 	b  43e4 <ee_printf+0x5c8>
    439c:	86 23 40 15 	sub  %o5, %l5, %g3
    43a0:	04 80 00 12 	ble  43e8 <ee_printf+0x5cc>
    43a4:	94 07 80 02 	add  %fp, %g2, %o2
    43a8:	95 38 e0 1f 	sra  %g3, 0x1f, %o2
    43ac:	81 82 a0 00 	mov  %o2, %y
    43b0:	01 00 00 00 	nop 
    43b4:	01 00 00 00 	nop 
    43b8:	01 00 00 00 	nop 
    43bc:	aa 78 e0 0a 	sdiv  %g3, 0xa, %l5
    43c0:	a6 07 80 02 	add  %fp, %g2, %l3
    43c4:	ac 14 21 00 	or  %l0, 0x100, %l6
    43c8:	90 05 40 15 	add  %l5, %l5, %o0
    43cc:	da 0d 80 15 	ldub  [ %l6 + %l5 ], %o5
    43d0:	9f 2d 60 03 	sll  %l5, 3, %o7
    43d4:	da 2c fe a0 	stb  %o5, [ %l3 + -352 ]
    43d8:	92 02 00 0f 	add  %o0, %o7, %o1
    43dc:	84 00 a0 01 	inc  %g2
    43e0:	86 20 c0 09 	sub  %g3, %o1, %g3
    43e4:	94 07 80 02 	add  %fp, %g2, %o2
    43e8:	ac 14 21 00 	or  %l0, 0x100, %l6
    43ec:	84 00 a0 01 	inc  %g2
    43f0:	d0 0d 80 03 	ldub  [ %l6 + %g3 ], %o0
    43f4:	d0 2a be a0 	stb  %o0, [ %o2 + -352 ]
    43f8:	82 00 60 01 	inc  %g1
    43fc:	80 a0 60 04 	cmp  %g1, 4
    4400:	12 bf ff c0 	bne  4300 <ee_printf+0x4e4>
    4404:	80 a0 60 00 	cmp  %g1, 0
    4408:	80 8f 20 10 	btst  0x10, %i4
    440c:	12 80 00 15 	bne  4460 <ee_printf+0x644>
    4410:	80 a0 a0 00 	cmp  %g2, 0
    4414:	80 a5 00 02 	cmp  %l4, %g2
    4418:	04 80 00 10 	ble  4458 <ee_printf+0x63c>
    441c:	82 05 3f ff 	add  %l4, -1, %g1
    4420:	96 25 00 02 	sub  %l4, %g2, %o3
    4424:	98 10 00 14 	mov  %l4, %o4
    4428:	b8 10 00 02 	mov  %g2, %i4
    442c:	88 07 40 0b 	add  %i5, %o3, %g4
    4430:	82 10 20 20 	mov  0x20, %g1
    4434:	c2 2f 40 00 	stb  %g1, [ %i5 ]
    4438:	ba 07 60 01 	inc  %i5
    443c:	80 a7 40 04 	cmp  %i5, %g4
    4440:	32 bf ff fe 	bne,a   4438 <ee_printf+0x61c>
    4444:	c2 2f 40 00 	stb  %g1, [ %i5 ]
    4448:	82 27 00 0c 	sub  %i4, %o4, %g1
    444c:	a8 05 00 01 	add  %l4, %g1, %l4
    4450:	10 80 00 03 	b  445c <ee_printf+0x640>
    4454:	a8 05 3f ff 	add  %l4, -1, %l4
    4458:	a8 10 00 01 	mov  %g1, %l4
    445c:	80 a0 a0 00 	cmp  %g2, 0
    4460:	04 80 00 09 	ble  4484 <ee_printf+0x668>
    4464:	82 10 20 00 	clr  %g1
    4468:	de 08 40 1b 	ldub  [ %g1 + %i3 ], %o7
    446c:	de 2f 40 01 	stb  %o7, [ %i5 + %g1 ]
    4470:	82 00 60 01 	inc  %g1
    4474:	80 a0 40 02 	cmp  %g1, %g2
    4478:	32 bf ff fd 	bne,a   446c <ee_printf+0x650>
    447c:	de 08 40 1b 	ldub  [ %g1 + %i3 ], %o7
    4480:	ba 07 40 02 	add  %i5, %g2, %i5
    4484:	80 a5 00 02 	cmp  %l4, %g2
    4488:	04 80 01 0f 	ble  48c4 <ee_printf+0xaa8>
    448c:	92 25 00 02 	sub  %l4, %g2, %o1
    4490:	82 10 20 20 	mov  0x20, %g1
    4494:	86 07 40 09 	add  %i5, %o1, %g3
    4498:	c2 2f 40 00 	stb  %g1, [ %i5 ]
    449c:	ba 07 60 01 	inc  %i5
    44a0:	80 a7 40 03 	cmp  %i5, %g3
    44a4:	32 bf ff fe 	bne,a   449c <ee_printf+0x680>
    44a8:	c2 2f 40 00 	stb  %g1, [ %i5 ]
    44ac:	10 80 01 07 	b  48c8 <ee_printf+0xaac>
    44b0:	c2 07 be 44 	ld  [ %fp + -444 ], %g1
    44b4:	10 80 00 f1 	b  4878 <ee_printf+0xa5c>
    44b8:	94 10 20 08 	mov  8, %o2
    44bc:	b8 17 20 40 	or  %i4, 0x40, %i4
    44c0:	10 80 00 ee 	b  4878 <ee_printf+0xa5c>
    44c4:	94 10 20 10 	mov  0x10, %o2
    44c8:	b8 17 20 02 	or  %i4, 2, %i4
    44cc:	10 80 00 eb 	b  4878 <ee_printf+0xa5c>
    44d0:	94 10 20 0a 	mov  0xa, %o2
    44d4:	92 10 00 1a 	mov  %i2, %o1
    44d8:	90 07 bf f8 	add  %fp, -8, %o0
    44dc:	7f ff fe 3d 	call  3dd0 <memcpy>
    44e0:	94 10 20 08 	mov  8, %o2
    44e4:	b4 06 a0 08 	add  %i2, 8, %i2
    44e8:	80 8f 20 10 	btst  0x10, %i4
    44ec:	12 80 00 04 	bne  44fc <ee_printf+0x6e0>
    44f0:	d1 1f bf f8 	ldd  [ %fp + -8 ], %f8
    44f4:	10 80 00 04 	b  4504 <ee_printf+0x6e8>
    44f8:	b8 17 20 02 	or  %i4, 2, %i4
    44fc:	9e 0f 3f fe 	and  %i4, -2, %o7
    4500:	b8 13 e0 02 	or  %o7, 2, %i4
    4504:	84 8f 20 01 	andcc  %i4, 1, %g2
    4508:	d5 1c 62 78 	ldd  [ %l1 + 0x278 ], %f10
    450c:	86 18 a0 01 	xor  %g2, 1, %g3
    4510:	81 aa 0a ca 	fcmped  %f8, %f10
    4514:	90 20 00 03 	neg  %g3, %o0
    4518:	88 0a 20 f0 	and  %o0, 0xf0, %g4
    451c:	01 00 00 00 	nop 
    4520:	19 80 00 06 	fbuge  4538 <ee_printf+0x71c>
    4524:	a6 01 20 30 	add  %g4, 0x30, %l3
    4528:	91 a0 00 a8 	fnegs  %f8, %f8
    452c:	a8 05 3f ff 	add  %l4, -1, %l4
    4530:	10 80 00 0c 	b  4560 <ee_printf+0x744>
    4534:	ac 10 20 2d 	mov  0x2d, %l6
    4538:	80 8f 20 04 	btst  4, %i4
    453c:	02 80 00 05 	be  4550 <ee_printf+0x734>
    4540:	80 8f 20 08 	btst  8, %i4
    4544:	a8 05 3f ff 	add  %l4, -1, %l4
    4548:	10 80 00 06 	b  4560 <ee_printf+0x744>
    454c:	ac 10 20 2b 	mov  0x2b, %l6
    4550:	02 80 00 04 	be  4560 <ee_printf+0x744>
    4554:	ac 10 20 00 	clr  %l6
    4558:	a8 05 3f ff 	add  %l4, -1, %l4
    455c:	ac 10 20 20 	mov  0x20, %l6
    4560:	80 a5 60 00 	cmp  %l5, 0
    4564:	36 80 00 f6 	bge,a   493c <ee_printf+0xb20>
    4568:	d1 3f be 38 	std  %f8, [ %fp + -456 ]
    456c:	10 80 00 f3 	b  4938 <ee_printf+0xb1c>
    4570:	aa 10 20 06 	mov  6, %l5
    4574:	82 07 be 51 	add  %fp, -431, %g1
    4578:	d2 2f be 50 	stb  %o1, [ %fp + -432 ]
    457c:	d4 4a 00 00 	ldsb  [ %o0 ], %o2
    4580:	80 a2 a0 00 	cmp  %o2, 0
    4584:	02 80 00 32 	be  464c <ee_printf+0x830>
    4588:	c6 0a 00 00 	ldub  [ %o0 ], %g3
    458c:	d2 07 be 48 	ld  [ %fp + -440 ], %o1
    4590:	84 10 00 08 	mov  %o0, %g2
    4594:	80 a2 60 00 	cmp  %o1, 0
    4598:	14 80 00 1e 	bg  4610 <ee_printf+0x7f4>
    459c:	94 10 20 2e 	mov  0x2e, %o2
    45a0:	98 10 20 30 	mov  0x30, %o4
    45a4:	9a 10 20 2e 	mov  0x2e, %o5
    45a8:	d8 28 40 00 	stb  %o4, [ %g1 ]
    45ac:	da 28 60 01 	stb  %o5, [ %g1 + 1 ]
    45b0:	9e 20 00 09 	neg  %o1, %o7
    45b4:	80 a3 e0 00 	cmp  %o7, 0
    45b8:	04 80 00 09 	ble  45dc <ee_printf+0x7c0>
    45bc:	82 00 60 02 	add  %g1, 2, %g1
    45c0:	92 00 40 0f 	add  %g1, %o7, %o1
    45c4:	94 10 20 30 	mov  0x30, %o2
    45c8:	d4 28 40 00 	stb  %o2, [ %g1 ]
    45cc:	82 00 60 01 	inc  %g1
    45d0:	80 a0 40 09 	cmp  %g1, %o1
    45d4:	32 bf ff fe 	bne,a   45cc <ee_printf+0x7b0>
    45d8:	d4 28 40 00 	stb  %o2, [ %g1 ]
    45dc:	c8 4a 00 00 	ldsb  [ %o0 ], %g4
    45e0:	80 a1 20 00 	cmp  %g4, 0
    45e4:	02 80 00 2a 	be  468c <ee_printf+0x870>
    45e8:	c4 0a 00 00 	ldub  [ %o0 ], %g2
    45ec:	c4 28 40 00 	stb  %g2, [ %g1 ]
    45f0:	90 02 20 01 	inc  %o0
    45f4:	82 00 60 01 	inc  %g1
    45f8:	d6 4a 00 00 	ldsb  [ %o0 ], %o3
    45fc:	80 a2 e0 00 	cmp  %o3, 0
    4600:	12 bf ff fb 	bne  45ec <ee_printf+0x7d0>
    4604:	c4 0a 00 00 	ldub  [ %o0 ], %g2
    4608:	10 80 00 22 	b  4690 <ee_printf+0x874>
    460c:	c0 28 40 00 	clrb  [ %g1 ]
    4610:	88 20 80 08 	sub  %g2, %o0, %g4
    4614:	80 a2 40 04 	cmp  %o1, %g4
    4618:	32 80 00 05 	bne,a   462c <ee_printf+0x810>
    461c:	c6 28 40 00 	stb  %g3, [ %g1 ]
    4620:	d4 28 40 00 	stb  %o2, [ %g1 ]
    4624:	82 00 60 01 	inc  %g1
    4628:	c6 28 40 00 	stb  %g3, [ %g1 ]
    462c:	84 00 a0 01 	inc  %g2
    4630:	82 00 60 01 	inc  %g1
    4634:	d6 48 80 00 	ldsb  [ %g2 ], %o3
    4638:	80 a2 e0 00 	cmp  %o3, 0
    463c:	12 bf ff f5 	bne  4610 <ee_printf+0x7f4>
    4640:	c6 08 80 00 	ldub  [ %g2 ], %g3
    4644:	10 80 00 13 	b  4690 <ee_printf+0x874>
    4648:	c0 28 40 00 	clrb  [ %g1 ]
    464c:	96 10 20 30 	mov  0x30, %o3
    4650:	80 a5 60 00 	cmp  %l5, 0
    4654:	14 80 00 04 	bg  4664 <ee_printf+0x848>
    4658:	d6 28 40 00 	stb  %o3, [ %g1 ]
    465c:	10 80 00 0c 	b  468c <ee_printf+0x870>
    4660:	82 00 60 01 	inc  %g1
    4664:	9a 10 20 2e 	mov  0x2e, %o5
    4668:	98 10 20 30 	mov  0x30, %o4
    466c:	da 28 60 01 	stb  %o5, [ %g1 + 1 ]
    4670:	82 00 60 02 	add  %g1, 2, %g1
    4674:	9e 00 40 15 	add  %g1, %l5, %o7
    4678:	d8 28 40 00 	stb  %o4, [ %g1 ]
    467c:	82 00 60 01 	inc  %g1
    4680:	80 a0 40 0f 	cmp  %g1, %o7
    4684:	32 bf ff fe 	bne,a   467c <ee_printf+0x860>
    4688:	d8 28 40 00 	stb  %o4, [ %g1 ]
    468c:	c0 28 40 00 	clrb  [ %g1 ]
    4690:	80 8f 20 20 	btst  0x20, %i4
    4694:	02 80 00 c5 	be  49a8 <ee_printf+0xb8c>
    4698:	90 07 be 50 	add  %fp, -432, %o0
    469c:	80 a5 60 00 	cmp  %l5, 0
    46a0:	12 80 00 c2 	bne  49a8 <ee_printf+0xb8c>
    46a4:	01 00 00 00 	nop 
    46a8:	d0 4f be 50 	ldsb  [ %fp + -432 ], %o0
    46ac:	80 a2 20 00 	cmp  %o0, 0
    46b0:	02 80 00 af 	be  496c <ee_printf+0xb50>
    46b4:	c2 0f be 50 	ldub  [ %fp + -432 ], %g1
    46b8:	ab 28 60 18 	sll  %g1, 0x18, %l5
    46bc:	87 3d 60 18 	sra  %l5, 0x18, %g3
    46c0:	80 a0 e0 2e 	cmp  %g3, 0x2e
    46c4:	02 80 00 b8 	be  49a4 <ee_printf+0xb88>
    46c8:	82 08 7f df 	and  %g1, -33, %g1
    46cc:	83 28 60 18 	sll  %g1, 0x18, %g1
    46d0:	83 38 60 18 	sra  %g1, 0x18, %g1
    46d4:	80 a0 60 45 	cmp  %g1, 0x45
    46d8:	02 80 00 aa 	be  4980 <ee_printf+0xb64>
    46dc:	82 07 be 51 	add  %fp, -431, %g1
    46e0:	10 80 00 0d 	b  4714 <ee_printf+0x8f8>
    46e4:	d8 48 40 00 	ldsb  [ %g1 ], %o4
    46e8:	9f 2b 60 18 	sll  %o5, 0x18, %o7
    46ec:	93 3b e0 18 	sra  %o7, 0x18, %o1
    46f0:	80 a2 60 2e 	cmp  %o1, 0x2e
    46f4:	02 80 00 ac 	be  49a4 <ee_printf+0xb88>
    46f8:	94 0b 7f df 	and  %o5, -33, %o2
    46fc:	89 2a a0 18 	sll  %o2, 0x18, %g4
    4700:	97 39 20 18 	sra  %g4, 0x18, %o3
    4704:	80 a2 e0 45 	cmp  %o3, 0x45
    4708:	02 80 00 9f 	be  4984 <ee_printf+0xb68>
    470c:	82 00 60 01 	inc  %g1
    4710:	d8 48 40 00 	ldsb  [ %g1 ], %o4
    4714:	aa 10 00 01 	mov  %g1, %l5
    4718:	80 a3 20 00 	cmp  %o4, 0
    471c:	12 bf ff f3 	bne  46e8 <ee_printf+0x8cc>
    4720:	da 08 40 00 	ldub  [ %g1 ], %o5
    4724:	10 80 00 94 	b  4974 <ee_printf+0xb58>
    4728:	82 10 20 2e 	mov  0x2e, %g1
    472c:	c4 0d 40 08 	ldub  [ %l5 + %o0 ], %g2
    4730:	82 05 40 08 	add  %l5, %o0, %g1
    4734:	90 82 3f ff 	addcc  %o0, -1, %o0
    4738:	12 bf ff fd 	bne  472c <ee_printf+0x910>
    473c:	c4 28 60 01 	stb  %g2, [ %g1 + 1 ]
    4740:	82 10 20 2e 	mov  0x2e, %g1
    4744:	10 80 00 98 	b  49a4 <ee_printf+0xb88>
    4748:	c2 2d 40 00 	stb  %g1, [ %l5 ]
    474c:	80 a5 20 00 	cmp  %l4, 0
    4750:	04 80 00 0b 	ble  477c <ee_printf+0x960>
    4754:	82 05 3f ff 	add  %l4, -1, %g1
    4758:	86 07 40 14 	add  %i5, %l4, %g3
    475c:	82 10 20 20 	mov  0x20, %g1
    4760:	c2 2f 40 00 	stb  %g1, [ %i5 ]
    4764:	ba 07 60 01 	inc  %i5
    4768:	80 a7 40 03 	cmp  %i5, %g3
    476c:	32 bf ff fe 	bne,a   4764 <ee_printf+0x948>
    4770:	c2 2f 40 00 	stb  %g1, [ %i5 ]
    4774:	10 80 00 03 	b  4780 <ee_printf+0x964>
    4778:	a8 10 3f ff 	mov  -1, %l4
    477c:	a8 10 00 01 	mov  %g1, %l4
    4780:	80 8d a0 ff 	btst  0xff, %l6
    4784:	02 80 00 04 	be  4794 <ee_printf+0x978>
    4788:	80 8f 20 10 	btst  0x10, %i4
    478c:	ec 2f 40 00 	stb  %l6, [ %i5 ]
    4790:	ba 07 60 01 	inc  %i5
    4794:	12 80 00 0f 	bne  47d0 <ee_printf+0x9b4>
    4798:	80 a2 20 00 	cmp  %o0, 0
    479c:	80 a5 20 00 	cmp  %l4, 0
    47a0:	04 80 00 0a 	ble  47c8 <ee_printf+0x9ac>
    47a4:	82 05 3f ff 	add  %l4, -1, %g1
    47a8:	b8 07 40 14 	add  %i5, %l4, %i4
    47ac:	e6 2f 40 00 	stb  %l3, [ %i5 ]
    47b0:	ba 07 60 01 	inc  %i5
    47b4:	80 a7 40 1c 	cmp  %i5, %i4
    47b8:	32 bf ff fe 	bne,a   47b0 <ee_printf+0x994>
    47bc:	e6 2f 40 00 	stb  %l3, [ %i5 ]
    47c0:	10 80 00 03 	b  47cc <ee_printf+0x9b0>
    47c4:	a8 10 3f ff 	mov  -1, %l4
    47c8:	a8 10 00 01 	mov  %g1, %l4
    47cc:	80 a2 20 00 	cmp  %o0, 0
    47d0:	04 80 00 0a 	ble  47f8 <ee_printf+0x9dc>
    47d4:	82 10 20 00 	clr  %g1
    47d8:	a6 07 be 50 	add  %fp, -432, %l3
    47dc:	ec 08 40 13 	ldub  [ %g1 + %l3 ], %l6
    47e0:	ec 2f 40 01 	stb  %l6, [ %i5 + %g1 ]
    47e4:	82 00 60 01 	inc  %g1
    47e8:	80 a0 40 08 	cmp  %g1, %o0
    47ec:	32 bf ff fd 	bne,a   47e0 <ee_printf+0x9c4>
    47f0:	ec 08 40 13 	ldub  [ %g1 + %l3 ], %l6
    47f4:	ba 07 40 08 	add  %i5, %o0, %i5
    47f8:	80 a5 20 00 	cmp  %l4, 0
    47fc:	04 80 00 32 	ble  48c4 <ee_printf+0xaa8>
    4800:	90 07 40 14 	add  %i5, %l4, %o0
    4804:	82 10 20 20 	mov  0x20, %g1
    4808:	c2 2f 40 00 	stb  %g1, [ %i5 ]
    480c:	ba 07 60 01 	inc  %i5
    4810:	80 a7 40 08 	cmp  %i5, %o0
    4814:	32 bf ff fe 	bne,a   480c <ee_printf+0x9f0>
    4818:	c2 2f 40 00 	stb  %g1, [ %i5 ]
    481c:	10 80 00 2b 	b  48c8 <ee_printf+0xaac>
    4820:	c2 07 be 44 	ld  [ %fp + -444 ], %g1
    4824:	83 29 20 18 	sll  %g4, 0x18, %g1
    4828:	83 38 60 18 	sra  %g1, 0x18, %g1
    482c:	80 a0 60 25 	cmp  %g1, 0x25
    4830:	02 80 00 09 	be  4854 <ee_printf+0xa38>
    4834:	82 10 20 25 	mov  0x25, %g1
    4838:	c2 2f 40 00 	stb  %g1, [ %i5 ]
    483c:	ba 07 60 01 	inc  %i5
    4840:	c2 07 be 44 	ld  [ %fp + -444 ], %g1
    4844:	ec 48 40 00 	ldsb  [ %g1 ], %l6
    4848:	80 a5 a0 00 	cmp  %l6, 0
    484c:	02 80 00 05 	be  4860 <ee_printf+0xa44>
    4850:	e6 08 40 00 	ldub  [ %g1 ], %l3
    4854:	e6 2f 40 00 	stb  %l3, [ %i5 ]
    4858:	10 80 00 1b 	b  48c4 <ee_printf+0xaa8>
    485c:	ba 07 60 01 	inc  %i5
    4860:	82 00 7f ff 	add  %g1, -1, %g1
    4864:	10 80 00 18 	b  48c4 <ee_printf+0xaa8>
    4868:	c2 27 be 44 	st  %g1, [ %fp + -444 ]
    486c:	10 80 00 03 	b  4878 <ee_printf+0xa5c>
    4870:	94 10 20 0a 	mov  0xa, %o2
    4874:	94 10 20 10 	mov  0x10, %o2
    4878:	80 a2 20 6c 	cmp  %o0, 0x6c
    487c:	12 80 00 05 	bne  4890 <ee_printf+0xa74>
    4880:	80 8f 20 02 	btst  2, %i4
    4884:	d2 06 80 00 	ld  [ %i2 ], %o1
    4888:	10 80 00 07 	b  48a4 <ee_printf+0xa88>
    488c:	b4 06 a0 04 	add  %i2, 4, %i2
    4890:	02 80 00 04 	be  48a0 <ee_printf+0xa84>
    4894:	d2 06 80 00 	ld  [ %i2 ], %o1
    4898:	10 80 00 03 	b  48a4 <ee_printf+0xa88>
    489c:	b4 06 a0 04 	add  %i2, 4, %i2
    48a0:	b4 06 a0 04 	add  %i2, 4, %i2
    48a4:	90 10 00 1d 	mov  %i5, %o0
    48a8:	96 10 00 14 	mov  %l4, %o3
    48ac:	98 10 00 15 	mov  %l5, %o4
    48b0:	7f ff fc a5 	call  3b44 <number>
    48b4:	9a 10 00 1c 	mov  %i4, %o5
    48b8:	10 80 00 03 	b  48c4 <ee_printf+0xaa8>
    48bc:	ba 10 00 08 	mov  %o0, %i5
    48c0:	ba 10 00 0c 	mov  %o4, %i5
    48c4:	c2 07 be 44 	ld  [ %fp + -444 ], %g1
    48c8:	90 00 60 01 	add  %g1, 1, %o0
    48cc:	d0 27 be 44 	st  %o0, [ %fp + -444 ]
    48d0:	da 48 60 01 	ldsb  [ %g1 + 1 ], %o5
    48d4:	80 a3 60 00 	cmp  %o5, 0
    48d8:	12 bf fd 66 	bne  3e70 <ee_printf+0x54>
    48dc:	e6 08 60 01 	ldub  [ %g1 + 1 ], %l3
    48e0:	10 80 00 04 	b  48f0 <ee_printf+0xad4>
    48e4:	c0 2f 40 00 	clrb  [ %i5 ]
    48e8:	ba 07 be f8 	add  %fp, -264, %i5
    48ec:	c0 2f 40 00 	clrb  [ %i5 ]
    48f0:	c2 4f be f8 	ldsb  [ %fp + -264 ], %g1
    48f4:	80 a0 60 00 	cmp  %g1, 0
    48f8:	02 80 00 0e 	be  4930 <ee_printf+0xb14>
    48fc:	e2 0f be f8 	ldub  [ %fp + -264 ], %l1
    4900:	b0 10 20 00 	clr  %i0
    4904:	b5 2c 60 18 	sll  %l1, 0x18, %i2
    4908:	7f ff fd 3d 	call  3dfc <uart_send_char>
    490c:	91 3e a0 18 	sra  %i2, 0x18, %o0
    4910:	b0 06 20 01 	inc  %i0
    4914:	82 07 be f8 	add  %fp, -264, %g1
    4918:	e0 48 40 18 	ldsb  [ %g1 + %i0 ], %l0
    491c:	80 a4 20 00 	cmp  %l0, 0
    4920:	12 bf ff f9 	bne  4904 <ee_printf+0xae8>
    4924:	e2 0e 00 01 	ldub  [ %i0 + %g1 ], %l1
    4928:	81 c7 e0 08 	ret 
    492c:	81 e8 00 00 	restore 
    4930:	81 c7 e0 08 	ret 
    4934:	91 e8 20 00 	restore  %g0, 0, %o0
    4938:	d1 3f be 38 	std  %f8, [ %fp + -456 ]
    493c:	94 10 00 15 	mov  %l5, %o2
    4940:	d0 1f be 38 	ldd  [ %fp + -456 ], %o0
    4944:	96 07 be 48 	add  %fp, -440, %o3
    4948:	98 07 be 4c 	add  %fp, -436, %o4
    494c:	7f ff fb fb 	call  3938 <fcvtbuf>
    4950:	9a 10 00 1b 	mov  %i3, %o5
    4954:	c2 07 be 4c 	ld  [ %fp + -436 ], %g1
    4958:	80 a0 60 00 	cmp  %g1, 0
    495c:	12 bf ff 06 	bne  4574 <ee_printf+0x758>
    4960:	92 10 20 2d 	mov  0x2d, %o1
    4964:	10 bf ff 06 	b  457c <ee_printf+0x760>
    4968:	82 07 be 50 	add  %fp, -432, %g1
    496c:	aa 07 be 50 	add  %fp, -432, %l5
    4970:	82 10 20 2e 	mov  0x2e, %g1
    4974:	c0 2d 60 01 	clrb  [ %l5 + 1 ]
    4978:	10 80 00 0b 	b  49a4 <ee_printf+0xb88>
    497c:	c2 2d 40 00 	stb  %g1, [ %l5 ]
    4980:	aa 07 be 50 	add  %fp, -432, %l5
    4984:	90 10 00 15 	mov  %l5, %o0
    4988:	7f ff fc 40 	call  3a88 <strnlen>
    498c:	92 10 21 00 	mov  0x100, %o1
    4990:	80 a2 20 00 	cmp  %o0, 0
    4994:	34 bf ff 67 	bg,a   4730 <ee_printf+0x914>
    4998:	c4 0d 40 08 	ldub  [ %l5 + %o0 ], %g2
    499c:	10 bf ff 6a 	b  4744 <ee_printf+0x928>
    49a0:	82 10 20 2e 	mov  0x2e, %g1
    49a4:	90 07 be 50 	add  %fp, -432, %o0
    49a8:	7f ff fc 38 	call  3a88 <strnlen>
    49ac:	92 10 21 00 	mov  0x100, %o1
    49b0:	80 8f 20 11 	btst  0x11, %i4
    49b4:	02 bf ff 66 	be  474c <ee_printf+0x930>
    49b8:	a8 25 00 08 	sub  %l4, %o0, %l4
    49bc:	10 bf ff 72 	b  4784 <ee_printf+0x968>
    49c0:	80 8d a0 ff 	btst  0xff, %l6

000049c4 <cmp_idx>:
    49c4:	80 a2 a0 00 	cmp  %o2, 0
    49c8:	32 80 00 0f 	bne,a   4a04 <cmp_idx+0x40>
    49cc:	d0 52 20 02 	ldsh  [ %o0 + 2 ], %o0
    49d0:	c2 12 00 00 	lduh  [ %o0 ], %g1
    49d4:	85 28 60 10 	sll  %g1, 0x10, %g2
    49d8:	82 08 7f 00 	and  %g1, -256, %g1
    49dc:	87 30 a0 18 	srl  %g2, 0x18, %g3
    49e0:	82 10 c0 01 	or  %g3, %g1, %g1
    49e4:	c2 32 00 00 	sth  %g1, [ %o0 ]
    49e8:	c2 12 40 00 	lduh  [ %o1 ], %g1
    49ec:	89 28 60 10 	sll  %g1, 0x10, %g4
    49f0:	82 08 7f 00 	and  %g1, -256, %g1
    49f4:	95 31 20 18 	srl  %g4, 0x18, %o2
    49f8:	82 12 80 01 	or  %o2, %g1, %g1
    49fc:	c2 32 40 00 	sth  %g1, [ %o1 ]
    4a00:	d0 52 20 02 	ldsh  [ %o0 + 2 ], %o0
    4a04:	c2 52 60 02 	ldsh  [ %o1 + 2 ], %g1
    4a08:	81 c3 e0 08 	retl 
    4a0c:	90 22 00 01 	sub  %o0, %g1, %o0

00004a10 <calc_func>:
    4a10:	9d e3 bf a0 	save  %sp, -96, %sp
    4a14:	fa 16 00 00 	lduh  [ %i0 ], %i5
    4a18:	80 8f 60 80 	btst  0x80, %i5
    4a1c:	12 80 00 35 	bne  4af0 <calc_func+0xe0>
    4a20:	82 0f 60 7f 	and  %i5, 0x7f, %g1
    4a24:	83 37 60 03 	srl  %i5, 3, %g1
    4a28:	84 8f 60 07 	andcc  %i5, 7, %g2
    4a2c:	82 08 60 0f 	and  %g1, 0xf, %g1
    4a30:	93 28 60 04 	sll  %g1, 4, %o1
    4a34:	92 12 40 01 	or  %o1, %g1, %o1
    4a38:	02 80 00 07 	be  4a54 <calc_func+0x44>
    4a3c:	98 10 00 09 	mov  %o1, %o4
    4a40:	80 a0 a0 01 	cmp  %g2, 1
    4a44:	12 80 00 1c 	bne  4ab4 <calc_func+0xa4>
    4a48:	b8 10 00 1d 	mov  %i5, %i4
    4a4c:	10 80 00 12 	b  4a94 <calc_func+0x84>
    4a50:	90 06 60 28 	add  %i1, 0x28, %o0
    4a54:	80 a2 60 21 	cmp  %o1, 0x21
    4a58:	24 80 00 02 	ble,a   4a60 <calc_func+0x50>
    4a5c:	98 10 20 22 	mov  0x22, %o4
    4a60:	d0 06 60 18 	ld  [ %i1 + 0x18 ], %o0
    4a64:	d2 06 60 14 	ld  [ %i1 + 0x14 ], %o1
    4a68:	d4 56 40 00 	ldsh  [ %i1 ], %o2
    4a6c:	d6 56 60 02 	ldsh  [ %i1 + 2 ], %o3
    4a70:	98 0b 20 ff 	and  %o4, 0xff, %o4
    4a74:	7f ff fa 68 	call  3414 <core_bench_state>
    4a78:	da 16 60 38 	lduh  [ %i1 + 0x38 ], %o5
    4a7c:	c2 16 60 3e 	lduh  [ %i1 + 0x3e ], %g1
    4a80:	80 a0 60 00 	cmp  %g1, 0
    4a84:	12 80 00 0c 	bne  4ab4 <calc_func+0xa4>
    4a88:	b8 10 00 08 	mov  %o0, %i4
    4a8c:	10 80 00 0a 	b  4ab4 <calc_func+0xa4>
    4a90:	d0 36 60 3e 	sth  %o0, [ %i1 + 0x3e ]
    4a94:	40 00 04 96 	call  5cec <core_bench_matrix>
    4a98:	d4 16 60 38 	lduh  [ %i1 + 0x38 ], %o2
    4a9c:	c2 16 60 3c 	lduh  [ %i1 + 0x3c ], %g1
    4aa0:	80 a0 60 00 	cmp  %g1, 0
    4aa4:	12 80 00 04 	bne  4ab4 <calc_func+0xa4>
    4aa8:	b8 10 00 08 	mov  %o0, %i4
    4aac:	10 80 00 02 	b  4ab4 <calc_func+0xa4>
    4ab0:	d0 36 60 3c 	sth  %o0, [ %i1 + 0x3c ]
    4ab4:	d2 16 60 38 	lduh  [ %i1 + 0x38 ], %o1
    4ab8:	40 00 07 87 	call  68d4 <crcu8>
    4abc:	90 0f 20 ff 	and  %i4, 0xff, %o0
    4ac0:	83 2f 20 10 	sll  %i4, 0x10, %g1
    4ac4:	95 2a 20 10 	sll  %o0, 0x10, %o2
    4ac8:	91 30 60 18 	srl  %g1, 0x18, %o0
    4acc:	40 00 07 82 	call  68d4 <crcu8>
    4ad0:	93 32 a0 10 	srl  %o2, 0x10, %o1
    4ad4:	d0 36 60 38 	sth  %o0, [ %i1 + 0x38 ]
    4ad8:	96 0f 7f 00 	and  %i5, -256, %o3
    4adc:	90 0f 20 7f 	and  %i4, 0x7f, %o0
    4ae0:	9a 12 e0 80 	or  %o3, 0x80, %o5
    4ae4:	82 10 00 08 	mov  %o0, %g1
    4ae8:	b2 13 40 08 	or  %o5, %o0, %i1
    4aec:	f2 36 00 00 	sth  %i1, [ %i0 ]
    4af0:	b0 08 60 7f 	and  %g1, 0x7f, %i0
    4af4:	81 c7 e0 08 	ret 
    4af8:	81 e8 00 00 	restore 

00004afc <cmp_complex>:
    4afc:	9d e3 bf a0 	save  %sp, -96, %sp
    4b00:	92 10 00 1a 	mov  %i2, %o1
    4b04:	7f ff ff c3 	call  4a10 <calc_func>
    4b08:	90 10 00 18 	mov  %i0, %o0
    4b0c:	92 10 00 1a 	mov  %i2, %o1
    4b10:	ba 10 00 08 	mov  %o0, %i5
    4b14:	7f ff ff bf 	call  4a10 <calc_func>
    4b18:	90 10 00 19 	mov  %i1, %o0
    4b1c:	83 2f 60 10 	sll  %i5, 0x10, %g1
    4b20:	91 2a 20 10 	sll  %o0, 0x10, %o0
    4b24:	85 38 60 10 	sra  %g1, 0x10, %g2
    4b28:	b1 3a 20 10 	sra  %o0, 0x10, %i0
    4b2c:	b0 20 80 18 	sub  %g2, %i0, %i0
    4b30:	81 c7 e0 08 	ret 
    4b34:	81 e8 00 00 	restore 

00004b38 <copy_info>:
    4b38:	c2 12 40 00 	lduh  [ %o1 ], %g1
    4b3c:	c2 32 00 00 	sth  %g1, [ %o0 ]
    4b40:	c2 12 60 02 	lduh  [ %o1 + 2 ], %g1
    4b44:	81 c3 e0 08 	retl 
    4b48:	c2 32 20 02 	sth  %g1, [ %o0 + 2 ]

00004b4c <core_list_insert_new>:
    4b4c:	9d e3 bf a0 	save  %sp, -96, %sp
    4b50:	84 10 00 18 	mov  %i0, %g2
    4b54:	f0 06 80 00 	ld  [ %i2 ], %i0
    4b58:	82 06 20 08 	add  %i0, 8, %g1
    4b5c:	80 a0 40 1c 	cmp  %g1, %i4
    4b60:	1a 80 00 14 	bcc  4bb0 <core_list_insert_new+0x64>
    4b64:	01 00 00 00 	nop 
    4b68:	c6 06 c0 00 	ld  [ %i3 ], %g3
    4b6c:	88 00 e0 04 	add  %g3, 4, %g4
    4b70:	80 a7 40 04 	cmp  %i5, %g4
    4b74:	08 80 00 11 	bleu  4bb8 <core_list_insert_new+0x6c>
    4b78:	92 10 00 19 	mov  %i1, %o1
    4b7c:	c2 26 80 00 	st  %g1, [ %i2 ]
    4b80:	c2 00 80 00 	ld  [ %g2 ], %g1
    4b84:	c2 26 00 00 	st  %g1, [ %i0 ]
    4b88:	f0 20 80 00 	st  %i0, [ %g2 ]
    4b8c:	c2 06 c0 00 	ld  [ %i3 ], %g1
    4b90:	c2 26 20 04 	st  %g1, [ %i0 + 4 ]
    4b94:	c2 06 c0 00 	ld  [ %i3 ], %g1
    4b98:	82 00 60 04 	add  %g1, 4, %g1
    4b9c:	c2 26 c0 00 	st  %g1, [ %i3 ]
    4ba0:	7f ff ff e6 	call  4b38 <copy_info>
    4ba4:	d0 06 20 04 	ld  [ %i0 + 4 ], %o0
    4ba8:	81 c7 e0 08 	ret 
    4bac:	81 e8 00 00 	restore 
    4bb0:	81 c7 e0 08 	ret 
    4bb4:	91 e8 20 00 	restore  %g0, 0, %o0
    4bb8:	81 c7 e0 08 	ret 
    4bbc:	91 e8 20 00 	restore  %g0, 0, %o0

00004bc0 <core_list_remove>:
    4bc0:	82 10 00 08 	mov  %o0, %g1
    4bc4:	d0 02 00 00 	ld  [ %o0 ], %o0
    4bc8:	c4 00 60 04 	ld  [ %g1 + 4 ], %g2
    4bcc:	c6 02 20 04 	ld  [ %o0 + 4 ], %g3
    4bd0:	c6 20 60 04 	st  %g3, [ %g1 + 4 ]
    4bd4:	c4 22 20 04 	st  %g2, [ %o0 + 4 ]
    4bd8:	c8 00 40 00 	ld  [ %g1 ], %g4
    4bdc:	c4 01 00 00 	ld  [ %g4 ], %g2
    4be0:	c4 20 40 00 	st  %g2, [ %g1 ]
    4be4:	81 c3 e0 08 	retl 
    4be8:	c0 22 00 00 	clr  [ %o0 ]

00004bec <core_list_undo_remove>:
    4bec:	c4 02 20 04 	ld  [ %o0 + 4 ], %g2
    4bf0:	c6 02 60 04 	ld  [ %o1 + 4 ], %g3
    4bf4:	c6 22 20 04 	st  %g3, [ %o0 + 4 ]
    4bf8:	c4 22 60 04 	st  %g2, [ %o1 + 4 ]
    4bfc:	c8 02 40 00 	ld  [ %o1 ], %g4
    4c00:	c8 22 00 00 	st  %g4, [ %o0 ]
    4c04:	81 c3 e0 08 	retl 
    4c08:	d0 22 40 00 	st  %o0, [ %o1 ]

00004c0c <core_list_find>:
    4c0c:	c2 52 60 02 	ldsh  [ %o1 + 2 ], %g1
    4c10:	80 a0 60 00 	cmp  %g1, 0
    4c14:	16 80 00 0d 	bge  4c48 <core_list_find+0x3c>
    4c18:	c4 12 60 02 	lduh  [ %o1 + 2 ], %g2
    4c1c:	80 a2 20 00 	cmp  %o0, 0
    4c20:	02 80 00 26 	be  4cb8 <core_list_find+0xac>
    4c24:	01 00 00 00 	nop 
    4c28:	c6 52 40 00 	ldsh  [ %o1 ], %g3
    4c2c:	c2 02 20 04 	ld  [ %o0 + 4 ], %g1
    4c30:	c2 08 60 01 	ldub  [ %g1 + 1 ], %g1
    4c34:	80 a0 40 03 	cmp  %g1, %g3
    4c38:	32 80 00 18 	bne,a   4c98 <core_list_find+0x8c>
    4c3c:	d0 02 00 00 	ld  [ %o0 ], %o0
    4c40:	81 c3 e0 08 	retl 
    4c44:	01 00 00 00 	nop 
    4c48:	80 a2 20 00 	cmp  %o0, 0
    4c4c:	02 bf ff fd 	be  4c40 <core_list_find+0x34>
    4c50:	89 28 a0 10 	sll  %g2, 0x10, %g4
    4c54:	c2 02 20 04 	ld  [ %o0 + 4 ], %g1
    4c58:	c2 50 60 02 	ldsh  [ %g1 + 2 ], %g1
    4c5c:	93 39 20 10 	sra  %g4, 0x10, %o1
    4c60:	80 a2 40 01 	cmp  %o1, %g1
    4c64:	02 bf ff f7 	be  4c40 <core_list_find+0x34>
    4c68:	84 10 00 09 	mov  %o1, %g2
    4c6c:	d0 02 00 00 	ld  [ %o0 ], %o0
    4c70:	80 a2 20 00 	cmp  %o0, 0
    4c74:	02 80 00 11 	be  4cb8 <core_list_find+0xac>
    4c78:	01 00 00 00 	nop 
    4c7c:	c2 02 20 04 	ld  [ %o0 + 4 ], %g1
    4c80:	c2 50 60 02 	ldsh  [ %g1 + 2 ], %g1
    4c84:	80 a0 80 01 	cmp  %g2, %g1
    4c88:	32 bf ff fa 	bne,a   4c70 <core_list_find+0x64>
    4c8c:	d0 02 00 00 	ld  [ %o0 ], %o0
    4c90:	81 c3 e0 08 	retl 
    4c94:	01 00 00 00 	nop 
    4c98:	80 a2 20 00 	cmp  %o0, 0
    4c9c:	02 80 00 07 	be  4cb8 <core_list_find+0xac>
    4ca0:	01 00 00 00 	nop 
    4ca4:	c2 02 20 04 	ld  [ %o0 + 4 ], %g1
    4ca8:	c2 08 60 01 	ldub  [ %g1 + 1 ], %g1
    4cac:	80 a0 40 03 	cmp  %g1, %g3
    4cb0:	32 bf ff fa 	bne,a   4c98 <core_list_find+0x8c>
    4cb4:	d0 02 00 00 	ld  [ %o0 ], %o0
    4cb8:	81 c3 e0 08 	retl 
    4cbc:	01 00 00 00 	nop 

00004cc0 <core_list_reverse>:
    4cc0:	80 a2 20 00 	cmp  %o0, 0
    4cc4:	02 80 00 0c 	be  4cf4 <core_list_reverse+0x34>
    4cc8:	84 10 20 00 	clr  %g2
    4ccc:	10 80 00 04 	b  4cdc <core_list_reverse+0x1c>
    4cd0:	c2 02 00 00 	ld  [ %o0 ], %g1
    4cd4:	90 10 00 01 	mov  %g1, %o0
    4cd8:	c2 02 00 00 	ld  [ %o0 ], %g1
    4cdc:	c4 22 00 00 	st  %g2, [ %o0 ]
    4ce0:	80 a0 60 00 	cmp  %g1, 0
    4ce4:	12 bf ff fc 	bne  4cd4 <core_list_reverse+0x14>
    4ce8:	84 10 00 08 	mov  %o0, %g2
    4cec:	81 c3 e0 08 	retl 
    4cf0:	01 00 00 00 	nop 
    4cf4:	81 c3 e0 08 	retl 
    4cf8:	90 10 20 00 	clr  %o0	! 0 <_start>

00004cfc <core_list_mergesort>:
    4cfc:	9d e3 bf a0 	save  %sp, -96, %sp
    4d00:	b6 10 20 01 	mov  1, %i3
    4d04:	80 a6 20 00 	cmp  %i0, 0
    4d08:	02 80 00 4b 	be  4e34 <core_list_mergesort+0x138>
    4d0c:	a2 10 00 18 	mov  %i0, %l1
    4d10:	a6 10 20 00 	clr  %l3
    4d14:	a0 10 20 00 	clr  %l0
    4d18:	b0 10 20 00 	clr  %i0
    4d1c:	80 a6 e0 00 	cmp  %i3, 0
    4d20:	04 80 00 0d 	ble  4d54 <core_list_mergesort+0x58>
    4d24:	a6 04 e0 01 	inc  %l3
    4d28:	fa 04 40 00 	ld  [ %l1 ], %i5
    4d2c:	80 a7 60 00 	cmp  %i5, 0
    4d30:	02 80 00 0b 	be  4d5c <core_list_mergesort+0x60>
    4d34:	b8 10 20 01 	mov  1, %i4
    4d38:	10 80 00 0c 	b  4d68 <core_list_mergesort+0x6c>
    4d3c:	80 a7 00 1b 	cmp  %i4, %i3
    4d40:	80 a7 60 00 	cmp  %i5, 0
    4d44:	12 80 00 08 	bne  4d64 <core_list_mergesort+0x68>
    4d48:	b8 07 20 01 	inc  %i4
    4d4c:	10 80 00 2b 	b  4df8 <core_list_mergesort+0xfc>
    4d50:	a4 10 00 1b 	mov  %i3, %l2
    4d54:	ba 10 00 11 	mov  %l1, %i5
    4d58:	b8 10 20 00 	clr  %i4
    4d5c:	10 80 00 27 	b  4df8 <core_list_mergesort+0xfc>
    4d60:	a4 10 00 1b 	mov  %i3, %l2
    4d64:	80 a7 00 1b 	cmp  %i4, %i3
    4d68:	32 bf ff f6 	bne,a   4d40 <core_list_mergesort+0x44>
    4d6c:	fa 07 40 00 	ld  [ %i5 ], %i5
    4d70:	10 80 00 22 	b  4df8 <core_list_mergesort+0xfc>
    4d74:	a4 10 00 1b 	mov  %i3, %l2
    4d78:	80 a7 20 00 	cmp  %i4, 0
    4d7c:	12 80 00 06 	bne  4d94 <core_list_mergesort+0x98>
    4d80:	80 a7 60 00 	cmp  %i5, 0
    4d84:	82 10 00 1d 	mov  %i5, %g1
    4d88:	a4 04 bf ff 	add  %l2, -1, %l2
    4d8c:	10 80 00 16 	b  4de4 <core_list_mergesort+0xe8>
    4d90:	fa 07 40 00 	ld  [ %i5 ], %i5
    4d94:	02 80 00 05 	be  4da8 <core_list_mergesort+0xac>
    4d98:	82 10 00 11 	mov  %l1, %g1
    4d9c:	80 a4 a0 00 	cmp  %l2, 0
    4da0:	32 80 00 05 	bne,a   4db4 <core_list_mergesort+0xb8>
    4da4:	d0 04 60 04 	ld  [ %l1 + 4 ], %o0
    4da8:	b8 07 3f ff 	add  %i4, -1, %i4
    4dac:	10 80 00 0e 	b  4de4 <core_list_mergesort+0xe8>
    4db0:	e2 04 40 00 	ld  [ %l1 ], %l1
    4db4:	d2 07 60 04 	ld  [ %i5 + 4 ], %o1
    4db8:	9f c6 40 00 	call  %i1
    4dbc:	94 10 00 1a 	mov  %i2, %o2
    4dc0:	80 a2 20 00 	cmp  %o0, 0
    4dc4:	34 80 00 06 	bg,a   4ddc <core_list_mergesort+0xe0>
    4dc8:	82 10 00 1d 	mov  %i5, %g1
    4dcc:	82 10 00 11 	mov  %l1, %g1
    4dd0:	b8 07 3f ff 	add  %i4, -1, %i4
    4dd4:	10 80 00 04 	b  4de4 <core_list_mergesort+0xe8>
    4dd8:	e2 04 40 00 	ld  [ %l1 ], %l1
    4ddc:	a4 04 bf ff 	add  %l2, -1, %l2
    4de0:	fa 07 40 00 	ld  [ %i5 ], %i5
    4de4:	80 a4 20 00 	cmp  %l0, 0
    4de8:	22 80 00 03 	be,a   4df4 <core_list_mergesort+0xf8>
    4dec:	b0 10 00 01 	mov  %g1, %i0
    4df0:	c2 24 00 00 	st  %g1, [ %l0 ]
    4df4:	a0 10 00 01 	mov  %g1, %l0
    4df8:	80 a7 20 00 	cmp  %i4, 0
    4dfc:	14 bf ff e6 	bg  4d94 <core_list_mergesort+0x98>
    4e00:	80 a7 60 00 	cmp  %i5, 0
    4e04:	02 80 00 05 	be  4e18 <core_list_mergesort+0x11c>
    4e08:	01 00 00 00 	nop 
    4e0c:	80 a4 a0 00 	cmp  %l2, 0
    4e10:	14 bf ff da 	bg  4d78 <core_list_mergesort+0x7c>
    4e14:	80 a7 60 00 	cmp  %i5, 0
    4e18:	12 bf ff c1 	bne  4d1c <core_list_mergesort+0x20>
    4e1c:	a2 10 00 1d 	mov  %i5, %l1
    4e20:	80 a4 e0 01 	cmp  %l3, 1
    4e24:	04 80 00 05 	ble  4e38 <core_list_mergesort+0x13c>
    4e28:	c0 24 00 00 	clr  [ %l0 ]
    4e2c:	10 bf ff b6 	b  4d04 <core_list_mergesort+0x8>
    4e30:	b6 06 c0 1b 	add  %i3, %i3, %i3
    4e34:	c0 20 20 00 	clr  [ %g0 ]
    4e38:	81 c7 e0 08 	ret 
    4e3c:	81 e8 00 00 	restore 

00004e40 <core_list_init>:
    4e40:	9d e3 bf 98 	save  %sp, -104, %sp
    4e44:	f2 27 a0 48 	st  %i1, [ %fp + 0x48 ]
    4e48:	81 80 20 00 	mov  %g0, %y
    4e4c:	01 00 00 00 	nop 
    4e50:	01 00 00 00 	nop 
    4e54:	01 00 00 00 	nop 
    4e58:	b0 76 20 14 	udiv  %i0, 0x14, %i0
    4e5c:	b6 06 3f fe 	add  %i0, -2, %i3
    4e60:	b9 2e e0 03 	sll  %i3, 3, %i4
    4e64:	b8 06 40 1c 	add  %i1, %i4, %i4
    4e68:	f8 27 bf fc 	st  %i4, [ %fp + -4 ]
    4e6c:	c0 26 40 00 	clr  [ %i1 ]
    4e70:	f8 26 60 04 	st  %i4, [ %i1 + 4 ]
    4e74:	c0 37 20 02 	clrh  [ %i4 + 2 ]
    4e78:	c2 06 60 04 	ld  [ %i1 + 4 ], %g1
    4e7c:	05 3f ff e0 	sethi  %hi(0xffff8000), %g2
    4e80:	86 10 a0 80 	or  %g2, 0x80, %g3	! ffff8080 <static_memblk+0xfffd7910>
    4e84:	c6 30 40 00 	sth  %g3, [ %g1 ]
    4e88:	c2 07 bf fc 	ld  [ %fp + -4 ], %g1
    4e8c:	82 00 60 04 	add  %g1, 4, %g1
    4e90:	c2 27 bf fc 	st  %g1, [ %fp + -4 ]
    4e94:	82 10 3f ff 	mov  -1, %g1
    4e98:	d0 07 a0 48 	ld  [ %fp + 0x48 ], %o0
    4e9c:	89 2e e0 02 	sll  %i3, 2, %g4
    4ea0:	92 02 20 08 	add  %o0, 8, %o1
    4ea4:	c2 37 bf f8 	sth  %g1, [ %fp + -8 ]
    4ea8:	03 00 00 1f 	sethi  %hi(0x7c00), %g1
    4eac:	82 10 63 ff 	or  %g1, 0x3ff, %g1	! 7fff <check_data_types+0x1507>
    4eb0:	b0 07 00 04 	add  %i4, %g4, %i0
    4eb4:	d2 27 a0 48 	st  %o1, [ %fp + 0x48 ]
    4eb8:	c2 37 bf fa 	sth  %g1, [ %fp + -6 ]
    4ebc:	90 10 00 19 	mov  %i1, %o0
    4ec0:	92 07 bf f8 	add  %fp, -8, %o1
    4ec4:	94 07 a0 48 	add  %fp, 0x48, %o2
    4ec8:	96 07 bf fc 	add  %fp, -4, %o3
    4ecc:	98 10 00 1c 	mov  %i4, %o4
    4ed0:	7f ff ff 1f 	call  4b4c <core_list_insert_new>
    4ed4:	9a 10 00 18 	mov  %i0, %o5
    4ed8:	80 a6 e0 00 	cmp  %i3, 0
    4edc:	22 80 00 17 	be,a   4f38 <core_list_init+0xf8>
    4ee0:	c2 06 40 00 	ld  [ %i1 ], %g1
    4ee4:	ba 10 20 00 	clr  %i5
    4ee8:	94 0f 60 07 	and  %i5, 7, %o2
    4eec:	82 1f 40 1a 	xor  %i5, %i2, %g1
    4ef0:	82 08 60 0f 	and  %g1, 0xf, %g1
    4ef4:	83 28 60 03 	sll  %g1, 3, %g1
    4ef8:	82 10 40 0a 	or  %g1, %o2, %g1
    4efc:	99 28 60 08 	sll  %g1, 8, %o4
    4f00:	82 13 00 01 	or  %o4, %g1, %g1
    4f04:	90 10 00 19 	mov  %i1, %o0
    4f08:	92 07 bf f8 	add  %fp, -8, %o1
    4f0c:	94 07 a0 48 	add  %fp, 0x48, %o2
    4f10:	96 07 bf fc 	add  %fp, -4, %o3
    4f14:	98 10 00 1c 	mov  %i4, %o4
    4f18:	c2 37 bf f8 	sth  %g1, [ %fp + -8 ]
    4f1c:	7f ff ff 0c 	call  4b4c <core_list_insert_new>
    4f20:	9a 10 00 18 	mov  %i0, %o5
    4f24:	ba 07 60 01 	inc  %i5
    4f28:	80 a6 c0 1d 	cmp  %i3, %i5
    4f2c:	12 bf ff f0 	bne  4eec <core_list_init+0xac>
    4f30:	94 0f 60 07 	and  %i5, 7, %o2
    4f34:	c2 06 40 00 	ld  [ %i1 ], %g1
    4f38:	d6 00 40 00 	ld  [ %g1 ], %o3
    4f3c:	80 a2 e0 00 	cmp  %o3, 0
    4f40:	02 80 00 1c 	be  4fb0 <core_list_init+0x170>
    4f44:	1f 00 00 0f 	sethi  %hi(0x3c00), %o7
    4f48:	81 80 20 00 	mov  %g0, %y
    4f4c:	01 00 00 00 	nop 
    4f50:	01 00 00 00 	nop 
    4f54:	01 00 00 00 	nop 
    4f58:	9a 76 e0 05 	udiv  %i3, 5, %o5
    4f5c:	86 10 20 02 	mov  2, %g3
    4f60:	84 10 20 01 	mov  1, %g2
    4f64:	b0 13 e3 ff 	or  %o7, 0x3ff, %i0
    4f68:	80 a0 80 0d 	cmp  %g2, %o5
    4f6c:	3a 80 00 05 	bcc,a   4f80 <core_list_init+0x140>
    4f70:	c8 00 60 04 	ld  [ %g1 + 4 ], %g4
    4f74:	d8 00 60 04 	ld  [ %g1 + 4 ], %o4
    4f78:	10 80 00 08 	b  4f98 <core_list_init+0x158>
    4f7c:	c4 33 20 02 	sth  %g2, [ %o4 + 2 ]
    4f80:	b8 08 e0 07 	and  %g3, 7, %i4
    4f84:	b6 18 80 1a 	xor  %g2, %i2, %i3
    4f88:	91 2f 20 08 	sll  %i4, 8, %o0
    4f8c:	92 12 00 1b 	or  %o0, %i3, %o1
    4f90:	94 0a 40 18 	and  %o1, %i0, %o2
    4f94:	d4 31 20 02 	sth  %o2, [ %g4 + 2 ]
    4f98:	c2 00 40 00 	ld  [ %g1 ], %g1
    4f9c:	84 00 a0 01 	inc  %g2
    4fa0:	fa 00 40 00 	ld  [ %g1 ], %i5
    4fa4:	80 a7 60 00 	cmp  %i5, 0
    4fa8:	12 bf ff f0 	bne  4f68 <core_list_init+0x128>
    4fac:	86 00 e0 01 	inc  %g3
    4fb0:	90 10 00 19 	mov  %i1, %o0
    4fb4:	94 10 20 00 	clr  %o2
    4fb8:	33 00 00 12 	sethi  %hi(0x4800), %i1
    4fbc:	7f ff ff 50 	call  4cfc <core_list_mergesort>
    4fc0:	92 16 61 c4 	or  %i1, 0x1c4, %o1	! 49c4 <cmp_idx>
    4fc4:	81 c7 e0 08 	ret 
    4fc8:	91 e8 00 08 	restore  %g0, %o0, %o0

00004fcc <core_bench_list>:
    4fcc:	9d e3 bf 98 	save  %sp, -104, %sp
    4fd0:	c0 37 bf fc 	clrh  [ %fp + -4 ]
    4fd4:	f2 37 bf fe 	sth  %i1, [ %fp + -2 ]
    4fd8:	e2 16 20 04 	lduh  [ %i0 + 4 ], %l1
    4fdc:	83 2c 60 10 	sll  %l1, 0x10, %g1
    4fe0:	80 a0 60 00 	cmp  %g1, 0
    4fe4:	04 80 00 38 	ble  50c4 <core_bench_list+0xf8>
    4fe8:	fa 06 20 24 	ld  [ %i0 + 0x24 ], %i5
    4fec:	b6 10 20 00 	clr  %i3
    4ff0:	a4 10 20 00 	clr  %l2
    4ff4:	b4 10 20 00 	clr  %i2
    4ff8:	a0 10 20 00 	clr  %l0
    4ffc:	a3 38 60 10 	sra  %g1, 0x10, %l1
    5000:	82 0e e0 ff 	and  %i3, 0xff, %g1
    5004:	92 07 bf fc 	add  %fp, -4, %o1
    5008:	90 10 00 1d 	mov  %i5, %o0
    500c:	7f ff ff 00 	call  4c0c <core_list_find>
    5010:	c2 37 bf fc 	sth  %g1, [ %fp + -4 ]
    5014:	b8 10 00 08 	mov  %o0, %i4
    5018:	7f ff ff 2a 	call  4cc0 <core_list_reverse>
    501c:	90 10 00 1d 	mov  %i5, %o0
    5020:	80 a7 20 00 	cmp  %i4, 0
    5024:	12 80 00 09 	bne  5048 <core_bench_list+0x7c>
    5028:	ba 10 00 08 	mov  %o0, %i5
    502c:	c2 02 00 00 	ld  [ %o0 ], %g1
    5030:	a4 04 a0 01 	inc  %l2
    5034:	c2 00 60 04 	ld  [ %g1 + 4 ], %g1
    5038:	c2 48 40 00 	ldsb  [ %g1 ], %g1
    503c:	82 08 60 01 	and  %g1, 1, %g1
    5040:	10 80 00 13 	b  508c <core_bench_list+0xc0>
    5044:	a0 00 40 10 	add  %g1, %l0, %l0
    5048:	c2 07 20 04 	ld  [ %i4 + 4 ], %g1
    504c:	c2 10 40 00 	lduh  [ %g1 ], %g1
    5050:	80 88 60 01 	btst  1, %g1
    5054:	02 80 00 05 	be  5068 <core_bench_list+0x9c>
    5058:	b4 06 a0 01 	inc  %i2
    505c:	83 30 60 09 	srl  %g1, 9, %g1
    5060:	82 08 60 01 	and  %g1, 1, %g1
    5064:	a0 00 40 10 	add  %g1, %l0, %l0
    5068:	c2 07 00 00 	ld  [ %i4 ], %g1
    506c:	80 a0 60 00 	cmp  %g1, 0
    5070:	22 80 00 08 	be,a   5090 <core_bench_list+0xc4>
    5074:	c2 57 bf fe 	ldsh  [ %fp + -2 ], %g1
    5078:	c6 00 40 00 	ld  [ %g1 ], %g3
    507c:	c6 27 00 00 	st  %g3, [ %i4 ]
    5080:	c8 07 40 00 	ld  [ %i5 ], %g4
    5084:	c8 20 40 00 	st  %g4, [ %g1 ]
    5088:	c2 27 40 00 	st  %g1, [ %i5 ]
    508c:	c2 57 bf fe 	ldsh  [ %fp + -2 ], %g1
    5090:	80 a0 60 00 	cmp  %g1, 0
    5094:	06 80 00 04 	bl  50a4 <core_bench_list+0xd8>
    5098:	d0 17 bf fe 	lduh  [ %fp + -2 ], %o0
    509c:	92 02 20 01 	add  %o0, 1, %o1
    50a0:	d2 37 bf fe 	sth  %o1, [ %fp + -2 ]
    50a4:	b6 06 e0 01 	inc  %i3
    50a8:	83 2e e0 10 	sll  %i3, 0x10, %g1
    50ac:	83 38 60 10 	sra  %g1, 0x10, %g1
    50b0:	80 a0 40 11 	cmp  %g1, %l1
    50b4:	12 bf ff d4 	bne  5004 <core_bench_list+0x38>
    50b8:	82 0e e0 ff 	and  %i3, 0xff, %g1
    50bc:	10 80 00 06 	b  50d4 <core_bench_list+0x108>
    50c0:	95 2e a0 02 	sll  %i2, 2, %o2
    50c4:	a4 10 20 00 	clr  %l2
    50c8:	b4 10 20 00 	clr  %i2
    50cc:	a0 10 20 00 	clr  %l0
    50d0:	95 2e a0 02 	sll  %i2, 2, %o2
    50d4:	80 a6 60 00 	cmp  %i1, 0
    50d8:	96 22 80 12 	sub  %o2, %l2, %o3
    50dc:	04 80 00 08 	ble  50fc <core_bench_list+0x130>
    50e0:	a0 02 c0 10 	add  %o3, %l0, %l0
    50e4:	19 00 00 12 	sethi  %hi(0x4800), %o4
    50e8:	90 10 00 1d 	mov  %i5, %o0
    50ec:	94 10 00 18 	mov  %i0, %o2
    50f0:	7f ff ff 03 	call  4cfc <core_list_mergesort>
    50f4:	92 13 22 fc 	or  %o4, 0x2fc, %o1
    50f8:	ba 10 00 08 	mov  %o0, %i5
    50fc:	7f ff fe b1 	call  4bc0 <core_list_remove>
    5100:	d0 07 40 00 	ld  [ %i5 ], %o0
    5104:	92 07 bf fc 	add  %fp, -4, %o1
    5108:	b0 10 00 08 	mov  %o0, %i0
    510c:	7f ff fe c0 	call  4c0c <core_list_find>
    5110:	90 10 00 1d 	mov  %i5, %o0
    5114:	80 a2 20 00 	cmp  %o0, 0
    5118:	12 80 00 06 	bne  5130 <core_bench_list+0x164>
    511c:	b2 10 00 08 	mov  %o0, %i1
    5120:	f2 07 40 00 	ld  [ %i5 ], %i1
    5124:	80 a6 60 00 	cmp  %i1, 0
    5128:	22 80 00 0c 	be,a   5158 <core_bench_list+0x18c>
    512c:	d2 07 40 00 	ld  [ %i5 ], %o1
    5130:	9b 2c 20 10 	sll  %l0, 0x10, %o5
    5134:	c2 07 60 04 	ld  [ %i5 + 4 ], %g1
    5138:	93 33 60 10 	srl  %o5, 0x10, %o1
    513c:	40 00 06 32 	call  6a04 <crc16>
    5140:	d0 50 40 00 	ldsh  [ %g1 ], %o0
    5144:	f2 06 40 00 	ld  [ %i1 ], %i1
    5148:	80 a6 60 00 	cmp  %i1, 0
    514c:	12 bf ff f9 	bne  5130 <core_bench_list+0x164>
    5150:	a0 10 00 08 	mov  %o0, %l0
    5154:	d2 07 40 00 	ld  [ %i5 ], %o1
    5158:	7f ff fe a5 	call  4bec <core_list_undo_remove>
    515c:	90 10 00 18 	mov  %i0, %o0
    5160:	90 10 00 1d 	mov  %i5, %o0
    5164:	94 10 20 00 	clr  %o2
    5168:	25 00 00 12 	sethi  %hi(0x4800), %l2
    516c:	7f ff fe e4 	call  4cfc <core_list_mergesort>
    5170:	92 14 a1 c4 	or  %l2, 0x1c4, %o1	! 49c4 <cmp_idx>
    5174:	e2 02 00 00 	ld  [ %o0 ], %l1
    5178:	80 a4 60 00 	cmp  %l1, 0
    517c:	02 80 00 0b 	be  51a8 <core_bench_list+0x1dc>
    5180:	b4 10 00 08 	mov  %o0, %i2
    5184:	9f 2c 20 10 	sll  %l0, 0x10, %o7
    5188:	c2 06 a0 04 	ld  [ %i2 + 4 ], %g1
    518c:	93 33 e0 10 	srl  %o7, 0x10, %o1
    5190:	40 00 06 1d 	call  6a04 <crc16>
    5194:	d0 50 40 00 	ldsh  [ %g1 ], %o0
    5198:	e2 04 40 00 	ld  [ %l1 ], %l1
    519c:	80 a4 60 00 	cmp  %l1, 0
    51a0:	12 bf ff f9 	bne  5184 <core_bench_list+0x1b8>
    51a4:	a0 10 00 08 	mov  %o0, %l0
    51a8:	85 2c 20 10 	sll  %l0, 0x10, %g2
    51ac:	b1 30 a0 10 	srl  %g2, 0x10, %i0
    51b0:	81 c7 e0 08 	ret 
    51b4:	81 e8 00 00 	restore 

000051b8 <barebones_clock>:
    51b8:	9d e3 bf a0 	save  %sp, -96, %sp
    51bc:	40 00 00 87 	call  53d8 <__ajit_read_cycle_count_register_high__>
    51c0:	01 00 00 00 	nop 
    51c4:	40 00 00 88 	call  53e4 <__ajit_read_cycle_count_register_low__>
    51c8:	b0 10 00 08 	mov  %o0, %i0
    51cc:	83 2e 20 18 	sll  %i0, 0x18, %g1
    51d0:	91 32 20 08 	srl  %o0, 8, %o0
    51d4:	b0 12 00 01 	or  %o0, %g1, %i0
    51d8:	81 c7 e0 08 	ret 
    51dc:	81 e8 00 00 	restore 

000051e0 <start_time>:
    51e0:	9d e3 bf a0 	save  %sp, -96, %sp
    51e4:	7f ff ff f5 	call  51b8 <barebones_clock>
    51e8:	01 00 00 00 	nop 
    51ec:	03 00 00 81 	sethi  %hi(0x20400), %g1
    51f0:	d0 20 63 68 	st  %o0, [ %g1 + 0x368 ]	! 20768 <start_time_val>
    51f4:	81 c7 e0 08 	ret 
    51f8:	81 e8 00 00 	restore 

000051fc <stop_time>:
    51fc:	9d e3 bf a0 	save  %sp, -96, %sp
    5200:	7f ff ff ee 	call  51b8 <barebones_clock>
    5204:	01 00 00 00 	nop 
    5208:	03 00 00 81 	sethi  %hi(0x20400), %g1
    520c:	d0 20 63 6c 	st  %o0, [ %g1 + 0x36c ]	! 2076c <stop_time_val>
    5210:	81 c7 e0 08 	ret 
    5214:	81 e8 00 00 	restore 

00005218 <get_time>:
    5218:	03 00 00 81 	sethi  %hi(0x20400), %g1
    521c:	d0 00 63 6c 	ld  [ %g1 + 0x36c ], %o0	! 2076c <stop_time_val>
    5220:	03 00 00 81 	sethi  %hi(0x20400), %g1
    5224:	c2 00 63 68 	ld  [ %g1 + 0x368 ], %g1	! 20768 <start_time_val>
    5228:	81 c3 e0 08 	retl 
    522c:	90 22 00 01 	sub  %o0, %g1, %o0

00005230 <time_in_secs>:
    5230:	9c 03 bf b0 	add  %sp, -80, %sp
    5234:	d0 23 a0 4c 	st  %o0, [ %sp + 0x4c ]
    5238:	80 a2 20 00 	cmp  %o0, 0
    523c:	d5 03 a0 4c 	ld  [ %sp + 0x4c ], %f10
    5240:	16 80 00 05 	bge  5254 <time_in_secs+0x24>
    5244:	91 a0 19 0a 	fitod  %f10, %f8
    5248:	03 00 00 81 	sethi  %hi(0x20400), %g1
    524c:	c1 18 62 98 	ldd  [ %g1 + 0x298 ], %f0	! 20698 <state_known_crc+0x684>
    5250:	91 a2 08 40 	faddd  %f8, %f0, %f8
    5254:	03 00 00 81 	sethi  %hi(0x20400), %g1
    5258:	9c 23 bf b0 	sub  %sp, -80, %sp
    525c:	c5 18 62 a0 	ldd  [ %g1 + 0x2a0 ], %f2
    5260:	81 c3 e0 08 	retl 
    5264:	81 a2 09 c2 	fdivd  %f8, %f2, %f0

00005268 <portable_init>:
    5268:	9d e3 bf a0 	save  %sp, -96, %sp
    526c:	90 10 20 01 	mov  1, %o0
    5270:	92 10 20 00 	clr  %o1
    5274:	40 00 00 c3 	call  5580 <__ajit_serial_configure__>
    5278:	94 10 20 00 	clr  %o2
    527c:	92 10 20 0d 	mov  0xd, %o1
    5280:	11 00 00 80 	sethi  %hi(0x20000), %o0
    5284:	40 00 01 02 	call  568c <__ajit_serial_puts__>
    5288:	90 12 21 58 	or  %o0, 0x158, %o0	! 20158 <state_known_crc+0x144>
    528c:	03 00 00 81 	sethi  %hi(0x20400), %g1
    5290:	c0 20 63 64 	clr  [ %g1 + 0x364 ]	! 20764 <seed1_volatile>
    5294:	03 00 00 81 	sethi  %hi(0x20400), %g1
    5298:	c0 20 63 60 	clr  [ %g1 + 0x360 ]	! 20760 <seed2_volatile>
    529c:	84 10 20 66 	mov  0x66, %g2
    52a0:	03 00 00 81 	sethi  %hi(0x20400), %g1
    52a4:	c4 20 62 fc 	st  %g2, [ %g1 + 0x2fc ]	! 206fc <seed3_volatile>
    52a8:	86 10 27 d0 	mov  0x7d0, %g3
    52ac:	03 00 00 81 	sethi  %hi(0x20400), %g1
    52b0:	c6 20 62 f8 	st  %g3, [ %g1 + 0x2f8 ]	! 206f8 <seed4_volatile>
    52b4:	03 00 00 81 	sethi  %hi(0x20400), %g1
    52b8:	c0 20 62 f4 	clr  [ %g1 + 0x2f4 ]	! 206f4 <seed5_volatile>
    52bc:	82 10 20 01 	mov  1, %g1
    52c0:	c2 2e 00 00 	stb  %g1, [ %i0 ]
    52c4:	81 c7 e0 08 	ret 
    52c8:	81 e8 00 00 	restore 

000052cc <portable_fini>:
    52cc:	9d e3 bf a0 	save  %sp, -96, %sp
    52d0:	92 10 20 0e 	mov  0xe, %o1
    52d4:	11 00 00 80 	sethi  %hi(0x20000), %o0
    52d8:	40 00 00 ed 	call  568c <__ajit_serial_puts__>
    52dc:	90 12 21 68 	or  %o0, 0x168, %o0	! 20168 <state_known_crc+0x154>
    52e0:	c0 2e 00 00 	clrb  [ %i0 ]
    52e4:	81 c7 e0 08 	ret 
    52e8:	81 e8 00 00 	restore 

000052ec <__ajit_clear_all_gp_registers__>:
    52ec:	82 10 00 00 	mov  %g0, %g1
    52f0:	84 10 00 00 	mov  %g0, %g2
    52f4:	86 10 00 00 	mov  %g0, %g3
    52f8:	88 10 00 00 	mov  %g0, %g4
    52fc:	8a 10 00 00 	mov  %g0, %g5
    5300:	8c 10 00 00 	mov  %g0, %g6
    5304:	8e 10 00 00 	mov  %g0, %g7
    5308:	b0 10 00 00 	mov  %g0, %i0
    530c:	b2 10 00 00 	mov  %g0, %i1
    5310:	b4 10 00 00 	mov  %g0, %i2
    5314:	b6 10 00 00 	mov  %g0, %i3
    5318:	b8 10 00 00 	mov  %g0, %i4
    531c:	ba 10 00 00 	mov  %g0, %i5
    5320:	bc 10 00 00 	mov  %g0, %fp
    5324:	be 10 00 00 	mov  %g0, %i7
    5328:	a0 10 00 00 	mov  %g0, %l0
    532c:	a2 10 00 00 	mov  %g0, %l1
    5330:	a4 10 00 00 	mov  %g0, %l2
    5334:	a6 10 00 00 	mov  %g0, %l3
    5338:	a8 10 00 00 	mov  %g0, %l4
    533c:	aa 10 00 00 	mov  %g0, %l5
    5340:	ac 10 00 00 	mov  %g0, %l6
    5344:	ae 10 00 00 	mov  %g0, %l7
    5348:	90 10 00 00 	mov  %g0, %o0
    534c:	92 10 00 00 	mov  %g0, %o1
    5350:	94 10 00 00 	mov  %g0, %o2
    5354:	96 10 00 00 	mov  %g0, %o3
    5358:	98 10 00 00 	mov  %g0, %o4
    535c:	9a 10 00 00 	mov  %g0, %o5
    5360:	9c 10 00 00 	mov  %g0, %sp
    5364:	9e 10 00 00 	mov  %g0, %o7
    5368:	82 10 20 07 	mov  7, %g1
    536c:	81 e0 00 00 	save 
    5370:	a0 10 00 00 	mov  %g0, %l0
    5374:	a2 10 00 00 	mov  %g0, %l1
    5378:	a4 10 00 00 	mov  %g0, %l2
    537c:	a6 10 00 00 	mov  %g0, %l3
    5380:	a8 10 00 00 	mov  %g0, %l4
    5384:	aa 10 00 00 	mov  %g0, %l5
    5388:	ac 10 00 00 	mov  %g0, %l6
    538c:	ae 10 00 00 	mov  %g0, %l7
    5390:	90 10 00 00 	mov  %g0, %o0
    5394:	92 10 00 00 	mov  %g0, %o1
    5398:	94 10 00 00 	mov  %g0, %o2
    539c:	96 10 00 00 	mov  %g0, %o3
    53a0:	98 10 00 00 	mov  %g0, %o4
    53a4:	9a 10 00 00 	mov  %g0, %o5
    53a8:	9c 10 00 00 	mov  %g0, %sp
    53ac:	9e 10 00 00 	mov  %g0, %o7
    53b0:	82 80 7f ff 	addcc  %g1, -1, %g1
    53b4:	12 bf ff ee 	bne  536c <__ajit_clear_all_gp_registers__+0x80>
    53b8:	01 00 00 00 	nop 
    53bc:	82 10 20 07 	mov  7, %g1	! 7 <_start+0x7>
    53c0:	81 e8 00 00 	restore 
    53c4:	82 80 7f ff 	addcc  %g1, -1, %g1
    53c8:	12 bf ff fe 	bne  53c0 <__ajit_clear_all_gp_registers__+0xd4>
    53cc:	01 00 00 00 	nop 
    53d0:	81 c3 e0 08 	retl 
    53d4:	01 00 00 00 	nop 

000053d8 <__ajit_read_cycle_count_register_high__>:
    53d8:	91 47 80 00 	rd  %asr30, %o0
    53dc:	81 c3 e0 08 	retl 
    53e0:	01 00 00 00 	nop 

000053e4 <__ajit_read_cycle_count_register_low__>:
    53e4:	91 47 c0 00 	rd  %asr31, %o0
    53e8:	81 c3 e0 08 	retl 
    53ec:	01 00 00 00 	nop 

000053f0 <__ajit_get_clock_time>:
    53f0:	99 47 c0 00 	rd  %asr31, %o4
    53f4:	83 47 80 00 	rd  %asr30, %g1
    53f8:	88 10 20 00 	clr  %g4
    53fc:	86 10 20 00 	clr  %g3
    5400:	90 10 40 04 	or  %g1, %g4, %o0
    5404:	81 c3 e0 08 	retl 
    5408:	92 10 c0 0c 	or  %g3, %o4, %o1

0000540c <__ajit_set_mmu_default_cacheable_bit__>:
    540c:	80 a0 00 08 	cmp  %g0, %o0
    5410:	84 10 20 00 	clr  %g2
    5414:	82 40 20 00 	addx  %g0, 0, %g1
    5418:	83 28 60 08 	sll  %g1, 8, %g1
    541c:	c2 a0 80 80 	sta  %g1, [ %g2 ] #ASI_N
    5420:	81 c3 e0 08 	retl 
    5424:	01 00 00 00 	nop 

00005428 <__ajit_store_word_mmu_reg__>:
    5428:	d0 a2 40 80 	sta  %o0, [ %o1 ] #ASI_N
    542c:	81 c3 e0 08 	retl 
    5430:	01 00 00 00 	nop 

00005434 <__ajit_store_word_mmu_bypass__>:
    5434:	d0 a2 44 00 	sta  %o0, [ %o1 ] #ASI_SCRATCHPAD
    5438:	81 c3 e0 08 	retl 
    543c:	01 00 00 00 	nop 

00005440 <__ajit_load_word_mmu_reg__>:
    5440:	d0 82 00 80 	lda  [ %o0 ] #ASI_N, %o0
    5444:	81 c3 e0 08 	retl 
    5448:	01 00 00 00 	nop 

0000544c <__ajit_load_word_mmu_bypass__>:
    544c:	d0 82 04 00 	lda  [ %o0 ] #ASI_SCRATCHPAD, %o0
    5450:	81 c3 e0 08 	retl 
    5454:	01 00 00 00 	nop 

00005458 <__ajit_enable_mmu__>:
    5458:	82 10 20 00 	clr  %g1	! 0 <_start>
    545c:	c2 80 40 80 	lda  [ %g1 ] #ASI_N, %g1
    5460:	84 10 20 00 	clr  %g2
    5464:	82 10 60 01 	or  %g1, 1, %g1
    5468:	c2 a0 80 80 	sta  %g1, [ %g2 ] #ASI_N
    546c:	81 c3 e0 08 	retl 
    5470:	01 00 00 00 	nop 

00005474 <__ajit_disable_mmu__>:
    5474:	82 10 20 00 	clr  %g1	! 0 <_start>
    5478:	c2 80 40 80 	lda  [ %g1 ] #ASI_N, %g1
    547c:	84 10 20 00 	clr  %g2
    5480:	82 08 7f fe 	and  %g1, -2, %g1
    5484:	c2 a0 80 80 	sta  %g1, [ %g2 ] #ASI_N
    5488:	81 c3 e0 08 	retl 
    548c:	01 00 00 00 	nop 

00005490 <__ajit_mmu_flush__>:
    5490:	d0 a2 40 60 	sta  %o0, [ %o1 ] (3)
    5494:	81 c3 e0 08 	retl 
    5498:	01 00 00 00 	nop 

0000549c <__ajit_mmu_probe__>:
    549c:	d0 82 00 60 	lda  [ %o0 ] (3), %o0
    54a0:	81 c3 e0 08 	retl 
    54a4:	01 00 00 00 	nop 

000054a8 <__ajit_mmu_context_switch__>:
    54a8:	a0 10 00 08 	mov  %o0, %l0
    54ac:	c0 a0 02 60 	sta  %g0, [ %g0 ] (19)
    54b0:	81 d8 20 00 	flush  %g0
    54b4:	c0 a0 00 60 	sta  %g0, [ %g0 ] (3)
    54b8:	82 10 22 00 	mov  0x200, %g1
    54bc:	e0 a0 40 80 	sta  %l0, [ %g1 ] #ASI_N
    54c0:	c0 a0 02 60 	sta  %g0, [ %g0 ] (19)
    54c4:	81 d8 20 00 	flush  %g0
    54c8:	c0 a0 00 60 	sta  %g0, [ %g0 ] (3)
    54cc:	81 c3 e0 08 	retl 
    54d0:	01 00 00 00 	nop 

000054d4 <_ajit_va_l1_offset>:
    54d4:	81 c3 e0 08 	retl 
    54d8:	91 32 20 18 	srl  %o0, 0x18, %o0

000054dc <_ajit_va_l2_offset>:
    54dc:	91 32 20 12 	srl  %o0, 0x12, %o0
    54e0:	81 c3 e0 08 	retl 
    54e4:	90 0a 20 1f 	and  %o0, 0x1f, %o0

000054e8 <_ajit_va_l3_offset>:
    54e8:	91 32 20 0c 	srl  %o0, 0xc, %o0
    54ec:	81 c3 e0 08 	retl 
    54f0:	90 0a 20 1f 	and  %o0, 0x1f, %o0

000054f4 <__ajit_make_pte__>:
    54f4:	93 2a 60 07 	sll  %o1, 7, %o1
    54f8:	95 2a a0 06 	sll  %o2, 6, %o2
    54fc:	82 12 60 02 	or  %o1, 2, %g1
    5500:	97 2a e0 05 	sll  %o3, 5, %o3
    5504:	84 10 40 0a 	or  %g1, %o2, %g2
    5508:	99 2b 20 02 	sll  %o4, 2, %o4
    550c:	86 10 80 0b 	or  %g2, %o3, %g3
    5510:	91 2a 20 08 	sll  %o0, 8, %o0
    5514:	88 10 c0 0c 	or  %g3, %o4, %g4
    5518:	81 c3 e0 08 	retl 
    551c:	90 11 00 08 	or  %g4, %o0, %o0

00005520 <__ajit_make_ptd__>:
    5520:	91 2a 20 02 	sll  %o0, 2, %o0
    5524:	81 c3 e0 08 	retl 
    5528:	90 12 20 01 	or  %o0, 1, %o0

0000552c <__ajit_flush_icache__>:
    552c:	81 d8 20 00 	flush  %g0
    5530:	81 c3 e0 08 	retl 
    5534:	01 00 00 00 	nop 

00005538 <__ajit_flush_dcache__>:
    5538:	c0 a0 02 60 	sta  %g0, [ %g0 ] (19)
    553c:	81 c3 e0 08 	retl 
    5540:	01 00 00 00 	nop 

00005544 <__ajit_write_timer_control_register__>:
    5544:	03 3f ff cc 	sethi  %hi(0xffff3000), %g1
    5548:	82 10 61 00 	or  %g1, 0x100, %g1	! ffff3100 <static_memblk+0xfffd2990>
    554c:	d0 a0 44 00 	sta  %o0, [ %g1 ] #ASI_SCRATCHPAD
    5550:	81 c3 e0 08 	retl 
    5554:	01 00 00 00 	nop 

00005558 <__ajit_read_timer_control_register__>:
    5558:	11 3f ff cc 	sethi  %hi(0xffff3000), %o0
    555c:	82 12 21 00 	or  %o0, 0x100, %g1	! ffff3100 <static_memblk+0xfffd2990>
    5560:	d0 80 44 00 	lda  [ %g1 ] #ASI_SCRATCHPAD, %o0
    5564:	81 c3 e0 08 	retl 
    5568:	01 00 00 00 	nop 

0000556c <__ajit_write_serial_control_register__>:
    556c:	03 3f ff cc 	sethi  %hi(0xffff3000), %g1
    5570:	82 10 62 00 	or  %g1, 0x200, %g1	! ffff3200 <static_memblk+0xfffd2a90>
    5574:	d0 a0 44 00 	sta  %o0, [ %g1 ] #ASI_SCRATCHPAD
    5578:	81 c3 e0 08 	retl 
    557c:	01 00 00 00 	nop 

00005580 <__ajit_serial_configure__>:
    5580:	05 3f ff cc 	sethi  %hi(0xffff3000), %g2
    5584:	82 10 a2 00 	or  %g2, 0x200, %g1	! ffff3200 <static_memblk+0xfffd2a90>
    5588:	c6 80 44 00 	lda  [ %g1 ] #ASI_SCRATCHPAD, %g3
    558c:	80 a2 20 00 	cmp  %o0, 0
    5590:	02 80 00 03 	be  559c <__ajit_serial_configure__+0x1c>
    5594:	82 08 ff fe 	and  %g3, -2, %g1
    5598:	82 10 e0 01 	or  %g3, 1, %g1
    559c:	80 a2 60 00 	cmp  %o1, 0
    55a0:	02 80 00 03 	be  55ac <__ajit_serial_configure__+0x2c>
    55a4:	88 08 7f fd 	and  %g1, -3, %g4
    55a8:	88 10 60 02 	or  %g1, 2, %g4
    55ac:	80 a2 a0 00 	cmp  %o2, 0
    55b0:	02 80 00 03 	be  55bc <__ajit_serial_configure__+0x3c>
    55b4:	82 09 3f fb 	and  %g4, -5, %g1
    55b8:	82 11 20 04 	or  %g4, 4, %g1
    55bc:	11 3f ff cc 	sethi  %hi(0xffff3000), %o0
    55c0:	92 12 22 00 	or  %o0, 0x200, %o1	! ffff3200 <static_memblk+0xfffd2a90>
    55c4:	c2 a2 44 00 	sta  %g1, [ %o1 ] #ASI_SCRATCHPAD
    55c8:	81 c3 e0 08 	retl 
    55cc:	01 00 00 00 	nop 

000055d0 <__ajit_read_serial_control_register__>:
    55d0:	11 3f ff cc 	sethi  %hi(0xffff3000), %o0
    55d4:	82 12 22 00 	or  %o0, 0x200, %g1	! ffff3200 <static_memblk+0xfffd2a90>
    55d8:	d0 80 44 00 	lda  [ %g1 ] #ASI_SCRATCHPAD, %o0
    55dc:	81 c3 e0 08 	retl 
    55e0:	01 00 00 00 	nop 

000055e4 <__ajit_write_serial_tx_register__>:
    55e4:	03 3f ff cc 	sethi  %hi(0xffff3000), %g1
    55e8:	82 10 62 10 	or  %g1, 0x210, %g1	! ffff3210 <static_memblk+0xfffd2aa0>
    55ec:	d0 a0 44 00 	sta  %o0, [ %g1 ] #ASI_SCRATCHPAD
    55f0:	81 c3 e0 08 	retl 
    55f4:	01 00 00 00 	nop 

000055f8 <__ajit_read_serial_tx_register__>:
    55f8:	11 3f ff cc 	sethi  %hi(0xffff3000), %o0
    55fc:	82 12 22 10 	or  %o0, 0x210, %g1	! ffff3210 <static_memblk+0xfffd2aa0>
    5600:	d0 80 44 00 	lda  [ %g1 ] #ASI_SCRATCHPAD, %o0
    5604:	81 c3 e0 08 	retl 
    5608:	01 00 00 00 	nop 

0000560c <__ajit_read_serial_rx_register__>:
    560c:	11 3f ff cc 	sethi  %hi(0xffff3000), %o0
    5610:	82 12 22 20 	or  %o0, 0x220, %g1	! ffff3220 <static_memblk+0xfffd2ab0>
    5614:	d0 88 44 00 	lduba  [ %g1 ] #ASI_SCRATCHPAD, %o0
    5618:	81 c3 e0 08 	retl 
    561c:	01 00 00 00 	nop 

00005620 <__ajit_serial_putchar__>:
    5620:	05 3f ff cc 	sethi  %hi(0xffff3000), %g2
    5624:	82 10 a2 00 	or  %g2, 0x200, %g1	! ffff3200 <static_memblk+0xfffd2a90>
    5628:	c6 80 44 00 	lda  [ %g1 ] #ASI_SCRATCHPAD, %g3
    562c:	80 88 e0 01 	btst  1, %g3
    5630:	02 80 00 09 	be  5654 <__ajit_serial_putchar__+0x34>
    5634:	82 10 20 00 	clr  %g1
    5638:	80 88 e0 08 	btst  8, %g3
    563c:	12 80 00 06 	bne  5654 <__ajit_serial_putchar__+0x34>
    5640:	01 00 00 00 	nop 
    5644:	03 3f ff cc 	sethi  %hi(0xffff3000), %g1
    5648:	82 10 62 10 	or  %g1, 0x210, %g1	! ffff3210 <static_memblk+0xfffd2aa0>
    564c:	d0 a8 44 00 	stba  %o0, [ %g1 ] #ASI_SCRATCHPAD
    5650:	82 10 00 08 	mov  %o0, %g1
    5654:	81 c3 e0 08 	retl 
    5658:	90 10 00 01 	mov  %g1, %o0

0000565c <__ajit_serial_getchar__>:
    565c:	03 3f ff cc 	sethi  %hi(0xffff3000), %g1
    5660:	82 10 62 00 	or  %g1, 0x200, %g1	! ffff3200 <static_memblk+0xfffd2a90>
    5664:	c2 80 44 00 	lda  [ %g1 ] #ASI_SCRATCHPAD, %g1
    5668:	82 08 60 12 	and  %g1, 0x12, %g1
    566c:	80 a0 60 12 	cmp  %g1, 0x12
    5670:	12 80 00 05 	bne  5684 <__ajit_serial_getchar__+0x28>
    5674:	90 10 20 00 	clr  %o0
    5678:	11 3f ff cc 	sethi  %hi(0xffff3000), %o0
    567c:	84 12 22 20 	or  %o0, 0x220, %g2	! ffff3220 <static_memblk+0xfffd2ab0>
    5680:	d0 88 84 00 	lduba  [ %g2 ] #ASI_SCRATCHPAD, %o0
    5684:	81 c3 e0 08 	retl 
    5688:	01 00 00 00 	nop 

0000568c <__ajit_serial_puts__>:
    568c:	9d e3 bf a0 	save  %sp, -96, %sp
    5690:	80 a6 60 00 	cmp  %i1, 0
    5694:	02 80 00 0c 	be  56c4 <__ajit_serial_puts__+0x38>
    5698:	ba 10 20 00 	clr  %i5
    569c:	b8 10 20 00 	clr  %i4
    56a0:	7f ff ff e0 	call  5620 <__ajit_serial_putchar__>
    56a4:	d0 4e 00 1d 	ldsb  [ %i0 + %i5 ], %o0
    56a8:	80 a2 20 00 	cmp  %o0, 0
    56ac:	02 bf ff fd 	be  56a0 <__ajit_serial_puts__+0x14>
    56b0:	01 00 00 00 	nop 
    56b4:	b8 07 20 01 	inc  %i4
    56b8:	80 a7 00 19 	cmp  %i4, %i1
    56bc:	12 bf ff f9 	bne  56a0 <__ajit_serial_puts__+0x14>
    56c0:	ba 10 00 1c 	mov  %i4, %i5
    56c4:	81 c7 e0 08 	ret 
    56c8:	81 e8 00 00 	restore 

000056cc <__ajit_serial_gets__>:
    56cc:	9d e3 bf a0 	save  %sp, -96, %sp
    56d0:	80 a6 60 00 	cmp  %i1, 0
    56d4:	02 80 00 0d 	be  5708 <__ajit_serial_gets__+0x3c>
    56d8:	b8 10 20 00 	clr  %i4
    56dc:	ba 10 20 00 	clr  %i5
    56e0:	7f ff ff df 	call  565c <__ajit_serial_getchar__>
    56e4:	01 00 00 00 	nop 
    56e8:	80 a2 20 00 	cmp  %o0, 0
    56ec:	02 bf ff fd 	be  56e0 <__ajit_serial_gets__+0x14>
    56f0:	01 00 00 00 	nop 
    56f4:	d0 2e 00 1c 	stb  %o0, [ %i0 + %i4 ]
    56f8:	ba 07 60 01 	inc  %i5
    56fc:	80 a7 40 19 	cmp  %i5, %i1
    5700:	12 bf ff f8 	bne  56e0 <__ajit_serial_gets__+0x14>
    5704:	b8 10 00 1d 	mov  %i5, %i4
    5708:	81 c7 e0 08 	ret 
    570c:	81 e8 00 00 	restore 

00005710 <__ajit_write_irc_control_register__>:
    5710:	03 3f ff cc 	sethi  %hi(0xffff3000), %g1
    5714:	d0 a0 44 00 	sta  %o0, [ %g1 ] #ASI_SCRATCHPAD
    5718:	81 c3 e0 08 	retl 
    571c:	01 00 00 00 	nop 

00005720 <__ajit_read_irc_control_register__>:
    5720:	11 3f ff cc 	sethi  %hi(0xffff3000), %o0
    5724:	d0 82 04 00 	lda  [ %o0 ] #ASI_SCRATCHPAD, %o0
    5728:	81 c3 e0 08 	retl 
    572c:	01 00 00 00 	nop 

00005730 <__ajit_write_spi_master_register__>:
    5730:	91 2a 20 02 	sll  %o0, 2, %o0
    5734:	03 3f ff cc 	sethi  %hi(0xffff3000), %g1
    5738:	82 10 63 00 	or  %g1, 0x300, %g1	! ffff3300 <static_memblk+0xfffd2b90>
    573c:	84 02 00 01 	add  %o0, %g1, %g2
    5740:	d2 a0 84 00 	sta  %o1, [ %g2 ] #ASI_SCRATCHPAD
    5744:	81 c3 e0 08 	retl 
    5748:	01 00 00 00 	nop 

0000574c <__ajit_read_spi_master_register__>:
    574c:	91 2a 20 02 	sll  %o0, 2, %o0
    5750:	03 3f ff cc 	sethi  %hi(0xffff3000), %g1
    5754:	82 10 63 00 	or  %g1, 0x300, %g1	! ffff3300 <static_memblk+0xfffd2b90>
    5758:	84 02 00 01 	add  %o0, %g1, %g2
    575c:	d0 80 84 00 	lda  [ %g2 ] #ASI_SCRATCHPAD, %o0
    5760:	81 c3 e0 08 	retl 
    5764:	01 00 00 00 	nop 

00005768 <__ajit_gpio_xfer__>:
    5768:	03 3f ff cc 	sethi  %hi(0xffff3000), %g1
    576c:	84 10 63 00 	or  %g1, 0x300, %g2	! ffff3300 <static_memblk+0xfffd2b90>
    5770:	d0 a0 84 00 	sta  %o0, [ %g2 ] #ASI_SCRATCHPAD
    5774:	86 10 20 13 	mov  0x13, %g3
    5778:	82 10 63 08 	or  %g1, 0x308, %g1
    577c:	c6 a0 44 00 	sta  %g3, [ %g1 ] #ASI_SCRATCHPAD
    5780:	09 3f ff cc 	sethi  %hi(0xffff3000), %g4
    5784:	82 10 21 00 	mov  0x100, %g1
    5788:	90 11 23 08 	or  %g4, 0x308, %o0
    578c:	c6 82 04 00 	lda  [ %o0 ] #ASI_SCRATCHPAD, %g3
    5790:	82 00 7f ff 	add  %g1, -1, %g1
    5794:	85 38 60 1f 	sra  %g1, 0x1f, %g2
    5798:	88 20 80 01 	sub  %g2, %g1, %g4
    579c:	85 31 20 1f 	srl  %g4, 0x1f, %g2
    57a0:	80 88 c0 02 	btst  %g3, %g2
    57a4:	12 bf ff fa 	bne  578c <__ajit_gpio_xfer__+0x24>
    57a8:	01 00 00 00 	nop 
    57ac:	11 3f ff cc 	sethi  %hi(0xffff3000), %o0
    57b0:	86 12 23 00 	or  %o0, 0x300, %g3	! ffff3300 <static_memblk+0xfffd2b90>
    57b4:	d0 80 c4 00 	lda  [ %g3 ] #ASI_SCRATCHPAD, %o0
    57b8:	81 c3 e0 08 	retl 
    57bc:	01 00 00 00 	nop 

000057c0 <__ajit_ta_0__>:
    57c0:	91 d0 20 00 	ta  0
    57c4:	01 00 00 00 	nop 
    57c8:	01 00 00 00 	nop 
    57cc:	81 c3 e0 08 	retl 
    57d0:	01 00 00 00 	nop 

000057d4 <core_init_matrix>:
    57d4:	9d e3 bf a0 	save  %sp, -96, %sp
    57d8:	80 a6 a0 00 	cmp  %i2, 0
    57dc:	22 80 00 02 	be,a   57e4 <core_init_matrix+0x10>
    57e0:	b4 10 20 01 	mov  1, %i2
    57e4:	80 a6 20 00 	cmp  %i0, 0
    57e8:	22 80 00 39 	be,a   58cc <core_init_matrix+0xf8>
    57ec:	b2 06 7f ff 	add  %i1, -1, %i1
    57f0:	82 10 20 00 	clr  %g1
    57f4:	82 00 60 01 	inc  %g1
    57f8:	84 58 40 01 	smul  %g1, %g1, %g2
    57fc:	87 28 a0 03 	sll  %g2, 3, %g3
    5800:	80 a6 00 03 	cmp  %i0, %g3
    5804:	38 bf ff fd 	bgu,a   57f8 <core_init_matrix+0x24>
    5808:	82 00 60 01 	inc  %g1
    580c:	b0 00 7f ff 	add  %g1, -1, %i0
    5810:	88 06 7f ff 	add  %i1, -1, %g4
    5814:	b8 5e 00 18 	smul  %i0, %i0, %i4
    5818:	ba 09 3f fc 	and  %g4, -4, %i5
    581c:	96 07 00 1c 	add  %i4, %i4, %o3
    5820:	98 07 60 04 	add  %i5, 4, %o4
    5824:	80 a6 20 00 	cmp  %i0, 0
    5828:	12 80 00 2e 	bne  58e0 <core_init_matrix+0x10c>
    582c:	9a 03 00 0b 	add  %o4, %o3, %o5
    5830:	10 80 00 1e 	b  58a8 <core_init_matrix+0xd4>
    5834:	82 03 40 0b 	add  %o5, %o3, %g1
    5838:	b4 58 40 1a 	smul  %g1, %i2, %i2
    583c:	87 3e a0 1f 	sra  %i2, 0x1f, %g3
    5840:	87 30 e0 10 	srl  %g3, 0x10, %g3
    5844:	b4 06 80 03 	add  %i2, %g3, %i2
    5848:	b4 0e 80 19 	and  %i2, %i1, %i2
    584c:	b4 26 80 03 	sub  %i2, %g3, %i2
    5850:	86 06 80 01 	add  %i2, %g1, %g3
    5854:	c6 37 00 02 	sth  %g3, [ %i4 + %g2 ]
    5858:	86 00 c0 01 	add  %g3, %g1, %g3
    585c:	86 08 e0 ff 	and  %g3, 0xff, %g3
    5860:	c6 37 40 02 	sth  %g3, [ %i5 + %g2 ]
    5864:	82 00 60 01 	inc  %g1
    5868:	86 20 40 04 	sub  %g1, %g4, %g3
    586c:	80 a6 00 03 	cmp  %i0, %g3
    5870:	18 bf ff f2 	bgu  5838 <core_init_matrix+0x64>
    5874:	84 00 a0 02 	add  %g2, 2, %g2
    5878:	9e 03 e0 01 	inc  %o7
    587c:	80 a6 00 0f 	cmp  %i0, %o7
    5880:	08 80 00 09 	bleu  58a4 <core_init_matrix+0xd0>
    5884:	88 10 00 01 	mov  %g1, %g4
    5888:	84 5b c0 18 	smul  %o7, %i0, %g2
    588c:	82 10 00 04 	mov  %g4, %g1
    5890:	86 00 80 02 	add  %g2, %g2, %g3
    5894:	84 10 20 00 	clr  %g2
    5898:	b8 03 40 03 	add  %o5, %g3, %i4
    589c:	10 bf ff e7 	b  5838 <core_init_matrix+0x64>
    58a0:	ba 03 00 03 	add  %o4, %g3, %i5
    58a4:	82 03 40 0b 	add  %o5, %o3, %g1
    58a8:	d8 26 e0 04 	st  %o4, [ %i3 + 4 ]
    58ac:	82 00 7f ff 	add  %g1, -1, %g1
    58b0:	da 26 e0 08 	st  %o5, [ %i3 + 8 ]
    58b4:	82 08 7f fc 	and  %g1, -4, %g1
    58b8:	f0 26 c0 00 	st  %i0, [ %i3 ]
    58bc:	82 00 60 04 	add  %g1, 4, %g1
    58c0:	c2 26 e0 0c 	st  %g1, [ %i3 + 0xc ]
    58c4:	81 c7 e0 08 	ret 
    58c8:	81 e8 00 00 	restore 
    58cc:	96 10 20 02 	mov  2, %o3
    58d0:	9a 0e 7f fc 	and  %i1, -4, %o5
    58d4:	b0 10 3f ff 	mov  -1, %i0
    58d8:	98 03 60 04 	add  %o5, 4, %o4
    58dc:	9a 03 60 06 	add  %o5, 6, %o5
    58e0:	33 00 00 3f 	sethi  %hi(0xfc00), %i1
    58e4:	9e 10 20 00 	clr  %o7
    58e8:	88 10 20 01 	mov  1, %g4
    58ec:	10 bf ff e7 	b  5888 <core_init_matrix+0xb4>
    58f0:	b2 16 63 ff 	or  %i1, 0x3ff, %i1

000058f4 <matrix_sum>:
    58f4:	9d e3 bf a0 	save  %sp, -96, %sp
    58f8:	80 a6 20 00 	cmp  %i0, 0
    58fc:	02 80 00 1d 	be  5970 <matrix_sum+0x7c>
    5900:	b7 2e 20 02 	sll  %i0, 2, %i3
    5904:	9e 10 20 00 	clr  %o7
    5908:	88 10 20 00 	clr  %g4
    590c:	ba 10 20 00 	clr  %i5
    5910:	10 80 00 16 	b  5968 <matrix_sum+0x74>
    5914:	86 10 20 00 	clr  %g3
    5918:	c4 06 40 01 	ld  [ %i1 + %g1 ], %g2
    591c:	86 00 c0 02 	add  %g3, %g2, %g3
    5920:	80 a0 c0 1a 	cmp  %g3, %i2
    5924:	04 80 00 05 	ble  5938 <matrix_sum+0x44>
    5928:	80 a0 80 1d 	cmp  %g2, %i5
    592c:	88 01 20 0a 	add  %g4, 0xa, %g4
    5930:	10 80 00 06 	b  5948 <matrix_sum+0x54>
    5934:	86 10 20 00 	clr  %g3
    5938:	14 80 00 03 	bg  5944 <matrix_sum+0x50>
    593c:	b8 10 20 01 	mov  1, %i4
    5940:	b8 10 20 00 	clr  %i4
    5944:	88 07 00 04 	add  %i4, %g4, %g4
    5948:	82 00 60 04 	add  %g1, 4, %g1
    594c:	80 a6 c0 01 	cmp  %i3, %g1
    5950:	12 bf ff f2 	bne  5918 <matrix_sum+0x24>
    5954:	ba 10 00 02 	mov  %g2, %i5
    5958:	9e 03 e0 01 	inc  %o7
    595c:	80 a3 c0 18 	cmp  %o7, %i0
    5960:	02 80 00 05 	be  5974 <matrix_sum+0x80>
    5964:	b2 06 40 1b 	add  %i1, %i3, %i1
    5968:	10 bf ff ec 	b  5918 <matrix_sum+0x24>
    596c:	82 10 20 00 	clr  %g1
    5970:	88 10 20 00 	clr  %g4
    5974:	b1 29 20 10 	sll  %g4, 0x10, %i0
    5978:	b1 3e 20 10 	sra  %i0, 0x10, %i0
    597c:	81 c7 e0 08 	ret 
    5980:	81 e8 00 00 	restore 

00005984 <matrix_mul_const>:
    5984:	80 a2 20 00 	cmp  %o0, 0
    5988:	02 80 00 13 	be  59d4 <matrix_mul_const+0x50>
    598c:	88 02 00 08 	add  %o0, %o0, %g4
    5990:	99 2a 20 02 	sll  %o0, 2, %o4
    5994:	10 80 00 0e 	b  59cc <matrix_mul_const+0x48>
    5998:	9a 10 20 00 	clr  %o5
    599c:	c6 52 80 01 	ldsh  [ %o2 + %g1 ], %g3
    59a0:	84 00 40 01 	add  %g1, %g1, %g2
    59a4:	86 58 c0 0b 	smul  %g3, %o3, %g3
    59a8:	82 00 60 02 	add  %g1, 2, %g1
    59ac:	80 a1 00 01 	cmp  %g4, %g1
    59b0:	12 bf ff fb 	bne  599c <matrix_mul_const+0x18>
    59b4:	c6 22 40 02 	st  %g3, [ %o1 + %g2 ]
    59b8:	9a 03 60 01 	inc  %o5
    59bc:	94 02 80 04 	add  %o2, %g4, %o2
    59c0:	80 a3 40 08 	cmp  %o5, %o0
    59c4:	02 80 00 04 	be  59d4 <matrix_mul_const+0x50>
    59c8:	92 02 40 0c 	add  %o1, %o4, %o1
    59cc:	10 bf ff f4 	b  599c <matrix_mul_const+0x18>
    59d0:	82 10 20 00 	clr  %g1
    59d4:	81 c3 e0 08 	retl 
    59d8:	01 00 00 00 	nop 

000059dc <matrix_add_const>:
    59dc:	80 a2 20 00 	cmp  %o0, 0
    59e0:	02 80 00 11 	be  5a24 <matrix_add_const+0x48>
    59e4:	88 02 00 08 	add  %o0, %o0, %g4
    59e8:	10 80 00 0d 	b  5a1c <matrix_add_const+0x40>
    59ec:	86 10 20 00 	clr  %g3
    59f0:	c2 12 40 00 	lduh  [ %o1 ], %g1
    59f4:	82 00 40 0a 	add  %g1, %o2, %g1
    59f8:	c2 32 40 00 	sth  %g1, [ %o1 ]
    59fc:	92 02 60 02 	add  %o1, 2, %o1
    5a00:	80 a2 40 02 	cmp  %o1, %g2
    5a04:	32 bf ff fc 	bne,a   59f4 <matrix_add_const+0x18>
    5a08:	c2 12 40 00 	lduh  [ %o1 ], %g1
    5a0c:	86 00 e0 01 	inc  %g3
    5a10:	80 a0 c0 08 	cmp  %g3, %o0
    5a14:	02 80 00 04 	be  5a24 <matrix_add_const+0x48>
    5a18:	01 00 00 00 	nop 
    5a1c:	10 bf ff f5 	b  59f0 <matrix_add_const+0x14>
    5a20:	84 01 00 09 	add  %g4, %o1, %g2
    5a24:	81 c3 e0 08 	retl 
    5a28:	01 00 00 00 	nop 

00005a2c <matrix_mul_vect>:
    5a2c:	80 a2 20 00 	cmp  %o0, 0
    5a30:	02 80 00 13 	be  5a7c <matrix_mul_vect+0x50>
    5a34:	98 02 00 08 	add  %o0, %o0, %o4
    5a38:	84 10 20 00 	clr  %g2
    5a3c:	91 2a 20 02 	sll  %o0, 2, %o0
    5a40:	c0 22 40 02 	clr  [ %o1 + %g2 ]
    5a44:	82 10 20 00 	clr  %g1
    5a48:	c6 52 c0 01 	ldsh  [ %o3 + %g1 ], %g3
    5a4c:	da 52 80 01 	ldsh  [ %o2 + %g1 ], %o5
    5a50:	c8 02 40 02 	ld  [ %o1 + %g2 ], %g4
    5a54:	9a 5b 40 03 	smul  %o5, %g3, %o5
    5a58:	86 01 00 0d 	add  %g4, %o5, %g3
    5a5c:	82 00 60 02 	add  %g1, 2, %g1
    5a60:	80 a0 40 0c 	cmp  %g1, %o4
    5a64:	12 bf ff f9 	bne  5a48 <matrix_mul_vect+0x1c>
    5a68:	c6 22 40 02 	st  %g3, [ %o1 + %g2 ]
    5a6c:	84 00 a0 04 	add  %g2, 4, %g2
    5a70:	80 a0 80 08 	cmp  %g2, %o0
    5a74:	12 bf ff f3 	bne  5a40 <matrix_mul_vect+0x14>
    5a78:	94 02 80 0c 	add  %o2, %o4, %o2
    5a7c:	81 c3 e0 08 	retl 
    5a80:	01 00 00 00 	nop 

00005a84 <matrix_mul_matrix>:
    5a84:	9d e3 bf a0 	save  %sp, -96, %sp
    5a88:	80 a6 20 00 	cmp  %i0, 0
    5a8c:	02 80 00 21 	be  5b10 <matrix_mul_matrix+0x8c>
    5a90:	86 06 00 18 	add  %i0, %i0, %g3
    5a94:	9e 10 00 1a 	mov  %i2, %o7
    5a98:	95 2e 20 02 	sll  %i0, 2, %o2
    5a9c:	96 10 00 19 	mov  %i1, %o3
    5aa0:	10 80 00 19 	b  5b04 <matrix_mul_matrix+0x80>
    5aa4:	98 10 20 00 	clr  %o4
    5aa8:	88 10 00 0d 	mov  %o5, %g4
    5aac:	c0 23 40 00 	clr  [ %o5 ]
    5ab0:	84 06 c0 19 	add  %i3, %i1, %g2
    5ab4:	82 10 20 00 	clr  %g1
    5ab8:	fa 50 80 00 	ldsh  [ %g2 ], %i5
    5abc:	f4 53 c0 01 	ldsh  [ %o7 + %g1 ], %i2
    5ac0:	f8 01 00 00 	ld  [ %g4 ], %i4
    5ac4:	b4 5e 80 1d 	smul  %i2, %i5, %i2
    5ac8:	ba 07 00 1a 	add  %i4, %i2, %i5
    5acc:	fa 21 00 00 	st  %i5, [ %g4 ]
    5ad0:	82 00 60 02 	add  %g1, 2, %g1
    5ad4:	80 a0 c0 01 	cmp  %g3, %g1
    5ad8:	12 bf ff f8 	bne  5ab8 <matrix_mul_matrix+0x34>
    5adc:	84 00 80 03 	add  %g2, %g3, %g2
    5ae0:	b2 06 60 02 	add  %i1, 2, %i1
    5ae4:	80 a0 c0 19 	cmp  %g3, %i1
    5ae8:	12 bf ff f0 	bne  5aa8 <matrix_mul_matrix+0x24>
    5aec:	9a 03 60 04 	add  %o5, 4, %o5
    5af0:	98 03 20 01 	inc  %o4
    5af4:	9e 03 c0 03 	add  %o7, %g3, %o7
    5af8:	80 a3 00 18 	cmp  %o4, %i0
    5afc:	02 80 00 05 	be  5b10 <matrix_mul_matrix+0x8c>
    5b00:	96 02 c0 0a 	add  %o3, %o2, %o3
    5b04:	9a 10 00 0b 	mov  %o3, %o5
    5b08:	10 bf ff e8 	b  5aa8 <matrix_mul_matrix+0x24>
    5b0c:	b2 10 20 00 	clr  %i1
    5b10:	81 c7 e0 08 	ret 
    5b14:	81 e8 00 00 	restore 

00005b18 <matrix_mul_matrix_bitextract>:
    5b18:	9d e3 bf a0 	save  %sp, -96, %sp
    5b1c:	80 a6 20 00 	cmp  %i0, 0
    5b20:	02 80 00 26 	be  5bb8 <matrix_mul_matrix_bitextract+0xa0>
    5b24:	88 06 00 18 	add  %i0, %i0, %g4
    5b28:	9e 10 00 1a 	mov  %i2, %o7
    5b2c:	95 2e 20 02 	sll  %i0, 2, %o2
    5b30:	96 10 00 19 	mov  %i1, %o3
    5b34:	10 80 00 1e 	b  5bac <matrix_mul_matrix_bitextract+0x94>
    5b38:	98 10 20 00 	clr  %o4
    5b3c:	ba 10 00 0d 	mov  %o5, %i5
    5b40:	c0 23 40 00 	clr  [ %o5 ]
    5b44:	84 06 c0 19 	add  %i3, %i1, %g2
    5b48:	82 10 20 00 	clr  %g1
    5b4c:	f4 53 c0 01 	ldsh  [ %o7 + %g1 ], %i2
    5b50:	c6 50 80 00 	ldsh  [ %g2 ], %g3
    5b54:	f8 07 40 00 	ld  [ %i5 ], %i4
    5b58:	86 5e 80 03 	smul  %i2, %g3, %g3
    5b5c:	b5 38 e0 05 	sra  %g3, 5, %i2
    5b60:	87 38 e0 02 	sra  %g3, 2, %g3
    5b64:	b4 0e a0 7f 	and  %i2, 0x7f, %i2
    5b68:	86 08 e0 0f 	and  %g3, 0xf, %g3
    5b6c:	b4 5e 80 03 	smul  %i2, %g3, %i2
    5b70:	b8 07 00 1a 	add  %i4, %i2, %i4
    5b74:	f8 27 40 00 	st  %i4, [ %i5 ]
    5b78:	82 00 60 02 	add  %g1, 2, %g1
    5b7c:	80 a1 00 01 	cmp  %g4, %g1
    5b80:	12 bf ff f3 	bne  5b4c <matrix_mul_matrix_bitextract+0x34>
    5b84:	84 00 80 04 	add  %g2, %g4, %g2
    5b88:	b2 06 60 02 	add  %i1, 2, %i1
    5b8c:	80 a1 00 19 	cmp  %g4, %i1
    5b90:	12 bf ff eb 	bne  5b3c <matrix_mul_matrix_bitextract+0x24>
    5b94:	9a 03 60 04 	add  %o5, 4, %o5
    5b98:	98 03 20 01 	inc  %o4
    5b9c:	9e 03 c0 04 	add  %o7, %g4, %o7
    5ba0:	80 a3 00 18 	cmp  %o4, %i0
    5ba4:	02 80 00 05 	be  5bb8 <matrix_mul_matrix_bitextract+0xa0>
    5ba8:	96 02 c0 0a 	add  %o3, %o2, %o3
    5bac:	9a 10 00 0b 	mov  %o3, %o5
    5bb0:	10 bf ff e3 	b  5b3c <matrix_mul_matrix_bitextract+0x24>
    5bb4:	b2 10 20 00 	clr  %i1
    5bb8:	81 c7 e0 08 	ret 
    5bbc:	81 e8 00 00 	restore 

00005bc0 <matrix_test>:
    5bc0:	9d e3 bf a0 	save  %sp, -96, %sp
    5bc4:	90 10 00 18 	mov  %i0, %o0
    5bc8:	92 10 00 1a 	mov  %i2, %o1
    5bcc:	7f ff ff 84 	call  59dc <matrix_add_const>
    5bd0:	94 10 00 1c 	mov  %i4, %o2
    5bd4:	96 10 00 1c 	mov  %i4, %o3
    5bd8:	90 10 00 18 	mov  %i0, %o0
    5bdc:	92 10 00 19 	mov  %i1, %o1
    5be0:	7f ff ff 69 	call  5984 <matrix_mul_const>
    5be4:	94 10 00 1a 	mov  %i2, %o2
    5be8:	ba 17 30 00 	or  %i4, -4096, %i5
    5bec:	92 10 00 19 	mov  %i1, %o1
    5bf0:	94 10 00 1d 	mov  %i5, %o2
    5bf4:	7f ff ff 40 	call  58f4 <matrix_sum>
    5bf8:	90 10 00 18 	mov  %i0, %o0
    5bfc:	92 10 20 00 	clr  %o1
    5c00:	91 2a 20 10 	sll  %o0, 0x10, %o0
    5c04:	40 00 03 80 	call  6a04 <crc16>
    5c08:	91 3a 20 10 	sra  %o0, 0x10, %o0
    5c0c:	96 10 00 1b 	mov  %i3, %o3
    5c10:	a0 10 00 08 	mov  %o0, %l0
    5c14:	92 10 00 19 	mov  %i1, %o1
    5c18:	90 10 00 18 	mov  %i0, %o0
    5c1c:	7f ff ff 84 	call  5a2c <matrix_mul_vect>
    5c20:	94 10 00 1a 	mov  %i2, %o2
    5c24:	94 10 00 1d 	mov  %i5, %o2
    5c28:	92 10 00 19 	mov  %i1, %o1
    5c2c:	7f ff ff 32 	call  58f4 <matrix_sum>
    5c30:	90 10 00 18 	mov  %i0, %o0
    5c34:	83 2a 20 10 	sll  %o0, 0x10, %g1
    5c38:	93 2c 20 10 	sll  %l0, 0x10, %o1
    5c3c:	91 38 60 10 	sra  %g1, 0x10, %o0
    5c40:	40 00 03 71 	call  6a04 <crc16>
    5c44:	93 32 60 10 	srl  %o1, 0x10, %o1
    5c48:	96 10 00 1b 	mov  %i3, %o3
    5c4c:	a0 10 00 08 	mov  %o0, %l0
    5c50:	92 10 00 19 	mov  %i1, %o1
    5c54:	90 10 00 18 	mov  %i0, %o0
    5c58:	7f ff ff 8b 	call  5a84 <matrix_mul_matrix>
    5c5c:	94 10 00 1a 	mov  %i2, %o2
    5c60:	94 10 00 1d 	mov  %i5, %o2
    5c64:	92 10 00 19 	mov  %i1, %o1
    5c68:	7f ff ff 23 	call  58f4 <matrix_sum>
    5c6c:	90 10 00 18 	mov  %i0, %o0
    5c70:	85 2c 20 10 	sll  %l0, 0x10, %g2
    5c74:	87 2a 20 10 	sll  %o0, 0x10, %g3
    5c78:	93 30 a0 10 	srl  %g2, 0x10, %o1
    5c7c:	40 00 03 62 	call  6a04 <crc16>
    5c80:	91 38 e0 10 	sra  %g3, 0x10, %o0
    5c84:	96 10 00 1b 	mov  %i3, %o3
    5c88:	a0 10 00 08 	mov  %o0, %l0
    5c8c:	92 10 00 19 	mov  %i1, %o1
    5c90:	90 10 00 18 	mov  %i0, %o0
    5c94:	7f ff ff a1 	call  5b18 <matrix_mul_matrix_bitextract>
    5c98:	94 10 00 1a 	mov  %i2, %o2
    5c9c:	92 10 00 19 	mov  %i1, %o1
    5ca0:	94 10 00 1d 	mov  %i5, %o2
    5ca4:	7f ff ff 14 	call  58f4 <matrix_sum>
    5ca8:	90 10 00 18 	mov  %i0, %o0
    5cac:	89 2c 20 10 	sll  %l0, 0x10, %g4
    5cb0:	95 2a 20 10 	sll  %o0, 0x10, %o2
    5cb4:	93 31 20 10 	srl  %g4, 0x10, %o1
    5cb8:	40 00 03 53 	call  6a04 <crc16>
    5cbc:	91 3a a0 10 	sra  %o2, 0x10, %o0
    5cc0:	b8 20 00 1c 	neg  %i4
    5cc4:	97 2f 20 10 	sll  %i4, 0x10, %o3
    5cc8:	b2 10 00 08 	mov  %o0, %i1
    5ccc:	92 10 00 1a 	mov  %i2, %o1
    5cd0:	90 10 00 18 	mov  %i0, %o0
    5cd4:	95 3a e0 10 	sra  %o3, 0x10, %o2
    5cd8:	7f ff ff 41 	call  59dc <matrix_add_const>
    5cdc:	b1 2e 60 10 	sll  %i1, 0x10, %i0
    5ce0:	b1 3e 20 10 	sra  %i0, 0x10, %i0
    5ce4:	81 c7 e0 08 	ret 
    5ce8:	81 e8 00 00 	restore 

00005cec <core_bench_matrix>:
    5cec:	9d e3 bf a0 	save  %sp, -96, %sp
    5cf0:	d4 06 20 04 	ld  [ %i0 + 4 ], %o2
    5cf4:	d6 06 20 08 	ld  [ %i0 + 8 ], %o3
    5cf8:	98 10 00 19 	mov  %i1, %o4
    5cfc:	d2 06 20 0c 	ld  [ %i0 + 0xc ], %o1
    5d00:	7f ff ff b0 	call  5bc0 <matrix_test>
    5d04:	d0 06 00 00 	ld  [ %i0 ], %o0
    5d08:	92 10 00 1a 	mov  %i2, %o1
    5d0c:	91 2a 20 10 	sll  %o0, 0x10, %o0
    5d10:	40 00 03 3d 	call  6a04 <crc16>
    5d14:	91 3a 20 10 	sra  %o0, 0x10, %o0
    5d18:	81 c7 e0 08 	ret 
    5d1c:	91 e8 00 08 	restore  %g0, %o0, %o0

00005d20 <iterate>:
    5d20:	9d e3 bf a0 	save  %sp, -96, %sp
    5d24:	11 00 00 80 	sethi  %hi(0x20000), %o0
    5d28:	f8 06 20 1c 	ld  [ %i0 + 0x1c ], %i4
    5d2c:	c0 36 20 38 	clrh  [ %i0 + 0x38 ]
    5d30:	c0 36 20 3a 	clrh  [ %i0 + 0x3a ]
    5d34:	c0 36 20 3c 	clrh  [ %i0 + 0x3c ]
    5d38:	c0 36 20 3e 	clrh  [ %i0 + 0x3e ]
    5d3c:	90 12 21 78 	or  %o0, 0x178, %o0
    5d40:	7f ff f8 37 	call  3e1c <ee_printf>
    5d44:	92 10 00 1c 	mov  %i4, %o1
    5d48:	80 a7 20 00 	cmp  %i4, 0
    5d4c:	02 80 00 19 	be  5db0 <iterate+0x90>
    5d50:	ba 10 20 00 	clr  %i5
    5d54:	92 10 20 01 	mov  1, %o1
    5d58:	7f ff fc 9d 	call  4fcc <core_bench_list>
    5d5c:	90 10 00 18 	mov  %i0, %o0
    5d60:	83 2a 20 10 	sll  %o0, 0x10, %g1
    5d64:	d2 16 20 38 	lduh  [ %i0 + 0x38 ], %o1
    5d68:	40 00 02 f5 	call  693c <crcu16>
    5d6c:	91 30 60 10 	srl  %g1, 0x10, %o0
    5d70:	92 10 3f ff 	mov  -1, %o1
    5d74:	d0 36 20 38 	sth  %o0, [ %i0 + 0x38 ]
    5d78:	7f ff fc 95 	call  4fcc <core_bench_list>
    5d7c:	90 10 00 18 	mov  %i0, %o0
    5d80:	85 2a 20 10 	sll  %o0, 0x10, %g2
    5d84:	d2 16 20 38 	lduh  [ %i0 + 0x38 ], %o1
    5d88:	40 00 02 ed 	call  693c <crcu16>
    5d8c:	91 30 a0 10 	srl  %g2, 0x10, %o0
    5d90:	80 a7 60 00 	cmp  %i5, 0
    5d94:	12 80 00 03 	bne  5da0 <iterate+0x80>
    5d98:	d0 36 20 38 	sth  %o0, [ %i0 + 0x38 ]
    5d9c:	d0 36 20 3a 	sth  %o0, [ %i0 + 0x3a ]
    5da0:	ba 07 60 01 	inc  %i5
    5da4:	80 a7 40 1c 	cmp  %i5, %i4
    5da8:	12 bf ff ec 	bne  5d58 <iterate+0x38>
    5dac:	92 10 20 01 	mov  1, %o1
    5db0:	81 c7 e0 08 	ret 
    5db4:	91 e8 20 00 	restore  %g0, 0, %o0

00005db8 <ajit_main>:
    5db8:	9d e3 bf 40 	save  %sp, -192, %sp
    5dbc:	7f ff fd 2b 	call  5268 <portable_init>
    5dc0:	90 07 bf fa 	add  %fp, -6, %o0
    5dc4:	40 00 02 a6 	call  685c <get_seed_32>
    5dc8:	90 10 20 01 	mov  1, %o0
    5dcc:	d0 37 bf b8 	sth  %o0, [ %fp + -72 ]
    5dd0:	40 00 02 a3 	call  685c <get_seed_32>
    5dd4:	90 10 20 02 	mov  2, %o0
    5dd8:	d0 37 bf ba 	sth  %o0, [ %fp + -70 ]
    5ddc:	40 00 02 a0 	call  685c <get_seed_32>
    5de0:	90 10 20 03 	mov  3, %o0
    5de4:	d0 37 bf bc 	sth  %o0, [ %fp + -68 ]
    5de8:	40 00 02 9d 	call  685c <get_seed_32>
    5dec:	90 10 20 04 	mov  4, %o0
    5df0:	d0 27 bf d4 	st  %o0, [ %fp + -44 ]
    5df4:	40 00 02 9a 	call  685c <get_seed_32>
    5df8:	90 10 20 05 	mov  5, %o0
    5dfc:	80 a2 20 00 	cmp  %o0, 0
    5e00:	02 80 00 04 	be  5e10 <ajit_main+0x58>
    5e04:	82 10 20 07 	mov  7, %g1
    5e08:	10 80 00 03 	b  5e14 <ajit_main+0x5c>
    5e0c:	d0 27 bf d8 	st  %o0, [ %fp + -40 ]
    5e10:	c2 27 bf d8 	st  %g1, [ %fp + -40 ]
    5e14:	c2 07 bf b8 	ld  [ %fp + -72 ], %g1
    5e18:	80 a0 60 00 	cmp  %g1, 0
    5e1c:	12 80 00 0b 	bne  5e48 <ajit_main+0x90>
    5e20:	03 00 00 40 	sethi  %hi(0x10000), %g1
    5e24:	c2 57 bf bc 	ldsh  [ %fp + -68 ], %g1
    5e28:	80 a0 60 00 	cmp  %g1, 0
    5e2c:	12 80 00 16 	bne  5e84 <ajit_main+0xcc>
    5e30:	82 10 27 d0 	mov  0x7d0, %g1
    5e34:	82 10 20 66 	mov  0x66, %g1
    5e38:	c0 37 bf b8 	clrh  [ %fp + -72 ]
    5e3c:	c0 37 bf ba 	clrh  [ %fp + -70 ]
    5e40:	c2 37 bf bc 	sth  %g1, [ %fp + -68 ]
    5e44:	03 00 00 40 	sethi  %hi(0x10000), %g1
    5e48:	c4 07 bf b8 	ld  [ %fp + -72 ], %g2
    5e4c:	80 a0 80 01 	cmp  %g2, %g1
    5e50:	12 80 00 0d 	bne  5e84 <ajit_main+0xcc>
    5e54:	82 10 27 d0 	mov  0x7d0, %g1
    5e58:	c2 57 bf bc 	ldsh  [ %fp + -68 ], %g1
    5e5c:	80 a0 60 00 	cmp  %g1, 0
    5e60:	12 80 00 09 	bne  5e84 <ajit_main+0xcc>
    5e64:	82 10 27 d0 	mov  0x7d0, %g1
    5e68:	03 00 00 0d 	sethi  %hi(0x3400), %g1
    5e6c:	86 10 20 66 	mov  0x66, %g3
    5e70:	82 10 60 15 	or  %g1, 0x15, %g1
    5e74:	c6 37 bf bc 	sth  %g3, [ %fp + -68 ]
    5e78:	c2 37 bf b8 	sth  %g1, [ %fp + -72 ]
    5e7c:	c2 37 bf ba 	sth  %g1, [ %fp + -70 ]
    5e80:	82 10 27 d0 	mov  0x7d0, %g1
    5e84:	c0 37 bf f8 	clrh  [ %fp + -8 ]
    5e88:	c2 27 bf d0 	st  %g1, [ %fp + -48 ]
    5e8c:	03 00 00 81 	sethi  %hi(0x20400), %g1
    5e90:	82 10 63 70 	or  %g1, 0x370, %g1	! 20770 <static_memblk>
    5e94:	c2 27 bf c0 	st  %g1, [ %fp + -64 ]
    5e98:	c2 07 bf d8 	ld  [ %fp + -40 ], %g1
    5e9c:	88 08 60 01 	and  %g1, 1, %g4
    5ea0:	80 88 60 02 	btst  2, %g1
    5ea4:	02 80 00 03 	be  5eb0 <ajit_main+0xf8>
    5ea8:	90 10 00 04 	mov  %g4, %o0
    5eac:	90 01 20 01 	add  %g4, 1, %o0
    5eb0:	80 88 60 04 	btst  4, %g1
    5eb4:	32 80 00 02 	bne,a   5ebc <ajit_main+0x104>
    5eb8:	90 02 20 01 	inc  %o0
    5ebc:	93 2a 20 10 	sll  %o0, 0x10, %o1
    5ec0:	83 32 60 10 	srl  %o1, 0x10, %g1
    5ec4:	f8 07 bf d8 	ld  [ %fp + -40 ], %i4
    5ec8:	81 80 20 00 	mov  %g0, %y
    5ecc:	f6 07 bf d0 	ld  [ %fp + -48 ], %i3
    5ed0:	01 00 00 00 	nop 
    5ed4:	01 00 00 00 	nop 
    5ed8:	b6 76 c0 01 	udiv  %i3, %g1, %i3
    5edc:	a2 07 bf c4 	add  %fp, -60, %l1
    5ee0:	82 10 20 00 	clr  %g1
    5ee4:	f6 27 bf d0 	st  %i3, [ %fp + -48 ]
    5ee8:	9a 10 20 00 	clr  %o5
    5eec:	ba 10 20 01 	mov  1, %i5
    5ef0:	95 2f 40 01 	sll  %i5, %g1, %o2
    5ef4:	80 8a 80 1c 	btst  %o2, %i4
    5ef8:	12 80 02 46 	bne  6810 <ajit_main+0xa58>
    5efc:	97 2b 60 10 	sll  %o5, 0x10, %o3
    5f00:	82 00 60 01 	inc  %g1
    5f04:	80 a0 60 03 	cmp  %g1, 3
    5f08:	12 bf ff fa 	bne  5ef0 <ajit_main+0x138>
    5f0c:	a2 04 60 04 	add  %l1, 4, %l1
    5f10:	c2 07 bf d8 	ld  [ %fp + -40 ], %g1
    5f14:	80 88 60 01 	btst  1, %g1
    5f18:	02 80 00 09 	be  5f3c <ajit_main+0x184>
    5f1c:	80 88 60 02 	btst  2, %g1
    5f20:	d0 07 bf d0 	ld  [ %fp + -48 ], %o0
    5f24:	d2 07 bf c4 	ld  [ %fp + -60 ], %o1
    5f28:	7f ff fb c6 	call  4e40 <core_list_init>
    5f2c:	d4 57 bf b8 	ldsh  [ %fp + -72 ], %o2
    5f30:	d0 27 bf dc 	st  %o0, [ %fp + -36 ]
    5f34:	c2 07 bf d8 	ld  [ %fp + -40 ], %g1
    5f38:	80 88 60 02 	btst  2, %g1
    5f3c:	02 80 00 0b 	be  5f68 <ajit_main+0x1b0>
    5f40:	c2 07 bf d8 	ld  [ %fp + -40 ], %g1
    5f44:	c2 57 bf b8 	ldsh  [ %fp + -72 ], %g1
    5f48:	e4 57 bf ba 	ldsh  [ %fp + -70 ], %l2
    5f4c:	d0 07 bf d0 	ld  [ %fp + -48 ], %o0
    5f50:	a7 2c a0 10 	sll  %l2, 0x10, %l3
    5f54:	d2 07 bf c8 	ld  [ %fp + -56 ], %o1
    5f58:	94 14 c0 01 	or  %l3, %g1, %o2
    5f5c:	7f ff fe 1e 	call  57d4 <core_init_matrix>
    5f60:	96 07 bf e0 	add  %fp, -32, %o3
    5f64:	c2 07 bf d8 	ld  [ %fp + -40 ], %g1
    5f68:	80 88 60 04 	btst  4, %g1
    5f6c:	02 80 00 07 	be  5f88 <ajit_main+0x1d0>
    5f70:	c2 07 bf d4 	ld  [ %fp + -44 ], %g1
    5f74:	d0 07 bf d0 	ld  [ %fp + -48 ], %o0
    5f78:	d2 57 bf b8 	ldsh  [ %fp + -72 ], %o1
    5f7c:	7f ff f4 36 	call  3054 <core_init_state>
    5f80:	d4 07 bf cc 	ld  [ %fp + -52 ], %o2
    5f84:	c2 07 bf d4 	ld  [ %fp + -44 ], %g1
    5f88:	80 a0 60 00 	cmp  %g1, 0
    5f8c:	12 80 00 37 	bne  6068 <ajit_main+0x2b0>
    5f90:	82 10 20 01 	mov  1, %g1
    5f94:	29 00 00 81 	sethi  %hi(0x20400), %l4
    5f98:	c2 27 bf d4 	st  %g1, [ %fp + -44 ]
    5f9c:	c2 07 bf d4 	ld  [ %fp + -44 ], %g1
    5fa0:	aa 00 40 01 	add  %g1, %g1, %l5
    5fa4:	83 28 60 03 	sll  %g1, 3, %g1
    5fa8:	82 05 40 01 	add  %l5, %g1, %g1
    5fac:	7f ff fc 8d 	call  51e0 <start_time>
    5fb0:	c2 27 bf d4 	st  %g1, [ %fp + -44 ]
    5fb4:	7f ff ff 5b 	call  5d20 <iterate>
    5fb8:	90 07 bf b8 	add  %fp, -72, %o0
    5fbc:	7f ff fc 90 	call  51fc <stop_time>
    5fc0:	01 00 00 00 	nop 
    5fc4:	7f ff fc 95 	call  5218 <get_time>
    5fc8:	01 00 00 00 	nop 
    5fcc:	7f ff fc 99 	call  5230 <time_in_secs>
    5fd0:	01 00 00 00 	nop 
    5fd4:	d1 1d 22 90 	ldd  [ %l4 + 0x290 ], %f8
    5fd8:	81 a8 0a c8 	fcmped  %f0, %f8
    5fdc:	01 00 00 00 	nop 
    5fe0:	09 bf ff f0 	fbl  5fa0 <ajit_main+0x1e8>
    5fe4:	c2 07 bf d4 	ld  [ %fp + -44 ], %g1
    5fe8:	03 00 00 81 	sethi  %hi(0x20400), %g1
    5fec:	c5 18 62 a8 	ldd  [ %g1 + 0x2a8 ], %f2	! 206a8 <state_known_crc+0x694>
    5ff0:	81 a8 0a c2 	fcmped  %f0, %f2
    5ff4:	01 00 00 00 	nop 
    5ff8:	17 80 00 06 	fbge  6010 <ajit_main+0x258>
    5ffc:	31 20 00 00 	sethi  %hi(0x80000000), %i0
    6000:	81 a0 1a 40 	fdtoi  %f0, %f0
    6004:	c1 27 bf ac 	st  %f0, [ %fp + -84 ]
    6008:	10 80 00 08 	b  6028 <ajit_main+0x270>
    600c:	c2 07 bf ac 	ld  [ %fp + -84 ], %g1
    6010:	c9 18 62 a8 	ldd  [ %g1 + 0x2a8 ], %f4
    6014:	8d a0 08 c4 	fsubd  %f0, %f4, %f6
    6018:	93 a0 1a 46 	fdtoi  %f6, %f9
    601c:	d3 27 bf ac 	st  %f9, [ %fp + -84 ]
    6020:	c2 07 bf ac 	ld  [ %fp + -84 ], %g1
    6024:	82 18 40 18 	xor  %g1, %i0, %g1
    6028:	80 a0 60 00 	cmp  %g1, 0
    602c:	22 80 00 02 	be,a   6034 <ajit_main+0x27c>
    6030:	82 10 20 01 	mov  1, %g1
    6034:	b2 10 20 0a 	mov  0xa, %i1
    6038:	07 00 00 80 	sethi  %hi(0x20000), %g3
    603c:	81 80 20 00 	mov  %g0, %y
    6040:	01 00 00 00 	nop 
    6044:	01 00 00 00 	nop 
    6048:	01 00 00 00 	nop 
    604c:	84 76 40 01 	udiv  %i1, %g1, %g2
    6050:	c2 07 bf d4 	ld  [ %fp + -44 ], %g1
    6054:	88 00 a0 01 	add  %g2, 1, %g4
    6058:	90 10 e1 90 	or  %g3, 0x190, %o0
    605c:	92 59 00 01 	smul  %g4, %g1, %o1
    6060:	7f ff f7 6f 	call  3e1c <ee_printf>
    6064:	d2 27 bf d4 	st  %o1, [ %fp + -44 ]
    6068:	7f ff fc 5e 	call  51e0 <start_time>
    606c:	01 00 00 00 	nop 
    6070:	40 00 01 fb 	call  685c <get_seed_32>
    6074:	90 10 20 04 	mov  4, %o0	! 4 <_start+0x4>
    6078:	d0 27 bf d4 	st  %o0, [ %fp + -44 ]
    607c:	7f ff ff 29 	call  5d20 <iterate>
    6080:	90 07 bf b8 	add  %fp, -72, %o0
    6084:	7f ff fc 5e 	call  51fc <stop_time>
    6088:	01 00 00 00 	nop 
    608c:	7f ff fc 63 	call  5218 <get_time>
    6090:	01 00 00 00 	nop 
    6094:	92 10 20 00 	clr  %o1	! 0 <_start>
    6098:	b4 10 00 08 	mov  %o0, %i2
    609c:	40 00 02 5a 	call  6a04 <crc16>
    60a0:	d0 57 bf b8 	ldsh  [ %fp + -72 ], %o0
    60a4:	93 2a 20 10 	sll  %o0, 0x10, %o1
    60a8:	d0 57 bf ba 	ldsh  [ %fp + -70 ], %o0
    60ac:	40 00 02 56 	call  6a04 <crc16>
    60b0:	93 32 60 10 	srl  %o1, 0x10, %o1
    60b4:	b9 2a 20 10 	sll  %o0, 0x10, %i4
    60b8:	d0 57 bf bc 	ldsh  [ %fp + -68 ], %o0
    60bc:	40 00 02 52 	call  6a04 <crc16>
    60c0:	93 37 20 10 	srl  %i4, 0x10, %o1
    60c4:	b7 2a 20 10 	sll  %o0, 0x10, %i3
    60c8:	d0 57 bf d2 	ldsh  [ %fp + -46 ], %o0
    60cc:	40 00 02 4e 	call  6a04 <crc16>
    60d0:	93 36 e0 10 	srl  %i3, 0x10, %o1
    60d4:	83 2a 20 10 	sll  %o0, 0x10, %g1
    60d8:	a4 10 00 08 	mov  %o0, %l2
    60dc:	83 30 60 10 	srl  %g1, 0x10, %g1
    60e0:	11 00 00 1e 	sethi  %hi(0x7800), %o0
    60e4:	ba 12 23 05 	or  %o0, 0x305, %i5	! 7b05 <check_data_types+0x100d>
    60e8:	80 a0 40 1d 	cmp  %g1, %i5
    60ec:	02 80 00 21 	be  6170 <ajit_main+0x3b8>
    60f0:	15 00 00 1e 	sethi  %hi(0x7800), %o2
    60f4:	96 12 a3 05 	or  %o2, 0x305, %o3	! 7b05 <check_data_types+0x100d>
    60f8:	80 a0 40 0b 	cmp  %g1, %o3
    60fc:	18 80 00 0d 	bgu  6130 <ajit_main+0x378>
    6100:	29 00 00 22 	sethi  %hi(0x8800), %l4
    6104:	19 00 00 06 	sethi  %hi(0x1800), %o4
    6108:	9a 13 20 f2 	or  %o4, 0xf2, %o5	! 18f2 <window_underflow_trap_handler+0x88e>
    610c:	80 a0 40 0d 	cmp  %g1, %o5
    6110:	02 80 00 28 	be  61b0 <ajit_main+0x3f8>
    6114:	1f 00 00 13 	sethi  %hi(0x4c00), %o7
    6118:	a0 13 e2 af 	or  %o7, 0x2af, %l0	! 4eaf <core_list_init+0x6f>
    611c:	80 a0 40 10 	cmp  %g1, %l0
    6120:	32 80 00 ab 	bne,a   63cc <ajit_main+0x614>
    6124:	b2 10 3f ff 	mov  -1, %i1
    6128:	10 80 00 18 	b  6188 <ajit_main+0x3d0>
    612c:	23 00 00 80 	sethi  %hi(0x20000), %l1
    6130:	aa 15 22 02 	or  %l4, 0x202, %l5
    6134:	80 a0 40 15 	cmp  %g1, %l5
    6138:	02 80 00 08 	be  6158 <ajit_main+0x3a0>
    613c:	31 00 00 3a 	sethi  %hi(0xe800), %i0
    6140:	84 16 21 f5 	or  %i0, 0x1f5, %g2	! e9f5 <check_data_types+0x7efd>
    6144:	80 a0 40 02 	cmp  %g1, %g2
    6148:	32 80 00 a1 	bne,a   63cc <ajit_main+0x614>
    614c:	b2 10 3f ff 	mov  -1, %i1
    6150:	10 80 00 13 	b  619c <ajit_main+0x3e4>
    6154:	07 00 00 80 	sethi  %hi(0x20000), %g3
    6158:	09 00 00 80 	sethi  %hi(0x20000), %g4
    615c:	b2 10 20 00 	clr  %i1
    6160:	7f ff f7 2f 	call  3e1c <ee_printf>
    6164:	90 11 21 b0 	or  %g4, 0x1b0, %o0
    6168:	10 80 01 b1 	b  682c <ajit_main+0xa74>
    616c:	03 00 00 81 	sethi  %hi(0x20400), %g1
    6170:	13 00 00 80 	sethi  %hi(0x20000), %o1
    6174:	b2 10 20 01 	mov  1, %i1
    6178:	7f ff f7 29 	call  3e1c <ee_printf>
    617c:	90 12 61 e0 	or  %o1, 0x1e0, %o0
    6180:	10 80 01 ab 	b  682c <ajit_main+0xa74>
    6184:	03 00 00 81 	sethi  %hi(0x20400), %g1
    6188:	b2 10 20 02 	mov  2, %i1
    618c:	7f ff f7 24 	call  3e1c <ee_printf>
    6190:	90 14 62 10 	or  %l1, 0x210, %o0
    6194:	10 80 01 a6 	b  682c <ajit_main+0xa74>
    6198:	03 00 00 81 	sethi  %hi(0x20400), %g1
    619c:	b2 10 20 03 	mov  3, %i1
    61a0:	7f ff f7 1f 	call  3e1c <ee_printf>
    61a4:	90 10 e2 48 	or  %g3, 0x248, %o0
    61a8:	10 80 01 a1 	b  682c <ajit_main+0xa74>
    61ac:	03 00 00 81 	sethi  %hi(0x20400), %g1
    61b0:	27 00 00 80 	sethi  %hi(0x20000), %l3
    61b4:	b2 10 20 04 	mov  4, %i1
    61b8:	7f ff f7 19 	call  3e1c <ee_printf>
    61bc:	90 14 e2 78 	or  %l3, 0x278, %o0
    61c0:	10 80 01 9b 	b  682c <ajit_main+0xa74>
    61c4:	03 00 00 81 	sethi  %hi(0x20400), %g1
    61c8:	b7 2e 60 10 	sll  %i1, 0x10, %i3
    61cc:	11 00 00 80 	sethi  %hi(0x20000), %o0
    61d0:	3b 00 00 80 	sethi  %hi(0x20000), %i5
    61d4:	15 00 00 80 	sethi  %hi(0x20000), %o2
    61d8:	23 00 00 80 	sethi  %hi(0x20000), %l1
    61dc:	b7 3e e0 10 	sra  %i3, 0x10, %i3
    61e0:	aa 12 22 a8 	or  %o0, 0x2a8, %l5
    61e4:	21 00 00 80 	sethi  %hi(0x20000), %l0
    61e8:	a8 17 62 d8 	or  %i5, 0x2d8, %l4
    61ec:	a6 12 a3 10 	or  %o2, 0x310, %l3
    61f0:	97 2f 20 10 	sll  %i4, 0x10, %o3
    61f4:	bb 32 e0 10 	srl  %o3, 0x10, %i5
    61f8:	99 2f 60 02 	sll  %i5, 2, %o4
    61fc:	83 2f 60 06 	sll  %i5, 6, %g1
    6200:	82 03 00 01 	add  %o4, %g1, %g1
    6204:	82 07 80 01 	add  %fp, %g1, %g1
    6208:	c0 30 7f f8 	clrh  [ %g1 + -8 ]
    620c:	c2 00 7f d8 	ld  [ %g1 + -40 ], %g1
    6210:	80 88 60 01 	btst  1, %g1
    6214:	02 80 00 1d 	be  6288 <ajit_main+0x4d0>
    6218:	85 2f 60 02 	sll  %i5, 2, %g2
    621c:	9a 14 60 00 	mov  %l1, %o5
    6220:	84 06 c0 1b 	add  %i3, %i3, %g2
    6224:	9f 2f 60 02 	sll  %i5, 2, %o7
    6228:	83 2f 60 06 	sll  %i5, 6, %g1
    622c:	c8 13 40 02 	lduh  [ %o5 + %g2 ], %g4
    6230:	82 03 c0 01 	add  %o7, %g1, %g1
    6234:	c6 13 40 02 	lduh  [ %o5 + %g2 ], %g3
    6238:	82 07 80 01 	add  %fp, %g1, %g1
    623c:	d2 10 7f f2 	lduh  [ %g1 + -14 ], %o1
    6240:	80 a2 40 04 	cmp  %o1, %g4
    6244:	02 80 00 10 	be  6284 <ajit_main+0x4cc>
    6248:	c2 10 7f f2 	lduh  [ %g1 + -14 ], %g1
    624c:	95 28 60 10 	sll  %g1, 0x10, %o2
    6250:	97 28 e0 10 	sll  %g3, 0x10, %o3
    6254:	90 10 00 15 	mov  %l5, %o0
    6258:	92 10 00 1d 	mov  %i5, %o1
    625c:	95 32 a0 10 	srl  %o2, 0x10, %o2
    6260:	7f ff f6 ef 	call  3e1c <ee_printf>
    6264:	97 32 e0 10 	srl  %o3, 0x10, %o3
    6268:	91 2f 60 02 	sll  %i5, 2, %o0
    626c:	83 2f 60 06 	sll  %i5, 6, %g1
    6270:	82 02 00 01 	add  %o0, %g1, %g1
    6274:	82 07 80 01 	add  %fp, %g1, %g1
    6278:	d8 10 7f f8 	lduh  [ %g1 + -8 ], %o4
    627c:	9a 03 20 01 	add  %o4, 1, %o5
    6280:	da 30 7f f8 	sth  %o5, [ %g1 + -8 ]
    6284:	85 2f 60 02 	sll  %i5, 2, %g2
    6288:	83 2f 60 06 	sll  %i5, 6, %g1
    628c:	82 00 80 01 	add  %g2, %g1, %g1
    6290:	82 07 80 01 	add  %fp, %g1, %g1
    6294:	c2 00 7f d8 	ld  [ %g1 + -40 ], %g1
    6298:	80 88 60 02 	btst  2, %g1
    629c:	02 80 00 1d 	be  6310 <ajit_main+0x558>
    62a0:	93 2f 60 02 	sll  %i5, 2, %o1
    62a4:	86 14 20 0a 	or  %l0, 0xa, %g3
    62a8:	92 06 c0 1b 	add  %i3, %i3, %o1
    62ac:	9f 2f 60 02 	sll  %i5, 2, %o7
    62b0:	83 2f 60 06 	sll  %i5, 6, %g1
    62b4:	c8 10 c0 09 	lduh  [ %g3 + %o1 ], %g4
    62b8:	82 03 c0 01 	add  %o7, %g1, %g1
    62bc:	d6 10 c0 09 	lduh  [ %g3 + %o1 ], %o3
    62c0:	82 07 80 01 	add  %fp, %g1, %g1
    62c4:	d4 10 7f f4 	lduh  [ %g1 + -12 ], %o2
    62c8:	80 a2 80 04 	cmp  %o2, %g4
    62cc:	02 80 00 10 	be  630c <ajit_main+0x554>
    62d0:	c2 10 7f f4 	lduh  [ %g1 + -12 ], %g1
    62d4:	99 28 60 10 	sll  %g1, 0x10, %o4
    62d8:	9b 2a e0 10 	sll  %o3, 0x10, %o5
    62dc:	90 10 00 14 	mov  %l4, %o0
    62e0:	92 10 00 1d 	mov  %i5, %o1
    62e4:	95 33 20 10 	srl  %o4, 0x10, %o2
    62e8:	7f ff f6 cd 	call  3e1c <ee_printf>
    62ec:	97 33 60 10 	srl  %o5, 0x10, %o3
    62f0:	91 2f 60 02 	sll  %i5, 2, %o0
    62f4:	83 2f 60 06 	sll  %i5, 6, %g1
    62f8:	82 02 00 01 	add  %o0, %g1, %g1
    62fc:	82 07 80 01 	add  %fp, %g1, %g1
    6300:	c4 10 7f f8 	lduh  [ %g1 + -8 ], %g2
    6304:	86 00 a0 01 	add  %g2, 1, %g3
    6308:	c6 30 7f f8 	sth  %g3, [ %g1 + -8 ]
    630c:	93 2f 60 02 	sll  %i5, 2, %o1
    6310:	83 2f 60 06 	sll  %i5, 6, %g1
    6314:	82 02 40 01 	add  %o1, %g1, %g1
    6318:	82 07 80 01 	add  %fp, %g1, %g1
    631c:	c2 00 7f d8 	ld  [ %g1 + -40 ], %g1
    6320:	80 88 60 04 	btst  4, %g1
    6324:	22 80 00 1d 	be,a   6398 <ajit_main+0x5e0>
    6328:	83 2f 60 02 	sll  %i5, 2, %g1
    632c:	82 06 c0 1b 	add  %i3, %i3, %g1
    6330:	89 2f 60 06 	sll  %i5, 6, %g4
    6334:	15 00 00 80 	sethi  %hi(0x20000), %o2
    6338:	96 02 40 04 	add  %o1, %g4, %o3
    633c:	98 12 a0 14 	or  %o2, 0x14, %o4
    6340:	9a 07 80 0b 	add  %fp, %o3, %o5
    6344:	d0 13 00 01 	lduh  [ %o4 + %g1 ], %o0
    6348:	c4 13 7f f6 	lduh  [ %o5 + -10 ], %g2
    634c:	c6 13 7f f6 	lduh  [ %o5 + -10 ], %g3
    6350:	80 a0 80 08 	cmp  %g2, %o0
    6354:	02 80 00 10 	be  6394 <ajit_main+0x5dc>
    6358:	c2 13 00 01 	lduh  [ %o4 + %g1 ], %g1
    635c:	89 28 60 10 	sll  %g1, 0x10, %g4
    6360:	9f 28 e0 10 	sll  %g3, 0x10, %o7
    6364:	92 10 00 1d 	mov  %i5, %o1
    6368:	95 33 e0 10 	srl  %o7, 0x10, %o2
    636c:	97 31 20 10 	srl  %g4, 0x10, %o3
    6370:	7f ff f6 ab 	call  3e1c <ee_printf>
    6374:	90 10 00 13 	mov  %l3, %o0
    6378:	93 2f 60 02 	sll  %i5, 2, %o1
    637c:	83 2f 60 06 	sll  %i5, 6, %g1
    6380:	82 02 40 01 	add  %o1, %g1, %g1
    6384:	82 07 80 01 	add  %fp, %g1, %g1
    6388:	d6 10 7f f8 	lduh  [ %g1 + -8 ], %o3
    638c:	94 02 e0 01 	add  %o3, 1, %o2
    6390:	d4 30 7f f8 	sth  %o2, [ %g1 + -8 ]
    6394:	83 2f 60 02 	sll  %i5, 2, %g1
    6398:	b8 07 20 01 	inc  %i4
    639c:	bb 2f 60 06 	sll  %i5, 6, %i5
    63a0:	99 2f 20 10 	sll  %i4, 0x10, %o4
    63a4:	9a 00 40 1d 	add  %g1, %i5, %o5
    63a8:	91 33 20 10 	srl  %o4, 0x10, %o0
    63ac:	84 07 80 0d 	add  %fp, %o5, %g2
    63b0:	03 00 00 81 	sethi  %hi(0x20400), %g1
    63b4:	c6 10 bf f8 	lduh  [ %g2 + -8 ], %g3
    63b8:	c2 00 62 f0 	ld  [ %g1 + 0x2f0 ], %g1
    63bc:	80 a2 00 01 	cmp  %o0, %g1
    63c0:	0a bf ff 8c 	bcs  61f0 <ajit_main+0x438>
    63c4:	b0 00 c0 18 	add  %g3, %i0, %i0
    63c8:	30 80 00 02 	b,a   63d0 <ajit_main+0x618>
    63cc:	b0 10 3f ff 	mov  -1, %i0
    63d0:	40 00 01 ca 	call  6af8 <check_data_types>
    63d4:	23 00 00 80 	sethi  %hi(0x20000), %l1
    63d8:	d2 07 bf d0 	ld  [ %fp + -48 ], %o1
    63dc:	b8 0a 20 ff 	and  %o0, 0xff, %i4
    63e0:	7f ff f6 8f 	call  3e1c <ee_printf>
    63e4:	90 14 63 40 	or  %l1, 0x340, %o0
    63e8:	92 10 00 1a 	mov  %i2, %o1
    63ec:	37 00 00 80 	sethi  %hi(0x20000), %i3
    63f0:	7f ff f6 8b 	call  3e1c <ee_printf>
    63f4:	90 16 e3 58 	or  %i3, 0x358, %o0	! 20358 <state_known_crc+0x344>
    63f8:	7f ff fb 8e 	call  5230 <time_in_secs>
    63fc:	90 10 00 1a 	mov  %i2, %o0
    6400:	c1 3f bf a0 	std  %f0, [ %fp + -96 ]
    6404:	c4 1f bf a0 	ldd  [ %fp + -96 ], %g2
    6408:	2b 00 00 80 	sethi  %hi(0x20000), %l5
    640c:	92 10 00 02 	mov  %g2, %o1
    6410:	94 10 00 03 	mov  %g3, %o2
    6414:	7f ff f6 82 	call  3e1c <ee_printf>
    6418:	90 15 63 70 	or  %l5, 0x370, %o0
    641c:	7f ff fb 85 	call  5230 <time_in_secs>
    6420:	90 10 00 1a 	mov  %i2, %o0
    6424:	b0 06 00 1c 	add  %i0, %i4, %i0
    6428:	03 00 00 81 	sethi  %hi(0x20400), %g1
    642c:	d5 18 62 78 	ldd  [ %g1 + 0x278 ], %f10	! 20678 <state_known_crc+0x664>
    6430:	81 a8 0a ca 	fcmped  %f0, %f10
    6434:	01 00 00 00 	nop 
    6438:	1d 80 00 1c 	fbule  64a8 <ajit_main+0x6f0>
    643c:	a6 10 00 18 	mov  %i0, %l3
    6440:	03 00 00 81 	sethi  %hi(0x20400), %g1
    6444:	e0 00 62 f0 	ld  [ %g1 + 0x2f0 ], %l0	! 206f0 <default_num_contexts>
    6448:	c2 07 bf d4 	ld  [ %fp + -44 ], %g1
    644c:	82 5c 00 01 	smul  %l0, %g1, %g1
    6450:	c2 27 bf ac 	st  %g1, [ %fp + -84 ]
    6454:	c3 07 bf ac 	ld  [ %fp + -84 ], %f1
    6458:	99 a0 19 01 	fitod  %f1, %f12
    645c:	80 a0 60 00 	cmp  %g1, 0
    6460:	16 80 00 07 	bge  647c <ajit_main+0x6c4>
    6464:	d9 3f bf b0 	std  %f12, [ %fp + -80 ]
    6468:	e1 1f bf b0 	ldd  [ %fp + -80 ], %f16
    646c:	03 00 00 81 	sethi  %hi(0x20400), %g1
    6470:	dd 18 62 98 	ldd  [ %g1 + 0x298 ], %f14	! 20698 <state_known_crc+0x684>
    6474:	a5 a4 08 4e 	faddd  %f16, %f14, %f18
    6478:	e5 3f bf b0 	std  %f18, [ %fp + -80 ]
    647c:	7f ff fb 6d 	call  5230 <time_in_secs>
    6480:	90 10 00 1a 	mov  %i2, %o0
    6484:	e9 1f bf b0 	ldd  [ %fp + -80 ], %f20
    6488:	ad a5 09 c0 	fdivd  %f20, %f0, %f22
    648c:	ed 3f bf a0 	std  %f22, [ %fp + -96 ]
    6490:	c4 1f bf a0 	ldd  [ %fp + -96 ], %g2
    6494:	29 00 00 80 	sethi  %hi(0x20000), %l4
    6498:	92 10 00 02 	mov  %g2, %o1
    649c:	90 15 23 88 	or  %l4, 0x388, %o0
    64a0:	7f ff f6 5f 	call  3e1c <ee_printf>
    64a4:	94 10 00 03 	mov  %g3, %o2
    64a8:	7f ff fb 62 	call  5230 <time_in_secs>
    64ac:	90 10 00 1a 	mov  %i2, %o0
    64b0:	03 00 00 81 	sethi  %hi(0x20400), %g1
    64b4:	f1 18 62 80 	ldd  [ %g1 + 0x280 ], %f24	! 20680 <state_known_crc+0x66c>
    64b8:	81 a8 0a d8 	fcmped  %f0, %f24
    64bc:	01 00 00 00 	nop 
    64c0:	19 80 00 06 	fbuge  64d8 <ajit_main+0x720>
    64c4:	01 00 00 00 	nop 
    64c8:	1f 00 00 80 	sethi  %hi(0x20000), %o7
    64cc:	90 13 e3 a0 	or  %o7, 0x3a0, %o0	! 203a0 <state_known_crc+0x38c>
    64d0:	7f ff f6 53 	call  3e1c <ee_printf>
    64d4:	a6 06 20 01 	add  %i0, 1, %l3
    64d8:	03 00 00 81 	sethi  %hi(0x20400), %g1
    64dc:	13 00 00 80 	sethi  %hi(0x20000), %o1
    64e0:	c8 00 62 f0 	ld  [ %g1 + 0x2f0 ], %g4
    64e4:	c2 07 bf d4 	ld  [ %fp + -44 ], %g1
    64e8:	90 12 63 e0 	or  %o1, 0x3e0, %o0
    64ec:	7f ff f6 4c 	call  3e1c <ee_printf>
    64f0:	92 59 00 01 	smul  %g4, %g1, %o1
    64f4:	17 00 00 80 	sethi  %hi(0x20000), %o3
    64f8:	15 00 00 81 	sethi  %hi(0x20400), %o2
    64fc:	90 12 e3 f8 	or  %o3, 0x3f8, %o0
    6500:	7f ff f6 47 	call  3e1c <ee_printf>
    6504:	92 12 a0 10 	or  %o2, 0x10, %o1
    6508:	19 00 00 81 	sethi  %hi(0x20400), %o4
    650c:	3b 00 00 81 	sethi  %hi(0x20400), %i5
    6510:	92 13 20 40 	or  %o4, 0x40, %o1
    6514:	7f ff f6 42 	call  3e1c <ee_printf>
    6518:	90 17 60 28 	or  %i5, 0x28, %o0
    651c:	1b 00 00 81 	sethi  %hi(0x20400), %o5
    6520:	05 00 00 81 	sethi  %hi(0x20400), %g2
    6524:	90 13 60 a8 	or  %o5, 0xa8, %o0
    6528:	7f ff f6 3d 	call  3e1c <ee_printf>
    652c:	92 10 a0 c0 	or  %g2, 0xc0, %o1
    6530:	a5 2c a0 10 	sll  %l2, 0x10, %l2
    6534:	11 00 00 81 	sethi  %hi(0x20400), %o0
    6538:	93 34 a0 10 	srl  %l2, 0x10, %o1
    653c:	7f ff f6 38 	call  3e1c <ee_printf>
    6540:	90 12 20 c8 	or  %o0, 0xc8, %o0
    6544:	c2 07 bf d8 	ld  [ %fp + -40 ], %g1
    6548:	80 88 60 01 	btst  1, %g1
    654c:	02 80 00 1c 	be  65bc <ajit_main+0x804>
    6550:	80 88 60 02 	btst  2, %g1
    6554:	03 00 00 81 	sethi  %hi(0x20400), %g1
    6558:	c2 00 62 f0 	ld  [ %g1 + 0x2f0 ], %g1	! 206f0 <default_num_contexts>
    655c:	80 a0 60 00 	cmp  %g1, 0
    6560:	02 80 00 15 	be  65b4 <ajit_main+0x7fc>
    6564:	07 00 00 81 	sethi  %hi(0x20400), %g3
    6568:	aa 10 20 00 	clr  %l5
    656c:	b8 10 e0 e8 	or  %g3, 0xe8, %i4
    6570:	31 00 00 81 	sethi  %hi(0x20400), %i0
    6574:	a3 2d 60 10 	sll  %l5, 0x10, %l1
    6578:	93 34 60 10 	srl  %l1, 0x10, %o1
    657c:	b7 2a 60 02 	sll  %o1, 2, %i3
    6580:	83 2a 60 06 	sll  %o1, 6, %g1
    6584:	82 06 c0 01 	add  %i3, %g1, %g1
    6588:	82 07 80 01 	add  %fp, %g1, %g1
    658c:	90 10 00 1c 	mov  %i4, %o0
    6590:	7f ff f6 23 	call  3e1c <ee_printf>
    6594:	d4 10 7f f2 	lduh  [ %g1 + -14 ], %o2
    6598:	aa 05 60 01 	inc  %l5
    659c:	c2 06 22 f0 	ld  [ %i0 + 0x2f0 ], %g1
    65a0:	a1 2d 60 10 	sll  %l5, 0x10, %l0
    65a4:	a9 34 20 10 	srl  %l0, 0x10, %l4
    65a8:	80 a5 00 01 	cmp  %l4, %g1
    65ac:	0a bf ff f3 	bcs  6578 <ajit_main+0x7c0>
    65b0:	a3 2d 60 10 	sll  %l5, 0x10, %l1
    65b4:	c2 07 bf d8 	ld  [ %fp + -40 ], %g1
    65b8:	80 88 60 02 	btst  2, %g1
    65bc:	02 80 00 1b 	be  6628 <ajit_main+0x870>
    65c0:	c2 07 bf d8 	ld  [ %fp + -40 ], %g1
    65c4:	03 00 00 81 	sethi  %hi(0x20400), %g1
    65c8:	c2 00 62 f0 	ld  [ %g1 + 0x2f0 ], %g1	! 206f0 <default_num_contexts>
    65cc:	80 a0 60 00 	cmp  %g1, 0
    65d0:	02 80 00 15 	be  6624 <ajit_main+0x86c>
    65d4:	1f 00 00 81 	sethi  %hi(0x20400), %o7
    65d8:	ba 10 20 00 	clr  %i5
    65dc:	a4 13 e1 08 	or  %o7, 0x108, %l2
    65e0:	39 00 00 81 	sethi  %hi(0x20400), %i4
    65e4:	89 2f 60 10 	sll  %i5, 0x10, %g4
    65e8:	93 31 20 10 	srl  %g4, 0x10, %o1
    65ec:	97 2a 60 02 	sll  %o1, 2, %o3
    65f0:	83 2a 60 06 	sll  %o1, 6, %g1
    65f4:	82 02 c0 01 	add  %o3, %g1, %g1
    65f8:	82 07 80 01 	add  %fp, %g1, %g1
    65fc:	90 10 00 12 	mov  %l2, %o0
    6600:	7f ff f6 07 	call  3e1c <ee_printf>
    6604:	d4 10 7f f4 	lduh  [ %g1 + -12 ], %o2
    6608:	ba 07 60 01 	inc  %i5
    660c:	c2 07 22 f0 	ld  [ %i4 + 0x2f0 ], %g1
    6610:	93 2f 60 10 	sll  %i5, 0x10, %o1
    6614:	95 32 60 10 	srl  %o1, 0x10, %o2
    6618:	80 a2 80 01 	cmp  %o2, %g1
    661c:	0a bf ff f3 	bcs  65e8 <ajit_main+0x830>
    6620:	89 2f 60 10 	sll  %i5, 0x10, %g4
    6624:	c2 07 bf d8 	ld  [ %fp + -40 ], %g1
    6628:	80 88 60 04 	btst  4, %g1
    662c:	02 80 00 0b 	be  6658 <ajit_main+0x8a0>
    6630:	03 00 00 81 	sethi  %hi(0x20400), %g1
    6634:	19 00 00 81 	sethi  %hi(0x20400), %o4
    6638:	c2 00 62 f0 	ld  [ %g1 + 0x2f0 ], %g1
    663c:	b6 10 20 00 	clr  %i3
    6640:	b0 13 21 28 	or  %o4, 0x128, %i0
    6644:	80 a0 60 00 	cmp  %g1, 0
    6648:	12 80 00 0d 	bne  667c <ajit_main+0x8c4>
    664c:	23 00 00 81 	sethi  %hi(0x20400), %l1
    6650:	10 80 00 2e 	b  6708 <ajit_main+0x950>
    6654:	83 2c e0 10 	sll  %l3, 0x10, %g1
    6658:	2b 00 00 81 	sethi  %hi(0x20400), %l5
    665c:	c2 00 62 f0 	ld  [ %g1 + 0x2f0 ], %g1
    6660:	b8 10 20 00 	clr  %i4
    6664:	a0 15 61 48 	or  %l5, 0x148, %l0
    6668:	80 a0 60 00 	cmp  %g1, 0
    666c:	12 80 00 16 	bne  66c4 <ajit_main+0x90c>
    6670:	29 00 00 81 	sethi  %hi(0x20400), %l4
    6674:	10 80 00 25 	b  6708 <ajit_main+0x950>
    6678:	83 2c e0 10 	sll  %l3, 0x10, %g1
    667c:	9b 2e e0 10 	sll  %i3, 0x10, %o5
    6680:	93 33 60 10 	srl  %o5, 0x10, %o1
    6684:	85 2a 60 02 	sll  %o1, 2, %g2
    6688:	83 2a 60 06 	sll  %o1, 6, %g1
    668c:	82 00 80 01 	add  %g2, %g1, %g1
    6690:	82 07 80 01 	add  %fp, %g1, %g1
    6694:	90 10 00 18 	mov  %i0, %o0
    6698:	7f ff f5 e1 	call  3e1c <ee_printf>
    669c:	d4 10 7f f6 	lduh  [ %g1 + -10 ], %o2
    66a0:	b6 06 e0 01 	inc  %i3
    66a4:	c2 04 62 f0 	ld  [ %l1 + 0x2f0 ], %g1
    66a8:	91 2e e0 10 	sll  %i3, 0x10, %o0
    66ac:	87 32 20 10 	srl  %o0, 0x10, %g3
    66b0:	80 a0 c0 01 	cmp  %g3, %g1
    66b4:	0a bf ff f3 	bcs  6680 <ajit_main+0x8c8>
    66b8:	9b 2e e0 10 	sll  %i3, 0x10, %o5
    66bc:	10 bf ff e7 	b  6658 <ajit_main+0x8a0>
    66c0:	03 00 00 81 	sethi  %hi(0x20400), %g1
    66c4:	9f 2f 20 10 	sll  %i4, 0x10, %o7
    66c8:	93 33 e0 10 	srl  %o7, 0x10, %o1
    66cc:	a5 2a 60 02 	sll  %o1, 2, %l2
    66d0:	83 2a 60 06 	sll  %o1, 6, %g1
    66d4:	82 04 80 01 	add  %l2, %g1, %g1
    66d8:	82 07 80 01 	add  %fp, %g1, %g1
    66dc:	90 10 00 10 	mov  %l0, %o0
    66e0:	7f ff f5 cf 	call  3e1c <ee_printf>
    66e4:	d4 10 7f f0 	lduh  [ %g1 + -16 ], %o2
    66e8:	b8 07 20 01 	inc  %i4
    66ec:	c2 05 22 f0 	ld  [ %l4 + 0x2f0 ], %g1
    66f0:	89 2f 20 10 	sll  %i4, 0x10, %g4
    66f4:	97 31 20 10 	srl  %g4, 0x10, %o3
    66f8:	80 a2 c0 01 	cmp  %o3, %g1
    66fc:	0a bf ff f3 	bcs  66c8 <ajit_main+0x910>
    6700:	9f 2f 20 10 	sll  %i4, 0x10, %o7
    6704:	83 2c e0 10 	sll  %l3, 0x10, %g1
    6708:	80 a0 60 00 	cmp  %g1, 0
    670c:	12 80 00 30 	bne  67cc <ajit_main+0xa14>
    6710:	83 2c e0 10 	sll  %l3, 0x10, %g1
    6714:	3b 00 00 81 	sethi  %hi(0x20400), %i5
    6718:	7f ff f5 c1 	call  3e1c <ee_printf>
    671c:	90 17 61 68 	or  %i5, 0x168, %o0	! 20568 <state_known_crc+0x554>
    6720:	93 2e 60 10 	sll  %i1, 0x10, %o1
    6724:	95 3a 60 10 	sra  %o1, 0x10, %o2
    6728:	80 a2 a0 03 	cmp  %o2, 3
    672c:	12 80 00 35 	bne  6800 <ajit_main+0xa48>
    6730:	03 00 00 81 	sethi  %hi(0x20400), %g1
    6734:	d8 00 62 f0 	ld  [ %g1 + 0x2f0 ], %o4	! 206f0 <default_num_contexts>
    6738:	c2 07 bf d4 	ld  [ %fp + -44 ], %g1
    673c:	82 5b 00 01 	smul  %o4, %g1, %g1
    6740:	c2 27 bf ac 	st  %g1, [ %fp + -84 ]
    6744:	c7 07 bf ac 	ld  [ %fp + -84 ], %f3
    6748:	b5 a0 19 03 	fitod  %f3, %f26
    674c:	80 a0 60 00 	cmp  %g1, 0
    6750:	16 80 00 07 	bge  676c <ajit_main+0x9b4>
    6754:	f5 3f bf b0 	std  %f26, [ %fp + -80 ]
    6758:	fd 1f bf b0 	ldd  [ %fp + -80 ], %f30
    675c:	03 00 00 81 	sethi  %hi(0x20400), %g1
    6760:	f9 18 62 98 	ldd  [ %g1 + 0x298 ], %f28	! 20698 <state_known_crc+0x684>
    6764:	91 a7 88 5c 	faddd  %f30, %f28, %f8
    6768:	d1 3f bf b0 	std  %f8, [ %fp + -80 ]
    676c:	7f ff fa b1 	call  5230 <time_in_secs>
    6770:	90 10 00 1a 	mov  %i2, %o0
    6774:	c5 1f bf b0 	ldd  [ %fp + -80 ], %f2
    6778:	1b 00 00 81 	sethi  %hi(0x20400), %o5
    677c:	81 a0 89 c0 	fdivd  %f2, %f0, %f0
    6780:	c1 3f bf a0 	std  %f0, [ %fp + -96 ]
    6784:	c4 1f bf a0 	ldd  [ %fp + -96 ], %g2
    6788:	98 13 60 40 	or  %o5, 0x40, %o4
    678c:	92 10 00 02 	mov  %g2, %o1
    6790:	94 10 00 03 	mov  %g3, %o2
    6794:	31 00 00 81 	sethi  %hi(0x20400), %i0
    6798:	23 00 00 81 	sethi  %hi(0x20400), %l1
    679c:	90 16 21 b8 	or  %i0, 0x1b8, %o0
    67a0:	7f ff f5 9f 	call  3e1c <ee_printf>
    67a4:	96 14 60 10 	or  %l1, 0x10, %o3
    67a8:	05 00 00 81 	sethi  %hi(0x20400), %g2
    67ac:	37 00 00 81 	sethi  %hi(0x20400), %i3
    67b0:	90 10 a1 d8 	or  %g2, 0x1d8, %o0
    67b4:	7f ff f5 9a 	call  3e1c <ee_printf>
    67b8:	92 16 e0 c0 	or  %i3, 0xc0, %o1
    67bc:	11 00 00 81 	sethi  %hi(0x20400), %o0
    67c0:	7f ff f5 97 	call  3e1c <ee_printf>
    67c4:	90 12 21 b0 	or  %o0, 0x1b0, %o0	! 205b0 <state_known_crc+0x59c>
    67c8:	30 80 00 0e 	b,a   6800 <ajit_main+0xa48>
    67cc:	80 a0 60 00 	cmp  %g1, 0
    67d0:	04 80 00 06 	ble  67e8 <ajit_main+0xa30>
    67d4:	b3 2c e0 10 	sll  %l3, 0x10, %i1
    67d8:	35 00 00 81 	sethi  %hi(0x20400), %i2
    67dc:	7f ff f5 90 	call  3e1c <ee_printf>
    67e0:	90 16 a1 e0 	or  %i2, 0x1e0, %o0	! 205e0 <state_known_crc+0x5cc>
    67e4:	b3 2c e0 10 	sll  %l3, 0x10, %i1
    67e8:	80 a6 60 00 	cmp  %i1, 0
    67ec:	16 80 00 05 	bge  6800 <ajit_main+0xa48>
    67f0:	01 00 00 00 	nop 
    67f4:	27 00 00 81 	sethi  %hi(0x20400), %l3
    67f8:	7f ff f5 89 	call  3e1c <ee_printf>
    67fc:	90 14 e1 f8 	or  %l3, 0x1f8, %o0	! 205f8 <state_known_crc+0x5e4>
    6800:	7f ff fa b3 	call  52cc <portable_fini>
    6804:	90 07 bf fa 	add  %fp, -6, %o0
    6808:	81 c7 e0 08 	ret 
    680c:	81 e8 00 00 	restore 
    6810:	f4 07 bf c0 	ld  [ %fp + -64 ], %i2
    6814:	99 32 e0 10 	srl  %o3, 0x10, %o4
    6818:	9a 03 60 01 	inc  %o5
    681c:	9e 5b 00 1b 	smul  %o4, %i3, %o7
    6820:	a0 06 80 0f 	add  %i2, %o7, %l0
    6824:	10 bf fd b7 	b  5f00 <ajit_main+0x148>
    6828:	e0 24 40 00 	st  %l0, [ %l1 ]
    682c:	b0 10 20 00 	clr  %i0
    6830:	c2 00 62 f0 	ld  [ %g1 + 0x2f0 ], %g1
    6834:	80 a0 60 00 	cmp  %g1, 0
    6838:	12 bf fe 64 	bne  61c8 <ajit_main+0x410>
    683c:	b8 10 20 00 	clr  %i4
    6840:	30 bf fe e4 	b,a   63d0 <ajit_main+0x618>
    6844:	00 00 68 cc 	unimp  0x68cc
    6848:	00 00 68 7c 	unimp  0x687c
    684c:	00 00 68 8c 	unimp  0x688c
    6850:	00 00 68 9c 	unimp  0x689c
    6854:	00 00 68 ac 	unimp  0x68ac
    6858:	00 00 68 bc 	unimp  0x68bc

0000685c <get_seed_32>:
    685c:	80 a2 20 05 	cmp  %o0, 5
    6860:	18 80 00 1b 	bgu  68cc <get_seed_32+0x70>
    6864:	03 00 00 1a 	sethi  %hi(0x6800), %g1
    6868:	91 2a 20 02 	sll  %o0, 2, %o0
    686c:	82 10 60 44 	or  %g1, 0x44, %g1
    6870:	c2 00 40 08 	ld  [ %g1 + %o0 ], %g1
    6874:	81 c0 40 00 	jmp  %g1
    6878:	01 00 00 00 	nop 
    687c:	03 00 00 81 	sethi  %hi(0x20400), %g1
    6880:	d0 00 63 64 	ld  [ %g1 + 0x364 ], %o0	! 20764 <seed1_volatile>
    6884:	81 c3 e0 08 	retl 
    6888:	01 00 00 00 	nop 
    688c:	03 00 00 81 	sethi  %hi(0x20400), %g1
    6890:	d0 00 63 60 	ld  [ %g1 + 0x360 ], %o0	! 20760 <seed2_volatile>
    6894:	81 c3 e0 08 	retl 
    6898:	01 00 00 00 	nop 
    689c:	03 00 00 81 	sethi  %hi(0x20400), %g1
    68a0:	d0 00 62 fc 	ld  [ %g1 + 0x2fc ], %o0	! 206fc <seed3_volatile>
    68a4:	81 c3 e0 08 	retl 
    68a8:	01 00 00 00 	nop 
    68ac:	03 00 00 81 	sethi  %hi(0x20400), %g1
    68b0:	d0 00 62 f8 	ld  [ %g1 + 0x2f8 ], %o0	! 206f8 <seed4_volatile>
    68b4:	81 c3 e0 08 	retl 
    68b8:	01 00 00 00 	nop 
    68bc:	03 00 00 81 	sethi  %hi(0x20400), %g1
    68c0:	d0 00 62 f4 	ld  [ %g1 + 0x2f4 ], %o0	! 206f4 <seed5_volatile>
    68c4:	81 c3 e0 08 	retl 
    68c8:	01 00 00 00 	nop 
    68cc:	81 c3 e0 08 	retl 
    68d0:	90 10 20 00 	clr  %o0	! 0 <_start>

000068d4 <crcu8>:
    68d4:	09 00 00 1f 	sethi  %hi(0x7c00), %g4
    68d8:	82 10 00 08 	mov  %o0, %g1
    68dc:	19 00 00 10 	sethi  %hi(0x4000), %o4
    68e0:	90 10 00 09 	mov  %o1, %o0
    68e4:	84 10 20 08 	mov  8, %g2
    68e8:	92 11 23 ff 	or  %g4, 0x3ff, %o1
    68ec:	1b 3f ff e0 	sethi  %hi(0xffff8000), %o5
    68f0:	88 13 20 02 	or  %o4, 2, %g4
    68f4:	86 18 40 08 	xor  %g1, %o0, %g3
    68f8:	80 88 e0 01 	btst  1, %g3
    68fc:	02 80 00 0d 	be  6930 <crcu8+0x5c>
    6900:	83 30 60 01 	srl  %g1, 1, %g1
    6904:	98 1a 00 04 	xor  %o0, %g4, %o4
    6908:	87 33 20 01 	srl  %o4, 1, %g3
    690c:	90 10 c0 0d 	or  %g3, %o5, %o0
    6910:	99 2a 20 10 	sll  %o0, 0x10, %o4
    6914:	91 33 20 10 	srl  %o4, 0x10, %o0
    6918:	84 00 bf ff 	add  %g2, -1, %g2
    691c:	80 88 a0 ff 	btst  0xff, %g2
    6920:	12 bf ff f6 	bne  68f8 <crcu8+0x24>
    6924:	86 18 40 08 	xor  %g1, %o0, %g3
    6928:	81 c3 e0 08 	retl 
    692c:	01 00 00 00 	nop 
    6930:	91 32 20 01 	srl  %o0, 1, %o0
    6934:	10 bf ff f9 	b  6918 <crcu8+0x44>
    6938:	90 0a 00 09 	and  %o0, %o1, %o0

0000693c <crcu16>:
    693c:	09 00 00 1f 	sethi  %hi(0x7c00), %g4
    6940:	19 00 00 10 	sethi  %hi(0x4000), %o4
    6944:	84 10 00 08 	mov  %o0, %g2
    6948:	82 10 20 08 	mov  8, %g1
    694c:	88 11 23 ff 	or  %g4, 0x3ff, %g4
    6950:	98 13 20 02 	or  %o4, 2, %o4
    6954:	1b 3f ff e0 	sethi  %hi(0xffff8000), %o5
    6958:	86 1a 40 02 	xor  %o1, %g2, %g3
    695c:	84 08 a0 ff 	and  %g2, 0xff, %g2
    6960:	80 88 e0 01 	btst  1, %g3
    6964:	02 80 00 22 	be  69ec <crcu16+0xb0>
    6968:	85 30 a0 01 	srl  %g2, 1, %g2
    696c:	86 1a 40 0c 	xor  %o1, %o4, %g3
    6970:	93 30 e0 01 	srl  %g3, 1, %o1
    6974:	86 12 40 0d 	or  %o1, %o5, %g3
    6978:	93 28 e0 10 	sll  %g3, 0x10, %o1
    697c:	93 32 60 10 	srl  %o1, 0x10, %o1
    6980:	82 00 7f ff 	add  %g1, -1, %g1
    6984:	80 88 60 ff 	btst  0xff, %g1
    6988:	12 bf ff f5 	bne  695c <crcu16+0x20>
    698c:	86 1a 40 02 	xor  %o1, %g2, %g3
    6990:	09 00 00 1f 	sethi  %hi(0x7c00), %g4
    6994:	1b 00 00 10 	sethi  %hi(0x4000), %o5
    6998:	98 11 23 ff 	or  %g4, 0x3ff, %o4
    699c:	91 32 20 08 	srl  %o0, 8, %o0
    69a0:	82 10 20 08 	mov  8, %g1
    69a4:	86 13 60 02 	or  %o5, 2, %g3
    69a8:	09 3f ff e0 	sethi  %hi(0xffff8000), %g4
    69ac:	84 1a 40 08 	xor  %o1, %o0, %g2
    69b0:	90 0a 20 ff 	and  %o0, 0xff, %o0
    69b4:	80 88 a0 01 	btst  1, %g2
    69b8:	02 80 00 10 	be  69f8 <crcu16+0xbc>
    69bc:	91 32 20 01 	srl  %o0, 1, %o0
    69c0:	9a 1a 40 03 	xor  %o1, %g3, %o5
    69c4:	85 33 60 01 	srl  %o5, 1, %g2
    69c8:	92 10 80 04 	or  %g2, %g4, %o1
    69cc:	9b 2a 60 10 	sll  %o1, 0x10, %o5
    69d0:	93 33 60 10 	srl  %o5, 0x10, %o1
    69d4:	82 00 7f ff 	add  %g1, -1, %g1
    69d8:	80 88 60 ff 	btst  0xff, %g1
    69dc:	12 bf ff f5 	bne  69b0 <crcu16+0x74>
    69e0:	84 1a 40 08 	xor  %o1, %o0, %g2
    69e4:	81 c3 e0 08 	retl 
    69e8:	90 10 00 09 	mov  %o1, %o0
    69ec:	93 32 60 01 	srl  %o1, 1, %o1
    69f0:	10 bf ff e4 	b  6980 <crcu16+0x44>
    69f4:	92 0a 40 04 	and  %o1, %g4, %o1
    69f8:	93 32 60 01 	srl  %o1, 1, %o1
    69fc:	10 bf ff f6 	b  69d4 <crcu16+0x98>
    6a00:	92 0a 40 0c 	and  %o1, %o4, %o1

00006a04 <crc16>:
    6a04:	09 00 00 1f 	sethi  %hi(0x7c00), %g4
    6a08:	19 00 00 10 	sethi  %hi(0x4000), %o4
    6a0c:	84 10 00 08 	mov  %o0, %g2
    6a10:	82 10 20 08 	mov  8, %g1
    6a14:	88 11 23 ff 	or  %g4, 0x3ff, %g4
    6a18:	98 13 20 02 	or  %o4, 2, %o4
    6a1c:	1b 3f ff e0 	sethi  %hi(0xffff8000), %o5
    6a20:	86 1a 40 02 	xor  %o1, %g2, %g3
    6a24:	84 08 a0 ff 	and  %g2, 0xff, %g2
    6a28:	80 88 e0 01 	btst  1, %g3
    6a2c:	02 80 00 23 	be  6ab8 <crc16+0xb4>
    6a30:	85 30 a0 01 	srl  %g2, 1, %g2
    6a34:	86 1a 40 0c 	xor  %o1, %o4, %g3
    6a38:	93 30 e0 01 	srl  %g3, 1, %o1
    6a3c:	86 12 40 0d 	or  %o1, %o5, %g3
    6a40:	93 28 e0 10 	sll  %g3, 0x10, %o1
    6a44:	93 32 60 10 	srl  %o1, 0x10, %o1
    6a48:	82 00 7f ff 	add  %g1, -1, %g1
    6a4c:	80 88 60 ff 	btst  0xff, %g1
    6a50:	12 bf ff f5 	bne  6a24 <crc16+0x20>
    6a54:	86 1a 40 02 	xor  %o1, %g2, %g3
    6a58:	09 00 00 1f 	sethi  %hi(0x7c00), %g4
    6a5c:	91 2a 20 10 	sll  %o0, 0x10, %o0
    6a60:	98 11 23 ff 	or  %g4, 0x3ff, %o4
    6a64:	1b 00 00 10 	sethi  %hi(0x4000), %o5
    6a68:	91 32 20 18 	srl  %o0, 0x18, %o0
    6a6c:	82 10 20 08 	mov  8, %g1
    6a70:	86 13 60 02 	or  %o5, 2, %g3
    6a74:	09 3f ff e0 	sethi  %hi(0xffff8000), %g4
    6a78:	84 1a 40 08 	xor  %o1, %o0, %g2
    6a7c:	90 0a 20 ff 	and  %o0, 0xff, %o0
    6a80:	80 88 a0 01 	btst  1, %g2
    6a84:	02 80 00 10 	be  6ac4 <crc16+0xc0>
    6a88:	91 32 20 01 	srl  %o0, 1, %o0
    6a8c:	9a 1a 40 03 	xor  %o1, %g3, %o5
    6a90:	85 33 60 01 	srl  %o5, 1, %g2
    6a94:	92 10 80 04 	or  %g2, %g4, %o1
    6a98:	9b 2a 60 10 	sll  %o1, 0x10, %o5
    6a9c:	93 33 60 10 	srl  %o5, 0x10, %o1
    6aa0:	82 00 7f ff 	add  %g1, -1, %g1
    6aa4:	80 88 60 ff 	btst  0xff, %g1
    6aa8:	12 bf ff f5 	bne  6a7c <crc16+0x78>
    6aac:	84 1a 40 08 	xor  %o1, %o0, %g2
    6ab0:	81 c3 e0 08 	retl 
    6ab4:	90 10 00 09 	mov  %o1, %o0
    6ab8:	93 32 60 01 	srl  %o1, 1, %o1
    6abc:	10 bf ff e3 	b  6a48 <crc16+0x44>
    6ac0:	92 0a 40 04 	and  %o1, %g4, %o1
    6ac4:	93 32 60 01 	srl  %o1, 1, %o1
    6ac8:	10 bf ff f6 	b  6aa0 <crc16+0x9c>
    6acc:	92 0a 40 0c 	and  %o1, %o4, %o1

00006ad0 <crcu32>:
    6ad0:	9d e3 bf a0 	save  %sp, -96, %sp
    6ad4:	92 10 00 19 	mov  %i1, %o1
    6ad8:	91 2e 20 10 	sll  %i0, 0x10, %o0
    6adc:	7f ff ff ca 	call  6a04 <crc16>
    6ae0:	91 3a 20 10 	sra  %o0, 0x10, %o0
    6ae4:	92 10 00 08 	mov  %o0, %o1
    6ae8:	7f ff ff c7 	call  6a04 <crc16>
    6aec:	91 3e 20 10 	sra  %i0, 0x10, %o0
    6af0:	81 c7 e0 08 	ret 
    6af4:	91 e8 00 08 	restore  %g0, %o0, %o0

00006af8 <check_data_types>:
    6af8:	81 c3 e0 08 	retl 
    6afc:	90 10 20 00 	clr  %o0
