
.//core_mark.elf:     file format elf32-sparc


Disassembly of section .text:

00000000 <_start>:
       0:	90 10 21 00 	mov  0x100, %o0
       4:	d0 a0 00 80 	sta  %o0, [ %g0 ] #ASI_N
       8:	9c 10 30 00 	mov  -4096, %sp
       c:	bc 10 00 00 	mov  %g0, %fp
      10:	a0 10 20 01 	mov  1, %l0
      14:	81 94 20 00 	mov  %l0, %wim
      18:	21 00 00 04 	sethi  %hi(0x1000), %l0
      1c:	a0 14 20 e0 	or  %l0, 0xe0, %l0	! 10e0 <window_underflow_trap_handler+0x7c>
      20:	81 88 00 10 	mov  %l0, %psr
      24:	21 00 00 08 	sethi  %hi(0x2000), %l0
      28:	a0 14 20 00 	mov  %l0, %l0	! 2000 <trap_table_base>
      2c:	81 9c 20 00 	mov  %l0, %tbr
      30:	40 00 1e 35 	call  7904 <ajit_main>
      34:	01 00 00 00 	nop 
      38:	91 d0 20 00 	ta  0
	...

00001000 <window_overflow_trap_handler>:
    1000:	a7 50 00 00 	rd  %wim, %l3
    1004:	a9 2c e0 07 	sll  %l3, 7, %l4
    1008:	a7 34 e0 01 	srl  %l3, 1, %l3
    100c:	a6 14 c0 14 	or  %l3, %l4, %l3
    1010:	a6 0c e0 ff 	and  %l3, 0xff, %l3
    1014:	81 90 00 00 	mov  %g0, %wim
    1018:	01 00 00 00 	nop 
    101c:	01 00 00 00 	nop 
    1020:	01 00 00 00 	nop 
    1024:	81 e0 00 00 	save 
    1028:	e0 3b a0 00 	std  %l0, [ %sp ]
    102c:	e4 3b a0 08 	std  %l2, [ %sp + 8 ]
    1030:	e8 3b a0 10 	std  %l4, [ %sp + 0x10 ]
    1034:	ec 3b a0 18 	std  %l6, [ %sp + 0x18 ]
    1038:	f0 3b a0 20 	std  %i0, [ %sp + 0x20 ]
    103c:	f4 3b a0 28 	std  %i2, [ %sp + 0x28 ]
    1040:	f8 3b a0 30 	std  %i4, [ %sp + 0x30 ]
    1044:	fc 3b a0 38 	std  %fp, [ %sp + 0x38 ]
    1048:	81 e8 00 00 	restore 
    104c:	81 90 00 13 	mov  %l3, %wim
    1050:	01 00 00 00 	nop 
    1054:	01 00 00 00 	nop 
    1058:	01 00 00 00 	nop 
    105c:	81 c4 40 00 	jmp  %l1
    1060:	81 cc 80 00 	rett  %l2

00001064 <window_underflow_trap_handler>:
    1064:	a7 50 00 00 	rd  %wim, %l3
    1068:	a9 34 e0 07 	srl  %l3, 7, %l4
    106c:	a7 2c e0 01 	sll  %l3, 1, %l3
    1070:	a6 14 c0 14 	or  %l3, %l4, %l3
    1074:	a6 0c e0 ff 	and  %l3, 0xff, %l3
    1078:	81 90 00 00 	mov  %g0, %wim
    107c:	01 00 00 00 	nop 
    1080:	01 00 00 00 	nop 
    1084:	01 00 00 00 	nop 
    1088:	81 e8 00 00 	restore 
    108c:	81 e8 00 00 	restore 
    1090:	e0 1b a0 00 	ldd  [ %sp ], %l0
    1094:	e4 1b a0 08 	ldd  [ %sp + 8 ], %l2
    1098:	e8 1b a0 10 	ldd  [ %sp + 0x10 ], %l4
    109c:	ec 1b a0 18 	ldd  [ %sp + 0x18 ], %l6
    10a0:	f0 1b a0 20 	ldd  [ %sp + 0x20 ], %i0
    10a4:	f4 1b a0 28 	ldd  [ %sp + 0x28 ], %i2
    10a8:	f8 1b a0 30 	ldd  [ %sp + 0x30 ], %i4
    10ac:	fc 1b a0 38 	ldd  [ %sp + 0x38 ], %fp
    10b0:	81 e0 00 00 	save 
    10b4:	81 e0 00 00 	save 
    10b8:	81 90 00 13 	mov  %l3, %wim
    10bc:	01 00 00 00 	nop 
    10c0:	01 00 00 00 	nop 
    10c4:	01 00 00 00 	nop 
    10c8:	81 c4 40 00 	jmp  %l1
    10cc:	81 cc 80 00 	rett  %l2
    10d0:	01 00 00 00 	nop 
    10d4:	01 00 00 00 	nop 
    10d8:	01 00 00 00 	nop 
    10dc:	01 00 00 00 	nop 
    10e0:	01 00 00 00 	nop 
    10e4:	01 00 00 00 	nop 
    10e8:	01 00 00 00 	nop 
    10ec:	01 00 00 00 	nop 
    10f0:	01 00 00 00 	nop 
    10f4:	01 00 00 00 	nop 
    10f8:	01 00 00 00 	nop 
    10fc:	01 00 00 00 	nop 
    1100:	01 00 00 00 	nop 
    1104:	01 00 00 00 	nop 
    1108:	01 00 00 00 	nop 
    110c:	01 00 00 00 	nop 
    1110:	01 00 00 00 	nop 
    1114:	01 00 00 00 	nop 
    1118:	01 00 00 00 	nop 
    111c:	01 00 00 00 	nop 
    1120:	01 00 00 00 	nop 
    1124:	01 00 00 00 	nop 
    1128:	01 00 00 00 	nop 
    112c:	01 00 00 00 	nop 
    1130:	01 00 00 00 	nop 
    1134:	01 00 00 00 	nop 
    1138:	01 00 00 00 	nop 
    113c:	01 00 00 00 	nop 
    1140:	01 00 00 00 	nop 
    1144:	01 00 00 00 	nop 
    1148:	01 00 00 00 	nop 
    114c:	01 00 00 00 	nop 
    1150:	01 00 00 00 	nop 
    1154:	01 00 00 00 	nop 
    1158:	01 00 00 00 	nop 
    115c:	01 00 00 00 	nop 
    1160:	01 00 00 00 	nop 
    1164:	01 00 00 00 	nop 
    1168:	01 00 00 00 	nop 
    116c:	01 00 00 00 	nop 
    1170:	01 00 00 00 	nop 
    1174:	01 00 00 00 	nop 
    1178:	01 00 00 00 	nop 
    117c:	01 00 00 00 	nop 
    1180:	01 00 00 00 	nop 
    1184:	01 00 00 00 	nop 
    1188:	01 00 00 00 	nop 
    118c:	01 00 00 00 	nop 
    1190:	01 00 00 00 	nop 
    1194:	01 00 00 00 	nop 
    1198:	01 00 00 00 	nop 
    119c:	01 00 00 00 	nop 
    11a0:	01 00 00 00 	nop 
    11a4:	01 00 00 00 	nop 
    11a8:	01 00 00 00 	nop 
    11ac:	01 00 00 00 	nop 
    11b0:	01 00 00 00 	nop 
    11b4:	01 00 00 00 	nop 
    11b8:	01 00 00 00 	nop 
    11bc:	01 00 00 00 	nop 
    11c0:	01 00 00 00 	nop 
    11c4:	01 00 00 00 	nop 
    11c8:	01 00 00 00 	nop 
    11cc:	01 00 00 00 	nop 
    11d0:	01 00 00 00 	nop 
    11d4:	01 00 00 00 	nop 
    11d8:	01 00 00 00 	nop 
    11dc:	01 00 00 00 	nop 
    11e0:	01 00 00 00 	nop 
    11e4:	01 00 00 00 	nop 
    11e8:	01 00 00 00 	nop 
    11ec:	01 00 00 00 	nop 
    11f0:	01 00 00 00 	nop 
    11f4:	01 00 00 00 	nop 
    11f8:	01 00 00 00 	nop 
    11fc:	01 00 00 00 	nop 
    1200:	01 00 00 00 	nop 
    1204:	01 00 00 00 	nop 
    1208:	01 00 00 00 	nop 
    120c:	01 00 00 00 	nop 
    1210:	01 00 00 00 	nop 
    1214:	01 00 00 00 	nop 
    1218:	01 00 00 00 	nop 
    121c:	01 00 00 00 	nop 
    1220:	01 00 00 00 	nop 
    1224:	01 00 00 00 	nop 
    1228:	01 00 00 00 	nop 
    122c:	01 00 00 00 	nop 
    1230:	01 00 00 00 	nop 
    1234:	01 00 00 00 	nop 
    1238:	01 00 00 00 	nop 
    123c:	01 00 00 00 	nop 
    1240:	01 00 00 00 	nop 
    1244:	01 00 00 00 	nop 
    1248:	01 00 00 00 	nop 
    124c:	01 00 00 00 	nop 
    1250:	01 00 00 00 	nop 
    1254:	01 00 00 00 	nop 
    1258:	01 00 00 00 	nop 
    125c:	01 00 00 00 	nop 
    1260:	01 00 00 00 	nop 
    1264:	01 00 00 00 	nop 
    1268:	01 00 00 00 	nop 
    126c:	01 00 00 00 	nop 
    1270:	01 00 00 00 	nop 
    1274:	01 00 00 00 	nop 
    1278:	01 00 00 00 	nop 
    127c:	01 00 00 00 	nop 
    1280:	01 00 00 00 	nop 
    1284:	01 00 00 00 	nop 
    1288:	01 00 00 00 	nop 
    128c:	01 00 00 00 	nop 
    1290:	01 00 00 00 	nop 
    1294:	01 00 00 00 	nop 
    1298:	01 00 00 00 	nop 
    129c:	01 00 00 00 	nop 
    12a0:	01 00 00 00 	nop 
    12a4:	01 00 00 00 	nop 
    12a8:	01 00 00 00 	nop 
    12ac:	01 00 00 00 	nop 
    12b0:	01 00 00 00 	nop 
    12b4:	01 00 00 00 	nop 
    12b8:	01 00 00 00 	nop 
    12bc:	01 00 00 00 	nop 
    12c0:	01 00 00 00 	nop 
    12c4:	01 00 00 00 	nop 
    12c8:	01 00 00 00 	nop 
    12cc:	01 00 00 00 	nop 
    12d0:	01 00 00 00 	nop 
    12d4:	01 00 00 00 	nop 
    12d8:	01 00 00 00 	nop 
    12dc:	01 00 00 00 	nop 
    12e0:	01 00 00 00 	nop 
    12e4:	01 00 00 00 	nop 
    12e8:	01 00 00 00 	nop 
    12ec:	01 00 00 00 	nop 
    12f0:	01 00 00 00 	nop 
    12f4:	01 00 00 00 	nop 
    12f8:	01 00 00 00 	nop 
    12fc:	01 00 00 00 	nop 
    1300:	01 00 00 00 	nop 
    1304:	01 00 00 00 	nop 
    1308:	01 00 00 00 	nop 
    130c:	01 00 00 00 	nop 
    1310:	01 00 00 00 	nop 
    1314:	01 00 00 00 	nop 
    1318:	01 00 00 00 	nop 
    131c:	01 00 00 00 	nop 
    1320:	01 00 00 00 	nop 
    1324:	01 00 00 00 	nop 
    1328:	01 00 00 00 	nop 
    132c:	01 00 00 00 	nop 
    1330:	01 00 00 00 	nop 
    1334:	01 00 00 00 	nop 
    1338:	01 00 00 00 	nop 
    133c:	01 00 00 00 	nop 
    1340:	01 00 00 00 	nop 
    1344:	01 00 00 00 	nop 
    1348:	01 00 00 00 	nop 
    134c:	01 00 00 00 	nop 
    1350:	01 00 00 00 	nop 
    1354:	01 00 00 00 	nop 
    1358:	01 00 00 00 	nop 
    135c:	01 00 00 00 	nop 
    1360:	01 00 00 00 	nop 
    1364:	01 00 00 00 	nop 
    1368:	01 00 00 00 	nop 
    136c:	01 00 00 00 	nop 
    1370:	01 00 00 00 	nop 
    1374:	01 00 00 00 	nop 
    1378:	01 00 00 00 	nop 
    137c:	01 00 00 00 	nop 
    1380:	01 00 00 00 	nop 
    1384:	01 00 00 00 	nop 
    1388:	01 00 00 00 	nop 
    138c:	01 00 00 00 	nop 
    1390:	01 00 00 00 	nop 
    1394:	01 00 00 00 	nop 
    1398:	01 00 00 00 	nop 
    139c:	01 00 00 00 	nop 
    13a0:	01 00 00 00 	nop 
    13a4:	01 00 00 00 	nop 
    13a8:	01 00 00 00 	nop 
    13ac:	01 00 00 00 	nop 
    13b0:	01 00 00 00 	nop 
    13b4:	01 00 00 00 	nop 
    13b8:	01 00 00 00 	nop 
    13bc:	01 00 00 00 	nop 
    13c0:	01 00 00 00 	nop 
    13c4:	01 00 00 00 	nop 
    13c8:	01 00 00 00 	nop 
    13cc:	01 00 00 00 	nop 
    13d0:	01 00 00 00 	nop 
    13d4:	01 00 00 00 	nop 
    13d8:	01 00 00 00 	nop 
    13dc:	01 00 00 00 	nop 
    13e0:	01 00 00 00 	nop 
    13e4:	01 00 00 00 	nop 
    13e8:	01 00 00 00 	nop 
    13ec:	01 00 00 00 	nop 
    13f0:	01 00 00 00 	nop 
    13f4:	01 00 00 00 	nop 
    13f8:	01 00 00 00 	nop 
    13fc:	01 00 00 00 	nop 
    1400:	01 00 00 00 	nop 
    1404:	01 00 00 00 	nop 
    1408:	01 00 00 00 	nop 
    140c:	01 00 00 00 	nop 
    1410:	01 00 00 00 	nop 
    1414:	01 00 00 00 	nop 
    1418:	01 00 00 00 	nop 
    141c:	01 00 00 00 	nop 
    1420:	01 00 00 00 	nop 
    1424:	01 00 00 00 	nop 
    1428:	01 00 00 00 	nop 
    142c:	01 00 00 00 	nop 
    1430:	01 00 00 00 	nop 
    1434:	01 00 00 00 	nop 
    1438:	01 00 00 00 	nop 
    143c:	01 00 00 00 	nop 
    1440:	01 00 00 00 	nop 
    1444:	01 00 00 00 	nop 
    1448:	01 00 00 00 	nop 
    144c:	01 00 00 00 	nop 
    1450:	01 00 00 00 	nop 
    1454:	01 00 00 00 	nop 
    1458:	01 00 00 00 	nop 
    145c:	01 00 00 00 	nop 
    1460:	01 00 00 00 	nop 
    1464:	01 00 00 00 	nop 
    1468:	01 00 00 00 	nop 
    146c:	01 00 00 00 	nop 
    1470:	01 00 00 00 	nop 
    1474:	01 00 00 00 	nop 
    1478:	01 00 00 00 	nop 
    147c:	01 00 00 00 	nop 
    1480:	01 00 00 00 	nop 
    1484:	01 00 00 00 	nop 
    1488:	01 00 00 00 	nop 
    148c:	01 00 00 00 	nop 
    1490:	01 00 00 00 	nop 
    1494:	01 00 00 00 	nop 
    1498:	01 00 00 00 	nop 
    149c:	01 00 00 00 	nop 
    14a0:	01 00 00 00 	nop 
    14a4:	01 00 00 00 	nop 
    14a8:	01 00 00 00 	nop 
    14ac:	01 00 00 00 	nop 
    14b0:	01 00 00 00 	nop 
    14b4:	01 00 00 00 	nop 
    14b8:	01 00 00 00 	nop 
    14bc:	01 00 00 00 	nop 
    14c0:	01 00 00 00 	nop 
    14c4:	01 00 00 00 	nop 
    14c8:	01 00 00 00 	nop 
    14cc:	01 00 00 00 	nop 
    14d0:	01 00 00 00 	nop 
    14d4:	01 00 00 00 	nop 
    14d8:	01 00 00 00 	nop 
    14dc:	01 00 00 00 	nop 
    14e0:	01 00 00 00 	nop 
    14e4:	01 00 00 00 	nop 
    14e8:	01 00 00 00 	nop 
    14ec:	01 00 00 00 	nop 
    14f0:	01 00 00 00 	nop 
    14f4:	01 00 00 00 	nop 
    14f8:	01 00 00 00 	nop 
    14fc:	01 00 00 00 	nop 
    1500:	01 00 00 00 	nop 
    1504:	01 00 00 00 	nop 
    1508:	01 00 00 00 	nop 
    150c:	01 00 00 00 	nop 
    1510:	01 00 00 00 	nop 
    1514:	01 00 00 00 	nop 
    1518:	01 00 00 00 	nop 
    151c:	01 00 00 00 	nop 
    1520:	01 00 00 00 	nop 
    1524:	01 00 00 00 	nop 
    1528:	01 00 00 00 	nop 
    152c:	01 00 00 00 	nop 
    1530:	01 00 00 00 	nop 
    1534:	01 00 00 00 	nop 
    1538:	01 00 00 00 	nop 
    153c:	01 00 00 00 	nop 
    1540:	01 00 00 00 	nop 
    1544:	01 00 00 00 	nop 
    1548:	01 00 00 00 	nop 
    154c:	01 00 00 00 	nop 
    1550:	01 00 00 00 	nop 
    1554:	01 00 00 00 	nop 
    1558:	01 00 00 00 	nop 
    155c:	01 00 00 00 	nop 
    1560:	01 00 00 00 	nop 
    1564:	01 00 00 00 	nop 
    1568:	01 00 00 00 	nop 
    156c:	01 00 00 00 	nop 
    1570:	01 00 00 00 	nop 
    1574:	01 00 00 00 	nop 
    1578:	01 00 00 00 	nop 
    157c:	01 00 00 00 	nop 
    1580:	01 00 00 00 	nop 
    1584:	01 00 00 00 	nop 
    1588:	01 00 00 00 	nop 
    158c:	01 00 00 00 	nop 
    1590:	01 00 00 00 	nop 
    1594:	01 00 00 00 	nop 
    1598:	01 00 00 00 	nop 
    159c:	01 00 00 00 	nop 
    15a0:	01 00 00 00 	nop 
    15a4:	01 00 00 00 	nop 
    15a8:	01 00 00 00 	nop 
    15ac:	01 00 00 00 	nop 
    15b0:	01 00 00 00 	nop 
    15b4:	01 00 00 00 	nop 
    15b8:	01 00 00 00 	nop 
    15bc:	01 00 00 00 	nop 
    15c0:	01 00 00 00 	nop 
    15c4:	01 00 00 00 	nop 
    15c8:	01 00 00 00 	nop 
    15cc:	01 00 00 00 	nop 
    15d0:	01 00 00 00 	nop 
    15d4:	01 00 00 00 	nop 
    15d8:	01 00 00 00 	nop 
    15dc:	01 00 00 00 	nop 
    15e0:	01 00 00 00 	nop 
    15e4:	01 00 00 00 	nop 
    15e8:	01 00 00 00 	nop 
    15ec:	01 00 00 00 	nop 
    15f0:	01 00 00 00 	nop 
    15f4:	01 00 00 00 	nop 
    15f8:	01 00 00 00 	nop 
    15fc:	01 00 00 00 	nop 
    1600:	01 00 00 00 	nop 
    1604:	01 00 00 00 	nop 
    1608:	01 00 00 00 	nop 
    160c:	01 00 00 00 	nop 
    1610:	01 00 00 00 	nop 
    1614:	01 00 00 00 	nop 
    1618:	01 00 00 00 	nop 
    161c:	01 00 00 00 	nop 
    1620:	01 00 00 00 	nop 
    1624:	01 00 00 00 	nop 
    1628:	01 00 00 00 	nop 
    162c:	01 00 00 00 	nop 
    1630:	01 00 00 00 	nop 
    1634:	01 00 00 00 	nop 
    1638:	01 00 00 00 	nop 
    163c:	01 00 00 00 	nop 
    1640:	01 00 00 00 	nop 
    1644:	01 00 00 00 	nop 
    1648:	01 00 00 00 	nop 
    164c:	01 00 00 00 	nop 
    1650:	01 00 00 00 	nop 
    1654:	01 00 00 00 	nop 
    1658:	01 00 00 00 	nop 
    165c:	01 00 00 00 	nop 
    1660:	01 00 00 00 	nop 
    1664:	01 00 00 00 	nop 
    1668:	01 00 00 00 	nop 
    166c:	01 00 00 00 	nop 
    1670:	01 00 00 00 	nop 
    1674:	01 00 00 00 	nop 
    1678:	01 00 00 00 	nop 
    167c:	01 00 00 00 	nop 
    1680:	01 00 00 00 	nop 
    1684:	01 00 00 00 	nop 
    1688:	01 00 00 00 	nop 
    168c:	01 00 00 00 	nop 
    1690:	01 00 00 00 	nop 
    1694:	01 00 00 00 	nop 
    1698:	01 00 00 00 	nop 
    169c:	01 00 00 00 	nop 
    16a0:	01 00 00 00 	nop 
    16a4:	01 00 00 00 	nop 
    16a8:	01 00 00 00 	nop 
    16ac:	01 00 00 00 	nop 
    16b0:	01 00 00 00 	nop 
    16b4:	01 00 00 00 	nop 
    16b8:	01 00 00 00 	nop 
    16bc:	01 00 00 00 	nop 
    16c0:	01 00 00 00 	nop 
    16c4:	01 00 00 00 	nop 
    16c8:	01 00 00 00 	nop 
    16cc:	01 00 00 00 	nop 
    16d0:	01 00 00 00 	nop 
    16d4:	01 00 00 00 	nop 
    16d8:	01 00 00 00 	nop 
    16dc:	01 00 00 00 	nop 
    16e0:	01 00 00 00 	nop 
    16e4:	01 00 00 00 	nop 
    16e8:	01 00 00 00 	nop 
    16ec:	01 00 00 00 	nop 
    16f0:	01 00 00 00 	nop 
    16f4:	01 00 00 00 	nop 
    16f8:	01 00 00 00 	nop 
    16fc:	01 00 00 00 	nop 
    1700:	01 00 00 00 	nop 
    1704:	01 00 00 00 	nop 
    1708:	01 00 00 00 	nop 
    170c:	01 00 00 00 	nop 
    1710:	01 00 00 00 	nop 
    1714:	01 00 00 00 	nop 
    1718:	01 00 00 00 	nop 
    171c:	01 00 00 00 	nop 
    1720:	01 00 00 00 	nop 
    1724:	01 00 00 00 	nop 
    1728:	01 00 00 00 	nop 
    172c:	01 00 00 00 	nop 
    1730:	01 00 00 00 	nop 
    1734:	01 00 00 00 	nop 
    1738:	01 00 00 00 	nop 
    173c:	01 00 00 00 	nop 
    1740:	01 00 00 00 	nop 
    1744:	01 00 00 00 	nop 
    1748:	01 00 00 00 	nop 
    174c:	01 00 00 00 	nop 
    1750:	01 00 00 00 	nop 
    1754:	01 00 00 00 	nop 
    1758:	01 00 00 00 	nop 
    175c:	01 00 00 00 	nop 
    1760:	01 00 00 00 	nop 
    1764:	01 00 00 00 	nop 
    1768:	01 00 00 00 	nop 
    176c:	01 00 00 00 	nop 
    1770:	01 00 00 00 	nop 
    1774:	01 00 00 00 	nop 
    1778:	01 00 00 00 	nop 
    177c:	01 00 00 00 	nop 
    1780:	01 00 00 00 	nop 
    1784:	01 00 00 00 	nop 
    1788:	01 00 00 00 	nop 
    178c:	01 00 00 00 	nop 
    1790:	01 00 00 00 	nop 
    1794:	01 00 00 00 	nop 
    1798:	01 00 00 00 	nop 
    179c:	01 00 00 00 	nop 
    17a0:	01 00 00 00 	nop 
    17a4:	01 00 00 00 	nop 
    17a8:	01 00 00 00 	nop 
    17ac:	01 00 00 00 	nop 
    17b0:	01 00 00 00 	nop 
    17b4:	01 00 00 00 	nop 
    17b8:	01 00 00 00 	nop 
    17bc:	01 00 00 00 	nop 
    17c0:	01 00 00 00 	nop 
    17c4:	01 00 00 00 	nop 
    17c8:	01 00 00 00 	nop 
    17cc:	01 00 00 00 	nop 
    17d0:	01 00 00 00 	nop 
    17d4:	01 00 00 00 	nop 
    17d8:	01 00 00 00 	nop 
    17dc:	01 00 00 00 	nop 
    17e0:	01 00 00 00 	nop 
    17e4:	01 00 00 00 	nop 
    17e8:	01 00 00 00 	nop 
    17ec:	01 00 00 00 	nop 
    17f0:	01 00 00 00 	nop 
    17f4:	01 00 00 00 	nop 
    17f8:	01 00 00 00 	nop 
    17fc:	01 00 00 00 	nop 
    1800:	01 00 00 00 	nop 
    1804:	01 00 00 00 	nop 
    1808:	01 00 00 00 	nop 
    180c:	01 00 00 00 	nop 
    1810:	01 00 00 00 	nop 
    1814:	01 00 00 00 	nop 
    1818:	01 00 00 00 	nop 
    181c:	01 00 00 00 	nop 
    1820:	01 00 00 00 	nop 
    1824:	01 00 00 00 	nop 
    1828:	01 00 00 00 	nop 
    182c:	01 00 00 00 	nop 
    1830:	01 00 00 00 	nop 
    1834:	01 00 00 00 	nop 
    1838:	01 00 00 00 	nop 
    183c:	01 00 00 00 	nop 
    1840:	01 00 00 00 	nop 
    1844:	01 00 00 00 	nop 
    1848:	01 00 00 00 	nop 
    184c:	01 00 00 00 	nop 
    1850:	01 00 00 00 	nop 
    1854:	01 00 00 00 	nop 
    1858:	01 00 00 00 	nop 
    185c:	01 00 00 00 	nop 
    1860:	01 00 00 00 	nop 
    1864:	01 00 00 00 	nop 
    1868:	01 00 00 00 	nop 
    186c:	01 00 00 00 	nop 
    1870:	01 00 00 00 	nop 
    1874:	01 00 00 00 	nop 
    1878:	01 00 00 00 	nop 
    187c:	01 00 00 00 	nop 
    1880:	01 00 00 00 	nop 
    1884:	01 00 00 00 	nop 
    1888:	01 00 00 00 	nop 
    188c:	01 00 00 00 	nop 
    1890:	01 00 00 00 	nop 
    1894:	01 00 00 00 	nop 
    1898:	01 00 00 00 	nop 
    189c:	01 00 00 00 	nop 
    18a0:	01 00 00 00 	nop 
    18a4:	01 00 00 00 	nop 
    18a8:	01 00 00 00 	nop 
    18ac:	01 00 00 00 	nop 
    18b0:	01 00 00 00 	nop 
    18b4:	01 00 00 00 	nop 
    18b8:	01 00 00 00 	nop 
    18bc:	01 00 00 00 	nop 
    18c0:	01 00 00 00 	nop 
    18c4:	01 00 00 00 	nop 
    18c8:	01 00 00 00 	nop 
    18cc:	01 00 00 00 	nop 
    18d0:	01 00 00 00 	nop 
    18d4:	01 00 00 00 	nop 
    18d8:	01 00 00 00 	nop 
    18dc:	01 00 00 00 	nop 
    18e0:	01 00 00 00 	nop 
    18e4:	01 00 00 00 	nop 
    18e8:	01 00 00 00 	nop 
    18ec:	01 00 00 00 	nop 
    18f0:	01 00 00 00 	nop 
    18f4:	01 00 00 00 	nop 
    18f8:	01 00 00 00 	nop 
    18fc:	01 00 00 00 	nop 
    1900:	01 00 00 00 	nop 
    1904:	01 00 00 00 	nop 
    1908:	01 00 00 00 	nop 
    190c:	01 00 00 00 	nop 
    1910:	01 00 00 00 	nop 
    1914:	01 00 00 00 	nop 
    1918:	01 00 00 00 	nop 
    191c:	01 00 00 00 	nop 
    1920:	01 00 00 00 	nop 
    1924:	01 00 00 00 	nop 
    1928:	01 00 00 00 	nop 
    192c:	01 00 00 00 	nop 
    1930:	01 00 00 00 	nop 
    1934:	01 00 00 00 	nop 
    1938:	01 00 00 00 	nop 
    193c:	01 00 00 00 	nop 
    1940:	01 00 00 00 	nop 
    1944:	01 00 00 00 	nop 
    1948:	01 00 00 00 	nop 
    194c:	01 00 00 00 	nop 
    1950:	01 00 00 00 	nop 
    1954:	01 00 00 00 	nop 
    1958:	01 00 00 00 	nop 
    195c:	01 00 00 00 	nop 
    1960:	01 00 00 00 	nop 
    1964:	01 00 00 00 	nop 
    1968:	01 00 00 00 	nop 
    196c:	01 00 00 00 	nop 
    1970:	01 00 00 00 	nop 
    1974:	01 00 00 00 	nop 
    1978:	01 00 00 00 	nop 
    197c:	01 00 00 00 	nop 
    1980:	01 00 00 00 	nop 
    1984:	01 00 00 00 	nop 
    1988:	01 00 00 00 	nop 
    198c:	01 00 00 00 	nop 
    1990:	01 00 00 00 	nop 
    1994:	01 00 00 00 	nop 
    1998:	01 00 00 00 	nop 
    199c:	01 00 00 00 	nop 
    19a0:	01 00 00 00 	nop 
    19a4:	01 00 00 00 	nop 
    19a8:	01 00 00 00 	nop 
    19ac:	01 00 00 00 	nop 
    19b0:	01 00 00 00 	nop 
    19b4:	01 00 00 00 	nop 
    19b8:	01 00 00 00 	nop 
    19bc:	01 00 00 00 	nop 
    19c0:	01 00 00 00 	nop 
    19c4:	01 00 00 00 	nop 
    19c8:	01 00 00 00 	nop 
    19cc:	01 00 00 00 	nop 
    19d0:	01 00 00 00 	nop 
    19d4:	01 00 00 00 	nop 
    19d8:	01 00 00 00 	nop 
    19dc:	01 00 00 00 	nop 
    19e0:	01 00 00 00 	nop 
    19e4:	01 00 00 00 	nop 
    19e8:	01 00 00 00 	nop 
    19ec:	01 00 00 00 	nop 
    19f0:	01 00 00 00 	nop 
    19f4:	01 00 00 00 	nop 
    19f8:	01 00 00 00 	nop 
    19fc:	01 00 00 00 	nop 
    1a00:	01 00 00 00 	nop 
    1a04:	01 00 00 00 	nop 
    1a08:	01 00 00 00 	nop 
    1a0c:	01 00 00 00 	nop 
    1a10:	01 00 00 00 	nop 
    1a14:	01 00 00 00 	nop 
    1a18:	01 00 00 00 	nop 
    1a1c:	01 00 00 00 	nop 
    1a20:	01 00 00 00 	nop 
    1a24:	01 00 00 00 	nop 
    1a28:	01 00 00 00 	nop 
    1a2c:	01 00 00 00 	nop 
    1a30:	01 00 00 00 	nop 
    1a34:	01 00 00 00 	nop 
    1a38:	01 00 00 00 	nop 
    1a3c:	01 00 00 00 	nop 
    1a40:	01 00 00 00 	nop 
    1a44:	01 00 00 00 	nop 
    1a48:	01 00 00 00 	nop 
    1a4c:	01 00 00 00 	nop 
    1a50:	01 00 00 00 	nop 
    1a54:	01 00 00 00 	nop 
    1a58:	01 00 00 00 	nop 
    1a5c:	01 00 00 00 	nop 
    1a60:	01 00 00 00 	nop 
    1a64:	01 00 00 00 	nop 
    1a68:	01 00 00 00 	nop 
    1a6c:	01 00 00 00 	nop 
    1a70:	01 00 00 00 	nop 
    1a74:	01 00 00 00 	nop 
    1a78:	01 00 00 00 	nop 
    1a7c:	01 00 00 00 	nop 
    1a80:	01 00 00 00 	nop 
    1a84:	01 00 00 00 	nop 
    1a88:	01 00 00 00 	nop 
    1a8c:	01 00 00 00 	nop 
    1a90:	01 00 00 00 	nop 
    1a94:	01 00 00 00 	nop 
    1a98:	01 00 00 00 	nop 
    1a9c:	01 00 00 00 	nop 
    1aa0:	01 00 00 00 	nop 
    1aa4:	01 00 00 00 	nop 
    1aa8:	01 00 00 00 	nop 
    1aac:	01 00 00 00 	nop 
    1ab0:	01 00 00 00 	nop 
    1ab4:	01 00 00 00 	nop 
    1ab8:	01 00 00 00 	nop 
    1abc:	01 00 00 00 	nop 
    1ac0:	01 00 00 00 	nop 
    1ac4:	01 00 00 00 	nop 
    1ac8:	01 00 00 00 	nop 
    1acc:	01 00 00 00 	nop 
    1ad0:	01 00 00 00 	nop 
    1ad4:	01 00 00 00 	nop 
    1ad8:	01 00 00 00 	nop 
    1adc:	01 00 00 00 	nop 
    1ae0:	01 00 00 00 	nop 
    1ae4:	01 00 00 00 	nop 
    1ae8:	01 00 00 00 	nop 
    1aec:	01 00 00 00 	nop 
    1af0:	01 00 00 00 	nop 
    1af4:	01 00 00 00 	nop 
    1af8:	01 00 00 00 	nop 
    1afc:	01 00 00 00 	nop 
    1b00:	01 00 00 00 	nop 
    1b04:	01 00 00 00 	nop 
    1b08:	01 00 00 00 	nop 
    1b0c:	01 00 00 00 	nop 
    1b10:	01 00 00 00 	nop 
    1b14:	01 00 00 00 	nop 
    1b18:	01 00 00 00 	nop 
    1b1c:	01 00 00 00 	nop 
    1b20:	01 00 00 00 	nop 
    1b24:	01 00 00 00 	nop 
    1b28:	01 00 00 00 	nop 
    1b2c:	01 00 00 00 	nop 
    1b30:	01 00 00 00 	nop 
    1b34:	01 00 00 00 	nop 
    1b38:	01 00 00 00 	nop 
    1b3c:	01 00 00 00 	nop 
    1b40:	01 00 00 00 	nop 
    1b44:	01 00 00 00 	nop 
    1b48:	01 00 00 00 	nop 
    1b4c:	01 00 00 00 	nop 
    1b50:	01 00 00 00 	nop 
    1b54:	01 00 00 00 	nop 
    1b58:	01 00 00 00 	nop 
    1b5c:	01 00 00 00 	nop 
    1b60:	01 00 00 00 	nop 
    1b64:	01 00 00 00 	nop 
    1b68:	01 00 00 00 	nop 
    1b6c:	01 00 00 00 	nop 
    1b70:	01 00 00 00 	nop 
    1b74:	01 00 00 00 	nop 
    1b78:	01 00 00 00 	nop 
    1b7c:	01 00 00 00 	nop 
    1b80:	01 00 00 00 	nop 
    1b84:	01 00 00 00 	nop 
    1b88:	01 00 00 00 	nop 
    1b8c:	01 00 00 00 	nop 
    1b90:	01 00 00 00 	nop 
    1b94:	01 00 00 00 	nop 
    1b98:	01 00 00 00 	nop 
    1b9c:	01 00 00 00 	nop 
    1ba0:	01 00 00 00 	nop 
    1ba4:	01 00 00 00 	nop 
    1ba8:	01 00 00 00 	nop 
    1bac:	01 00 00 00 	nop 
    1bb0:	01 00 00 00 	nop 
    1bb4:	01 00 00 00 	nop 
    1bb8:	01 00 00 00 	nop 
    1bbc:	01 00 00 00 	nop 
    1bc0:	01 00 00 00 	nop 
    1bc4:	01 00 00 00 	nop 
    1bc8:	01 00 00 00 	nop 
    1bcc:	01 00 00 00 	nop 
    1bd0:	01 00 00 00 	nop 
    1bd4:	01 00 00 00 	nop 
    1bd8:	01 00 00 00 	nop 
    1bdc:	01 00 00 00 	nop 
    1be0:	01 00 00 00 	nop 
    1be4:	01 00 00 00 	nop 
    1be8:	01 00 00 00 	nop 
    1bec:	01 00 00 00 	nop 
    1bf0:	01 00 00 00 	nop 
    1bf4:	01 00 00 00 	nop 
    1bf8:	01 00 00 00 	nop 
    1bfc:	01 00 00 00 	nop 
    1c00:	01 00 00 00 	nop 
    1c04:	01 00 00 00 	nop 
    1c08:	01 00 00 00 	nop 
    1c0c:	01 00 00 00 	nop 
    1c10:	01 00 00 00 	nop 
    1c14:	01 00 00 00 	nop 
    1c18:	01 00 00 00 	nop 
    1c1c:	01 00 00 00 	nop 
    1c20:	01 00 00 00 	nop 
    1c24:	01 00 00 00 	nop 
    1c28:	01 00 00 00 	nop 
    1c2c:	01 00 00 00 	nop 
    1c30:	01 00 00 00 	nop 
    1c34:	01 00 00 00 	nop 
    1c38:	01 00 00 00 	nop 
    1c3c:	01 00 00 00 	nop 
    1c40:	01 00 00 00 	nop 
    1c44:	01 00 00 00 	nop 
    1c48:	01 00 00 00 	nop 
    1c4c:	01 00 00 00 	nop 
    1c50:	01 00 00 00 	nop 
    1c54:	01 00 00 00 	nop 
    1c58:	01 00 00 00 	nop 
    1c5c:	01 00 00 00 	nop 
    1c60:	01 00 00 00 	nop 
    1c64:	01 00 00 00 	nop 
    1c68:	01 00 00 00 	nop 
    1c6c:	01 00 00 00 	nop 
    1c70:	01 00 00 00 	nop 
    1c74:	01 00 00 00 	nop 
    1c78:	01 00 00 00 	nop 
    1c7c:	01 00 00 00 	nop 
    1c80:	01 00 00 00 	nop 
    1c84:	01 00 00 00 	nop 
    1c88:	01 00 00 00 	nop 
    1c8c:	01 00 00 00 	nop 
    1c90:	01 00 00 00 	nop 
    1c94:	01 00 00 00 	nop 
    1c98:	01 00 00 00 	nop 
    1c9c:	01 00 00 00 	nop 
    1ca0:	01 00 00 00 	nop 
    1ca4:	01 00 00 00 	nop 
    1ca8:	01 00 00 00 	nop 
    1cac:	01 00 00 00 	nop 
    1cb0:	01 00 00 00 	nop 
    1cb4:	01 00 00 00 	nop 
    1cb8:	01 00 00 00 	nop 
    1cbc:	01 00 00 00 	nop 
    1cc0:	01 00 00 00 	nop 
    1cc4:	01 00 00 00 	nop 
    1cc8:	01 00 00 00 	nop 
    1ccc:	01 00 00 00 	nop 
    1cd0:	01 00 00 00 	nop 
    1cd4:	01 00 00 00 	nop 
    1cd8:	01 00 00 00 	nop 
    1cdc:	01 00 00 00 	nop 
    1ce0:	01 00 00 00 	nop 
    1ce4:	01 00 00 00 	nop 
    1ce8:	01 00 00 00 	nop 
    1cec:	01 00 00 00 	nop 
    1cf0:	01 00 00 00 	nop 
    1cf4:	01 00 00 00 	nop 
    1cf8:	01 00 00 00 	nop 
    1cfc:	01 00 00 00 	nop 
    1d00:	01 00 00 00 	nop 
    1d04:	01 00 00 00 	nop 
    1d08:	01 00 00 00 	nop 
    1d0c:	01 00 00 00 	nop 
    1d10:	01 00 00 00 	nop 
    1d14:	01 00 00 00 	nop 
    1d18:	01 00 00 00 	nop 
    1d1c:	01 00 00 00 	nop 
    1d20:	01 00 00 00 	nop 
    1d24:	01 00 00 00 	nop 
    1d28:	01 00 00 00 	nop 
    1d2c:	01 00 00 00 	nop 
    1d30:	01 00 00 00 	nop 
    1d34:	01 00 00 00 	nop 
    1d38:	01 00 00 00 	nop 
    1d3c:	01 00 00 00 	nop 
    1d40:	01 00 00 00 	nop 
    1d44:	01 00 00 00 	nop 
    1d48:	01 00 00 00 	nop 
    1d4c:	01 00 00 00 	nop 
    1d50:	01 00 00 00 	nop 
    1d54:	01 00 00 00 	nop 
    1d58:	01 00 00 00 	nop 
    1d5c:	01 00 00 00 	nop 
    1d60:	01 00 00 00 	nop 
    1d64:	01 00 00 00 	nop 
    1d68:	01 00 00 00 	nop 
    1d6c:	01 00 00 00 	nop 
    1d70:	01 00 00 00 	nop 
    1d74:	01 00 00 00 	nop 
    1d78:	01 00 00 00 	nop 
    1d7c:	01 00 00 00 	nop 
    1d80:	01 00 00 00 	nop 
    1d84:	01 00 00 00 	nop 
    1d88:	01 00 00 00 	nop 
    1d8c:	01 00 00 00 	nop 
    1d90:	01 00 00 00 	nop 
    1d94:	01 00 00 00 	nop 
    1d98:	01 00 00 00 	nop 
    1d9c:	01 00 00 00 	nop 
    1da0:	01 00 00 00 	nop 
    1da4:	01 00 00 00 	nop 
    1da8:	01 00 00 00 	nop 
    1dac:	01 00 00 00 	nop 
    1db0:	01 00 00 00 	nop 
    1db4:	01 00 00 00 	nop 
    1db8:	01 00 00 00 	nop 
    1dbc:	01 00 00 00 	nop 
    1dc0:	01 00 00 00 	nop 
    1dc4:	01 00 00 00 	nop 
    1dc8:	01 00 00 00 	nop 
    1dcc:	01 00 00 00 	nop 
    1dd0:	01 00 00 00 	nop 
    1dd4:	01 00 00 00 	nop 
    1dd8:	01 00 00 00 	nop 
    1ddc:	01 00 00 00 	nop 
    1de0:	01 00 00 00 	nop 
    1de4:	01 00 00 00 	nop 
    1de8:	01 00 00 00 	nop 
    1dec:	01 00 00 00 	nop 
    1df0:	01 00 00 00 	nop 
    1df4:	01 00 00 00 	nop 
    1df8:	01 00 00 00 	nop 
    1dfc:	01 00 00 00 	nop 
    1e00:	01 00 00 00 	nop 
    1e04:	01 00 00 00 	nop 
    1e08:	01 00 00 00 	nop 
    1e0c:	01 00 00 00 	nop 
    1e10:	01 00 00 00 	nop 
    1e14:	01 00 00 00 	nop 
    1e18:	01 00 00 00 	nop 
    1e1c:	01 00 00 00 	nop 
    1e20:	01 00 00 00 	nop 
    1e24:	01 00 00 00 	nop 
    1e28:	01 00 00 00 	nop 
    1e2c:	01 00 00 00 	nop 
    1e30:	01 00 00 00 	nop 
    1e34:	01 00 00 00 	nop 
    1e38:	01 00 00 00 	nop 
    1e3c:	01 00 00 00 	nop 
    1e40:	01 00 00 00 	nop 
    1e44:	01 00 00 00 	nop 
    1e48:	01 00 00 00 	nop 
    1e4c:	01 00 00 00 	nop 
    1e50:	01 00 00 00 	nop 
    1e54:	01 00 00 00 	nop 
    1e58:	01 00 00 00 	nop 
    1e5c:	01 00 00 00 	nop 
    1e60:	01 00 00 00 	nop 
    1e64:	01 00 00 00 	nop 
    1e68:	01 00 00 00 	nop 
    1e6c:	01 00 00 00 	nop 
    1e70:	01 00 00 00 	nop 
    1e74:	01 00 00 00 	nop 
    1e78:	01 00 00 00 	nop 
    1e7c:	01 00 00 00 	nop 
    1e80:	01 00 00 00 	nop 
    1e84:	01 00 00 00 	nop 
    1e88:	01 00 00 00 	nop 
    1e8c:	01 00 00 00 	nop 
    1e90:	01 00 00 00 	nop 
    1e94:	01 00 00 00 	nop 
    1e98:	01 00 00 00 	nop 
    1e9c:	01 00 00 00 	nop 
    1ea0:	01 00 00 00 	nop 
    1ea4:	01 00 00 00 	nop 
    1ea8:	01 00 00 00 	nop 
    1eac:	01 00 00 00 	nop 
    1eb0:	01 00 00 00 	nop 
    1eb4:	01 00 00 00 	nop 
    1eb8:	01 00 00 00 	nop 
    1ebc:	01 00 00 00 	nop 
    1ec0:	01 00 00 00 	nop 
    1ec4:	01 00 00 00 	nop 
    1ec8:	01 00 00 00 	nop 
    1ecc:	01 00 00 00 	nop 
    1ed0:	01 00 00 00 	nop 
    1ed4:	01 00 00 00 	nop 
    1ed8:	01 00 00 00 	nop 
    1edc:	01 00 00 00 	nop 
    1ee0:	01 00 00 00 	nop 
    1ee4:	01 00 00 00 	nop 
    1ee8:	01 00 00 00 	nop 
    1eec:	01 00 00 00 	nop 
    1ef0:	01 00 00 00 	nop 
    1ef4:	01 00 00 00 	nop 
    1ef8:	01 00 00 00 	nop 
    1efc:	01 00 00 00 	nop 
    1f00:	01 00 00 00 	nop 
    1f04:	01 00 00 00 	nop 
    1f08:	01 00 00 00 	nop 
    1f0c:	01 00 00 00 	nop 
    1f10:	01 00 00 00 	nop 
    1f14:	01 00 00 00 	nop 
    1f18:	01 00 00 00 	nop 
    1f1c:	01 00 00 00 	nop 
    1f20:	01 00 00 00 	nop 
    1f24:	01 00 00 00 	nop 
    1f28:	01 00 00 00 	nop 
    1f2c:	01 00 00 00 	nop 
    1f30:	01 00 00 00 	nop 
    1f34:	01 00 00 00 	nop 
    1f38:	01 00 00 00 	nop 
    1f3c:	01 00 00 00 	nop 
    1f40:	01 00 00 00 	nop 
    1f44:	01 00 00 00 	nop 
    1f48:	01 00 00 00 	nop 
    1f4c:	01 00 00 00 	nop 
    1f50:	01 00 00 00 	nop 
    1f54:	01 00 00 00 	nop 
    1f58:	01 00 00 00 	nop 
    1f5c:	01 00 00 00 	nop 
    1f60:	01 00 00 00 	nop 
    1f64:	01 00 00 00 	nop 
    1f68:	01 00 00 00 	nop 
    1f6c:	01 00 00 00 	nop 
    1f70:	01 00 00 00 	nop 
    1f74:	01 00 00 00 	nop 
    1f78:	01 00 00 00 	nop 
    1f7c:	01 00 00 00 	nop 
    1f80:	01 00 00 00 	nop 
    1f84:	01 00 00 00 	nop 
    1f88:	01 00 00 00 	nop 
    1f8c:	01 00 00 00 	nop 
    1f90:	01 00 00 00 	nop 
    1f94:	01 00 00 00 	nop 
    1f98:	01 00 00 00 	nop 
    1f9c:	01 00 00 00 	nop 
    1fa0:	01 00 00 00 	nop 
    1fa4:	01 00 00 00 	nop 
    1fa8:	01 00 00 00 	nop 
    1fac:	01 00 00 00 	nop 
    1fb0:	01 00 00 00 	nop 
    1fb4:	01 00 00 00 	nop 
    1fb8:	01 00 00 00 	nop 
    1fbc:	01 00 00 00 	nop 
    1fc0:	01 00 00 00 	nop 
    1fc4:	01 00 00 00 	nop 
    1fc8:	01 00 00 00 	nop 
    1fcc:	01 00 00 00 	nop 
    1fd0:	01 00 00 00 	nop 
    1fd4:	01 00 00 00 	nop 
    1fd8:	01 00 00 00 	nop 
    1fdc:	01 00 00 00 	nop 
    1fe0:	01 00 00 00 	nop 
    1fe4:	01 00 00 00 	nop 
    1fe8:	01 00 00 00 	nop 
    1fec:	01 00 00 00 	nop 
    1ff0:	01 00 00 00 	nop 
    1ff4:	01 00 00 00 	nop 
    1ff8:	01 00 00 00 	nop 
    1ffc:	01 00 00 00 	nop 

00002000 <trap_table_base>:
    2000:	91 d0 20 00 	ta  0
    2004:	01 00 00 00 	nop 
    2008:	01 00 00 00 	nop 
    200c:	01 00 00 00 	nop 

00002010 <HW_trap_0x01>:
    2010:	91 d0 20 00 	ta  0
    2014:	01 00 00 00 	nop 
    2018:	01 00 00 00 	nop 
    201c:	01 00 00 00 	nop 

00002020 <HW_trap_0x02>:
    2020:	91 d0 20 00 	ta  0
    2024:	01 00 00 00 	nop 
    2028:	01 00 00 00 	nop 
    202c:	01 00 00 00 	nop 

00002030 <HW_trap_0x03>:
    2030:	91 d0 20 00 	ta  0
    2034:	01 00 00 00 	nop 
    2038:	01 00 00 00 	nop 
    203c:	01 00 00 00 	nop 

00002040 <HW_trap_0x04>:
    2040:	91 d0 20 00 	ta  0
    2044:	01 00 00 00 	nop 
    2048:	01 00 00 00 	nop 
    204c:	01 00 00 00 	nop 

00002050 <HW_trap_0x05>:
    2050:	10 bf fb ec 	b  1000 <window_overflow_trap_handler>
    2054:	01 00 00 00 	nop 
    2058:	01 00 00 00 	nop 
    205c:	01 00 00 00 	nop 

00002060 <HW_trap_0x06>:
    2060:	10 bf fc 01 	b  1064 <window_underflow_trap_handler>
    2064:	01 00 00 00 	nop 
    2068:	01 00 00 00 	nop 
    206c:	01 00 00 00 	nop 

00002070 <HW_trap_0x07>:
    2070:	91 d0 20 00 	ta  0
    2074:	01 00 00 00 	nop 
    2078:	01 00 00 00 	nop 
    207c:	01 00 00 00 	nop 

00002080 <HW_trap_0x08>:
    2080:	91 d0 20 00 	ta  0
    2084:	01 00 00 00 	nop 
    2088:	01 00 00 00 	nop 
    208c:	01 00 00 00 	nop 

00002090 <HW_trap_0x09>:
    2090:	91 d0 20 00 	ta  0
    2094:	01 00 00 00 	nop 
    2098:	01 00 00 00 	nop 
    209c:	01 00 00 00 	nop 

000020a0 <HW_trap_0x0a>:
    20a0:	91 d0 20 00 	ta  0
    20a4:	01 00 00 00 	nop 
    20a8:	01 00 00 00 	nop 
    20ac:	01 00 00 00 	nop 

000020b0 <HW_trap_0x0b>:
    20b0:	91 d0 20 00 	ta  0
    20b4:	01 00 00 00 	nop 
    20b8:	01 00 00 00 	nop 
    20bc:	01 00 00 00 	nop 

000020c0 <HW_trap_0x0c>:
    20c0:	91 d0 20 00 	ta  0
    20c4:	01 00 00 00 	nop 
    20c8:	01 00 00 00 	nop 
    20cc:	01 00 00 00 	nop 

000020d0 <HW_trap_0x0d>:
    20d0:	91 d0 20 00 	ta  0
    20d4:	01 00 00 00 	nop 
    20d8:	01 00 00 00 	nop 
    20dc:	01 00 00 00 	nop 

000020e0 <HW_trap_0x0e>:
    20e0:	91 d0 20 00 	ta  0
    20e4:	01 00 00 00 	nop 
    20e8:	01 00 00 00 	nop 
    20ec:	01 00 00 00 	nop 

000020f0 <HW_trap_0x0f>:
    20f0:	91 d0 20 00 	ta  0
    20f4:	01 00 00 00 	nop 
    20f8:	01 00 00 00 	nop 
    20fc:	01 00 00 00 	nop 

00002100 <HW_trap_0x10>:
    2100:	91 d0 20 00 	ta  0
    2104:	01 00 00 00 	nop 
    2108:	01 00 00 00 	nop 
    210c:	01 00 00 00 	nop 

00002110 <HW_trap_0x11>:
    2110:	91 d0 20 00 	ta  0
    2114:	01 00 00 00 	nop 
    2118:	01 00 00 00 	nop 
    211c:	01 00 00 00 	nop 

00002120 <HW_trap_0x12>:
    2120:	91 d0 20 00 	ta  0
    2124:	01 00 00 00 	nop 
    2128:	01 00 00 00 	nop 
    212c:	01 00 00 00 	nop 

00002130 <HW_trap_0x13>:
    2130:	91 d0 20 00 	ta  0
    2134:	01 00 00 00 	nop 
    2138:	01 00 00 00 	nop 
    213c:	01 00 00 00 	nop 

00002140 <HW_trap_0x14>:
    2140:	91 d0 20 00 	ta  0
    2144:	01 00 00 00 	nop 
    2148:	01 00 00 00 	nop 
    214c:	01 00 00 00 	nop 

00002150 <HW_trap_0x15>:
    2150:	91 d0 20 00 	ta  0
    2154:	01 00 00 00 	nop 
    2158:	01 00 00 00 	nop 
    215c:	01 00 00 00 	nop 

00002160 <HW_trap_0x16>:
    2160:	91 d0 20 00 	ta  0
    2164:	01 00 00 00 	nop 
    2168:	01 00 00 00 	nop 
    216c:	01 00 00 00 	nop 

00002170 <HW_trap_0x17>:
    2170:	91 d0 20 00 	ta  0
    2174:	01 00 00 00 	nop 
    2178:	01 00 00 00 	nop 
    217c:	01 00 00 00 	nop 

00002180 <HW_trap_0x18>:
    2180:	91 d0 20 00 	ta  0
    2184:	01 00 00 00 	nop 
    2188:	01 00 00 00 	nop 
    218c:	01 00 00 00 	nop 

00002190 <HW_trap_0x19>:
    2190:	91 d0 20 00 	ta  0
    2194:	01 00 00 00 	nop 
    2198:	01 00 00 00 	nop 
    219c:	01 00 00 00 	nop 

000021a0 <HW_trap_0x1a>:
    21a0:	91 d0 20 00 	ta  0
    21a4:	01 00 00 00 	nop 
    21a8:	01 00 00 00 	nop 
    21ac:	01 00 00 00 	nop 

000021b0 <HW_trap_0x1b>:
    21b0:	91 d0 20 00 	ta  0
    21b4:	01 00 00 00 	nop 
    21b8:	01 00 00 00 	nop 
    21bc:	01 00 00 00 	nop 

000021c0 <HW_trap_0x1c>:
    21c0:	91 d0 20 00 	ta  0
    21c4:	01 00 00 00 	nop 
    21c8:	01 00 00 00 	nop 
    21cc:	01 00 00 00 	nop 

000021d0 <HW_trap_0x1d>:
    21d0:	91 d0 20 00 	ta  0
    21d4:	01 00 00 00 	nop 
    21d8:	01 00 00 00 	nop 
    21dc:	01 00 00 00 	nop 

000021e0 <HW_trap_0x1e>:
    21e0:	91 d0 20 00 	ta  0
    21e4:	01 00 00 00 	nop 
    21e8:	01 00 00 00 	nop 
    21ec:	01 00 00 00 	nop 

000021f0 <HW_trap_0x1f>:
    21f0:	91 d0 20 00 	ta  0
    21f4:	01 00 00 00 	nop 
    21f8:	01 00 00 00 	nop 
    21fc:	01 00 00 00 	nop 

00002200 <HW_trap_0x20>:
    2200:	91 d0 20 00 	ta  0
    2204:	01 00 00 00 	nop 
    2208:	01 00 00 00 	nop 
    220c:	01 00 00 00 	nop 

00002210 <HW_trap_0x21>:
    2210:	91 d0 20 00 	ta  0
    2214:	01 00 00 00 	nop 
    2218:	01 00 00 00 	nop 
    221c:	01 00 00 00 	nop 

00002220 <HW_trap_0x22>:
    2220:	91 d0 20 00 	ta  0
    2224:	01 00 00 00 	nop 
    2228:	01 00 00 00 	nop 
    222c:	01 00 00 00 	nop 

00002230 <HW_trap_0x23>:
    2230:	91 d0 20 00 	ta  0
    2234:	01 00 00 00 	nop 
    2238:	01 00 00 00 	nop 
    223c:	01 00 00 00 	nop 

00002240 <HW_trap_0x24>:
    2240:	91 d0 20 00 	ta  0
    2244:	01 00 00 00 	nop 
    2248:	01 00 00 00 	nop 
    224c:	01 00 00 00 	nop 

00002250 <HW_trap_0x25>:
    2250:	91 d0 20 00 	ta  0
    2254:	01 00 00 00 	nop 
    2258:	01 00 00 00 	nop 
    225c:	01 00 00 00 	nop 

00002260 <HW_trap_0x26>:
    2260:	91 d0 20 00 	ta  0
    2264:	01 00 00 00 	nop 
    2268:	01 00 00 00 	nop 
    226c:	01 00 00 00 	nop 

00002270 <HW_trap_0x27>:
    2270:	91 d0 20 00 	ta  0
    2274:	01 00 00 00 	nop 
    2278:	01 00 00 00 	nop 
    227c:	01 00 00 00 	nop 

00002280 <HW_trap_0x28>:
    2280:	91 d0 20 00 	ta  0
    2284:	01 00 00 00 	nop 
    2288:	01 00 00 00 	nop 
    228c:	01 00 00 00 	nop 

00002290 <HW_trap_0x29>:
    2290:	91 d0 20 00 	ta  0
    2294:	01 00 00 00 	nop 
    2298:	01 00 00 00 	nop 
    229c:	01 00 00 00 	nop 

000022a0 <HW_trap_0x2a>:
    22a0:	91 d0 20 00 	ta  0
    22a4:	01 00 00 00 	nop 
    22a8:	01 00 00 00 	nop 
    22ac:	01 00 00 00 	nop 

000022b0 <HW_trap_0x2b>:
    22b0:	91 d0 20 00 	ta  0
    22b4:	01 00 00 00 	nop 
    22b8:	01 00 00 00 	nop 
    22bc:	01 00 00 00 	nop 

000022c0 <HW_trap_0x2c>:
    22c0:	91 d0 20 00 	ta  0
    22c4:	01 00 00 00 	nop 
    22c8:	01 00 00 00 	nop 
    22cc:	01 00 00 00 	nop 

000022d0 <HW_trap_0x2d>:
    22d0:	91 d0 20 00 	ta  0
    22d4:	01 00 00 00 	nop 
    22d8:	01 00 00 00 	nop 
    22dc:	01 00 00 00 	nop 

000022e0 <HW_trap_0x2e>:
    22e0:	91 d0 20 00 	ta  0
    22e4:	01 00 00 00 	nop 
    22e8:	01 00 00 00 	nop 
    22ec:	01 00 00 00 	nop 

000022f0 <HW_trap_0x2f>:
    22f0:	91 d0 20 00 	ta  0
    22f4:	01 00 00 00 	nop 
    22f8:	01 00 00 00 	nop 
    22fc:	01 00 00 00 	nop 

00002300 <HW_trap_0x30>:
    2300:	91 d0 20 00 	ta  0
    2304:	01 00 00 00 	nop 
    2308:	01 00 00 00 	nop 
    230c:	01 00 00 00 	nop 

00002310 <HW_trap_0x31>:
    2310:	91 d0 20 00 	ta  0
    2314:	01 00 00 00 	nop 
    2318:	01 00 00 00 	nop 
    231c:	01 00 00 00 	nop 

00002320 <HW_trap_0x32>:
    2320:	91 d0 20 00 	ta  0
    2324:	01 00 00 00 	nop 
    2328:	01 00 00 00 	nop 
    232c:	01 00 00 00 	nop 

00002330 <HW_trap_0x33>:
    2330:	91 d0 20 00 	ta  0
    2334:	01 00 00 00 	nop 
    2338:	01 00 00 00 	nop 
    233c:	01 00 00 00 	nop 

00002340 <HW_trap_0x34>:
    2340:	91 d0 20 00 	ta  0
    2344:	01 00 00 00 	nop 
    2348:	01 00 00 00 	nop 
    234c:	01 00 00 00 	nop 

00002350 <HW_trap_0x35>:
    2350:	91 d0 20 00 	ta  0
    2354:	01 00 00 00 	nop 
    2358:	01 00 00 00 	nop 
    235c:	01 00 00 00 	nop 

00002360 <HW_trap_0x36>:
    2360:	91 d0 20 00 	ta  0
    2364:	01 00 00 00 	nop 
    2368:	01 00 00 00 	nop 
    236c:	01 00 00 00 	nop 

00002370 <HW_trap_0x37>:
    2370:	91 d0 20 00 	ta  0
    2374:	01 00 00 00 	nop 
    2378:	01 00 00 00 	nop 
    237c:	01 00 00 00 	nop 

00002380 <HW_trap_0x38>:
    2380:	91 d0 20 00 	ta  0
    2384:	01 00 00 00 	nop 
    2388:	01 00 00 00 	nop 
    238c:	01 00 00 00 	nop 

00002390 <HW_trap_0x39>:
    2390:	91 d0 20 00 	ta  0
    2394:	01 00 00 00 	nop 
    2398:	01 00 00 00 	nop 
    239c:	01 00 00 00 	nop 

000023a0 <HW_trap_0x3a>:
    23a0:	91 d0 20 00 	ta  0
    23a4:	01 00 00 00 	nop 
    23a8:	01 00 00 00 	nop 
    23ac:	01 00 00 00 	nop 

000023b0 <HW_trap_0x3b>:
    23b0:	91 d0 20 00 	ta  0
    23b4:	01 00 00 00 	nop 
    23b8:	01 00 00 00 	nop 
    23bc:	01 00 00 00 	nop 

000023c0 <HW_trap_0x3c>:
    23c0:	91 d0 20 00 	ta  0
    23c4:	01 00 00 00 	nop 
    23c8:	01 00 00 00 	nop 
    23cc:	01 00 00 00 	nop 

000023d0 <HW_trap_0x3d>:
    23d0:	91 d0 20 00 	ta  0
    23d4:	01 00 00 00 	nop 
    23d8:	01 00 00 00 	nop 
    23dc:	01 00 00 00 	nop 

000023e0 <HW_trap_0x3e>:
    23e0:	91 d0 20 00 	ta  0
    23e4:	01 00 00 00 	nop 
    23e8:	01 00 00 00 	nop 
    23ec:	01 00 00 00 	nop 

000023f0 <HW_trap_0x3f>:
    23f0:	91 d0 20 00 	ta  0
    23f4:	01 00 00 00 	nop 
    23f8:	01 00 00 00 	nop 
    23fc:	01 00 00 00 	nop 

00002400 <HW_trap_0x40>:
    2400:	91 d0 20 00 	ta  0
    2404:	01 00 00 00 	nop 
    2408:	01 00 00 00 	nop 
    240c:	01 00 00 00 	nop 

00002410 <HW_trap_0x41>:
    2410:	91 d0 20 00 	ta  0
    2414:	01 00 00 00 	nop 
    2418:	01 00 00 00 	nop 
    241c:	01 00 00 00 	nop 

00002420 <HW_trap_0x42>:
    2420:	91 d0 20 00 	ta  0
    2424:	01 00 00 00 	nop 
    2428:	01 00 00 00 	nop 
    242c:	01 00 00 00 	nop 

00002430 <HW_trap_0x43>:
    2430:	91 d0 20 00 	ta  0
    2434:	01 00 00 00 	nop 
    2438:	01 00 00 00 	nop 
    243c:	01 00 00 00 	nop 

00002440 <HW_trap_0x44>:
    2440:	91 d0 20 00 	ta  0
    2444:	01 00 00 00 	nop 
    2448:	01 00 00 00 	nop 
    244c:	01 00 00 00 	nop 

00002450 <HW_trap_0x45>:
    2450:	91 d0 20 00 	ta  0
    2454:	01 00 00 00 	nop 
    2458:	01 00 00 00 	nop 
    245c:	01 00 00 00 	nop 

00002460 <HW_trap_0x46>:
    2460:	91 d0 20 00 	ta  0
    2464:	01 00 00 00 	nop 
    2468:	01 00 00 00 	nop 
    246c:	01 00 00 00 	nop 

00002470 <HW_trap_0x47>:
    2470:	91 d0 20 00 	ta  0
    2474:	01 00 00 00 	nop 
    2478:	01 00 00 00 	nop 
    247c:	01 00 00 00 	nop 

00002480 <HW_trap_0x48>:
    2480:	91 d0 20 00 	ta  0
    2484:	01 00 00 00 	nop 
    2488:	01 00 00 00 	nop 
    248c:	01 00 00 00 	nop 

00002490 <HW_trap_0x49>:
    2490:	91 d0 20 00 	ta  0
    2494:	01 00 00 00 	nop 
    2498:	01 00 00 00 	nop 
    249c:	01 00 00 00 	nop 

000024a0 <HW_trap_0x4a>:
    24a0:	91 d0 20 00 	ta  0
    24a4:	01 00 00 00 	nop 
    24a8:	01 00 00 00 	nop 
    24ac:	01 00 00 00 	nop 

000024b0 <HW_trap_0x4b>:
    24b0:	91 d0 20 00 	ta  0
    24b4:	01 00 00 00 	nop 
    24b8:	01 00 00 00 	nop 
    24bc:	01 00 00 00 	nop 

000024c0 <HW_trap_0x4c>:
    24c0:	91 d0 20 00 	ta  0
    24c4:	01 00 00 00 	nop 
    24c8:	01 00 00 00 	nop 
    24cc:	01 00 00 00 	nop 

000024d0 <HW_trap_0x4d>:
    24d0:	91 d0 20 00 	ta  0
    24d4:	01 00 00 00 	nop 
    24d8:	01 00 00 00 	nop 
    24dc:	01 00 00 00 	nop 

000024e0 <HW_trap_0x4e>:
    24e0:	91 d0 20 00 	ta  0
    24e4:	01 00 00 00 	nop 
    24e8:	01 00 00 00 	nop 
    24ec:	01 00 00 00 	nop 

000024f0 <HW_trap_0x4f>:
    24f0:	91 d0 20 00 	ta  0
    24f4:	01 00 00 00 	nop 
    24f8:	01 00 00 00 	nop 
    24fc:	01 00 00 00 	nop 

00002500 <HW_trap_0x50>:
    2500:	91 d0 20 00 	ta  0
    2504:	01 00 00 00 	nop 
    2508:	01 00 00 00 	nop 
    250c:	01 00 00 00 	nop 

00002510 <HW_trap_0x51>:
    2510:	91 d0 20 00 	ta  0
    2514:	01 00 00 00 	nop 
    2518:	01 00 00 00 	nop 
    251c:	01 00 00 00 	nop 

00002520 <HW_trap_0x52>:
    2520:	91 d0 20 00 	ta  0
    2524:	01 00 00 00 	nop 
    2528:	01 00 00 00 	nop 
    252c:	01 00 00 00 	nop 

00002530 <HW_trap_0x53>:
    2530:	91 d0 20 00 	ta  0
    2534:	01 00 00 00 	nop 
    2538:	01 00 00 00 	nop 
    253c:	01 00 00 00 	nop 

00002540 <HW_trap_0x54>:
    2540:	91 d0 20 00 	ta  0
    2544:	01 00 00 00 	nop 
    2548:	01 00 00 00 	nop 
    254c:	01 00 00 00 	nop 

00002550 <HW_trap_0x55>:
    2550:	91 d0 20 00 	ta  0
    2554:	01 00 00 00 	nop 
    2558:	01 00 00 00 	nop 
    255c:	01 00 00 00 	nop 

00002560 <HW_trap_0x56>:
    2560:	91 d0 20 00 	ta  0
    2564:	01 00 00 00 	nop 
    2568:	01 00 00 00 	nop 
    256c:	01 00 00 00 	nop 

00002570 <HW_trap_0x57>:
    2570:	91 d0 20 00 	ta  0
    2574:	01 00 00 00 	nop 
    2578:	01 00 00 00 	nop 
    257c:	01 00 00 00 	nop 

00002580 <HW_trap_0x58>:
    2580:	91 d0 20 00 	ta  0
    2584:	01 00 00 00 	nop 
    2588:	01 00 00 00 	nop 
    258c:	01 00 00 00 	nop 

00002590 <HW_trap_0x59>:
    2590:	91 d0 20 00 	ta  0
    2594:	01 00 00 00 	nop 
    2598:	01 00 00 00 	nop 
    259c:	01 00 00 00 	nop 

000025a0 <HW_trap_0x5a>:
    25a0:	91 d0 20 00 	ta  0
    25a4:	01 00 00 00 	nop 
    25a8:	01 00 00 00 	nop 
    25ac:	01 00 00 00 	nop 

000025b0 <HW_trap_0x5b>:
    25b0:	91 d0 20 00 	ta  0
    25b4:	01 00 00 00 	nop 
    25b8:	01 00 00 00 	nop 
    25bc:	01 00 00 00 	nop 

000025c0 <HW_trap_0x5c>:
    25c0:	91 d0 20 00 	ta  0
    25c4:	01 00 00 00 	nop 
    25c8:	01 00 00 00 	nop 
    25cc:	01 00 00 00 	nop 

000025d0 <HW_trap_0x5d>:
    25d0:	91 d0 20 00 	ta  0
    25d4:	01 00 00 00 	nop 
    25d8:	01 00 00 00 	nop 
    25dc:	01 00 00 00 	nop 

000025e0 <HW_trap_0x5e>:
    25e0:	91 d0 20 00 	ta  0
    25e4:	01 00 00 00 	nop 
    25e8:	01 00 00 00 	nop 
    25ec:	01 00 00 00 	nop 

000025f0 <HW_trap_0x5f>:
    25f0:	91 d0 20 00 	ta  0
    25f4:	01 00 00 00 	nop 
    25f8:	01 00 00 00 	nop 
    25fc:	01 00 00 00 	nop 

00002600 <HW_trap_0x60>:
    2600:	91 d0 20 00 	ta  0
    2604:	01 00 00 00 	nop 
    2608:	01 00 00 00 	nop 
    260c:	01 00 00 00 	nop 

00002610 <HW_trap_0x61>:
    2610:	91 d0 20 00 	ta  0
    2614:	01 00 00 00 	nop 
    2618:	01 00 00 00 	nop 
    261c:	01 00 00 00 	nop 

00002620 <HW_trap_0x62>:
    2620:	91 d0 20 00 	ta  0
    2624:	01 00 00 00 	nop 
    2628:	01 00 00 00 	nop 
    262c:	01 00 00 00 	nop 

00002630 <HW_trap_0x63>:
    2630:	91 d0 20 00 	ta  0
    2634:	01 00 00 00 	nop 
    2638:	01 00 00 00 	nop 
    263c:	01 00 00 00 	nop 

00002640 <HW_trap_0x64>:
    2640:	91 d0 20 00 	ta  0
    2644:	01 00 00 00 	nop 
    2648:	01 00 00 00 	nop 
    264c:	01 00 00 00 	nop 

00002650 <HW_trap_0x65>:
    2650:	91 d0 20 00 	ta  0
    2654:	01 00 00 00 	nop 
    2658:	01 00 00 00 	nop 
    265c:	01 00 00 00 	nop 

00002660 <HW_trap_0x66>:
    2660:	91 d0 20 00 	ta  0
    2664:	01 00 00 00 	nop 
    2668:	01 00 00 00 	nop 
    266c:	01 00 00 00 	nop 

00002670 <HW_trap_0x67>:
    2670:	91 d0 20 00 	ta  0
    2674:	01 00 00 00 	nop 
    2678:	01 00 00 00 	nop 
    267c:	01 00 00 00 	nop 

00002680 <HW_trap_0x68>:
    2680:	91 d0 20 00 	ta  0
    2684:	01 00 00 00 	nop 
    2688:	01 00 00 00 	nop 
    268c:	01 00 00 00 	nop 

00002690 <HW_trap_0x69>:
    2690:	91 d0 20 00 	ta  0
    2694:	01 00 00 00 	nop 
    2698:	01 00 00 00 	nop 
    269c:	01 00 00 00 	nop 

000026a0 <HW_trap_0x6a>:
    26a0:	91 d0 20 00 	ta  0
    26a4:	01 00 00 00 	nop 
    26a8:	01 00 00 00 	nop 
    26ac:	01 00 00 00 	nop 

000026b0 <HW_trap_0x6b>:
    26b0:	91 d0 20 00 	ta  0
    26b4:	01 00 00 00 	nop 
    26b8:	01 00 00 00 	nop 
    26bc:	01 00 00 00 	nop 

000026c0 <HW_trap_0x6c>:
    26c0:	91 d0 20 00 	ta  0
    26c4:	01 00 00 00 	nop 
    26c8:	01 00 00 00 	nop 
    26cc:	01 00 00 00 	nop 

000026d0 <HW_trap_0x6d>:
    26d0:	91 d0 20 00 	ta  0
    26d4:	01 00 00 00 	nop 
    26d8:	01 00 00 00 	nop 
    26dc:	01 00 00 00 	nop 

000026e0 <HW_trap_0x6e>:
    26e0:	91 d0 20 00 	ta  0
    26e4:	01 00 00 00 	nop 
    26e8:	01 00 00 00 	nop 
    26ec:	01 00 00 00 	nop 

000026f0 <HW_trap_0x6f>:
    26f0:	91 d0 20 00 	ta  0
    26f4:	01 00 00 00 	nop 
    26f8:	01 00 00 00 	nop 
    26fc:	01 00 00 00 	nop 

00002700 <HW_trap_0x70>:
    2700:	91 d0 20 00 	ta  0
    2704:	01 00 00 00 	nop 
    2708:	01 00 00 00 	nop 
    270c:	01 00 00 00 	nop 

00002710 <HW_trap_0x71>:
    2710:	91 d0 20 00 	ta  0
    2714:	01 00 00 00 	nop 
    2718:	01 00 00 00 	nop 
    271c:	01 00 00 00 	nop 

00002720 <HW_trap_0x72>:
    2720:	91 d0 20 00 	ta  0
    2724:	01 00 00 00 	nop 
    2728:	01 00 00 00 	nop 
    272c:	01 00 00 00 	nop 

00002730 <HW_trap_0x73>:
    2730:	91 d0 20 00 	ta  0
    2734:	01 00 00 00 	nop 
    2738:	01 00 00 00 	nop 
    273c:	01 00 00 00 	nop 

00002740 <HW_trap_0x74>:
    2740:	91 d0 20 00 	ta  0
    2744:	01 00 00 00 	nop 
    2748:	01 00 00 00 	nop 
    274c:	01 00 00 00 	nop 

00002750 <HW_trap_0x75>:
    2750:	91 d0 20 00 	ta  0
    2754:	01 00 00 00 	nop 
    2758:	01 00 00 00 	nop 
    275c:	01 00 00 00 	nop 

00002760 <HW_trap_0x76>:
    2760:	91 d0 20 00 	ta  0
    2764:	01 00 00 00 	nop 
    2768:	01 00 00 00 	nop 
    276c:	01 00 00 00 	nop 

00002770 <HW_trap_0x77>:
    2770:	91 d0 20 00 	ta  0
    2774:	01 00 00 00 	nop 
    2778:	01 00 00 00 	nop 
    277c:	01 00 00 00 	nop 

00002780 <HW_trap_0x78>:
    2780:	91 d0 20 00 	ta  0
    2784:	01 00 00 00 	nop 
    2788:	01 00 00 00 	nop 
    278c:	01 00 00 00 	nop 

00002790 <HW_trap_0x79>:
    2790:	91 d0 20 00 	ta  0
    2794:	01 00 00 00 	nop 
    2798:	01 00 00 00 	nop 
    279c:	01 00 00 00 	nop 

000027a0 <HW_trap_0x7a>:
    27a0:	91 d0 20 00 	ta  0
    27a4:	01 00 00 00 	nop 
    27a8:	01 00 00 00 	nop 
    27ac:	01 00 00 00 	nop 

000027b0 <HW_trap_0x7b>:
    27b0:	91 d0 20 00 	ta  0
    27b4:	01 00 00 00 	nop 
    27b8:	01 00 00 00 	nop 
    27bc:	01 00 00 00 	nop 

000027c0 <HW_trap_0x7c>:
    27c0:	91 d0 20 00 	ta  0
    27c4:	01 00 00 00 	nop 
    27c8:	01 00 00 00 	nop 
    27cc:	01 00 00 00 	nop 

000027d0 <HW_trap_0x7d>:
    27d0:	91 d0 20 00 	ta  0
    27d4:	01 00 00 00 	nop 
    27d8:	01 00 00 00 	nop 
    27dc:	01 00 00 00 	nop 

000027e0 <HW_trap_0x7e>:
    27e0:	91 d0 20 00 	ta  0
    27e4:	01 00 00 00 	nop 
    27e8:	01 00 00 00 	nop 
    27ec:	01 00 00 00 	nop 

000027f0 <HW_trap_0x7f>:
    27f0:	91 d0 20 00 	ta  0
    27f4:	01 00 00 00 	nop 
    27f8:	01 00 00 00 	nop 
    27fc:	01 00 00 00 	nop 

00002800 <SW_trap_0x80>:
    2800:	91 d0 20 00 	ta  0
    2804:	01 00 00 00 	nop 
    2808:	01 00 00 00 	nop 
    280c:	01 00 00 00 	nop 

00002810 <SW_trap_0x81>:
    2810:	91 d0 20 00 	ta  0
    2814:	01 00 00 00 	nop 
    2818:	01 00 00 00 	nop 
    281c:	01 00 00 00 	nop 

00002820 <SW_trap_0x82>:
    2820:	91 d0 20 00 	ta  0
    2824:	01 00 00 00 	nop 
    2828:	01 00 00 00 	nop 
    282c:	01 00 00 00 	nop 

00002830 <SW_trap_0x83>:
    2830:	91 d0 20 00 	ta  0
    2834:	01 00 00 00 	nop 
    2838:	01 00 00 00 	nop 
    283c:	01 00 00 00 	nop 

00002840 <SW_trap_0x84>:
    2840:	91 d0 20 00 	ta  0
    2844:	01 00 00 00 	nop 
    2848:	01 00 00 00 	nop 
    284c:	01 00 00 00 	nop 

00002850 <SW_trap_0x85>:
    2850:	91 d0 20 00 	ta  0
    2854:	01 00 00 00 	nop 
    2858:	01 00 00 00 	nop 
    285c:	01 00 00 00 	nop 

00002860 <SW_trap_0x86>:
    2860:	91 d0 20 00 	ta  0
    2864:	01 00 00 00 	nop 
    2868:	01 00 00 00 	nop 
    286c:	01 00 00 00 	nop 

00002870 <SW_trap_0x87>:
    2870:	91 d0 20 00 	ta  0
    2874:	01 00 00 00 	nop 
    2878:	01 00 00 00 	nop 
    287c:	01 00 00 00 	nop 

00002880 <SW_trap_0x88>:
    2880:	91 d0 20 00 	ta  0
    2884:	01 00 00 00 	nop 
    2888:	01 00 00 00 	nop 
    288c:	01 00 00 00 	nop 

00002890 <SW_trap_0x89>:
    2890:	91 d0 20 00 	ta  0
    2894:	01 00 00 00 	nop 
    2898:	01 00 00 00 	nop 
    289c:	01 00 00 00 	nop 

000028a0 <SW_trap_0x8a>:
    28a0:	91 d0 20 00 	ta  0
    28a4:	01 00 00 00 	nop 
    28a8:	01 00 00 00 	nop 
    28ac:	01 00 00 00 	nop 

000028b0 <SW_trap_0x8b>:
    28b0:	91 d0 20 00 	ta  0
    28b4:	01 00 00 00 	nop 
    28b8:	01 00 00 00 	nop 
    28bc:	01 00 00 00 	nop 

000028c0 <SW_trap_0x8c>:
    28c0:	91 d0 20 00 	ta  0
    28c4:	01 00 00 00 	nop 
    28c8:	01 00 00 00 	nop 
    28cc:	01 00 00 00 	nop 

000028d0 <SW_trap_0x8d>:
    28d0:	91 d0 20 00 	ta  0
    28d4:	01 00 00 00 	nop 
    28d8:	01 00 00 00 	nop 
    28dc:	01 00 00 00 	nop 

000028e0 <SW_trap_0x8e>:
    28e0:	91 d0 20 00 	ta  0
    28e4:	01 00 00 00 	nop 
    28e8:	01 00 00 00 	nop 
    28ec:	01 00 00 00 	nop 

000028f0 <SW_trap_0x8f>:
    28f0:	91 d0 20 00 	ta  0
    28f4:	01 00 00 00 	nop 
    28f8:	01 00 00 00 	nop 
    28fc:	01 00 00 00 	nop 

00002900 <SW_trap_0x90>:
    2900:	91 d0 20 00 	ta  0
    2904:	01 00 00 00 	nop 
    2908:	01 00 00 00 	nop 
    290c:	01 00 00 00 	nop 

00002910 <SW_trap_0x91>:
    2910:	91 d0 20 00 	ta  0
    2914:	01 00 00 00 	nop 
    2918:	01 00 00 00 	nop 
    291c:	01 00 00 00 	nop 

00002920 <SW_trap_0x92>:
    2920:	91 d0 20 00 	ta  0
    2924:	01 00 00 00 	nop 
    2928:	01 00 00 00 	nop 
    292c:	01 00 00 00 	nop 

00002930 <SW_trap_0x93>:
    2930:	91 d0 20 00 	ta  0
    2934:	01 00 00 00 	nop 
    2938:	01 00 00 00 	nop 
    293c:	01 00 00 00 	nop 

00002940 <SW_trap_0x94>:
    2940:	91 d0 20 00 	ta  0
    2944:	01 00 00 00 	nop 
    2948:	01 00 00 00 	nop 
    294c:	01 00 00 00 	nop 

00002950 <SW_trap_0x95>:
    2950:	91 d0 20 00 	ta  0
    2954:	01 00 00 00 	nop 
    2958:	01 00 00 00 	nop 
    295c:	01 00 00 00 	nop 

00002960 <SW_trap_0x96>:
    2960:	91 d0 20 00 	ta  0
    2964:	01 00 00 00 	nop 
    2968:	01 00 00 00 	nop 
    296c:	01 00 00 00 	nop 

00002970 <SW_trap_0x97>:
    2970:	91 d0 20 00 	ta  0
    2974:	01 00 00 00 	nop 
    2978:	01 00 00 00 	nop 
    297c:	01 00 00 00 	nop 

00002980 <SW_trap_0x98>:
    2980:	91 d0 20 00 	ta  0
    2984:	01 00 00 00 	nop 
    2988:	01 00 00 00 	nop 
    298c:	01 00 00 00 	nop 

00002990 <SW_trap_0x99>:
    2990:	91 d0 20 00 	ta  0
    2994:	01 00 00 00 	nop 
    2998:	01 00 00 00 	nop 
    299c:	01 00 00 00 	nop 

000029a0 <SW_trap_0x9a>:
    29a0:	91 d0 20 00 	ta  0
    29a4:	01 00 00 00 	nop 
    29a8:	01 00 00 00 	nop 
    29ac:	01 00 00 00 	nop 

000029b0 <SW_trap_0x9b>:
    29b0:	91 d0 20 00 	ta  0
    29b4:	01 00 00 00 	nop 
    29b8:	01 00 00 00 	nop 
    29bc:	01 00 00 00 	nop 

000029c0 <SW_trap_0x9c>:
    29c0:	91 d0 20 00 	ta  0
    29c4:	01 00 00 00 	nop 
    29c8:	01 00 00 00 	nop 
    29cc:	01 00 00 00 	nop 

000029d0 <SW_trap_0x9d>:
    29d0:	91 d0 20 00 	ta  0
    29d4:	01 00 00 00 	nop 
    29d8:	01 00 00 00 	nop 
    29dc:	01 00 00 00 	nop 

000029e0 <SW_trap_0x9e>:
    29e0:	91 d0 20 00 	ta  0
    29e4:	01 00 00 00 	nop 
    29e8:	01 00 00 00 	nop 
    29ec:	01 00 00 00 	nop 

000029f0 <SW_trap_0x9f>:
    29f0:	91 d0 20 00 	ta  0
    29f4:	01 00 00 00 	nop 
    29f8:	01 00 00 00 	nop 
    29fc:	01 00 00 00 	nop 

00002a00 <SW_trap_0xa0>:
    2a00:	91 d0 20 00 	ta  0
    2a04:	01 00 00 00 	nop 
    2a08:	01 00 00 00 	nop 
    2a0c:	01 00 00 00 	nop 

00002a10 <SW_trap_0xa1>:
    2a10:	91 d0 20 00 	ta  0
    2a14:	01 00 00 00 	nop 
    2a18:	01 00 00 00 	nop 
    2a1c:	01 00 00 00 	nop 

00002a20 <SW_trap_0xa2>:
    2a20:	91 d0 20 00 	ta  0
    2a24:	01 00 00 00 	nop 
    2a28:	01 00 00 00 	nop 
    2a2c:	01 00 00 00 	nop 

00002a30 <SW_trap_0xa3>:
    2a30:	91 d0 20 00 	ta  0
    2a34:	01 00 00 00 	nop 
    2a38:	01 00 00 00 	nop 
    2a3c:	01 00 00 00 	nop 

00002a40 <SW_trap_0xa4>:
    2a40:	91 d0 20 00 	ta  0
    2a44:	01 00 00 00 	nop 
    2a48:	01 00 00 00 	nop 
    2a4c:	01 00 00 00 	nop 

00002a50 <SW_trap_0xa5>:
    2a50:	91 d0 20 00 	ta  0
    2a54:	01 00 00 00 	nop 
    2a58:	01 00 00 00 	nop 
    2a5c:	01 00 00 00 	nop 

00002a60 <SW_trap_0xa6>:
    2a60:	91 d0 20 00 	ta  0
    2a64:	01 00 00 00 	nop 
    2a68:	01 00 00 00 	nop 
    2a6c:	01 00 00 00 	nop 

00002a70 <SW_trap_0xa7>:
    2a70:	91 d0 20 00 	ta  0
    2a74:	01 00 00 00 	nop 
    2a78:	01 00 00 00 	nop 
    2a7c:	01 00 00 00 	nop 

00002a80 <SW_trap_0xa8>:
    2a80:	91 d0 20 00 	ta  0
    2a84:	01 00 00 00 	nop 
    2a88:	01 00 00 00 	nop 
    2a8c:	01 00 00 00 	nop 

00002a90 <SW_trap_0xa9>:
    2a90:	91 d0 20 00 	ta  0
    2a94:	01 00 00 00 	nop 
    2a98:	01 00 00 00 	nop 
    2a9c:	01 00 00 00 	nop 

00002aa0 <SW_trap_0xaa>:
    2aa0:	91 d0 20 00 	ta  0
    2aa4:	01 00 00 00 	nop 
    2aa8:	01 00 00 00 	nop 
    2aac:	01 00 00 00 	nop 

00002ab0 <SW_trap_0xab>:
    2ab0:	91 d0 20 00 	ta  0
    2ab4:	01 00 00 00 	nop 
    2ab8:	01 00 00 00 	nop 
    2abc:	01 00 00 00 	nop 

00002ac0 <SW_trap_0xac>:
    2ac0:	91 d0 20 00 	ta  0
    2ac4:	01 00 00 00 	nop 
    2ac8:	01 00 00 00 	nop 
    2acc:	01 00 00 00 	nop 

00002ad0 <SW_trap_0xad>:
    2ad0:	91 d0 20 00 	ta  0
    2ad4:	01 00 00 00 	nop 
    2ad8:	01 00 00 00 	nop 
    2adc:	01 00 00 00 	nop 

00002ae0 <SW_trap_0xae>:
    2ae0:	91 d0 20 00 	ta  0
    2ae4:	01 00 00 00 	nop 
    2ae8:	01 00 00 00 	nop 
    2aec:	01 00 00 00 	nop 

00002af0 <SW_trap_0xaf>:
    2af0:	91 d0 20 00 	ta  0
    2af4:	01 00 00 00 	nop 
    2af8:	01 00 00 00 	nop 
    2afc:	01 00 00 00 	nop 

00002b00 <SW_trap_0xb0>:
    2b00:	91 d0 20 00 	ta  0
    2b04:	01 00 00 00 	nop 
    2b08:	01 00 00 00 	nop 
    2b0c:	01 00 00 00 	nop 

00002b10 <SW_trap_0xb1>:
    2b10:	91 d0 20 00 	ta  0
    2b14:	01 00 00 00 	nop 
    2b18:	01 00 00 00 	nop 
    2b1c:	01 00 00 00 	nop 

00002b20 <SW_trap_0xb2>:
    2b20:	91 d0 20 00 	ta  0
    2b24:	01 00 00 00 	nop 
    2b28:	01 00 00 00 	nop 
    2b2c:	01 00 00 00 	nop 

00002b30 <SW_trap_0xb3>:
    2b30:	91 d0 20 00 	ta  0
    2b34:	01 00 00 00 	nop 
    2b38:	01 00 00 00 	nop 
    2b3c:	01 00 00 00 	nop 

00002b40 <SW_trap_0xb4>:
    2b40:	91 d0 20 00 	ta  0
    2b44:	01 00 00 00 	nop 
    2b48:	01 00 00 00 	nop 
    2b4c:	01 00 00 00 	nop 

00002b50 <SW_trap_0xb5>:
    2b50:	91 d0 20 00 	ta  0
    2b54:	01 00 00 00 	nop 
    2b58:	01 00 00 00 	nop 
    2b5c:	01 00 00 00 	nop 

00002b60 <SW_trap_0xb6>:
    2b60:	91 d0 20 00 	ta  0
    2b64:	01 00 00 00 	nop 
    2b68:	01 00 00 00 	nop 
    2b6c:	01 00 00 00 	nop 

00002b70 <SW_trap_0xb7>:
    2b70:	91 d0 20 00 	ta  0
    2b74:	01 00 00 00 	nop 
    2b78:	01 00 00 00 	nop 
    2b7c:	01 00 00 00 	nop 

00002b80 <SW_trap_0xb8>:
    2b80:	91 d0 20 00 	ta  0
    2b84:	01 00 00 00 	nop 
    2b88:	01 00 00 00 	nop 
    2b8c:	01 00 00 00 	nop 

00002b90 <SW_trap_0xb9>:
    2b90:	91 d0 20 00 	ta  0
    2b94:	01 00 00 00 	nop 
    2b98:	01 00 00 00 	nop 
    2b9c:	01 00 00 00 	nop 

00002ba0 <SW_trap_0xba>:
    2ba0:	91 d0 20 00 	ta  0
    2ba4:	01 00 00 00 	nop 
    2ba8:	01 00 00 00 	nop 
    2bac:	01 00 00 00 	nop 

00002bb0 <SW_trap_0xbb>:
    2bb0:	91 d0 20 00 	ta  0
    2bb4:	01 00 00 00 	nop 
    2bb8:	01 00 00 00 	nop 
    2bbc:	01 00 00 00 	nop 

00002bc0 <SW_trap_0xbc>:
    2bc0:	91 d0 20 00 	ta  0
    2bc4:	01 00 00 00 	nop 
    2bc8:	01 00 00 00 	nop 
    2bcc:	01 00 00 00 	nop 

00002bd0 <SW_trap_0xbd>:
    2bd0:	91 d0 20 00 	ta  0
    2bd4:	01 00 00 00 	nop 
    2bd8:	01 00 00 00 	nop 
    2bdc:	01 00 00 00 	nop 

00002be0 <SW_trap_0xbe>:
    2be0:	91 d0 20 00 	ta  0
    2be4:	01 00 00 00 	nop 
    2be8:	01 00 00 00 	nop 
    2bec:	01 00 00 00 	nop 

00002bf0 <SW_trap_0xbf>:
    2bf0:	91 d0 20 00 	ta  0
    2bf4:	01 00 00 00 	nop 
    2bf8:	01 00 00 00 	nop 
    2bfc:	01 00 00 00 	nop 

00002c00 <SW_trap_0xc0>:
    2c00:	91 d0 20 00 	ta  0
    2c04:	01 00 00 00 	nop 
    2c08:	01 00 00 00 	nop 
    2c0c:	01 00 00 00 	nop 

00002c10 <SW_trap_0xc1>:
    2c10:	91 d0 20 00 	ta  0
    2c14:	01 00 00 00 	nop 
    2c18:	01 00 00 00 	nop 
    2c1c:	01 00 00 00 	nop 

00002c20 <SW_trap_0xc2>:
    2c20:	91 d0 20 00 	ta  0
    2c24:	01 00 00 00 	nop 
    2c28:	01 00 00 00 	nop 
    2c2c:	01 00 00 00 	nop 

00002c30 <SW_trap_0xc3>:
    2c30:	91 d0 20 00 	ta  0
    2c34:	01 00 00 00 	nop 
    2c38:	01 00 00 00 	nop 
    2c3c:	01 00 00 00 	nop 

00002c40 <SW_trap_0xc4>:
    2c40:	91 d0 20 00 	ta  0
    2c44:	01 00 00 00 	nop 
    2c48:	01 00 00 00 	nop 
    2c4c:	01 00 00 00 	nop 

00002c50 <SW_trap_0xc5>:
    2c50:	91 d0 20 00 	ta  0
    2c54:	01 00 00 00 	nop 
    2c58:	01 00 00 00 	nop 
    2c5c:	01 00 00 00 	nop 

00002c60 <SW_trap_0xc6>:
    2c60:	91 d0 20 00 	ta  0
    2c64:	01 00 00 00 	nop 
    2c68:	01 00 00 00 	nop 
    2c6c:	01 00 00 00 	nop 

00002c70 <SW_trap_0xc7>:
    2c70:	91 d0 20 00 	ta  0
    2c74:	01 00 00 00 	nop 
    2c78:	01 00 00 00 	nop 
    2c7c:	01 00 00 00 	nop 

00002c80 <SW_trap_0xc8>:
    2c80:	91 d0 20 00 	ta  0
    2c84:	01 00 00 00 	nop 
    2c88:	01 00 00 00 	nop 
    2c8c:	01 00 00 00 	nop 

00002c90 <SW_trap_0xc9>:
    2c90:	91 d0 20 00 	ta  0
    2c94:	01 00 00 00 	nop 
    2c98:	01 00 00 00 	nop 
    2c9c:	01 00 00 00 	nop 

00002ca0 <SW_trap_0xca>:
    2ca0:	91 d0 20 00 	ta  0
    2ca4:	01 00 00 00 	nop 
    2ca8:	01 00 00 00 	nop 
    2cac:	01 00 00 00 	nop 

00002cb0 <SW_trap_0xcb>:
    2cb0:	91 d0 20 00 	ta  0
    2cb4:	01 00 00 00 	nop 
    2cb8:	01 00 00 00 	nop 
    2cbc:	01 00 00 00 	nop 

00002cc0 <SW_trap_0xcc>:
    2cc0:	91 d0 20 00 	ta  0
    2cc4:	01 00 00 00 	nop 
    2cc8:	01 00 00 00 	nop 
    2ccc:	01 00 00 00 	nop 

00002cd0 <SW_trap_0xcd>:
    2cd0:	91 d0 20 00 	ta  0
    2cd4:	01 00 00 00 	nop 
    2cd8:	01 00 00 00 	nop 
    2cdc:	01 00 00 00 	nop 

00002ce0 <SW_trap_0xce>:
    2ce0:	91 d0 20 00 	ta  0
    2ce4:	01 00 00 00 	nop 
    2ce8:	01 00 00 00 	nop 
    2cec:	01 00 00 00 	nop 

00002cf0 <SW_trap_0xcf>:
    2cf0:	91 d0 20 00 	ta  0
    2cf4:	01 00 00 00 	nop 
    2cf8:	01 00 00 00 	nop 
    2cfc:	01 00 00 00 	nop 

00002d00 <SW_trap_0xd0>:
    2d00:	91 d0 20 00 	ta  0
    2d04:	01 00 00 00 	nop 
    2d08:	01 00 00 00 	nop 
    2d0c:	01 00 00 00 	nop 

00002d10 <SW_trap_0xd1>:
    2d10:	91 d0 20 00 	ta  0
    2d14:	01 00 00 00 	nop 
    2d18:	01 00 00 00 	nop 
    2d1c:	01 00 00 00 	nop 

00002d20 <SW_trap_0xd2>:
    2d20:	91 d0 20 00 	ta  0
    2d24:	01 00 00 00 	nop 
    2d28:	01 00 00 00 	nop 
    2d2c:	01 00 00 00 	nop 

00002d30 <SW_trap_0xd3>:
    2d30:	91 d0 20 00 	ta  0
    2d34:	01 00 00 00 	nop 
    2d38:	01 00 00 00 	nop 
    2d3c:	01 00 00 00 	nop 

00002d40 <SW_trap_0xd4>:
    2d40:	91 d0 20 00 	ta  0
    2d44:	01 00 00 00 	nop 
    2d48:	01 00 00 00 	nop 
    2d4c:	01 00 00 00 	nop 

00002d50 <SW_trap_0xd5>:
    2d50:	91 d0 20 00 	ta  0
    2d54:	01 00 00 00 	nop 
    2d58:	01 00 00 00 	nop 
    2d5c:	01 00 00 00 	nop 

00002d60 <SW_trap_0xd6>:
    2d60:	91 d0 20 00 	ta  0
    2d64:	01 00 00 00 	nop 
    2d68:	01 00 00 00 	nop 
    2d6c:	01 00 00 00 	nop 

00002d70 <SW_trap_0xd7>:
    2d70:	91 d0 20 00 	ta  0
    2d74:	01 00 00 00 	nop 
    2d78:	01 00 00 00 	nop 
    2d7c:	01 00 00 00 	nop 

00002d80 <SW_trap_0xd8>:
    2d80:	91 d0 20 00 	ta  0
    2d84:	01 00 00 00 	nop 
    2d88:	01 00 00 00 	nop 
    2d8c:	01 00 00 00 	nop 

00002d90 <SW_trap_0xd9>:
    2d90:	91 d0 20 00 	ta  0
    2d94:	01 00 00 00 	nop 
    2d98:	01 00 00 00 	nop 
    2d9c:	01 00 00 00 	nop 

00002da0 <SW_trap_0xda>:
    2da0:	91 d0 20 00 	ta  0
    2da4:	01 00 00 00 	nop 
    2da8:	01 00 00 00 	nop 
    2dac:	01 00 00 00 	nop 

00002db0 <SW_trap_0xdb>:
    2db0:	91 d0 20 00 	ta  0
    2db4:	01 00 00 00 	nop 
    2db8:	01 00 00 00 	nop 
    2dbc:	01 00 00 00 	nop 

00002dc0 <SW_trap_0xdc>:
    2dc0:	91 d0 20 00 	ta  0
    2dc4:	01 00 00 00 	nop 
    2dc8:	01 00 00 00 	nop 
    2dcc:	01 00 00 00 	nop 

00002dd0 <SW_trap_0xdd>:
    2dd0:	91 d0 20 00 	ta  0
    2dd4:	01 00 00 00 	nop 
    2dd8:	01 00 00 00 	nop 
    2ddc:	01 00 00 00 	nop 

00002de0 <SW_trap_0xde>:
    2de0:	91 d0 20 00 	ta  0
    2de4:	01 00 00 00 	nop 
    2de8:	01 00 00 00 	nop 
    2dec:	01 00 00 00 	nop 

00002df0 <SW_trap_0xdf>:
    2df0:	91 d0 20 00 	ta  0
    2df4:	01 00 00 00 	nop 
    2df8:	01 00 00 00 	nop 
    2dfc:	01 00 00 00 	nop 

00002e00 <SW_trap_0xe0>:
    2e00:	91 d0 20 00 	ta  0
    2e04:	01 00 00 00 	nop 
    2e08:	01 00 00 00 	nop 
    2e0c:	01 00 00 00 	nop 

00002e10 <SW_trap_0xe1>:
    2e10:	91 d0 20 00 	ta  0
    2e14:	01 00 00 00 	nop 
    2e18:	01 00 00 00 	nop 
    2e1c:	01 00 00 00 	nop 

00002e20 <SW_trap_0xe2>:
    2e20:	91 d0 20 00 	ta  0
    2e24:	01 00 00 00 	nop 
    2e28:	01 00 00 00 	nop 
    2e2c:	01 00 00 00 	nop 

00002e30 <SW_trap_0xe3>:
    2e30:	91 d0 20 00 	ta  0
    2e34:	01 00 00 00 	nop 
    2e38:	01 00 00 00 	nop 
    2e3c:	01 00 00 00 	nop 

00002e40 <SW_trap_0xe4>:
    2e40:	91 d0 20 00 	ta  0
    2e44:	01 00 00 00 	nop 
    2e48:	01 00 00 00 	nop 
    2e4c:	01 00 00 00 	nop 

00002e50 <SW_trap_0xe5>:
    2e50:	91 d0 20 00 	ta  0
    2e54:	01 00 00 00 	nop 
    2e58:	01 00 00 00 	nop 
    2e5c:	01 00 00 00 	nop 

00002e60 <SW_trap_0xe6>:
    2e60:	91 d0 20 00 	ta  0
    2e64:	01 00 00 00 	nop 
    2e68:	01 00 00 00 	nop 
    2e6c:	01 00 00 00 	nop 

00002e70 <SW_trap_0xe7>:
    2e70:	91 d0 20 00 	ta  0
    2e74:	01 00 00 00 	nop 
    2e78:	01 00 00 00 	nop 
    2e7c:	01 00 00 00 	nop 

00002e80 <SW_trap_0xe8>:
    2e80:	91 d0 20 00 	ta  0
    2e84:	01 00 00 00 	nop 
    2e88:	01 00 00 00 	nop 
    2e8c:	01 00 00 00 	nop 

00002e90 <SW_trap_0xe9>:
    2e90:	91 d0 20 00 	ta  0
    2e94:	01 00 00 00 	nop 
    2e98:	01 00 00 00 	nop 
    2e9c:	01 00 00 00 	nop 

00002ea0 <SW_trap_0xea>:
    2ea0:	91 d0 20 00 	ta  0
    2ea4:	01 00 00 00 	nop 
    2ea8:	01 00 00 00 	nop 
    2eac:	01 00 00 00 	nop 

00002eb0 <SW_trap_0xeb>:
    2eb0:	91 d0 20 00 	ta  0
    2eb4:	01 00 00 00 	nop 
    2eb8:	01 00 00 00 	nop 
    2ebc:	01 00 00 00 	nop 

00002ec0 <SW_trap_0xec>:
    2ec0:	91 d0 20 00 	ta  0
    2ec4:	01 00 00 00 	nop 
    2ec8:	01 00 00 00 	nop 
    2ecc:	01 00 00 00 	nop 

00002ed0 <SW_trap_0xed>:
    2ed0:	91 d0 20 00 	ta  0
    2ed4:	01 00 00 00 	nop 
    2ed8:	01 00 00 00 	nop 
    2edc:	01 00 00 00 	nop 

00002ee0 <SW_trap_0xee>:
    2ee0:	91 d0 20 00 	ta  0
    2ee4:	01 00 00 00 	nop 
    2ee8:	01 00 00 00 	nop 
    2eec:	01 00 00 00 	nop 

00002ef0 <SW_trap_0xef>:
    2ef0:	91 d0 20 00 	ta  0
    2ef4:	01 00 00 00 	nop 
    2ef8:	01 00 00 00 	nop 
    2efc:	01 00 00 00 	nop 

00002f00 <SW_trap_0xf0>:
    2f00:	91 d0 20 00 	ta  0
    2f04:	01 00 00 00 	nop 
    2f08:	01 00 00 00 	nop 
    2f0c:	01 00 00 00 	nop 

00002f10 <SW_trap_0xf1>:
    2f10:	91 d0 20 00 	ta  0
    2f14:	01 00 00 00 	nop 
    2f18:	01 00 00 00 	nop 
    2f1c:	01 00 00 00 	nop 

00002f20 <SW_trap_0xf2>:
    2f20:	91 d0 20 00 	ta  0
    2f24:	01 00 00 00 	nop 
    2f28:	01 00 00 00 	nop 
    2f2c:	01 00 00 00 	nop 

00002f30 <SW_trap_0xf3>:
    2f30:	91 d0 20 00 	ta  0
    2f34:	01 00 00 00 	nop 
    2f38:	01 00 00 00 	nop 
    2f3c:	01 00 00 00 	nop 

00002f40 <SW_trap_0xf4>:
    2f40:	91 d0 20 00 	ta  0
    2f44:	01 00 00 00 	nop 
    2f48:	01 00 00 00 	nop 
    2f4c:	01 00 00 00 	nop 

00002f50 <SW_trap_0xf5>:
    2f50:	91 d0 20 00 	ta  0
    2f54:	01 00 00 00 	nop 
    2f58:	01 00 00 00 	nop 
    2f5c:	01 00 00 00 	nop 

00002f60 <SW_trap_0xf6>:
    2f60:	91 d0 20 00 	ta  0
    2f64:	01 00 00 00 	nop 
    2f68:	01 00 00 00 	nop 
    2f6c:	01 00 00 00 	nop 

00002f70 <SW_trap_0xf7>:
    2f70:	91 d0 20 00 	ta  0
    2f74:	01 00 00 00 	nop 
    2f78:	01 00 00 00 	nop 
    2f7c:	01 00 00 00 	nop 

00002f80 <SW_trap_0xf8>:
    2f80:	91 d0 20 00 	ta  0
    2f84:	01 00 00 00 	nop 
    2f88:	01 00 00 00 	nop 
    2f8c:	01 00 00 00 	nop 

00002f90 <SW_trap_0xf9>:
    2f90:	91 d0 20 00 	ta  0
    2f94:	01 00 00 00 	nop 
    2f98:	01 00 00 00 	nop 
    2f9c:	01 00 00 00 	nop 

00002fa0 <SW_trap_0xfa>:
    2fa0:	91 d0 20 00 	ta  0
    2fa4:	01 00 00 00 	nop 
    2fa8:	01 00 00 00 	nop 
    2fac:	01 00 00 00 	nop 

00002fb0 <SW_trap_0xfb>:
    2fb0:	91 d0 20 00 	ta  0
    2fb4:	01 00 00 00 	nop 
    2fb8:	01 00 00 00 	nop 
    2fbc:	01 00 00 00 	nop 

00002fc0 <SW_trap_0xfc>:
    2fc0:	91 d0 20 00 	ta  0
    2fc4:	01 00 00 00 	nop 
    2fc8:	01 00 00 00 	nop 
    2fcc:	01 00 00 00 	nop 

00002fd0 <SW_trap_0xfd>:
    2fd0:	91 d0 20 00 	ta  0
    2fd4:	01 00 00 00 	nop 
    2fd8:	01 00 00 00 	nop 
    2fdc:	01 00 00 00 	nop 

00002fe0 <SW_trap_0xfe>:
    2fe0:	91 d0 20 00 	ta  0
    2fe4:	01 00 00 00 	nop 
    2fe8:	01 00 00 00 	nop 
    2fec:	01 00 00 00 	nop 
    2ff0:	01 00 00 00 	nop 
    2ff4:	01 00 00 00 	nop 
    2ff8:	01 00 00 00 	nop 
    2ffc:	01 00 00 00 	nop 
    3000:	00 00 32 4c 	unimp  0x324c
    3004:	00 00 32 4c 	unimp  0x324c
    3008:	00 00 32 64 	unimp  0x3264
    300c:	00 00 32 64 	unimp  0x3264
    3010:	00 00 32 7c 	unimp  0x327c
    3014:	00 00 32 e4 	unimp  0x32e4
    3018:	00 00 33 38 	unimp  0x3338
    301c:	00 00 34 0c 	unimp  0x340c
    3020:	00 00 34 34 	unimp  0x3434
    3024:	00 00 33 e0 	unimp  0x33e0
    3028:	00 00 33 bc 	unimp  0x33bc
    302c:	00 00 33 98 	unimp  0x3398
    3030:	00 00 33 70 	unimp  0x3370

00003034 <core_init_state>:
    3034:	9d e3 bf a0 	save  %sp, -96, %sp
    3038:	88 10 20 00 	clr  %g4
    303c:	96 06 3f ff 	add  %i0, -1, %o3
    3040:	b6 10 20 00 	clr  %i3
    3044:	ba 10 20 00 	clr  %i5
    3048:	92 10 20 2c 	mov  0x2c, %o1
    304c:	25 00 00 81 	sethi  %hi(0x20400), %l2
    3050:	15 00 00 0c 	sethi  %hi(0x3000), %o2
    3054:	23 00 00 81 	sethi  %hi(0x20400), %l1
    3058:	21 00 00 81 	sethi  %hi(0x20400), %l0
    305c:	11 00 00 81 	sethi  %hi(0x20400), %o0
    3060:	98 07 40 1b 	add  %i5, %i3, %o4
    3064:	9a 03 20 01 	add  %o4, 1, %o5
    3068:	80 a2 c0 0d 	cmp  %o3, %o5
    306c:	08 80 00 44 	bleu  317c <core_init_state+0x148>
    3070:	80 a6 00 1d 	cmp  %i0, %i5
    3074:	80 a6 e0 00 	cmp  %i3, 0
    3078:	22 80 00 2e 	be,a   3130 <core_init_state+0xfc>
    307c:	b2 06 60 01 	inc  %i1
    3080:	ba 06 80 1d 	add  %i2, %i5, %i5
    3084:	82 07 60 04 	add  %i5, 4, %g1
    3088:	80 a1 00 01 	cmp  %g4, %g1
    308c:	82 01 20 04 	add  %g4, 4, %g1
    3090:	86 60 3f ff 	subx  %g0, -1, %g3
    3094:	80 a7 40 01 	cmp  %i5, %g1
    3098:	84 60 3f ff 	subx  %g0, -1, %g2
    309c:	9f 36 e0 02 	srl  %i3, 2, %o7
    30a0:	86 10 c0 02 	or  %g3, %g2, %g3
    30a4:	83 2b e0 02 	sll  %o7, 2, %g1
    30a8:	80 a6 e0 03 	cmp  %i3, 3
    30ac:	18 80 00 03 	bgu  30b8 <core_init_state+0x84>
    30b0:	84 10 20 01 	mov  1, %g2
    30b4:	84 10 20 00 	clr  %g2
    30b8:	b8 17 40 04 	or  %i5, %g4, %i4
    30bc:	b8 0f 20 03 	and  %i4, 3, %i4
    30c0:	80 a0 00 1c 	cmp  %g0, %i4
    30c4:	84 08 c0 02 	and  %g3, %g2, %g2
    30c8:	86 60 3f ff 	subx  %g0, -1, %g3
    30cc:	80 88 80 03 	btst  %g2, %g3
    30d0:	02 80 00 73 	be  329c <core_init_state+0x268>
    30d4:	80 a0 60 00 	cmp  %g1, 0
    30d8:	22 80 00 0d 	be,a   310c <core_init_state+0xd8>
    30dc:	82 10 20 00 	clr  %g1
    30e0:	84 10 20 00 	clr  %g2
    30e4:	86 10 20 00 	clr  %g3
    30e8:	f8 01 00 02 	ld  [ %g4 + %g2 ], %i4
    30ec:	f8 27 40 02 	st  %i4, [ %i5 + %g2 ]
    30f0:	86 00 e0 01 	inc  %g3
    30f4:	80 a3 c0 03 	cmp  %o7, %g3
    30f8:	18 bf ff fc 	bgu  30e8 <core_init_state+0xb4>
    30fc:	84 00 a0 04 	add  %g2, 4, %g2
    3100:	80 a6 c0 01 	cmp  %i3, %g1
    3104:	22 80 00 09 	be,a   3128 <core_init_state+0xf4>
    3108:	d2 2e 80 0c 	stb  %o1, [ %i2 + %o4 ]
    310c:	f8 09 00 01 	ldub  [ %g4 + %g1 ], %i4
    3110:	f8 2f 40 01 	stb  %i4, [ %i5 + %g1 ]
    3114:	82 00 60 01 	inc  %g1
    3118:	80 a6 c0 01 	cmp  %i3, %g1
    311c:	38 bf ff fd 	bgu,a   3110 <core_init_state+0xdc>
    3120:	f8 09 00 01 	ldub  [ %g4 + %g1 ], %i4
    3124:	d2 2e 80 0c 	stb  %o1, [ %i2 + %o4 ]
    3128:	ba 10 00 0d 	mov  %o5, %i5
    312c:	b2 06 60 01 	inc  %i1
    3130:	89 2e 60 10 	sll  %i1, 0x10, %g4
    3134:	b3 39 20 10 	sra  %g4, 0x10, %i1
    3138:	82 0e 60 07 	and  %i1, 7, %g1
    313c:	82 00 7f fd 	add  %g1, -3, %g1
    3140:	83 28 60 10 	sll  %g1, 0x10, %g1
    3144:	83 30 60 10 	srl  %g1, 0x10, %g1
    3148:	80 a0 60 04 	cmp  %g1, 4
    314c:	08 80 00 3c 	bleu  323c <core_init_state+0x208>
    3150:	b6 12 a0 00 	mov  %o2, %i3
    3154:	87 31 20 11 	srl  %g4, 0x11, %g3
    3158:	82 14 a2 e0 	or  %l2, 0x2e0, %g1
    315c:	b6 10 20 04 	mov  4, %i3
    3160:	84 08 e0 0c 	and  %g3, 0xc, %g2
    3164:	98 07 40 1b 	add  %i5, %i3, %o4
    3168:	9a 03 20 01 	add  %o4, 1, %o5
    316c:	80 a2 c0 0d 	cmp  %o3, %o5
    3170:	18 bf ff c1 	bgu  3074 <core_init_state+0x40>
    3174:	c8 00 40 02 	ld  [ %g1 + %g2 ], %g4
    3178:	80 a6 00 1d 	cmp  %i0, %i5
    317c:	08 80 00 2e 	bleu  3234 <core_init_state+0x200>
    3180:	86 10 00 1d 	mov  %i5, %g3
    3184:	88 26 00 1d 	sub  %i0, %i5, %g4
    3188:	b6 06 80 1d 	add  %i2, %i5, %i3
    318c:	84 20 00 1b 	neg  %i3, %g2
    3190:	b2 08 a0 03 	and  %g2, 3, %i1
    3194:	80 a6 40 04 	cmp  %i1, %g4
    3198:	18 80 00 3f 	bgu  3294 <core_init_state+0x260>
    319c:	82 38 00 1d 	xnor  %g0, %i5, %g1
    31a0:	82 06 00 01 	add  %i0, %g1, %g1
    31a4:	82 00 60 01 	inc  %g1
    31a8:	80 a0 60 03 	cmp  %g1, 3
    31ac:	28 80 00 02 	bleu,a   31b4 <core_init_state+0x180>
    31b0:	b2 10 00 01 	mov  %g1, %i1
    31b4:	80 a6 60 00 	cmp  %i1, 0
    31b8:	22 80 00 0b 	be,a   31e4 <core_init_state+0x1b0>
    31bc:	88 21 00 19 	sub  %g4, %i1, %g4
    31c0:	c0 2e 80 1d 	clrb  [ %i2 + %i5 ]
    31c4:	ba 07 60 01 	inc  %i5
    31c8:	82 27 40 03 	sub  %i5, %g3, %g1
    31cc:	80 a6 40 01 	cmp  %i1, %g1
    31d0:	38 bf ff fd 	bgu,a   31c4 <core_init_state+0x190>
    31d4:	c0 2e 80 1d 	clrb  [ %i2 + %i5 ]
    31d8:	80 a1 00 19 	cmp  %g4, %i1
    31dc:	02 80 00 16 	be  3234 <core_init_state+0x200>
    31e0:	88 21 00 19 	sub  %g4, %i1, %g4
    31e4:	87 31 20 02 	srl  %g4, 2, %g3
    31e8:	b9 28 e0 02 	sll  %g3, 2, %i4
    31ec:	80 a7 20 00 	cmp  %i4, 0
    31f0:	22 80 00 0d 	be,a   3224 <core_init_state+0x1f0>
    31f4:	c0 2e 80 1d 	clrb  [ %i2 + %i5 ]
    31f8:	b6 06 c0 19 	add  %i3, %i1, %i3
    31fc:	82 10 20 00 	clr  %g1
    3200:	c0 26 c0 00 	clr  [ %i3 ]
    3204:	82 00 60 01 	inc  %g1
    3208:	80 a0 40 03 	cmp  %g1, %g3
    320c:	0a bf ff fd 	bcs  3200 <core_init_state+0x1cc>
    3210:	b6 06 e0 04 	add  %i3, 4, %i3
    3214:	80 a1 00 1c 	cmp  %g4, %i4
    3218:	02 80 00 07 	be  3234 <core_init_state+0x200>
    321c:	ba 07 40 1c 	add  %i5, %i4, %i5
    3220:	c0 2e 80 1d 	clrb  [ %i2 + %i5 ]
    3224:	ba 07 60 01 	inc  %i5
    3228:	80 a6 00 1d 	cmp  %i0, %i5
    322c:	38 bf ff fe 	bgu,a   3224 <core_init_state+0x1f0>
    3230:	c0 2e 80 1d 	clrb  [ %i2 + %i5 ]
    3234:	81 c7 e0 08 	ret 
    3238:	81 e8 00 00 	restore 
    323c:	83 28 60 02 	sll  %g1, 2, %g1
    3240:	c2 06 c0 01 	ld  [ %i3 + %g1 ], %g1
    3244:	81 c0 40 00 	jmp  %g1
    3248:	01 00 00 00 	nop 
    324c:	86 12 22 d0 	or  %o0, 0x2d0, %g3
    3250:	83 36 60 01 	srl  %i1, 1, %g1
    3254:	b6 10 20 08 	mov  8, %i3
    3258:	82 08 60 0c 	and  %g1, 0xc, %g1
    325c:	10 bf ff 81 	b  3060 <core_init_state+0x2c>
    3260:	c8 00 c0 01 	ld  [ %g3 + %g1 ], %g4
    3264:	84 14 22 c0 	or  %l0, 0x2c0, %g2
    3268:	83 36 60 01 	srl  %i1, 1, %g1
    326c:	b6 10 20 08 	mov  8, %i3
    3270:	82 08 60 0c 	and  %g1, 0xc, %g1
    3274:	10 bf ff 7b 	b  3060 <core_init_state+0x2c>
    3278:	c8 00 80 01 	ld  [ %g2 + %g1 ], %g4
    327c:	b8 14 62 b0 	or  %l1, 0x2b0, %i4
    3280:	83 36 60 01 	srl  %i1, 1, %g1
    3284:	b6 10 20 08 	mov  8, %i3
    3288:	82 08 60 0c 	and  %g1, 0xc, %g1
    328c:	10 bf ff 75 	b  3060 <core_init_state+0x2c>
    3290:	c8 07 00 01 	ld  [ %i4 + %g1 ], %g4
    3294:	10 bf ff c3 	b  31a0 <core_init_state+0x16c>
    3298:	b2 10 00 04 	mov  %g4, %i1
    329c:	10 bf ff 9c 	b  310c <core_init_state+0xd8>
    32a0:	82 10 20 00 	clr  %g1

000032a4 <core_state_transition>:
    32a4:	da 02 00 00 	ld  [ %o0 ], %o5
    32a8:	c2 0b 40 00 	ldub  [ %o5 ], %g1
    32ac:	88 88 60 ff 	andcc  %g1, 0xff, %g4
    32b0:	02 80 00 90 	be  34f0 <core_state_transition+0x24c>
    32b4:	94 10 00 08 	mov  %o0, %o2
    32b8:	80 a1 20 2c 	cmp  %g4, 0x2c
    32bc:	02 80 00 8f 	be  34f8 <core_state_transition+0x254>
    32c0:	84 03 60 01 	add  %o5, 1, %g2
    32c4:	86 10 00 0d 	mov  %o5, %g3
    32c8:	90 10 20 00 	clr  %o0
    32cc:	17 00 00 0c 	sethi  %hi(0x3000), %o3
    32d0:	98 12 e0 14 	or  %o3, 0x14, %o4	! 3014 <SW_trap_0xfe+0x34>
    32d4:	9b 2a 20 02 	sll  %o0, 2, %o5
    32d8:	d8 03 00 0d 	ld  [ %o4 + %o5 ], %o4
    32dc:	81 c3 00 00 	jmp  %o4
    32e0:	01 00 00 00 	nop 
    32e4:	82 00 7f d0 	add  %g1, -48, %g1
    32e8:	82 08 60 ff 	and  %g1, 0xff, %g1
    32ec:	80 a0 60 09 	cmp  %g1, 9
    32f0:	08 80 00 0f 	bleu  332c <core_state_transition+0x88>
    32f4:	90 10 20 04 	mov  4, %o0
    32f8:	80 a1 20 2d 	cmp  %g4, 0x2d
    32fc:	22 80 00 70 	be,a   34bc <core_state_transition+0x218>
    3300:	c2 02 40 00 	ld  [ %o1 ], %g1
    3304:	80 a1 20 2b 	cmp  %g4, 0x2b
    3308:	22 80 00 6d 	be,a   34bc <core_state_transition+0x218>
    330c:	c2 02 40 00 	ld  [ %o1 ], %g1
    3310:	80 a1 20 2e 	cmp  %g4, 0x2e
    3314:	02 80 00 06 	be  332c <core_state_transition+0x88>
    3318:	90 10 20 05 	mov  5, %o0
    331c:	c2 02 60 04 	ld  [ %o1 + 4 ], %g1
    3320:	90 10 20 01 	mov  1, %o0
    3324:	82 00 60 01 	inc  %g1
    3328:	c2 22 60 04 	st  %g1, [ %o1 + 4 ]
    332c:	c2 02 40 00 	ld  [ %o1 ], %g1
    3330:	82 00 60 01 	inc  %g1
    3334:	c2 22 40 00 	st  %g1, [ %o1 ]
    3338:	c2 08 e0 01 	ldub  [ %g3 + 1 ], %g1
    333c:	88 88 60 ff 	andcc  %g1, 0xff, %g4
    3340:	02 80 00 0a 	be  3368 <core_state_transition+0xc4>
    3344:	9a 10 00 02 	mov  %g2, %o5
    3348:	80 a2 20 01 	cmp  %o0, 1
    334c:	22 80 00 43 	be,a   3458 <core_state_transition+0x1b4>
    3350:	90 10 20 01 	mov  1, %o0
    3354:	84 00 a0 01 	inc  %g2
    3358:	80 a1 20 2c 	cmp  %g4, 0x2c
    335c:	12 bf ff dd 	bne  32d0 <core_state_transition+0x2c>
    3360:	86 00 e0 01 	inc  %g3
    3364:	9a 03 60 01 	inc  %o5
    3368:	81 c3 e0 08 	retl 
    336c:	da 22 80 00 	st  %o5, [ %o2 ]
    3370:	82 00 7f d0 	add  %g1, -48, %g1
    3374:	82 08 60 ff 	and  %g1, 0xff, %g1
    3378:	80 a0 60 09 	cmp  %g1, 9
    337c:	38 80 00 4a 	bgu,a   34a4 <core_state_transition+0x200>
    3380:	c2 02 60 04 	ld  [ %o1 + 4 ], %g1
    3384:	c2 08 e0 01 	ldub  [ %g3 + 1 ], %g1
    3388:	88 88 60 ff 	andcc  %g1, 0xff, %g4
    338c:	12 bf ff f2 	bne  3354 <core_state_transition+0xb0>
    3390:	9a 10 00 02 	mov  %g2, %o5
    3394:	30 bf ff f5 	b,a   3368 <core_state_transition+0xc4>
    3398:	82 00 7f d0 	add  %g1, -48, %g1
    339c:	82 08 60 ff 	and  %g1, 0xff, %g1
    33a0:	80 a0 60 09 	cmp  %g1, 9
    33a4:	18 80 00 43 	bgu  34b0 <core_state_transition+0x20c>
    33a8:	c2 02 60 18 	ld  [ %o1 + 0x18 ], %g1
    33ac:	90 10 20 07 	mov  7, %o0
    33b0:	82 00 60 01 	inc  %g1
    33b4:	10 bf ff f4 	b  3384 <core_state_transition+0xe0>
    33b8:	c2 22 60 18 	st  %g1, [ %o1 + 0x18 ]
    33bc:	88 08 60 df 	and  %g1, 0xdf, %g4
    33c0:	80 a1 20 45 	cmp  %g4, 0x45
    33c4:	12 80 00 2b 	bne  3470 <core_state_transition+0x1cc>
    33c8:	82 00 7f d0 	add  %g1, -48, %g1
    33cc:	c2 02 60 14 	ld  [ %o1 + 0x14 ], %g1
    33d0:	90 10 20 03 	mov  3, %o0
    33d4:	82 00 60 01 	inc  %g1
    33d8:	10 bf ff eb 	b  3384 <core_state_transition+0xe0>
    33dc:	c2 22 60 14 	st  %g1, [ %o1 + 0x14 ]
    33e0:	80 a1 20 2e 	cmp  %g4, 0x2e
    33e4:	02 80 00 3a 	be  34cc <core_state_transition+0x228>
    33e8:	82 00 7f d0 	add  %g1, -48, %g1
    33ec:	82 08 60 ff 	and  %g1, 0xff, %g1
    33f0:	80 a0 60 09 	cmp  %g1, 9
    33f4:	28 bf ff e5 	bleu,a   3388 <core_state_transition+0xe4>
    33f8:	c2 08 e0 01 	ldub  [ %g3 + 1 ], %g1
    33fc:	c2 02 60 10 	ld  [ %o1 + 0x10 ], %g1
    3400:	82 00 60 01 	inc  %g1
    3404:	10 80 00 13 	b  3450 <core_state_transition+0x1ac>
    3408:	c2 22 60 10 	st  %g1, [ %o1 + 0x10 ]
    340c:	82 00 7f d0 	add  %g1, -48, %g1
    3410:	82 08 60 ff 	and  %g1, 0xff, %g1
    3414:	80 a0 60 09 	cmp  %g1, 9
    3418:	18 80 00 1e 	bgu  3490 <core_state_transition+0x1ec>
    341c:	80 a1 20 2e 	cmp  %g4, 0x2e
    3420:	c2 02 60 08 	ld  [ %o1 + 8 ], %g1
    3424:	90 10 20 04 	mov  4, %o0
    3428:	82 00 60 01 	inc  %g1
    342c:	10 bf ff d6 	b  3384 <core_state_transition+0xe0>
    3430:	c2 22 60 08 	st  %g1, [ %o1 + 8 ]
    3434:	80 a1 20 2d 	cmp  %g4, 0x2d
    3438:	02 80 00 0a 	be  3460 <core_state_transition+0x1bc>
    343c:	c2 02 60 0c 	ld  [ %o1 + 0xc ], %g1
    3440:	80 a1 20 2b 	cmp  %g4, 0x2b
    3444:	02 80 00 08 	be  3464 <core_state_transition+0x1c0>
    3448:	82 00 60 01 	inc  %g1
    344c:	c2 22 60 0c 	st  %g1, [ %o1 + 0xc ]
    3450:	9a 10 00 02 	mov  %g2, %o5
    3454:	90 10 20 01 	mov  1, %o0
    3458:	81 c3 e0 08 	retl 
    345c:	da 22 80 00 	st  %o5, [ %o2 ]
    3460:	82 00 60 01 	inc  %g1
    3464:	90 10 20 06 	mov  6, %o0
    3468:	10 bf ff c7 	b  3384 <core_state_transition+0xe0>
    346c:	c2 22 60 0c 	st  %g1, [ %o1 + 0xc ]
    3470:	82 08 60 ff 	and  %g1, 0xff, %g1
    3474:	80 a0 60 09 	cmp  %g1, 9
    3478:	28 bf ff c4 	bleu,a   3388 <core_state_transition+0xe4>
    347c:	c2 08 e0 01 	ldub  [ %g3 + 1 ], %g1
    3480:	c2 02 60 14 	ld  [ %o1 + 0x14 ], %g1
    3484:	82 00 60 01 	inc  %g1
    3488:	10 bf ff f2 	b  3450 <core_state_transition+0x1ac>
    348c:	c2 22 60 14 	st  %g1, [ %o1 + 0x14 ]
    3490:	02 80 00 14 	be  34e0 <core_state_transition+0x23c>
    3494:	c2 02 60 08 	ld  [ %o1 + 8 ], %g1
    3498:	82 00 60 01 	inc  %g1
    349c:	10 bf ff ed 	b  3450 <core_state_transition+0x1ac>
    34a0:	c2 22 60 08 	st  %g1, [ %o1 + 8 ]
    34a4:	82 00 60 01 	inc  %g1
    34a8:	10 bf ff ea 	b  3450 <core_state_transition+0x1ac>
    34ac:	c2 22 60 04 	st  %g1, [ %o1 + 4 ]
    34b0:	82 00 60 01 	inc  %g1
    34b4:	10 bf ff e7 	b  3450 <core_state_transition+0x1ac>
    34b8:	c2 22 60 18 	st  %g1, [ %o1 + 0x18 ]
    34bc:	90 10 20 02 	mov  2, %o0
    34c0:	82 00 60 01 	inc  %g1
    34c4:	10 bf ff 9d 	b  3338 <core_state_transition+0x94>
    34c8:	c2 22 40 00 	st  %g1, [ %o1 ]
    34cc:	c2 02 60 10 	ld  [ %o1 + 0x10 ], %g1
    34d0:	90 10 20 05 	mov  5, %o0
    34d4:	82 00 60 01 	inc  %g1
    34d8:	10 bf ff ab 	b  3384 <core_state_transition+0xe0>
    34dc:	c2 22 60 10 	st  %g1, [ %o1 + 0x10 ]
    34e0:	90 10 20 05 	mov  5, %o0
    34e4:	82 00 60 01 	inc  %g1
    34e8:	10 bf ff a7 	b  3384 <core_state_transition+0xe0>
    34ec:	c2 22 60 08 	st  %g1, [ %o1 + 8 ]
    34f0:	10 bf ff 9e 	b  3368 <core_state_transition+0xc4>
    34f4:	90 10 20 00 	clr  %o0
    34f8:	90 10 20 00 	clr  %o0
    34fc:	10 bf ff 9b 	b  3368 <core_state_transition+0xc4>
    3500:	9a 03 60 01 	inc  %o5

00003504 <core_bench_state>:
    3504:	9d e3 bf 58 	save  %sp, -168, %sp
    3508:	c0 27 bf e0 	clr  [ %fp + -32 ]
    350c:	c0 27 bf e4 	clr  [ %fp + -28 ]
    3510:	f2 27 bf bc 	st  %i1, [ %fp + -68 ]
    3514:	c0 27 bf e8 	clr  [ %fp + -24 ]
    3518:	c0 27 bf ec 	clr  [ %fp + -20 ]
    351c:	c0 27 bf f0 	clr  [ %fp + -16 ]
    3520:	c0 27 bf f4 	clr  [ %fp + -12 ]
    3524:	c0 27 bf f8 	clr  [ %fp + -8 ]
    3528:	c0 27 bf fc 	clr  [ %fp + -4 ]
    352c:	c0 27 bf c0 	clr  [ %fp + -64 ]
    3530:	c0 27 bf c4 	clr  [ %fp + -60 ]
    3534:	c0 27 bf c8 	clr  [ %fp + -56 ]
    3538:	c0 27 bf cc 	clr  [ %fp + -52 ]
    353c:	c0 27 bf d0 	clr  [ %fp + -48 ]
    3540:	c0 27 bf d4 	clr  [ %fp + -44 ]
    3544:	c0 27 bf d8 	clr  [ %fp + -40 ]
    3548:	c0 27 bf dc 	clr  [ %fp + -36 ]
    354c:	c2 0e 40 00 	ldub  [ %i1 ], %g1
    3550:	80 a0 60 00 	cmp  %g1, 0
    3554:	02 80 00 11 	be  3598 <core_bench_state+0x94>
    3558:	94 10 20 00 	clr  %o2
    355c:	a0 07 bf bc 	add  %fp, -68, %l0
    3560:	90 10 00 10 	mov  %l0, %o0
    3564:	7f ff ff 50 	call  32a4 <core_state_transition>
    3568:	92 07 bf e0 	add  %fp, -32, %o1
    356c:	91 2a 20 02 	sll  %o0, 2, %o0
    3570:	82 07 80 08 	add  %fp, %o0, %g1
    3574:	c4 00 7f c0 	ld  [ %g1 + -64 ], %g2
    3578:	86 00 a0 01 	add  %g2, 1, %g3
    357c:	c6 20 7f c0 	st  %g3, [ %g1 + -64 ]
    3580:	c2 07 bf bc 	ld  [ %fp + -68 ], %g1
    3584:	c2 08 40 00 	ldub  [ %g1 ], %g1
    3588:	80 a0 60 00 	cmp  %g1, 0
    358c:	12 bf ff f6 	bne  3564 <core_bench_state+0x60>
    3590:	90 10 00 10 	mov  %l0, %o0
    3594:	d4 0e 40 00 	ldub  [ %i1 ], %o2
    3598:	b0 06 40 18 	add  %i1, %i0, %i0
    359c:	80 a6 40 18 	cmp  %i1, %i0
    35a0:	1a 80 00 10 	bcc  35e0 <core_bench_state+0xdc>
    35a4:	f2 27 bf bc 	st  %i1, [ %fp + -68 ]
    35a8:	10 80 00 03 	b  35b4 <core_bench_state+0xb0>
    35ac:	82 10 00 19 	mov  %i1, %g1
    35b0:	d4 08 40 00 	ldub  [ %g1 ], %o2
    35b4:	88 0a a0 ff 	and  %o2, 0xff, %g4
    35b8:	80 a1 20 2c 	cmp  %g4, 0x2c
    35bc:	02 80 00 04 	be  35cc <core_bench_state+0xc8>
    35c0:	92 1a 80 1a 	xor  %o2, %i2, %o1
    35c4:	d2 28 40 00 	stb  %o1, [ %g1 ]
    35c8:	c2 07 bf bc 	ld  [ %fp + -68 ], %g1
    35cc:	82 00 40 1c 	add  %g1, %i4, %g1
    35d0:	80 a0 40 18 	cmp  %g1, %i0
    35d4:	0a bf ff f7 	bcs  35b0 <core_bench_state+0xac>
    35d8:	c2 27 bf bc 	st  %g1, [ %fp + -68 ]
    35dc:	d4 0e 40 00 	ldub  [ %i1 ], %o2
    35e0:	f2 27 bf bc 	st  %i1, [ %fp + -68 ]
    35e4:	80 8a a0 ff 	btst  0xff, %o2
    35e8:	02 80 00 0f 	be  3624 <core_bench_state+0x120>
    35ec:	b4 07 bf bc 	add  %fp, -68, %i2
    35f0:	90 10 00 1a 	mov  %i2, %o0
    35f4:	7f ff ff 2c 	call  32a4 <core_state_transition>
    35f8:	92 07 bf e0 	add  %fp, -32, %o1
    35fc:	97 2a 20 02 	sll  %o0, 2, %o3
    3600:	82 07 80 0b 	add  %fp, %o3, %g1
    3604:	d8 00 7f c0 	ld  [ %g1 + -64 ], %o4
    3608:	9a 03 20 01 	add  %o4, 1, %o5
    360c:	da 20 7f c0 	st  %o5, [ %g1 + -64 ]
    3610:	c2 07 bf bc 	ld  [ %fp + -68 ], %g1
    3614:	c2 08 40 00 	ldub  [ %g1 ], %g1
    3618:	80 a0 60 00 	cmp  %g1, 0
    361c:	12 bf ff f6 	bne  35f4 <core_bench_state+0xf0>
    3620:	90 10 00 1a 	mov  %i2, %o0
    3624:	80 a6 40 18 	cmp  %i1, %i0
    3628:	1a 80 00 0d 	bcc  365c <core_bench_state+0x158>
    362c:	f2 27 bf bc 	st  %i1, [ %fp + -68 ]
    3630:	c2 0e 40 00 	ldub  [ %i1 ], %g1
    3634:	9e 08 60 ff 	and  %g1, 0xff, %o7
    3638:	80 a3 e0 2c 	cmp  %o7, 0x2c
    363c:	02 80 00 04 	be  364c <core_bench_state+0x148>
    3640:	82 18 40 1b 	xor  %g1, %i3, %g1
    3644:	c2 2e 40 00 	stb  %g1, [ %i1 ]
    3648:	f2 07 bf bc 	ld  [ %fp + -68 ], %i1
    364c:	b2 06 40 1c 	add  %i1, %i4, %i1
    3650:	80 a6 40 18 	cmp  %i1, %i0
    3654:	0a bf ff f7 	bcs  3630 <core_bench_state+0x12c>
    3658:	f2 27 bf bc 	st  %i1, [ %fp + -68 ]
    365c:	92 10 00 1d 	mov  %i5, %o1
    3660:	40 00 16 31 	call  8f24 <crcu32>
    3664:	d0 07 bf c0 	ld  [ %fp + -64 ], %o0
    3668:	92 10 00 08 	mov  %o0, %o1
    366c:	40 00 16 2e 	call  8f24 <crcu32>
    3670:	d0 07 bf e0 	ld  [ %fp + -32 ], %o0
    3674:	92 10 00 08 	mov  %o0, %o1
    3678:	40 00 16 2b 	call  8f24 <crcu32>
    367c:	d0 07 bf c4 	ld  [ %fp + -60 ], %o0
    3680:	92 10 00 08 	mov  %o0, %o1
    3684:	40 00 16 28 	call  8f24 <crcu32>
    3688:	d0 07 bf e4 	ld  [ %fp + -28 ], %o0
    368c:	92 10 00 08 	mov  %o0, %o1
    3690:	40 00 16 25 	call  8f24 <crcu32>
    3694:	d0 07 bf c8 	ld  [ %fp + -56 ], %o0
    3698:	92 10 00 08 	mov  %o0, %o1
    369c:	40 00 16 22 	call  8f24 <crcu32>
    36a0:	d0 07 bf e8 	ld  [ %fp + -24 ], %o0
    36a4:	92 10 00 08 	mov  %o0, %o1
    36a8:	40 00 16 1f 	call  8f24 <crcu32>
    36ac:	d0 07 bf cc 	ld  [ %fp + -52 ], %o0
    36b0:	92 10 00 08 	mov  %o0, %o1
    36b4:	40 00 16 1c 	call  8f24 <crcu32>
    36b8:	d0 07 bf ec 	ld  [ %fp + -20 ], %o0
    36bc:	92 10 00 08 	mov  %o0, %o1
    36c0:	40 00 16 19 	call  8f24 <crcu32>
    36c4:	d0 07 bf d0 	ld  [ %fp + -48 ], %o0
    36c8:	92 10 00 08 	mov  %o0, %o1
    36cc:	40 00 16 16 	call  8f24 <crcu32>
    36d0:	d0 07 bf f0 	ld  [ %fp + -16 ], %o0
    36d4:	92 10 00 08 	mov  %o0, %o1
    36d8:	40 00 16 13 	call  8f24 <crcu32>
    36dc:	d0 07 bf d4 	ld  [ %fp + -44 ], %o0
    36e0:	92 10 00 08 	mov  %o0, %o1
    36e4:	40 00 16 10 	call  8f24 <crcu32>
    36e8:	d0 07 bf f4 	ld  [ %fp + -12 ], %o0
    36ec:	92 10 00 08 	mov  %o0, %o1
    36f0:	40 00 16 0d 	call  8f24 <crcu32>
    36f4:	d0 07 bf d8 	ld  [ %fp + -40 ], %o0
    36f8:	92 10 00 08 	mov  %o0, %o1
    36fc:	40 00 16 0a 	call  8f24 <crcu32>
    3700:	d0 07 bf f8 	ld  [ %fp + -8 ], %o0
    3704:	92 10 00 08 	mov  %o0, %o1
    3708:	40 00 16 07 	call  8f24 <crcu32>
    370c:	d0 07 bf dc 	ld  [ %fp + -36 ], %o0
    3710:	92 10 00 08 	mov  %o0, %o1
    3714:	40 00 16 04 	call  8f24 <crcu32>
    3718:	d0 07 bf fc 	ld  [ %fp + -4 ], %o0
    371c:	81 c7 e0 08 	ret 
    3720:	91 e8 00 08 	restore  %g0, %o0, %o0

00003724 <cvt>:
    3724:	9d e3 bf 90 	save  %sp, -112, %sp
    3728:	f0 3f bf f8 	std  %i0, [ %fp + -8 ]
    372c:	da 07 a0 5c 	ld  [ %fp + 0x5c ], %o5
    3730:	d5 1f bf f8 	ldd  [ %fp + -8 ], %f10
    3734:	80 a6 a0 00 	cmp  %i2, 0
    3738:	06 80 00 05 	bl  374c <cvt+0x28>
    373c:	9e 10 20 00 	clr  %o7
    3740:	80 a6 a0 4e 	cmp  %i2, 0x4e
    3744:	04 80 00 df 	ble  3ac0 <cvt+0x39c>
    3748:	9e 10 20 4e 	mov  0x4e, %o7
    374c:	05 00 00 81 	sethi  %hi(0x20400), %g2
    3750:	d1 18 a2 78 	ldd  [ %g2 + 0x278 ], %f8	! 20678 <state_known_crc+0x664>
    3754:	81 aa 8a c8 	fcmped  %f10, %f8
    3758:	01 00 00 00 	nop 
    375c:	09 80 00 d3 	fbl  3aa8 <cvt+0x384>
    3760:	82 10 20 01 	mov  1, %g1	! 1 <_start+0x1>
    3764:	c0 27 00 00 	clr  [ %i4 ]
    3768:	81 a0 1a 4a 	fdtoi  %f10, %f0
    376c:	d9 18 a2 78 	ldd  [ %g2 + 0x278 ], %f12
    3770:	a9 a0 19 00 	fitod  %f0, %f20
    3774:	81 ad 0a 4c 	fcmpd  %f20, %f12
    3778:	01 00 00 00 	nop 
    377c:	13 80 00 8b 	fbe  39a8 <cvt+0x284>
    3780:	95 a2 88 d4 	fsubd  %f10, %f20, %f10
    3784:	b2 07 60 50 	add  %i5, 0x50, %i1
    3788:	31 00 00 81 	sethi  %hi(0x20400), %i0
    378c:	35 00 00 81 	sethi  %hi(0x20400), %i2
    3790:	39 00 00 81 	sethi  %hi(0x20400), %i4
    3794:	82 10 00 19 	mov  %i1, %g1
    3798:	88 10 20 00 	clr  %g4
    379c:	dd 1e 22 80 	ldd  [ %i0 + 0x280 ], %f14
    37a0:	e5 1e a2 88 	ldd  [ %i2 + 0x288 ], %f18
    37a4:	c9 1f 22 78 	ldd  [ %i4 + 0x278 ], %f4
    37a8:	8d a5 09 ce 	fdivd  %f20, %f14, %f6
    37ac:	83 a0 1a 46 	fdtoi  %f6, %f1
    37b0:	a9 a0 19 01 	fitod  %f1, %f20
    37b4:	ad a1 88 d4 	fsubd  %f6, %f20, %f22
    37b8:	b1 a5 88 52 	faddd  %f22, %f18, %f24
    37bc:	99 a6 09 4e 	fmuld  %f24, %f14, %f12
    37c0:	87 a0 1a 4c 	fdtoi  %f12, %f3
    37c4:	c7 27 bf f4 	st  %f3, [ %fp + -12 ]
    37c8:	82 00 7f ff 	add  %g1, -1, %g1
    37cc:	c4 07 bf f4 	ld  [ %fp + -12 ], %g2
    37d0:	86 00 a0 30 	add  %g2, 0x30, %g3
    37d4:	c6 28 40 00 	stb  %g3, [ %g1 ]
    37d8:	81 ad 0a 44 	fcmpd  %f20, %f4
    37dc:	01 00 00 00 	nop 
    37e0:	03 bf ff f2 	fbne  37a8 <cvt+0x84>
    37e4:	88 01 20 01 	inc  %g4
    37e8:	80 a6 40 01 	cmp  %i1, %g1
    37ec:	08 80 00 30 	bleu  38ac <cvt+0x188>
    37f0:	84 10 00 1d 	mov  %i5, %g2
    37f4:	b0 00 60 04 	add  %g1, 4, %i0
    37f8:	80 a7 40 18 	cmp  %i5, %i0
    37fc:	b4 07 60 04 	add  %i5, 4, %i2
    3800:	b8 60 3f ff 	subx  %g0, -1, %i4
    3804:	80 a0 40 1a 	cmp  %g1, %i2
    3808:	86 60 3f ff 	subx  %g0, -1, %g3
    380c:	96 27 40 01 	sub  %i5, %g1, %o3
    3810:	b8 17 00 03 	or  %i4, %g3, %i4
    3814:	96 02 e0 50 	add  %o3, 0x50, %o3
    3818:	84 10 00 01 	mov  %g1, %g2
    381c:	b1 32 e0 02 	srl  %o3, 2, %i0
    3820:	86 10 20 01 	mov  1, %g3
    3824:	80 a2 e0 03 	cmp  %o3, 3
    3828:	18 80 00 03 	bgu  3834 <cvt+0x110>
    382c:	99 2e 20 02 	sll  %i0, 2, %o4
    3830:	86 10 20 00 	clr  %g3
    3834:	b4 10 40 1d 	or  %g1, %i5, %i2
    3838:	b4 0e a0 03 	and  %i2, 3, %i2
    383c:	80 a0 00 1a 	cmp  %g0, %i2
    3840:	86 0f 00 03 	and  %i4, %g3, %g3
    3844:	b8 60 3f ff 	subx  %g0, -1, %i4
    3848:	80 88 c0 1c 	btst  %g3, %i4
    384c:	02 80 00 a2 	be  3ad4 <cvt+0x3b0>
    3850:	80 a3 20 00 	cmp  %o4, 0
    3854:	02 80 00 0e 	be  388c <cvt+0x168>
    3858:	b4 10 00 1d 	mov  %i5, %i2
    385c:	86 10 20 00 	clr  %g3
    3860:	b8 10 20 00 	clr  %i4
    3864:	f4 00 40 03 	ld  [ %g1 + %g3 ], %i2
    3868:	f4 27 40 03 	st  %i2, [ %i5 + %g3 ]
    386c:	b8 07 20 01 	inc  %i4
    3870:	80 a6 00 1c 	cmp  %i0, %i4
    3874:	18 bf ff fc 	bgu  3864 <cvt+0x140>
    3878:	86 00 e0 04 	add  %g3, 4, %g3
    387c:	b4 07 40 0c 	add  %i5, %o4, %i2
    3880:	80 a2 c0 0c 	cmp  %o3, %o4
    3884:	02 80 00 08 	be  38a4 <cvt+0x180>
    3888:	82 00 40 0c 	add  %g1, %o4, %g1
    388c:	f0 08 40 00 	ldub  [ %g1 ], %i0
    3890:	f0 2e 80 00 	stb  %i0, [ %i2 ]
    3894:	82 00 60 01 	inc  %g1
    3898:	80 a6 40 01 	cmp  %i1, %g1
    389c:	18 bf ff fc 	bgu  388c <cvt+0x168>
    38a0:	b4 06 a0 01 	inc  %i2
    38a4:	b2 26 40 02 	sub  %i1, %g2, %i1
    38a8:	84 07 40 19 	add  %i5, %i1, %g2
    38ac:	80 a3 60 00 	cmp  %o5, 0
    38b0:	12 80 00 03 	bne  38bc <cvt+0x198>
    38b4:	82 07 40 0f 	add  %i5, %o7, %g1
    38b8:	82 00 40 04 	add  %g1, %g4, %g1
    38bc:	80 a0 40 1d 	cmp  %g1, %i5
    38c0:	0a 80 00 77 	bcs  3a9c <cvt+0x378>
    38c4:	c8 26 c0 00 	st  %g4, [ %i3 ]
    38c8:	80 a0 80 01 	cmp  %g2, %g1
    38cc:	18 80 00 17 	bgu  3928 <cvt+0x204>
    38d0:	88 07 60 50 	add  %i5, 0x50, %g4
    38d4:	39 00 00 81 	sethi  %hi(0x20400), %i4
    38d8:	80 a0 80 04 	cmp  %g2, %g4
    38dc:	1a 80 00 13 	bcc  3928 <cvt+0x204>
    38e0:	86 17 22 80 	or  %i4, 0x280, %g3
    38e4:	10 80 00 05 	b  38f8 <cvt+0x1d4>
    38e8:	f5 18 c0 00 	ldd  [ %g3 ], %f26
    38ec:	80 a0 80 04 	cmp  %g2, %g4
    38f0:	02 80 00 0f 	be  392c <cvt+0x208>
    38f4:	80 a0 40 04 	cmp  %g1, %g4
    38f8:	b9 a2 89 5a 	fmuld  %f10, %f26, %f28
    38fc:	8b a0 1a 5c 	fdtoi  %f28, %f5
    3900:	bd a0 19 05 	fitod  %f5, %f30
    3904:	8f a0 1a 5e 	fdtoi  %f30, %f7
    3908:	cf 27 bf f4 	st  %f7, [ %fp + -12 ]
    390c:	f0 07 bf f4 	ld  [ %fp + -12 ], %i0
    3910:	b4 06 20 30 	add  %i0, 0x30, %i2
    3914:	f4 28 80 00 	stb  %i2, [ %g2 ]
    3918:	84 00 a0 01 	inc  %g2
    391c:	80 a0 40 02 	cmp  %g1, %g2
    3920:	1a bf ff f3 	bcc  38ec <cvt+0x1c8>
    3924:	95 a7 08 de 	fsubd  %f28, %f30, %f10
    3928:	80 a0 40 04 	cmp  %g1, %g4
    392c:	1a 80 00 62 	bcc  3ab4 <cvt+0x390>
    3930:	84 10 00 01 	mov  %g1, %g2
    3934:	f2 08 40 00 	ldub  [ %g1 ], %i1
    3938:	86 06 60 05 	add  %i1, 5, %g3
    393c:	c6 28 40 00 	stb  %g3, [ %g1 ]
    3940:	88 10 20 30 	mov  0x30, %g4
    3944:	80 a3 60 00 	cmp  %o5, 0
    3948:	02 80 00 3e 	be  3a40 <cvt+0x31c>
    394c:	b8 10 20 31 	mov  0x31, %i4
    3950:	b5 28 e0 18 	sll  %g3, 0x18, %i2
    3954:	b3 3e a0 18 	sra  %i2, 0x18, %i1
    3958:	80 a6 60 39 	cmp  %i1, 0x39
    395c:	24 80 00 10 	ble,a   399c <cvt+0x278>
    3960:	84 10 00 01 	mov  %g1, %g2
    3964:	80 a7 40 02 	cmp  %i5, %g2
    3968:	0a 80 00 48 	bcs  3a88 <cvt+0x364>
    396c:	c8 28 80 00 	stb  %g4, [ %g2 ]
    3970:	f8 28 80 00 	stb  %i4, [ %g2 ]
    3974:	c6 06 c0 00 	ld  [ %i3 ], %g3
    3978:	b0 00 e0 01 	add  %g3, 1, %i0
    397c:	f0 26 c0 00 	st  %i0, [ %i3 ]
    3980:	c6 08 80 00 	ldub  [ %g2 ], %g3
    3984:	b5 28 e0 18 	sll  %g3, 0x18, %i2
    3988:	b3 3e a0 18 	sra  %i2, 0x18, %i1
    398c:	80 a6 60 39 	cmp  %i1, 0x39
    3990:	14 bf ff f6 	bg  3968 <cvt+0x244>
    3994:	80 a7 40 02 	cmp  %i5, %g2
    3998:	84 10 00 01 	mov  %g1, %g2
    399c:	c0 28 80 00 	clrb  [ %g2 ]
    39a0:	81 c7 e0 08 	ret 
    39a4:	91 e8 00 1d 	restore  %g0, %i5, %o0
    39a8:	81 aa 8a cc 	fcmped  %f10, %f12
    39ac:	01 00 00 00 	nop 
    39b0:	1d 80 00 46 	fbule  3ac8 <cvt+0x3a4>
    39b4:	01 00 00 00 	nop 
    39b8:	07 00 00 81 	sethi  %hi(0x20400), %g3
    39bc:	03 00 00 81 	sethi  %hi(0x20400), %g1
    39c0:	c5 18 e2 80 	ldd  [ %g3 + 0x280 ], %f2
    39c4:	d1 18 62 90 	ldd  [ %g1 + 0x290 ], %f8
    39c8:	99 a2 89 42 	fmuld  %f10, %f2, %f12
    39cc:	88 10 20 00 	clr  %g4
    39d0:	e1 18 e2 80 	ldd  [ %g3 + 0x280 ], %f16
    39d4:	9d a0 00 28 	fmovs  %f8, %f14
    39d8:	81 ab 0a c8 	fcmped  %f12, %f8
    39dc:	01 00 00 00 	nop 
    39e0:	09 80 00 06 	fbl  39f8 <cvt+0x2d4>
    39e4:	9f a0 00 29 	fmovs  %f9, %f15
    39e8:	10 bf ff b1 	b  38ac <cvt+0x188>
    39ec:	84 10 00 1d 	mov  %i5, %g2
    39f0:	99 a0 00 28 	fmovs  %f8, %f12
    39f4:	9b a0 00 29 	fmovs  %f9, %f13
    39f8:	91 a3 09 50 	fmuld  %f12, %f16, %f8
    39fc:	81 aa 0a ce 	fcmped  %f8, %f14
    3a00:	01 00 00 00 	nop 
    3a04:	09 bf ff fb 	fbl  39f0 <cvt+0x2cc>
    3a08:	88 01 3f ff 	add  %g4, -1, %g4
    3a0c:	84 10 00 1d 	mov  %i5, %g2
    3a10:	95 a0 00 2c 	fmovs  %f12, %f10
    3a14:	10 bf ff a6 	b  38ac <cvt+0x188>
    3a18:	97 a0 00 2d 	fmovs  %f13, %f11
    3a1c:	f8 28 40 00 	stb  %i4, [ %g1 ]
    3a20:	f4 06 c0 00 	ld  [ %i3 ], %i2
    3a24:	b2 06 a0 01 	add  %i2, 1, %i1
    3a28:	80 a0 80 1d 	cmp  %g2, %i5
    3a2c:	08 80 00 03 	bleu  3a38 <cvt+0x314>
    3a30:	f2 26 c0 00 	st  %i1, [ %i3 ]
    3a34:	c8 28 80 00 	stb  %g4, [ %g2 ]
    3a38:	84 00 a0 01 	inc  %g2
    3a3c:	c6 08 40 00 	ldub  [ %g1 ], %g3
    3a40:	87 28 e0 18 	sll  %g3, 0x18, %g3
    3a44:	b1 38 e0 18 	sra  %g3, 0x18, %i0
    3a48:	80 a6 20 39 	cmp  %i0, 0x39
    3a4c:	24 bf ff d5 	ble,a   39a0 <cvt+0x27c>
    3a50:	c0 28 80 00 	clrb  [ %g2 ]
    3a54:	80 a0 40 1d 	cmp  %g1, %i5
    3a58:	08 bf ff f1 	bleu  3a1c <cvt+0x2f8>
    3a5c:	c8 28 40 00 	stb  %g4, [ %g1 ]
    3a60:	f0 08 7f ff 	ldub  [ %g1 + -1 ], %i0
    3a64:	86 06 20 01 	add  %i0, 1, %g3
    3a68:	c6 28 7f ff 	stb  %g3, [ %g1 + -1 ]
    3a6c:	87 28 e0 18 	sll  %g3, 0x18, %g3
    3a70:	b1 38 e0 18 	sra  %g3, 0x18, %i0
    3a74:	80 a6 20 39 	cmp  %i0, 0x39
    3a78:	14 bf ff f7 	bg  3a54 <cvt+0x330>
    3a7c:	82 00 7f ff 	add  %g1, -1, %g1
    3a80:	10 bf ff c8 	b  39a0 <cvt+0x27c>
    3a84:	c0 28 80 00 	clrb  [ %g2 ]
    3a88:	f4 08 bf ff 	ldub  [ %g2 + -1 ], %i2
    3a8c:	86 06 a0 01 	add  %i2, 1, %g3
    3a90:	c6 28 bf ff 	stb  %g3, [ %g2 + -1 ]
    3a94:	10 bf ff af 	b  3950 <cvt+0x22c>
    3a98:	84 00 bf ff 	add  %g2, -1, %g2
    3a9c:	c0 2f 40 00 	clrb  [ %i5 ]
    3aa0:	81 c7 e0 08 	ret 
    3aa4:	91 e8 00 1d 	restore  %g0, %i5, %o0
    3aa8:	95 a0 00 aa 	fnegs  %f10, %f10
    3aac:	10 bf ff 2f 	b  3768 <cvt+0x44>
    3ab0:	c2 27 00 00 	st  %g1, [ %i4 ]
    3ab4:	c0 2f 60 4f 	clrb  [ %i5 + 0x4f ]
    3ab8:	81 c7 e0 08 	ret 
    3abc:	91 e8 00 1d 	restore  %g0, %i5, %o0
    3ac0:	10 bf ff 23 	b  374c <cvt+0x28>
    3ac4:	9e 10 00 1a 	mov  %i2, %o7
    3ac8:	84 10 00 1d 	mov  %i5, %g2
    3acc:	10 bf ff 78 	b  38ac <cvt+0x188>
    3ad0:	88 10 20 00 	clr  %g4
    3ad4:	10 bf ff 6e 	b  388c <cvt+0x168>
    3ad8:	b4 10 00 1d 	mov  %i5, %i2

00003adc <__modf>:
    3adc:	9c 03 bf b0 	add  %sp, -80, %sp
    3ae0:	d0 3b a0 48 	std  %o0, [ %sp + 0x48 ]
    3ae4:	c1 1b a0 48 	ldd  [ %sp + 0x48 ], %f0
    3ae8:	9c 23 bf b0 	sub  %sp, -80, %sp
    3aec:	91 a0 1a 40 	fdtoi  %f0, %f8
    3af0:	85 a0 19 08 	fitod  %f8, %f2
    3af4:	81 a0 08 c2 	fsubd  %f0, %f2, %f0
    3af8:	81 c3 e0 08 	retl 
    3afc:	c5 3a 80 00 	std  %f2, [ %o2 ]

00003b00 <ecvt>:
    3b00:	9d e3 bf 98 	save  %sp, -104, %sp
    3b04:	82 10 20 01 	mov  1, %g1
    3b08:	90 10 00 18 	mov  %i0, %o0
    3b0c:	92 10 00 19 	mov  %i1, %o1
    3b10:	c2 23 a0 5c 	st  %g1, [ %sp + 0x5c ]
    3b14:	94 10 00 1a 	mov  %i2, %o2
    3b18:	96 10 00 1b 	mov  %i3, %o3
    3b1c:	98 10 00 1c 	mov  %i4, %o4
    3b20:	1b 00 00 81 	sethi  %hi(0x20400), %o5
    3b24:	7f ff ff 00 	call  3724 <cvt>
    3b28:	9a 13 63 10 	or  %o5, 0x310, %o5	! 20710 <CVTBUF>
    3b2c:	81 c7 e0 08 	ret 
    3b30:	91 e8 00 08 	restore  %g0, %o0, %o0

00003b34 <ecvtbuf>:
    3b34:	9d e3 bf 98 	save  %sp, -104, %sp
    3b38:	82 10 20 01 	mov  1, %g1
    3b3c:	90 10 00 18 	mov  %i0, %o0
    3b40:	92 10 00 19 	mov  %i1, %o1
    3b44:	c2 23 a0 5c 	st  %g1, [ %sp + 0x5c ]
    3b48:	94 10 00 1a 	mov  %i2, %o2
    3b4c:	96 10 00 1b 	mov  %i3, %o3
    3b50:	98 10 00 1c 	mov  %i4, %o4
    3b54:	7f ff fe f4 	call  3724 <cvt>
    3b58:	9a 10 00 1d 	mov  %i5, %o5
    3b5c:	81 c7 e0 08 	ret 
    3b60:	91 e8 00 08 	restore  %g0, %o0, %o0

00003b64 <fcvt>:
    3b64:	9d e3 bf 98 	save  %sp, -104, %sp
    3b68:	1b 00 00 81 	sethi  %hi(0x20400), %o5
    3b6c:	c0 23 a0 5c 	clr  [ %sp + 0x5c ]
    3b70:	90 10 00 18 	mov  %i0, %o0
    3b74:	92 10 00 19 	mov  %i1, %o1
    3b78:	94 10 00 1a 	mov  %i2, %o2
    3b7c:	96 10 00 1b 	mov  %i3, %o3
    3b80:	98 10 00 1c 	mov  %i4, %o4
    3b84:	7f ff fe e8 	call  3724 <cvt>
    3b88:	9a 13 63 10 	or  %o5, 0x310, %o5
    3b8c:	81 c7 e0 08 	ret 
    3b90:	91 e8 00 08 	restore  %g0, %o0, %o0

00003b94 <fcvtbuf>:
    3b94:	9d e3 bf 98 	save  %sp, -104, %sp
    3b98:	c0 23 a0 5c 	clr  [ %sp + 0x5c ]
    3b9c:	90 10 00 18 	mov  %i0, %o0
    3ba0:	92 10 00 19 	mov  %i1, %o1
    3ba4:	94 10 00 1a 	mov  %i2, %o2
    3ba8:	96 10 00 1b 	mov  %i3, %o3
    3bac:	98 10 00 1c 	mov  %i4, %o4
    3bb0:	7f ff fe dd 	call  3724 <cvt>
    3bb4:	9a 10 00 1d 	mov  %i5, %o5
    3bb8:	81 c7 e0 08 	ret 
    3bbc:	91 e8 00 08 	restore  %g0, %o0, %o0
    3bc0:	00 00 46 18 	unimp  0x4618
    3bc4:	00 00 44 84 	unimp  0x4484
    3bc8:	00 00 44 84 	unimp  0x4484
    3bcc:	00 00 44 84 	unimp  0x4484
    3bd0:	00 00 44 84 	unimp  0x4484
    3bd4:	00 00 44 84 	unimp  0x4484
    3bd8:	00 00 44 84 	unimp  0x4484
    3bdc:	00 00 44 84 	unimp  0x4484
    3be0:	00 00 44 84 	unimp  0x4484
    3be4:	00 00 44 84 	unimp  0x4484
    3be8:	00 00 44 84 	unimp  0x4484
    3bec:	00 00 44 84 	unimp  0x4484
    3bf0:	00 00 44 84 	unimp  0x4484
    3bf4:	00 00 44 84 	unimp  0x4484
    3bf8:	00 00 44 84 	unimp  0x4484
    3bfc:	00 00 44 84 	unimp  0x4484
    3c00:	00 00 44 84 	unimp  0x4484
    3c04:	00 00 44 84 	unimp  0x4484
    3c08:	00 00 44 84 	unimp  0x4484
    3c0c:	00 00 44 84 	unimp  0x4484
    3c10:	00 00 44 84 	unimp  0x4484
    3c14:	00 00 44 84 	unimp  0x4484
    3c18:	00 00 44 84 	unimp  0x4484
    3c1c:	00 00 4a d0 	unimp  0x4ad0
    3c20:	00 00 44 84 	unimp  0x4484
    3c24:	00 00 44 84 	unimp  0x4484
    3c28:	00 00 44 84 	unimp  0x4484
    3c2c:	00 00 44 84 	unimp  0x4484
    3c30:	00 00 44 84 	unimp  0x4484
    3c34:	00 00 44 84 	unimp  0x4484
    3c38:	00 00 44 84 	unimp  0x4484
    3c3c:	00 00 44 84 	unimp  0x4484
    3c40:	00 00 46 1c 	unimp  0x461c
    3c44:	00 00 44 84 	unimp  0x4484
    3c48:	00 00 53 48 	unimp  0x5348
    3c4c:	00 00 53 3c 	unimp  0x533c
    3c50:	00 00 44 84 	unimp  0x4484
    3c54:	00 00 4d fc 	unimp  0x4dfc
    3c58:	00 00 44 84 	unimp  0x4484
    3c5c:	00 00 44 84 	unimp  0x4484
    3c60:	00 00 53 3c 	unimp  0x533c
    3c64:	00 00 44 84 	unimp  0x4484
    3c68:	00 00 44 84 	unimp  0x4484
    3c6c:	00 00 44 84 	unimp  0x4484
    3c70:	00 00 44 84 	unimp  0x4484
    3c74:	00 00 44 84 	unimp  0x4484
    3c78:	00 00 4d f4 	unimp  0x4df4
    3c7c:	00 00 4d c0 	unimp  0x4dc0
    3c80:	00 00 44 84 	unimp  0x4484
    3c84:	00 00 44 84 	unimp  0x4484
    3c88:	00 00 4a fc 	unimp  0x4afc
    3c8c:	00 00 44 84 	unimp  0x4484
    3c90:	00 00 53 34 	unimp  0x5334
    3c94:	00 00 44 84 	unimp  0x4484
    3c98:	00 00 44 84 	unimp  0x4484
    3c9c:	00 00 53 2c 	unimp  0x532c
    3ca0:	00 00 45 60 	unimp  0x4560
    3ca4:	00 00 43 e4 	unimp  0x43e4
    3ca8:	00 00 43 e4 	unimp  0x43e4
    3cac:	00 00 45 54 	unimp  0x4554
    3cb0:	00 00 43 e4 	unimp  0x43e4
    3cb4:	00 00 43 e4 	unimp  0x43e4
    3cb8:	00 00 43 e4 	unimp  0x43e4
    3cbc:	00 00 43 e4 	unimp  0x43e4
    3cc0:	00 00 43 e4 	unimp  0x43e4
    3cc4:	00 00 43 e4 	unimp  0x43e4
    3cc8:	00 00 43 e4 	unimp  0x43e4
    3ccc:	00 00 45 48 	unimp  0x4548
    3cd0:	00 00 43 e4 	unimp  0x43e4
    3cd4:	00 00 45 3c 	unimp  0x453c
    3cd8:	00 00 43 e4 	unimp  0x43e4
    3cdc:	00 00 43 e4 	unimp  0x43e4
    3ce0:	00 00 45 30 	unimp  0x4530

00003ce4 <number>:
    3ce4:	9d e3 bf 58 	save  %sp, -168, %sp
    3ce8:	80 8f 60 40 	btst  0x40, %i5
    3cec:	02 80 01 28 	be  418c <number+0x4a8>
    3cf0:	1f 00 00 80 	sethi  %hi(0x20000), %o7
    3cf4:	03 00 00 80 	sethi  %hi(0x20000), %g1
    3cf8:	9e 10 61 28 	or  %g1, 0x128, %o7	! 20128 <state_known_crc+0x114>
    3cfc:	80 8f 60 10 	btst  0x10, %i5
    3d00:	32 80 00 02 	bne,a   3d08 <number+0x24>
    3d04:	ba 0f 7f fe 	and  %i5, -2, %i5
    3d08:	82 06 bf fe 	add  %i2, -2, %g1
    3d0c:	80 a0 60 22 	cmp  %g1, 0x22
    3d10:	18 80 01 32 	bgu  41d8 <number+0x4f4>
    3d14:	82 0f 60 01 	and  %i5, 1, %g1
    3d18:	80 a0 00 01 	cmp  %g0, %g1
    3d1c:	9a 40 3f ff 	addx  %g0, -1, %o5
    3d20:	94 10 20 00 	clr  %o2
    3d24:	84 0b 60 f0 	and  %o5, 0xf0, %g2
    3d28:	80 8f 60 02 	btst  2, %i5
    3d2c:	02 80 00 0c 	be  3d5c <number+0x78>
    3d30:	9a 00 a0 30 	add  %g2, 0x30, %o5
    3d34:	80 a6 60 00 	cmp  %i1, 0
    3d38:	06 80 01 39 	bl  421c <number+0x538>
    3d3c:	80 8f 60 04 	btst  4, %i5
    3d40:	32 80 01 29 	bne,a   41e4 <number+0x500>
    3d44:	b6 06 ff ff 	add  %i3, -1, %i3
    3d48:	80 8f 60 08 	btst  8, %i5
    3d4c:	02 80 00 05 	be  3d60 <number+0x7c>
    3d50:	92 8f 60 20 	andcc  %i5, 0x20, %o1
    3d54:	b6 06 ff ff 	add  %i3, -1, %i3
    3d58:	94 10 20 20 	mov  0x20, %o2
    3d5c:	92 8f 60 20 	andcc  %i5, 0x20, %o1
    3d60:	02 80 00 08 	be  3d80 <number+0x9c>
    3d64:	80 a6 60 00 	cmp  %i1, 0
    3d68:	80 a6 a0 10 	cmp  %i2, 0x10
    3d6c:	02 80 01 27 	be  4208 <number+0x524>
    3d70:	82 1e a0 08 	xor  %i2, 8, %g1
    3d74:	80 a0 00 01 	cmp  %g0, %g1
    3d78:	b6 46 ff ff 	addx  %i3, -1, %i3
    3d7c:	80 a6 60 00 	cmp  %i1, 0
    3d80:	12 80 01 06 	bne  4198 <number+0x4b4>
    3d84:	82 10 20 00 	clr  %g1
    3d88:	82 10 20 30 	mov  0x30, %g1
    3d8c:	88 07 bf b8 	add  %fp, -72, %g4
    3d90:	c2 2f bf b8 	stb  %g1, [ %fp + -72 ]
    3d94:	82 10 20 01 	mov  1, %g1
    3d98:	80 a0 40 1c 	cmp  %g1, %i4
    3d9c:	16 80 00 03 	bge  3da8 <number+0xc4>
    3da0:	98 10 00 01 	mov  %g1, %o4
    3da4:	98 10 00 1c 	mov  %i4, %o4
    3da8:	80 8f 60 11 	btst  0x11, %i5
    3dac:	12 80 00 39 	bne  3e90 <number+0x1ac>
    3db0:	b6 26 c0 0c 	sub  %i3, %o4, %i3
    3db4:	80 a6 e0 00 	cmp  %i3, 0
    3db8:	04 80 01 25 	ble  424c <number+0x568>
    3dbc:	9e 06 ff ff 	add  %i3, -1, %o7
    3dc0:	b8 20 00 18 	neg  %i0, %i4
    3dc4:	a2 10 00 1b 	mov  %i3, %l1
    3dc8:	84 0f 20 03 	and  %i4, 3, %g2
    3dcc:	80 a6 c0 02 	cmp  %i3, %g2
    3dd0:	08 80 00 03 	bleu  3ddc <number+0xf8>
    3dd4:	b8 10 00 1b 	mov  %i3, %i4
    3dd8:	b8 10 00 02 	mov  %g2, %i4
    3ddc:	80 a6 e0 03 	cmp  %i3, 3
    3de0:	28 80 00 02 	bleu,a   3de8 <number+0x104>
    3de4:	b8 10 00 1b 	mov  %i3, %i4
    3de8:	80 a7 20 00 	cmp  %i4, 0
    3dec:	02 80 00 0c 	be  3e1c <number+0x138>
    3df0:	84 10 00 18 	mov  %i0, %g2
    3df4:	96 10 20 20 	mov  0x20, %o3
    3df8:	d6 28 80 00 	stb  %o3, [ %g2 ]
    3dfc:	84 00 a0 01 	inc  %g2
    3e00:	86 20 80 18 	sub  %g2, %i0, %g3
    3e04:	80 a7 00 03 	cmp  %i4, %g3
    3e08:	18 bf ff fc 	bgu  3df8 <number+0x114>
    3e0c:	9e 03 ff ff 	add  %o7, -1, %o7
    3e10:	80 a6 c0 1c 	cmp  %i3, %i4
    3e14:	22 80 00 1e 	be,a   3e8c <number+0x1a8>
    3e18:	b6 10 3f ff 	mov  -1, %i3
    3e1c:	b6 26 c0 1c 	sub  %i3, %i4, %i3
    3e20:	97 36 e0 02 	srl  %i3, 2, %o3
    3e24:	a1 2a e0 02 	sll  %o3, 2, %l0
    3e28:	80 a4 20 00 	cmp  %l0, 0
    3e2c:	02 80 00 0e 	be  3e64 <number+0x180>
    3e30:	b8 06 00 1c 	add  %i0, %i4, %i4
    3e34:	11 08 08 08 	sethi  %hi(0x20202000), %o0
    3e38:	86 10 20 00 	clr  %g3
    3e3c:	90 12 20 20 	or  %o0, 0x20, %o0
    3e40:	d0 27 00 00 	st  %o0, [ %i4 ]
    3e44:	86 00 e0 01 	inc  %g3
    3e48:	80 a0 c0 0b 	cmp  %g3, %o3
    3e4c:	0a bf ff fd 	bcs  3e40 <number+0x15c>
    3e50:	b8 07 20 04 	add  %i4, 4, %i4
    3e54:	84 00 80 10 	add  %g2, %l0, %g2
    3e58:	80 a6 c0 10 	cmp  %i3, %l0
    3e5c:	02 80 00 0b 	be  3e88 <number+0x1a4>
    3e60:	9e 23 c0 10 	sub  %o7, %l0, %o7
    3e64:	86 10 20 00 	clr  %g3
    3e68:	9e 03 e0 01 	inc  %o7
    3e6c:	b6 10 20 20 	mov  0x20, %i3
    3e70:	f6 28 80 03 	stb  %i3, [ %g2 + %g3 ]
    3e74:	86 00 e0 01 	inc  %g3
    3e78:	b8 23 c0 03 	sub  %o7, %g3, %i4
    3e7c:	80 a7 20 00 	cmp  %i4, 0
    3e80:	34 bf ff fd 	bg,a   3e74 <number+0x190>
    3e84:	f6 28 80 03 	stb  %i3, [ %g2 + %g3 ]
    3e88:	b6 10 3f ff 	mov  -1, %i3
    3e8c:	b0 06 00 11 	add  %i0, %l1, %i0
    3e90:	80 8a a0 ff 	btst  0xff, %o2
    3e94:	02 80 00 04 	be  3ea4 <number+0x1c0>
    3e98:	80 a2 60 00 	cmp  %o1, 0
    3e9c:	d4 2e 00 00 	stb  %o2, [ %i0 ]
    3ea0:	b0 06 20 01 	inc  %i0
    3ea4:	02 80 00 08 	be  3ec4 <number+0x1e0>
    3ea8:	80 8f 60 10 	btst  0x10, %i5
    3eac:	80 a6 a0 08 	cmp  %i2, 8
    3eb0:	02 80 00 d2 	be  41f8 <number+0x514>
    3eb4:	80 a6 a0 10 	cmp  %i2, 0x10
    3eb8:	22 80 00 e0 	be,a   4238 <number+0x554>
    3ebc:	b4 10 20 30 	mov  0x30, %i2
    3ec0:	80 8f 60 10 	btst  0x10, %i5
    3ec4:	12 80 00 3b 	bne  3fb0 <number+0x2cc>
    3ec8:	80 a3 00 01 	cmp  %o4, %g1
    3ecc:	80 a6 e0 00 	cmp  %i3, 0
    3ed0:	04 80 00 e1 	ble  4254 <number+0x570>
    3ed4:	b8 06 ff ff 	add  %i3, -1, %i4
    3ed8:	ba 20 00 18 	neg  %i0, %i5
    3edc:	ba 0f 60 03 	and  %i5, 3, %i5
    3ee0:	80 a7 40 1b 	cmp  %i5, %i3
    3ee4:	38 80 00 02 	bgu,a   3eec <number+0x208>
    3ee8:	ba 10 00 1b 	mov  %i3, %i5
    3eec:	80 a6 e0 03 	cmp  %i3, 3
    3ef0:	28 80 00 02 	bleu,a   3ef8 <number+0x214>
    3ef4:	ba 10 00 1b 	mov  %i3, %i5
    3ef8:	80 a7 60 00 	cmp  %i5, 0
    3efc:	02 80 00 0b 	be  3f28 <number+0x244>
    3f00:	84 10 00 18 	mov  %i0, %g2
    3f04:	da 28 80 00 	stb  %o5, [ %g2 ]
    3f08:	84 00 a0 01 	inc  %g2
    3f0c:	b4 20 80 18 	sub  %g2, %i0, %i2
    3f10:	80 a7 40 1a 	cmp  %i5, %i2
    3f14:	18 bf ff fc 	bgu  3f04 <number+0x220>
    3f18:	b8 07 3f ff 	add  %i4, -1, %i4
    3f1c:	80 a6 c0 1d 	cmp  %i3, %i5
    3f20:	22 80 00 22 	be,a   3fa8 <number+0x2c4>
    3f24:	b0 06 00 1b 	add  %i0, %i3, %i0
    3f28:	94 26 c0 1d 	sub  %i3, %i5, %o2
    3f2c:	b5 32 a0 02 	srl  %o2, 2, %i2
    3f30:	97 2e a0 02 	sll  %i2, 2, %o3
    3f34:	80 a2 e0 00 	cmp  %o3, 0
    3f38:	02 80 00 13 	be  3f84 <number+0x2a0>
    3f3c:	ba 06 00 1d 	add  %i0, %i5, %i5
    3f40:	9e 0b 60 ff 	and  %o5, 0xff, %o7
    3f44:	87 2b e0 10 	sll  %o7, 0x10, %g3
    3f48:	91 2b e0 18 	sll  %o7, 0x18, %o0
    3f4c:	93 2b e0 08 	sll  %o7, 8, %o1
    3f50:	90 12 00 03 	or  %o0, %g3, %o0
    3f54:	92 12 00 09 	or  %o0, %o1, %o1
    3f58:	86 10 20 00 	clr  %g3
    3f5c:	9e 12 40 0f 	or  %o1, %o7, %o7
    3f60:	de 27 40 00 	st  %o7, [ %i5 ]
    3f64:	86 00 e0 01 	inc  %g3
    3f68:	80 a0 c0 1a 	cmp  %g3, %i2
    3f6c:	0a bf ff fd 	bcs  3f60 <number+0x27c>
    3f70:	ba 07 60 04 	add  %i5, 4, %i5
    3f74:	84 00 80 0b 	add  %g2, %o3, %g2
    3f78:	80 a2 80 0b 	cmp  %o2, %o3
    3f7c:	02 80 00 0a 	be  3fa4 <number+0x2c0>
    3f80:	b8 27 00 0b 	sub  %i4, %o3, %i4
    3f84:	86 10 20 00 	clr  %g3
    3f88:	b4 07 20 01 	add  %i4, 1, %i2
    3f8c:	da 28 80 03 	stb  %o5, [ %g2 + %g3 ]
    3f90:	86 00 e0 01 	inc  %g3
    3f94:	ba 26 80 03 	sub  %i2, %g3, %i5
    3f98:	80 a7 60 00 	cmp  %i5, 0
    3f9c:	34 bf ff fd 	bg,a   3f90 <number+0x2ac>
    3fa0:	da 28 80 03 	stb  %o5, [ %g2 + %g3 ]
    3fa4:	b0 06 00 1b 	add  %i0, %i3, %i0
    3fa8:	b6 10 3f ff 	mov  -1, %i3
    3fac:	80 a3 00 01 	cmp  %o4, %g1
    3fb0:	04 80 00 34 	ble  4080 <number+0x39c>
    3fb4:	b8 03 3f ff 	add  %o4, -1, %i4
    3fb8:	9a 23 00 01 	sub  %o4, %g1, %o5
    3fbc:	84 20 00 18 	neg  %i0, %g2
    3fc0:	ba 08 a0 03 	and  %g2, 3, %i5
    3fc4:	80 a7 40 0d 	cmp  %i5, %o5
    3fc8:	38 80 00 02 	bgu,a   3fd0 <number+0x2ec>
    3fcc:	ba 10 00 0d 	mov  %o5, %i5
    3fd0:	80 a3 60 03 	cmp  %o5, 3
    3fd4:	28 80 00 02 	bleu,a   3fdc <number+0x2f8>
    3fd8:	ba 10 00 0d 	mov  %o5, %i5
    3fdc:	80 a7 60 00 	cmp  %i5, 0
    3fe0:	02 80 00 0c 	be  4010 <number+0x32c>
    3fe4:	84 10 00 18 	mov  %i0, %g2
    3fe8:	b4 10 20 30 	mov  0x30, %i2
    3fec:	f4 28 80 00 	stb  %i2, [ %g2 ]
    3ff0:	84 00 a0 01 	inc  %g2
    3ff4:	86 20 80 18 	sub  %g2, %i0, %g3
    3ff8:	80 a7 40 03 	cmp  %i5, %g3
    3ffc:	18 bf ff fc 	bgu  3fec <number+0x308>
    4000:	b8 07 3f ff 	add  %i4, -1, %i4
    4004:	80 a3 40 1d 	cmp  %o5, %i5
    4008:	22 80 00 1e 	be,a   4080 <number+0x39c>
    400c:	b0 06 00 0d 	add  %i0, %o5, %i0
    4010:	96 23 40 1d 	sub  %o5, %i5, %o3
    4014:	b5 32 e0 02 	srl  %o3, 2, %i2
    4018:	99 2e a0 02 	sll  %i2, 2, %o4
    401c:	80 a3 20 00 	cmp  %o4, 0
    4020:	02 80 00 0e 	be  4058 <number+0x374>
    4024:	ba 06 00 1d 	add  %i0, %i5, %i5
    4028:	1f 0c 0c 0c 	sethi  %hi(0x30303000), %o7
    402c:	86 10 20 00 	clr  %g3
    4030:	9e 13 e0 30 	or  %o7, 0x30, %o7
    4034:	de 27 40 00 	st  %o7, [ %i5 ]
    4038:	86 00 e0 01 	inc  %g3
    403c:	80 a6 80 03 	cmp  %i2, %g3
    4040:	18 bf ff fd 	bgu  4034 <number+0x350>
    4044:	ba 07 60 04 	add  %i5, 4, %i5
    4048:	84 00 80 0c 	add  %g2, %o4, %g2
    404c:	80 a2 c0 0c 	cmp  %o3, %o4
    4050:	02 80 00 0b 	be  407c <number+0x398>
    4054:	b8 27 00 0c 	sub  %i4, %o4, %i4
    4058:	86 10 20 00 	clr  %g3
    405c:	b8 07 20 01 	inc  %i4
    4060:	b4 10 20 30 	mov  0x30, %i2
    4064:	f4 28 80 03 	stb  %i2, [ %g2 + %g3 ]
    4068:	86 00 e0 01 	inc  %g3
    406c:	ba 27 00 03 	sub  %i4, %g3, %i5
    4070:	80 a0 40 1d 	cmp  %g1, %i5
    4074:	26 bf ff fd 	bl,a   4068 <number+0x384>
    4078:	f4 28 80 03 	stb  %i2, [ %g2 + %g3 ]
    407c:	b0 06 00 0d 	add  %i0, %o5, %i0
    4080:	82 10 00 19 	mov  %i1, %g1
    4084:	84 10 00 18 	mov  %i0, %g2
    4088:	f8 09 00 01 	ldub  [ %g4 + %g1 ], %i4
    408c:	f8 28 80 00 	stb  %i4, [ %g2 ]
    4090:	82 00 7f ff 	add  %g1, -1, %g1
    4094:	b4 00 60 01 	add  %g1, 1, %i2
    4098:	80 a6 a0 00 	cmp  %i2, 0
    409c:	14 bf ff fb 	bg  4088 <number+0x3a4>
    40a0:	84 00 a0 01 	inc  %g2
    40a4:	82 38 00 19 	xnor  %g0, %i1, %g1
    40a8:	88 06 ff ff 	add  %i3, -1, %g4
    40ac:	83 38 60 1f 	sra  %g1, 0x1f, %g1
    40b0:	80 a6 e0 00 	cmp  %i3, 0
    40b4:	82 0e 40 01 	and  %i1, %g1, %g1
    40b8:	82 00 60 01 	inc  %g1
    40bc:	04 80 00 48 	ble  41dc <number+0x4f8>
    40c0:	b0 06 00 01 	add  %i0, %g1, %i0
    40c4:	b2 20 00 18 	neg  %i0, %i1
    40c8:	86 0e 60 03 	and  %i1, 3, %g3
    40cc:	80 a0 c0 1b 	cmp  %g3, %i3
    40d0:	38 80 00 02 	bgu,a   40d8 <number+0x3f4>
    40d4:	86 10 00 1b 	mov  %i3, %g3
    40d8:	80 a6 e0 03 	cmp  %i3, 3
    40dc:	28 80 00 02 	bleu,a   40e4 <number+0x400>
    40e0:	86 10 00 1b 	mov  %i3, %g3
    40e4:	80 a0 e0 00 	cmp  %g3, 0
    40e8:	02 80 00 0c 	be  4118 <number+0x434>
    40ec:	82 10 00 18 	mov  %i0, %g1
    40f0:	ba 10 20 20 	mov  0x20, %i5
    40f4:	fa 28 40 00 	stb  %i5, [ %g1 ]
    40f8:	82 00 60 01 	inc  %g1
    40fc:	b8 20 40 18 	sub  %g1, %i0, %i4
    4100:	80 a0 c0 1c 	cmp  %g3, %i4
    4104:	18 bf ff fc 	bgu  40f4 <number+0x410>
    4108:	88 01 3f ff 	add  %g4, -1, %g4
    410c:	80 a6 c0 03 	cmp  %i3, %g3
    4110:	02 80 00 1d 	be  4184 <number+0x4a0>
    4114:	01 00 00 00 	nop 
    4118:	b2 26 c0 03 	sub  %i3, %g3, %i1
    411c:	bb 36 60 02 	srl  %i1, 2, %i5
    4120:	b5 2f 60 02 	sll  %i5, 2, %i2
    4124:	80 a6 a0 00 	cmp  %i2, 0
    4128:	02 80 00 0e 	be  4160 <number+0x47c>
    412c:	39 08 08 08 	sethi  %hi(0x20202000), %i4
    4130:	86 06 00 03 	add  %i0, %g3, %g3
    4134:	84 10 20 00 	clr  %g2
    4138:	b8 17 20 20 	or  %i4, 0x20, %i4
    413c:	f8 20 c0 00 	st  %i4, [ %g3 ]
    4140:	84 00 a0 01 	inc  %g2
    4144:	80 a0 80 1d 	cmp  %g2, %i5
    4148:	0a bf ff fd 	bcs  413c <number+0x458>
    414c:	86 00 e0 04 	add  %g3, 4, %g3
    4150:	82 00 40 1a 	add  %g1, %i2, %g1
    4154:	80 a6 40 1a 	cmp  %i1, %i2
    4158:	02 80 00 0b 	be  4184 <number+0x4a0>
    415c:	88 21 00 1a 	sub  %g4, %i2, %g4
    4160:	b4 10 20 00 	clr  %i2
    4164:	b2 01 20 01 	add  %g4, 1, %i1
    4168:	ba 10 20 20 	mov  0x20, %i5
    416c:	fa 28 40 1a 	stb  %i5, [ %g1 + %i2 ]
    4170:	b4 06 a0 01 	inc  %i2
    4174:	b8 26 40 1a 	sub  %i1, %i2, %i4
    4178:	80 a7 20 00 	cmp  %i4, 0
    417c:	34 bf ff fd 	bg,a   4170 <number+0x48c>
    4180:	fa 28 40 1a 	stb  %i5, [ %g1 + %i2 ]
    4184:	81 c7 e0 08 	ret 
    4188:	91 ee 00 1b 	restore  %i0, %i3, %o0
    418c:	10 bf fe dc 	b  3cfc <number+0x18>
    4190:	9e 13 e1 00 	or  %o7, 0x100, %o7
    4194:	82 10 20 00 	clr  %g1
    4198:	88 07 bf b8 	add  %fp, -72, %g4
    419c:	81 80 20 00 	mov  %g0, %y
    41a0:	01 00 00 00 	nop 
    41a4:	01 00 00 00 	nop 
    41a8:	01 00 00 00 	nop 
    41ac:	84 76 40 1a 	udiv  %i1, %i2, %g2
    41b0:	86 58 80 1a 	smul  %g2, %i2, %g3
    41b4:	b2 26 40 03 	sub  %i1, %g3, %i1
    41b8:	c6 0b c0 19 	ldub  [ %o7 + %i1 ], %g3
    41bc:	c6 29 00 01 	stb  %g3, [ %g4 + %g1 ]
    41c0:	b2 10 00 02 	mov  %g2, %i1
    41c4:	80 a0 a0 00 	cmp  %g2, 0
    41c8:	12 bf ff f5 	bne  419c <number+0x4b8>
    41cc:	82 00 60 01 	inc  %g1
    41d0:	10 bf fe f2 	b  3d98 <number+0xb4>
    41d4:	b2 00 7f ff 	add  %g1, -1, %i1
    41d8:	b0 10 20 00 	clr  %i0
    41dc:	81 c7 e0 08 	ret 
    41e0:	81 e8 00 00 	restore 
    41e4:	92 8f 60 20 	andcc  %i5, 0x20, %o1
    41e8:	02 bf fe e5 	be  3d7c <number+0x98>
    41ec:	94 10 20 2b 	mov  0x2b, %o2
    41f0:	10 bf fe df 	b  3d6c <number+0x88>
    41f4:	80 a6 a0 10 	cmp  %i2, 0x10
    41f8:	86 10 20 30 	mov  0x30, %g3
    41fc:	c6 2e 00 00 	stb  %g3, [ %i0 ]
    4200:	10 bf ff 30 	b  3ec0 <number+0x1dc>
    4204:	b0 06 20 01 	inc  %i0
    4208:	80 a6 60 00 	cmp  %i1, 0
    420c:	12 bf ff e2 	bne  4194 <number+0x4b0>
    4210:	b6 06 ff fe 	add  %i3, -2, %i3
    4214:	10 bf fe de 	b  3d8c <number+0xa8>
    4218:	82 10 20 30 	mov  0x30, %g1
    421c:	b2 20 00 19 	neg  %i1
    4220:	b6 06 ff ff 	add  %i3, -1, %i3
    4224:	92 8f 60 20 	andcc  %i5, 0x20, %o1
    4228:	02 bf fe d5 	be  3d7c <number+0x98>
    422c:	94 10 20 2d 	mov  0x2d, %o2
    4230:	10 bf fe cf 	b  3d6c <number+0x88>
    4234:	80 a6 a0 10 	cmp  %i2, 0x10
    4238:	84 10 20 78 	mov  0x78, %g2
    423c:	f4 2e 00 00 	stb  %i2, [ %i0 ]
    4240:	c4 2e 20 01 	stb  %g2, [ %i0 + 1 ]
    4244:	10 bf ff 1f 	b  3ec0 <number+0x1dc>
    4248:	b0 06 20 02 	add  %i0, 2, %i0
    424c:	10 bf ff 11 	b  3e90 <number+0x1ac>
    4250:	b6 10 00 0f 	mov  %o7, %i3
    4254:	10 bf ff 56 	b  3fac <number+0x2c8>
    4258:	b6 10 00 1c 	mov  %i4, %i3

0000425c <memcpy>:
    425c:	80 a2 a0 00 	cmp  %o2, 0
    4260:	04 80 00 28 	ble  4300 <memcpy+0xa4>
    4264:	82 02 60 04 	add  %o1, 4, %g1
    4268:	80 a2 00 01 	cmp  %o0, %g1
    426c:	82 02 20 04 	add  %o0, 4, %g1
    4270:	88 60 3f ff 	subx  %g0, -1, %g4
    4274:	80 a2 40 01 	cmp  %o1, %g1
    4278:	84 60 3f ff 	subx  %g0, -1, %g2
    427c:	9b 32 a0 02 	srl  %o2, 2, %o5
    4280:	88 11 00 02 	or  %g4, %g2, %g4
    4284:	83 2b 60 02 	sll  %o5, 2, %g1
    4288:	80 a2 a0 03 	cmp  %o2, 3
    428c:	08 80 00 1f 	bleu  4308 <memcpy+0xac>
    4290:	84 10 20 01 	mov  1, %g2
    4294:	86 12 40 08 	or  %o1, %o0, %g3
    4298:	86 08 e0 03 	and  %g3, 3, %g3
    429c:	80 a0 00 03 	cmp  %g0, %g3
    42a0:	88 09 00 02 	and  %g4, %g2, %g4
    42a4:	84 60 3f ff 	subx  %g0, -1, %g2
    42a8:	80 89 00 02 	btst  %g4, %g2
    42ac:	02 80 00 1b 	be  4318 <memcpy+0xbc>
    42b0:	80 a0 60 00 	cmp  %g1, 0
    42b4:	22 80 00 0d 	be,a   42e8 <memcpy+0x8c>
    42b8:	82 10 20 00 	clr  %g1
    42bc:	84 10 20 00 	clr  %g2
    42c0:	86 10 20 00 	clr  %g3
    42c4:	c8 02 40 02 	ld  [ %o1 + %g2 ], %g4
    42c8:	c8 22 00 02 	st  %g4, [ %o0 + %g2 ]
    42cc:	86 00 e0 01 	inc  %g3
    42d0:	80 a3 40 03 	cmp  %o5, %g3
    42d4:	18 bf ff fc 	bgu  42c4 <memcpy+0x68>
    42d8:	84 00 a0 04 	add  %g2, 4, %g2
    42dc:	80 a2 80 01 	cmp  %o2, %g1
    42e0:	02 80 00 0c 	be  4310 <memcpy+0xb4>
    42e4:	01 00 00 00 	nop 
    42e8:	da 0a 40 01 	ldub  [ %o1 + %g1 ], %o5
    42ec:	da 2a 00 01 	stb  %o5, [ %o0 + %g1 ]
    42f0:	82 00 60 01 	inc  %g1
    42f4:	80 a2 80 01 	cmp  %o2, %g1
    42f8:	34 bf ff fd 	bg,a   42ec <memcpy+0x90>
    42fc:	da 0a 40 01 	ldub  [ %o1 + %g1 ], %o5
    4300:	81 c3 e0 08 	retl 
    4304:	01 00 00 00 	nop 
    4308:	10 bf ff e3 	b  4294 <memcpy+0x38>
    430c:	84 10 20 00 	clr  %g2	! 0 <_start>
    4310:	81 c3 e0 08 	retl 
    4314:	01 00 00 00 	nop 
    4318:	10 bf ff f4 	b  42e8 <memcpy+0x8c>
    431c:	82 10 20 00 	clr  %g1	! 0 <_start>

00004320 <uart_send_char>:
    4320:	9d e3 bf a0 	save  %sp, -96, %sp
    4324:	40 00 0a ba 	call  6e0c <__ajit_serial_putchar__>
    4328:	90 10 00 18 	mov  %i0, %o0
    432c:	80 a2 20 00 	cmp  %o0, 0
    4330:	02 bf ff fd 	be  4324 <uart_send_char+0x4>
    4334:	01 00 00 00 	nop 
    4338:	81 c7 e0 08 	ret 
    433c:	81 e8 00 00 	restore 

00004340 <ee_printf>:
    4340:	9d e3 bd d8 	save  %sp, -552, %sp
    4344:	f6 27 a0 50 	st  %i3, [ %fp + 0x50 ]
    4348:	fa 27 a0 58 	st  %i5, [ %fp + 0x58 ]
    434c:	a4 07 a0 48 	add  %fp, 0x48, %l2
    4350:	f2 27 a0 48 	st  %i1, [ %fp + 0x48 ]
    4354:	f4 27 a0 4c 	st  %i2, [ %fp + 0x4c ]
    4358:	f8 27 a0 54 	st  %i4, [ %fp + 0x54 ]
    435c:	e4 27 be 4c 	st  %l2, [ %fp + -436 ]
    4360:	d8 0e 00 00 	ldub  [ %i0 ], %o4
    4364:	b6 07 bf 00 	add  %fp, -256, %i3
    4368:	83 2b 20 18 	sll  %o4, 0x18, %g1
    436c:	80 a0 60 00 	cmp  %g1, 0
    4370:	02 80 00 58 	be  44d0 <ee_printf+0x190>
    4374:	ba 10 00 1b 	mov  %i3, %i5
    4378:	23 08 08 08 	sethi  %hi(0x20202000), %l1
    437c:	21 3f c0 3f 	sethi  %hi(0xff00fc00), %l0
    4380:	33 3f ff c0 	sethi  %hi(0xffff0000), %i1
    4384:	35 0c 0c 0c 	sethi  %hi(0x30303000), %i2
    4388:	a2 14 60 20 	or  %l1, 0x20, %l1
    438c:	a0 14 23 ff 	or  %l0, 0x3ff, %l0
    4390:	b2 16 60 ff 	or  %i1, 0xff, %i1
    4394:	10 80 00 08 	b  43b4 <ee_printf+0x74>
    4398:	b4 16 a0 30 	or  %i2, 0x30, %i2
    439c:	ba 07 60 01 	inc  %i5
    43a0:	d8 0e 20 01 	ldub  [ %i0 + 1 ], %o4
    43a4:	83 2b 20 18 	sll  %o4, 0x18, %g1
    43a8:	80 a0 60 00 	cmp  %g1, 0
    43ac:	02 80 00 49 	be  44d0 <ee_printf+0x190>
    43b0:	b0 06 20 01 	inc  %i0
    43b4:	83 38 60 18 	sra  %g1, 0x18, %g1
    43b8:	80 a0 60 25 	cmp  %g1, 0x25
    43bc:	32 bf ff f8 	bne,a   439c <ee_printf+0x5c>
    43c0:	d8 2f 40 00 	stb  %o4, [ %i5 ]
    43c4:	9a 10 20 00 	clr  %o5
    43c8:	39 00 00 0f 	sethi  %hi(0x3c00), %i4
    43cc:	c2 0e 20 01 	ldub  [ %i0 + 1 ], %g1
    43d0:	86 00 7f e0 	add  %g1, -32, %g3
    43d4:	90 08 e0 ff 	and  %g3, 0xff, %o0
    43d8:	80 a2 20 10 	cmp  %o0, 0x10
    43dc:	08 80 00 50 	bleu  451c <ee_printf+0x1dc>
    43e0:	84 06 20 01 	add  %i0, 1, %g2
    43e4:	96 00 7f d0 	add  %g1, -48, %o3
    43e8:	98 0a e0 ff 	and  %o3, 0xff, %o4
    43ec:	80 a3 20 09 	cmp  %o4, 9
    43f0:	18 80 00 5f 	bgu  456c <ee_printf+0x22c>
    43f4:	9f 28 60 18 	sll  %g1, 0x18, %o7
    43f8:	b8 10 20 00 	clr  %i4
    43fc:	83 28 60 18 	sll  %g1, 0x18, %g1
    4400:	83 38 60 18 	sra  %g1, 0x18, %g1
    4404:	a8 07 00 1c 	add  %i4, %i4, %l4
    4408:	ab 2f 20 03 	sll  %i4, 3, %l5
    440c:	84 00 a0 01 	inc  %g2
    4410:	ac 05 00 15 	add  %l4, %l5, %l6
    4414:	b0 05 80 01 	add  %l6, %g1, %i0
    4418:	c2 08 80 00 	ldub  [ %g2 ], %g1
    441c:	86 00 7f d0 	add  %g1, -48, %g3
    4420:	90 08 e0 ff 	and  %g3, 0xff, %o0
    4424:	80 a2 20 09 	cmp  %o0, 9
    4428:	08 bf ff f5 	bleu  43fc <ee_printf+0xbc>
    442c:	b8 06 3f d0 	add  %i0, -48, %i4
    4430:	9f 28 60 18 	sll  %g1, 0x18, %o7
    4434:	b0 10 00 02 	mov  %g2, %i0
    4438:	89 3b e0 18 	sra  %o7, 0x18, %g4
    443c:	80 a1 20 2e 	cmp  %g4, 0x2e
    4440:	02 80 00 54 	be  4590 <ee_printf+0x250>
    4444:	a6 10 3f ff 	mov  -1, %l3
    4448:	90 08 7f df 	and  %g1, -33, %o0
    444c:	89 2a 20 18 	sll  %o0, 0x18, %g4
    4450:	93 39 20 18 	sra  %g4, 0x18, %o1
    4454:	80 a2 60 4c 	cmp  %o1, 0x4c
    4458:	12 80 00 06 	bne  4470 <ee_printf+0x130>
    445c:	96 10 3f ff 	mov  -1, %o3
    4460:	87 28 60 18 	sll  %g1, 0x18, %g3
    4464:	c2 0e 20 01 	ldub  [ %i0 + 1 ], %g1
    4468:	97 38 e0 18 	sra  %g3, 0x18, %o3
    446c:	b0 06 20 01 	inc  %i0
    4470:	94 00 7f bf 	add  %g1, -65, %o2
    4474:	98 0a a0 ff 	and  %o2, 0xff, %o4
    4478:	80 a3 20 37 	cmp  %o4, 0x37
    447c:	08 80 00 5b 	bleu  45e8 <ee_printf+0x2a8>
    4480:	9f 2b 20 02 	sll  %o4, 2, %o7
    4484:	b9 28 60 18 	sll  %g1, 0x18, %i4
    4488:	85 3f 20 18 	sra  %i4, 0x18, %g2
    448c:	80 a0 a0 25 	cmp  %g2, 0x25
    4490:	22 80 00 0a 	be,a   44b8 <ee_printf+0x178>
    4494:	c2 2f 40 00 	stb  %g1, [ %i5 ]
    4498:	82 10 20 25 	mov  0x25, %g1
    449c:	c2 2f 40 00 	stb  %g1, [ %i5 ]
    44a0:	ba 07 60 01 	inc  %i5
    44a4:	c8 4e 00 00 	ldsb  [ %i0 ], %g4
    44a8:	80 a1 20 00 	cmp  %g4, 0
    44ac:	02 80 00 09 	be  44d0 <ee_printf+0x190>
    44b0:	c2 0e 00 00 	ldub  [ %i0 ], %g1
    44b4:	c2 2f 40 00 	stb  %g1, [ %i5 ]
    44b8:	ba 07 60 01 	inc  %i5
    44bc:	d8 0e 20 01 	ldub  [ %i0 + 1 ], %o4
    44c0:	83 2b 20 18 	sll  %o4, 0x18, %g1
    44c4:	80 a0 60 00 	cmp  %g1, 0
    44c8:	12 bf ff bb 	bne  43b4 <ee_printf+0x74>
    44cc:	b0 06 20 01 	inc  %i0
    44d0:	c0 2f 40 00 	clrb  [ %i5 ]
    44d4:	f0 0f bf 00 	ldub  [ %fp + -256 ], %i0
    44d8:	a3 2e 20 18 	sll  %i0, 0x18, %l1
    44dc:	80 a4 60 00 	cmp  %l1, 0
    44e0:	02 80 00 0d 	be  4514 <ee_printf+0x1d4>
    44e4:	b0 10 20 00 	clr  %i0
    44e8:	40 00 0a 49 	call  6e0c <__ajit_serial_putchar__>
    44ec:	91 3c 60 18 	sra  %l1, 0x18, %o0
    44f0:	80 a2 20 00 	cmp  %o0, 0
    44f4:	02 bf ff fd 	be  44e8 <ee_printf+0x1a8>
    44f8:	01 00 00 00 	nop 
    44fc:	b0 06 20 01 	inc  %i0
    4500:	e0 0e c0 18 	ldub  [ %i3 + %i0 ], %l0
    4504:	a3 2c 20 18 	sll  %l0, 0x18, %l1
    4508:	80 a4 60 00 	cmp  %l1, 0
    450c:	12 bf ff f7 	bne  44e8 <ee_printf+0x1a8>
    4510:	01 00 00 00 	nop 
    4514:	81 c7 e0 08 	ret 
    4518:	81 e8 00 00 	restore 
    451c:	88 17 20 a0 	or  %i4, 0xa0, %g4
    4520:	93 2a 20 02 	sll  %o0, 2, %o1
    4524:	d4 01 00 09 	ld  [ %g4 + %o1 ], %o2
    4528:	81 c2 80 00 	jmp  %o2
    452c:	01 00 00 00 	nop 
    4530:	9a 13 60 01 	or  %o5, 1, %o5
    4534:	10 bf ff a6 	b  43cc <ee_printf+0x8c>
    4538:	b0 10 00 02 	mov  %g2, %i0
    453c:	9a 13 60 10 	or  %o5, 0x10, %o5
    4540:	10 bf ff a3 	b  43cc <ee_printf+0x8c>
    4544:	b0 10 00 02 	mov  %g2, %i0
    4548:	9a 13 60 04 	or  %o5, 4, %o5
    454c:	10 bf ff a0 	b  43cc <ee_printf+0x8c>
    4550:	b0 10 00 02 	mov  %g2, %i0
    4554:	9a 13 60 20 	or  %o5, 0x20, %o5
    4558:	10 bf ff 9d 	b  43cc <ee_printf+0x8c>
    455c:	b0 10 00 02 	mov  %g2, %i0
    4560:	9a 13 60 08 	or  %o5, 8, %o5
    4564:	10 bf ff 9a 	b  43cc <ee_printf+0x8c>
    4568:	b0 10 00 02 	mov  %g2, %i0
    456c:	a7 3b e0 18 	sra  %o7, 0x18, %l3
    4570:	80 a4 e0 2a 	cmp  %l3, 0x2a
    4574:	02 80 03 af 	be  5430 <ee_printf+0x10f0>
    4578:	89 3b e0 18 	sra  %o7, 0x18, %g4
    457c:	b0 10 00 02 	mov  %g2, %i0
    4580:	b8 10 3f ff 	mov  -1, %i4
    4584:	80 a1 20 2e 	cmp  %g4, 0x2e
    4588:	12 bf ff b0 	bne  4448 <ee_printf+0x108>
    458c:	a6 10 3f ff 	mov  -1, %l3
    4590:	c2 0e 20 01 	ldub  [ %i0 + 1 ], %g1
    4594:	92 00 7f d0 	add  %g1, -48, %o1
    4598:	94 0a 60 ff 	and  %o1, 0xff, %o2
    459c:	80 a2 a0 09 	cmp  %o2, 9
    45a0:	18 80 00 17 	bgu  45fc <ee_printf+0x2bc>
    45a4:	9e 06 20 01 	add  %i0, 1, %o7
    45a8:	a6 10 20 00 	clr  %l3
    45ac:	84 04 c0 13 	add  %l3, %l3, %g2
    45b0:	83 28 60 18 	sll  %g1, 0x18, %g1
    45b4:	a7 2c e0 03 	sll  %l3, 3, %l3
    45b8:	83 38 60 18 	sra  %g1, 0x18, %g1
    45bc:	a8 00 80 13 	add  %g2, %l3, %l4
    45c0:	9e 03 e0 01 	inc  %o7
    45c4:	aa 05 00 01 	add  %l4, %g1, %l5
    45c8:	c2 0b c0 00 	ldub  [ %o7 ], %g1
    45cc:	ac 00 7f d0 	add  %g1, -48, %l6
    45d0:	b0 0d a0 ff 	and  %l6, 0xff, %i0
    45d4:	80 a6 20 09 	cmp  %i0, 9
    45d8:	08 bf ff f5 	bleu  45ac <ee_printf+0x26c>
    45dc:	a6 05 7f d0 	add  %l5, -48, %l3
    45e0:	10 bf ff 9a 	b  4448 <ee_printf+0x108>
    45e4:	b0 10 00 0f 	mov  %o7, %i0
    45e8:	05 00 00 0e 	sethi  %hi(0x3800), %g2
    45ec:	a8 10 a3 c0 	or  %g2, 0x3c0, %l4	! 3bc0 <fcvtbuf+0x2c>
    45f0:	ea 05 00 0f 	ld  [ %l4 + %o7 ], %l5
    45f4:	81 c5 40 00 	jmp  %l5
    45f8:	01 00 00 00 	nop 
    45fc:	97 28 60 18 	sll  %g1, 0x18, %o3
    4600:	99 3a e0 18 	sra  %o3, 0x18, %o4
    4604:	80 a3 20 2a 	cmp  %o4, 0x2a
    4608:	02 80 04 b5 	be  58dc <ee_printf+0x159c>
    460c:	a6 10 20 00 	clr  %l3
    4610:	10 bf ff 8e 	b  4448 <ee_printf+0x108>
    4614:	b0 10 00 0f 	mov  %o7, %i0
    4618:	9a 13 60 40 	or  %o5, 0x40, %o5
    461c:	80 a2 e0 6c 	cmp  %o3, 0x6c
    4620:	02 80 03 ed 	be  55d4 <ee_printf+0x1294>
    4624:	c4 04 80 00 	ld  [ %l2 ], %g2
    4628:	c6 08 80 00 	ldub  [ %g2 ], %g3
    462c:	80 a0 e0 00 	cmp  %g3, 0
    4630:	02 80 03 89 	be  5454 <ee_printf+0x1114>
    4634:	a4 04 a0 04 	add  %l2, 4, %l2
    4638:	80 a0 e0 63 	cmp  %g3, 0x63
    463c:	04 80 04 c0 	ble  593c <ee_printf+0x15fc>
    4640:	80 a0 e0 09 	cmp  %g3, 9
    4644:	97 38 e0 1f 	sra  %g3, 0x1f, %o3
    4648:	81 82 e0 00 	mov  %o3, %y
    464c:	01 00 00 00 	nop 
    4650:	01 00 00 00 	nop 
    4654:	01 00 00 00 	nop 
    4658:	94 78 e0 64 	sdiv  %g3, 0x64, %o2
    465c:	9e 5a a0 64 	smul  %o2, 0x64, %o7
    4660:	86 20 c0 0f 	sub  %g3, %o7, %g3
    4664:	99 38 e0 1f 	sra  %g3, 0x1f, %o4
    4668:	81 83 20 00 	mov  %o4, %y
    466c:	01 00 00 00 	nop 
    4670:	01 00 00 00 	nop 
    4674:	01 00 00 00 	nop 
    4678:	ac 78 e0 0a 	sdiv  %g3, 0xa, %l6
    467c:	03 00 00 80 	sethi  %hi(0x20000), %g1
    4680:	90 05 80 16 	add  %l6, %l6, %o0
    4684:	82 10 61 00 	or  %g1, 0x100, %g1
    4688:	89 2d a0 03 	sll  %l6, 3, %g4
    468c:	d2 08 40 16 	ldub  [ %g1 + %l6 ], %o1
    4690:	ea 08 40 0a 	ldub  [ %g1 + %o2 ], %l5
    4694:	a6 02 00 04 	add  %o0, %g4, %l3
    4698:	ea 2f be b0 	stb  %l5, [ %fp + -336 ]
    469c:	d2 2f be b1 	stb  %o1, [ %fp + -335 ]
    46a0:	ac 10 20 04 	mov  4, %l6
    46a4:	86 20 c0 13 	sub  %g3, %l3, %g3
    46a8:	9e 10 20 03 	mov  3, %o7
    46ac:	98 10 20 02 	mov  2, %o4
    46b0:	c2 08 40 03 	ldub  [ %g1 + %g3 ], %g1
    46b4:	a8 07 80 0c 	add  %fp, %o4, %l4
    46b8:	c2 2d 3e b0 	stb  %g1, [ %l4 + -336 ]
    46bc:	aa 07 80 0f 	add  %fp, %o7, %l5
    46c0:	82 10 20 2e 	mov  0x2e, %g1
    46c4:	c2 2d 7e b0 	stb  %g1, [ %l5 + -336 ]
    46c8:	c6 08 a0 01 	ldub  [ %g2 + 1 ], %g3
    46cc:	80 a0 e0 00 	cmp  %g3, 0
    46d0:	02 80 03 6c 	be  5480 <ee_printf+0x1140>
    46d4:	82 07 80 16 	add  %fp, %l6, %g1
    46d8:	80 a0 e0 63 	cmp  %g3, 0x63
    46dc:	04 80 04 8e 	ble  5914 <ee_printf+0x15d4>
    46e0:	80 a0 e0 09 	cmp  %g3, 9
    46e4:	83 38 e0 1f 	sra  %g3, 0x1f, %g1
    46e8:	81 80 60 00 	mov  %g1, %y
    46ec:	01 00 00 00 	nop 
    46f0:	01 00 00 00 	nop 
    46f4:	01 00 00 00 	nop 
    46f8:	98 78 e0 64 	sdiv  %g3, 0x64, %o4
    46fc:	88 07 80 16 	add  %fp, %l6, %g4
    4700:	96 5b 20 64 	smul  %o4, 0x64, %o3
    4704:	03 00 00 80 	sethi  %hi(0x20000), %g1
    4708:	82 10 61 00 	or  %g1, 0x100, %g1	! 20100 <state_known_crc+0xec>
    470c:	e8 08 40 0c 	ldub  [ %g1 + %o4 ], %l4
    4710:	e8 29 3e b0 	stb  %l4, [ %g4 + -336 ]
    4714:	86 20 c0 0b 	sub  %g3, %o3, %g3
    4718:	ac 03 e0 03 	add  %o7, 3, %l6
    471c:	97 38 e0 1f 	sra  %g3, 0x1f, %o3
    4720:	81 82 e0 00 	mov  %o3, %y
    4724:	01 00 00 00 	nop 
    4728:	01 00 00 00 	nop 
    472c:	01 00 00 00 	nop 
    4730:	9e 78 e0 0a 	sdiv  %g3, 0xa, %o7
    4734:	d2 08 40 0f 	ldub  [ %g1 + %o7 ], %o1
    4738:	94 03 c0 0f 	add  %o7, %o7, %o2
    473c:	91 2b e0 03 	sll  %o7, 3, %o0
    4740:	d2 2d 7e b2 	stb  %o1, [ %l5 + -334 ]
    4744:	aa 02 80 08 	add  %o2, %o0, %l5
    4748:	86 20 c0 15 	sub  %g3, %l5, %g3
    474c:	c2 08 40 03 	ldub  [ %g1 + %g3 ], %g1
    4750:	a6 07 80 16 	add  %fp, %l6, %l3
    4754:	c2 2c fe b0 	stb  %g1, [ %l3 + -336 ]
    4758:	88 05 a0 01 	add  %l6, 1, %g4
    475c:	82 10 20 2e 	mov  0x2e, %g1
    4760:	a8 07 80 04 	add  %fp, %g4, %l4
    4764:	c2 2d 3e b0 	stb  %g1, [ %l4 + -336 ]
    4768:	c6 08 a0 02 	ldub  [ %g2 + 2 ], %g3
    476c:	80 a0 e0 00 	cmp  %g3, 0
    4770:	02 80 03 4e 	be  54a8 <ee_printf+0x1168>
    4774:	ac 01 20 01 	add  %g4, 1, %l6
    4778:	80 a0 e0 63 	cmp  %g3, 0x63
    477c:	04 80 04 61 	ble  5900 <ee_printf+0x15c0>
    4780:	80 a0 e0 09 	cmp  %g3, 9
    4784:	83 38 e0 1f 	sra  %g3, 0x1f, %g1
    4788:	81 80 60 00 	mov  %g1, %y
    478c:	01 00 00 00 	nop 
    4790:	01 00 00 00 	nop 
    4794:	01 00 00 00 	nop 
    4798:	aa 78 e0 64 	sdiv  %g3, 0x64, %l5
    479c:	a6 07 80 16 	add  %fp, %l6, %l3
    47a0:	96 5d 60 64 	smul  %l5, 0x64, %o3
    47a4:	03 00 00 80 	sethi  %hi(0x20000), %g1
    47a8:	82 10 61 00 	or  %g1, 0x100, %g1	! 20100 <state_known_crc+0xec>
    47ac:	d8 08 40 15 	ldub  [ %g1 + %l5 ], %o4
    47b0:	d8 2c fe b0 	stb  %o4, [ %l3 + -336 ]
    47b4:	86 20 c0 0b 	sub  %g3, %o3, %g3
    47b8:	ac 01 20 03 	add  %g4, 3, %l6
    47bc:	97 38 e0 1f 	sra  %g3, 0x1f, %o3
    47c0:	81 82 e0 00 	mov  %o3, %y
    47c4:	01 00 00 00 	nop 
    47c8:	01 00 00 00 	nop 
    47cc:	01 00 00 00 	nop 
    47d0:	88 78 e0 0a 	sdiv  %g3, 0xa, %g4
    47d4:	de 08 40 04 	ldub  [ %g1 + %g4 ], %o7
    47d8:	92 01 00 04 	add  %g4, %g4, %o1
    47dc:	95 29 20 03 	sll  %g4, 3, %o2
    47e0:	de 2d 3e b2 	stb  %o7, [ %l4 + -334 ]
    47e4:	a8 02 40 0a 	add  %o1, %o2, %l4
    47e8:	86 20 c0 14 	sub  %g3, %l4, %g3
    47ec:	90 07 80 16 	add  %fp, %l6, %o0
    47f0:	c2 08 40 03 	ldub  [ %g1 + %g3 ], %g1
    47f4:	c2 2a 3e b0 	stb  %g1, [ %o0 + -336 ]
    47f8:	a6 05 a0 01 	add  %l6, 1, %l3
    47fc:	82 10 20 2e 	mov  0x2e, %g1
    4800:	ac 07 80 13 	add  %fp, %l3, %l6
    4804:	c2 2d be b0 	stb  %g1, [ %l6 + -336 ]
    4808:	c4 08 a0 03 	ldub  [ %g2 + 3 ], %g2
    480c:	80 a0 a0 00 	cmp  %g2, 0
    4810:	02 80 03 31 	be  54d4 <ee_printf+0x1194>
    4814:	98 04 e0 01 	add  %l3, 1, %o4
    4818:	80 a0 a0 63 	cmp  %g2, 0x63
    481c:	04 80 04 43 	ble  5928 <ee_printf+0x15e8>
    4820:	80 a0 a0 09 	cmp  %g2, 9
    4824:	83 38 a0 1f 	sra  %g2, 0x1f, %g1
    4828:	81 80 60 00 	mov  %g1, %y
    482c:	01 00 00 00 	nop 
    4830:	01 00 00 00 	nop 
    4834:	01 00 00 00 	nop 
    4838:	a8 78 a0 64 	sdiv  %g2, 0x64, %l4
    483c:	86 07 80 0c 	add  %fp, %o4, %g3
    4840:	03 00 00 80 	sethi  %hi(0x20000), %g1
    4844:	82 10 61 00 	or  %g1, 0x100, %g1	! 20100 <state_known_crc+0xec>
    4848:	d0 08 40 14 	ldub  [ %g1 + %l4 ], %o0
    484c:	d0 28 fe b0 	stb  %o0, [ %g3 + -336 ]
    4850:	aa 5d 20 64 	smul  %l4, 0x64, %l5
    4854:	98 04 e0 03 	add  %l3, 3, %o4
    4858:	84 20 80 15 	sub  %g2, %l5, %g2
    485c:	97 38 a0 1f 	sra  %g2, 0x1f, %o3
    4860:	81 82 e0 00 	mov  %o3, %y
    4864:	01 00 00 00 	nop 
    4868:	01 00 00 00 	nop 
    486c:	01 00 00 00 	nop 
    4870:	a6 78 a0 0a 	sdiv  %g2, 0xa, %l3
    4874:	c8 08 40 13 	ldub  [ %g1 + %l3 ], %g4
    4878:	92 04 c0 13 	add  %l3, %l3, %o1
    487c:	97 2c e0 03 	sll  %l3, 3, %o3
    4880:	c8 2d be b2 	stb  %g4, [ %l6 + -334 ]
    4884:	ac 02 40 0b 	add  %o1, %o3, %l6
    4888:	84 20 80 16 	sub  %g2, %l6, %g2
    488c:	9e 07 80 0c 	add  %fp, %o4, %o7
    4890:	c2 08 40 02 	ldub  [ %g1 + %g2 ], %g1
    4894:	94 03 20 01 	add  %o4, 1, %o2
    4898:	c2 2b fe b0 	stb  %g1, [ %o7 + -336 ]
    489c:	80 8b 60 10 	btst  0x10, %o5
    48a0:	12 80 00 39 	bne  4984 <ee_printf+0x644>
    48a4:	90 92 a0 00 	orcc  %o2, 0, %o0
    48a8:	80 a7 00 0a 	cmp  %i4, %o2
    48ac:	04 80 04 f4 	ble  5c7c <ee_printf+0x193c>
    48b0:	88 07 3f ff 	add  %i4, -1, %g4
    48b4:	b8 27 00 0a 	sub  %i4, %o2, %i4
    48b8:	82 20 00 1d 	neg  %i5, %g1
    48bc:	82 08 60 03 	and  %g1, 3, %g1
    48c0:	80 a7 00 01 	cmp  %i4, %g1
    48c4:	08 80 00 03 	bleu  48d0 <ee_printf+0x590>
    48c8:	86 10 00 1c 	mov  %i4, %g3
    48cc:	86 10 00 01 	mov  %g1, %g3
    48d0:	80 a7 20 03 	cmp  %i4, 3
    48d4:	28 80 00 02 	bleu,a   48dc <ee_printf+0x59c>
    48d8:	86 10 00 1c 	mov  %i4, %g3
    48dc:	80 a0 e0 00 	cmp  %g3, 0
    48e0:	02 80 00 0c 	be  4910 <ee_printf+0x5d0>
    48e4:	82 10 00 1d 	mov  %i5, %g1
    48e8:	9a 10 20 20 	mov  0x20, %o5
    48ec:	da 28 40 00 	stb  %o5, [ %g1 ]
    48f0:	82 00 60 01 	inc  %g1
    48f4:	90 20 40 1d 	sub  %g1, %i5, %o0
    48f8:	80 a0 c0 08 	cmp  %g3, %o0
    48fc:	18 bf ff fc 	bgu  48ec <ee_printf+0x5ac>
    4900:	88 01 3f ff 	add  %g4, -1, %g4
    4904:	80 a7 00 03 	cmp  %i4, %g3
    4908:	22 80 00 1d 	be,a   497c <ee_printf+0x63c>
    490c:	ba 07 40 1c 	add  %i5, %i4, %i5
    4910:	aa 27 00 03 	sub  %i4, %g3, %l5
    4914:	99 35 60 02 	srl  %l5, 2, %o4
    4918:	a7 2b 20 02 	sll  %o4, 2, %l3
    491c:	80 a4 e0 00 	cmp  %l3, 0
    4920:	02 80 00 0e 	be  4958 <ee_printf+0x618>
    4924:	84 10 20 00 	clr  %g2
    4928:	96 07 40 03 	add  %i5, %g3, %o3
    492c:	92 10 20 00 	clr  %o1
    4930:	e2 22 c0 00 	st  %l1, [ %o3 ]
    4934:	92 02 60 01 	inc  %o1
    4938:	80 a2 40 0c 	cmp  %o1, %o4
    493c:	0a bf ff fd 	bcs  4930 <ee_printf+0x5f0>
    4940:	96 02 e0 04 	add  %o3, 4, %o3
    4944:	82 00 40 13 	add  %g1, %l3, %g1
    4948:	80 a5 40 13 	cmp  %l5, %l3
    494c:	02 80 00 0b 	be  4978 <ee_printf+0x638>
    4950:	88 21 00 13 	sub  %g4, %l3, %g4
    4954:	84 10 20 00 	clr  %g2
    4958:	ac 01 20 01 	add  %g4, 1, %l6
    495c:	9e 10 20 20 	mov  0x20, %o7
    4960:	de 28 40 02 	stb  %o7, [ %g1 + %g2 ]
    4964:	84 00 a0 01 	inc  %g2
    4968:	a8 25 80 02 	sub  %l6, %g2, %l4
    496c:	80 a5 00 0a 	cmp  %l4, %o2
    4970:	34 bf ff fd 	bg,a   4964 <ee_printf+0x624>
    4974:	de 28 40 02 	stb  %o7, [ %g1 + %g2 ]
    4978:	ba 07 40 1c 	add  %i5, %i4, %i5
    497c:	b8 02 bf ff 	add  %o2, -1, %i4
    4980:	90 92 a0 00 	orcc  %o2, 0, %o0
    4984:	24 80 00 02 	ble,a   498c <ee_printf+0x64c>
    4988:	90 10 20 01 	mov  1, %o0
    498c:	9b 32 20 02 	srl  %o0, 2, %o5
    4990:	80 8f 60 03 	btst  3, %i5
    4994:	12 80 04 df 	bne  5d10 <ee_printf+0x19d0>
    4998:	83 2b 60 02 	sll  %o5, 2, %g1
    499c:	80 a0 60 00 	cmp  %g1, 0
    49a0:	22 80 04 dd 	be,a   5d14 <ee_printf+0x19d4>
    49a4:	a6 10 00 1d 	mov  %i5, %l3
    49a8:	98 10 20 00 	clr  %o4
    49ac:	86 10 20 00 	clr  %g3
    49b0:	92 07 be b0 	add  %fp, -336, %o1
    49b4:	ea 02 40 0c 	ld  [ %o1 + %o4 ], %l5
    49b8:	ea 27 40 0c 	st  %l5, [ %i5 + %o4 ]
    49bc:	86 00 e0 01 	inc  %g3
    49c0:	80 a3 40 03 	cmp  %o5, %g3
    49c4:	18 bf ff fc 	bgu  49b4 <ee_printf+0x674>
    49c8:	98 03 20 04 	add  %o4, 4, %o4
    49cc:	80 a2 00 01 	cmp  %o0, %g1
    49d0:	02 80 00 09 	be  49f4 <ee_printf+0x6b4>
    49d4:	a6 07 40 01 	add  %i5, %g1, %l3
    49d8:	96 24 c0 01 	sub  %l3, %g1, %o3
    49dc:	c8 0a 40 01 	ldub  [ %o1 + %g1 ], %g4
    49e0:	c8 2a c0 01 	stb  %g4, [ %o3 + %g1 ]
    49e4:	82 00 60 01 	inc  %g1
    49e8:	80 a2 80 01 	cmp  %o2, %g1
    49ec:	34 bf ff fd 	bg,a   49e0 <ee_printf+0x6a0>
    49f0:	c8 0a 40 01 	ldub  [ %o1 + %g1 ], %g4
    49f4:	ba 07 40 08 	add  %i5, %o0, %i5
    49f8:	80 a7 00 0a 	cmp  %i4, %o2
    49fc:	04 80 00 33 	ble  4ac8 <ee_printf+0x788>
    4a00:	a6 07 3f ff 	add  %i4, -1, %l3
    4a04:	b8 27 00 0a 	sub  %i4, %o2, %i4
    4a08:	ac 20 00 1d 	neg  %i5, %l6
    4a0c:	a8 0d a0 03 	and  %l6, 3, %l4
    4a10:	80 a5 00 1c 	cmp  %l4, %i4
    4a14:	38 80 00 02 	bgu,a   4a1c <ee_printf+0x6dc>
    4a18:	a8 10 00 1c 	mov  %i4, %l4
    4a1c:	80 a7 20 03 	cmp  %i4, 3
    4a20:	28 80 00 02 	bleu,a   4a28 <ee_printf+0x6e8>
    4a24:	a8 10 00 1c 	mov  %i4, %l4
    4a28:	80 a5 20 00 	cmp  %l4, 0
    4a2c:	02 80 00 0c 	be  4a5c <ee_printf+0x71c>
    4a30:	82 10 00 1d 	mov  %i5, %g1
    4a34:	9e 10 20 20 	mov  0x20, %o7
    4a38:	de 28 40 00 	stb  %o7, [ %g1 ]
    4a3c:	82 00 60 01 	inc  %g1
    4a40:	84 20 40 1d 	sub  %g1, %i5, %g2
    4a44:	80 a5 00 02 	cmp  %l4, %g2
    4a48:	18 bf ff fc 	bgu  4a38 <ee_printf+0x6f8>
    4a4c:	a6 04 ff ff 	add  %l3, -1, %l3
    4a50:	80 a7 00 14 	cmp  %i4, %l4
    4a54:	22 80 00 1d 	be,a   4ac8 <ee_printf+0x788>
    4a58:	ba 07 40 1c 	add  %i5, %i4, %i5
    4a5c:	90 27 00 14 	sub  %i4, %l4, %o0
    4a60:	ab 32 20 02 	srl  %o0, 2, %l5
    4a64:	9b 2d 60 02 	sll  %l5, 2, %o5
    4a68:	80 a3 60 00 	cmp  %o5, 0
    4a6c:	02 80 00 0e 	be  4aa4 <ee_printf+0x764>
    4a70:	88 10 20 00 	clr  %g4
    4a74:	86 07 40 14 	add  %i5, %l4, %g3
    4a78:	98 10 20 00 	clr  %o4
    4a7c:	e2 20 c0 00 	st  %l1, [ %g3 ]
    4a80:	98 03 20 01 	inc  %o4
    4a84:	80 a3 00 15 	cmp  %o4, %l5
    4a88:	0a bf ff fd 	bcs  4a7c <ee_printf+0x73c>
    4a8c:	86 00 e0 04 	add  %g3, 4, %g3
    4a90:	82 00 40 0d 	add  %g1, %o5, %g1
    4a94:	80 a2 00 0d 	cmp  %o0, %o5
    4a98:	02 80 00 0b 	be  4ac4 <ee_printf+0x784>
    4a9c:	a6 24 c0 0d 	sub  %l3, %o5, %l3
    4aa0:	88 10 20 00 	clr  %g4
    4aa4:	92 04 e0 01 	add  %l3, 1, %o1
    4aa8:	96 10 20 20 	mov  0x20, %o3
    4aac:	d6 28 40 04 	stb  %o3, [ %g1 + %g4 ]
    4ab0:	88 01 20 01 	inc  %g4
    4ab4:	ac 22 40 04 	sub  %o1, %g4, %l6
    4ab8:	80 a2 80 16 	cmp  %o2, %l6
    4abc:	26 bf ff fd 	bl,a   4ab0 <ee_printf+0x770>
    4ac0:	d6 28 40 04 	stb  %o3, [ %g1 + %g4 ]
    4ac4:	ba 07 40 1c 	add  %i5, %i4, %i5
    4ac8:	10 bf fe 37 	b  43a4 <ee_printf+0x64>
    4acc:	d8 0e 20 01 	ldub  [ %i0 + 1 ], %o4
    4ad0:	9a 13 60 40 	or  %o5, 0x40, %o5
    4ad4:	94 10 20 10 	mov  0x10, %o2
    4ad8:	d2 04 80 00 	ld  [ %l2 ], %o1
    4adc:	90 10 00 1d 	mov  %i5, %o0
    4ae0:	98 10 00 13 	mov  %l3, %o4
    4ae4:	7f ff fc 80 	call  3ce4 <number>
    4ae8:	96 10 00 1c 	mov  %i4, %o3
    4aec:	a4 04 a0 04 	add  %l2, 4, %l2
    4af0:	ba 10 00 08 	mov  %o0, %i5
    4af4:	10 bf fe 2c 	b  43a4 <ee_printf+0x64>
    4af8:	d8 0e 20 01 	ldub  [ %i0 + 1 ], %o4
    4afc:	ec 04 80 00 	ld  [ %l2 ], %l6
    4b00:	80 a5 a0 00 	cmp  %l6, 0
    4b04:	02 80 04 5b 	be  5c70 <ee_printf+0x1930>
    4b08:	a4 04 a0 04 	add  %l2, 4, %l2
    4b0c:	c2 4d 80 00 	ldsb  [ %l6 ], %g1
    4b10:	80 a0 60 00 	cmp  %g1, 0
    4b14:	02 80 04 5c 	be  5c84 <ee_printf+0x1944>
    4b18:	80 a4 e0 00 	cmp  %l3, 0
    4b1c:	02 80 04 5a 	be  5c84 <ee_printf+0x1944>
    4b20:	90 10 00 16 	mov  %l6, %o0
    4b24:	10 80 00 05 	b  4b38 <ee_printf+0x7f8>
    4b28:	90 02 20 01 	inc  %o0
    4b2c:	22 80 00 08 	be,a   4b4c <ee_printf+0x80c>
    4b30:	a6 22 00 16 	sub  %o0, %l6, %l3
    4b34:	90 02 20 01 	inc  %o0
    4b38:	c2 4a 00 00 	ldsb  [ %o0 ], %g1
    4b3c:	80 a0 60 00 	cmp  %g1, 0
    4b40:	12 bf ff fb 	bne  4b2c <ee_printf+0x7ec>
    4b44:	a6 84 ff ff 	addcc  %l3, -1, %l3
    4b48:	a6 22 00 16 	sub  %o0, %l6, %l3
    4b4c:	80 8b 60 10 	btst  0x10, %o5
    4b50:	12 80 00 39 	bne  4c34 <ee_printf+0x8f4>
    4b54:	80 a4 e0 00 	cmp  %l3, 0
    4b58:	80 a7 00 13 	cmp  %i4, %l3
    4b5c:	04 80 04 4e 	ble  5c94 <ee_printf+0x1954>
    4b60:	9a 07 3f ff 	add  %i4, -1, %o5
    4b64:	b8 27 00 13 	sub  %i4, %l3, %i4
    4b68:	82 20 00 1d 	neg  %i5, %g1
    4b6c:	82 08 60 03 	and  %g1, 3, %g1
    4b70:	80 a7 00 01 	cmp  %i4, %g1
    4b74:	08 80 00 03 	bleu  4b80 <ee_printf+0x840>
    4b78:	88 10 00 1c 	mov  %i4, %g4
    4b7c:	88 10 00 01 	mov  %g1, %g4
    4b80:	80 a7 20 03 	cmp  %i4, 3
    4b84:	28 80 00 02 	bleu,a   4b8c <ee_printf+0x84c>
    4b88:	88 10 00 1c 	mov  %i4, %g4
    4b8c:	80 a1 20 00 	cmp  %g4, 0
    4b90:	02 80 00 0c 	be  4bc0 <ee_printf+0x880>
    4b94:	82 10 00 1d 	mov  %i5, %g1
    4b98:	92 10 20 20 	mov  0x20, %o1
    4b9c:	d2 28 40 00 	stb  %o1, [ %g1 ]
    4ba0:	82 00 60 01 	inc  %g1
    4ba4:	86 20 40 1d 	sub  %g1, %i5, %g3
    4ba8:	80 a1 00 03 	cmp  %g4, %g3
    4bac:	18 bf ff fc 	bgu  4b9c <ee_printf+0x85c>
    4bb0:	9a 03 7f ff 	add  %o5, -1, %o5
    4bb4:	80 a7 00 04 	cmp  %i4, %g4
    4bb8:	22 80 00 1d 	be,a   4c2c <ee_printf+0x8ec>
    4bbc:	ba 07 40 1c 	add  %i5, %i4, %i5
    4bc0:	94 27 00 04 	sub  %i4, %g4, %o2
    4bc4:	99 32 a0 02 	srl  %o2, 2, %o4
    4bc8:	97 2b 20 02 	sll  %o4, 2, %o3
    4bcc:	80 a2 e0 00 	cmp  %o3, 0
    4bd0:	02 80 00 0e 	be  4c08 <ee_printf+0x8c8>
    4bd4:	90 10 20 00 	clr  %o0
    4bd8:	9e 07 40 04 	add  %i5, %g4, %o7
    4bdc:	84 10 20 00 	clr  %g2
    4be0:	e2 23 c0 00 	st  %l1, [ %o7 ]
    4be4:	84 00 a0 01 	inc  %g2
    4be8:	80 a0 80 0c 	cmp  %g2, %o4
    4bec:	0a bf ff fd 	bcs  4be0 <ee_printf+0x8a0>
    4bf0:	9e 03 e0 04 	add  %o7, 4, %o7
    4bf4:	82 00 40 0b 	add  %g1, %o3, %g1
    4bf8:	80 a2 80 0b 	cmp  %o2, %o3
    4bfc:	02 80 00 0b 	be  4c28 <ee_printf+0x8e8>
    4c00:	9a 23 40 0b 	sub  %o5, %o3, %o5
    4c04:	90 10 20 00 	clr  %o0
    4c08:	a8 03 60 01 	add  %o5, 1, %l4
    4c0c:	aa 10 20 20 	mov  0x20, %l5
    4c10:	ea 28 40 08 	stb  %l5, [ %g1 + %o0 ]
    4c14:	90 02 20 01 	inc  %o0
    4c18:	88 25 00 08 	sub  %l4, %o0, %g4
    4c1c:	80 a4 c0 04 	cmp  %l3, %g4
    4c20:	26 bf ff fd 	bl,a   4c14 <ee_printf+0x8d4>
    4c24:	ea 28 40 08 	stb  %l5, [ %g1 + %o0 ]
    4c28:	ba 07 40 1c 	add  %i5, %i4, %i5
    4c2c:	b8 04 ff ff 	add  %l3, -1, %i4
    4c30:	80 a4 e0 00 	cmp  %l3, 0
    4c34:	04 80 00 2e 	ble  4cec <ee_printf+0x9ac>
    4c38:	87 34 e0 02 	srl  %l3, 2, %g3
    4c3c:	82 07 60 04 	add  %i5, 4, %g1
    4c40:	80 a5 80 01 	cmp  %l6, %g1
    4c44:	82 05 a0 04 	add  %l6, 4, %g1
    4c48:	92 60 3f ff 	subx  %g0, -1, %o1
    4c4c:	80 a7 40 01 	cmp  %i5, %g1
    4c50:	82 60 3f ff 	subx  %g0, -1, %g1
    4c54:	98 12 40 01 	or  %o1, %g1, %o4
    4c58:	95 28 e0 02 	sll  %g3, 2, %o2
    4c5c:	80 a4 e0 03 	cmp  %l3, 3
    4c60:	08 80 02 59 	bleu  55c4 <ee_printf+0x1284>
    4c64:	82 10 20 01 	mov  1, %g1
    4c68:	96 17 40 16 	or  %i5, %l6, %o3
    4c6c:	84 0a e0 03 	and  %o3, 3, %g2
    4c70:	80 a0 00 02 	cmp  %g0, %g2
    4c74:	82 0b 00 01 	and  %o4, %g1, %g1
    4c78:	9e 60 3f ff 	subx  %g0, -1, %o7
    4c7c:	80 88 40 0f 	btst  %g1, %o7
    4c80:	02 80 04 33 	be  5d4c <ee_printf+0x1a0c>
    4c84:	80 a2 a0 00 	cmp  %o2, 0
    4c88:	22 80 04 32 	be,a   5d50 <ee_printf+0x1a10>
    4c8c:	aa 10 00 1d 	mov  %i5, %l5
    4c90:	82 10 20 00 	clr  %g1
    4c94:	a8 10 20 00 	clr  %l4
    4c98:	da 05 80 01 	ld  [ %l6 + %g1 ], %o5
    4c9c:	da 27 40 01 	st  %o5, [ %i5 + %g1 ]
    4ca0:	a8 05 20 01 	inc  %l4
    4ca4:	80 a0 c0 14 	cmp  %g3, %l4
    4ca8:	18 bf ff fc 	bgu  4c98 <ee_printf+0x958>
    4cac:	82 00 60 04 	add  %g1, 4, %g1
    4cb0:	82 10 00 0a 	mov  %o2, %g1
    4cb4:	ac 05 80 0a 	add  %l6, %o2, %l6
    4cb8:	80 a4 c0 0a 	cmp  %l3, %o2
    4cbc:	02 80 00 0b 	be  4ce8 <ee_printf+0x9a8>
    4cc0:	aa 07 40 0a 	add  %i5, %o2, %l5
    4cc4:	90 20 00 01 	neg  %g1, %o0
    4cc8:	88 05 80 08 	add  %l6, %o0, %g4
    4ccc:	92 05 40 08 	add  %l5, %o0, %o1
    4cd0:	c6 09 00 01 	ldub  [ %g4 + %g1 ], %g3
    4cd4:	c6 2a 40 01 	stb  %g3, [ %o1 + %g1 ]
    4cd8:	82 00 60 01 	inc  %g1
    4cdc:	80 a4 c0 01 	cmp  %l3, %g1
    4ce0:	34 bf ff fd 	bg,a   4cd4 <ee_printf+0x994>
    4ce4:	c6 09 00 01 	ldub  [ %g4 + %g1 ], %g3
    4ce8:	ba 07 40 13 	add  %i5, %l3, %i5
    4cec:	80 a7 00 13 	cmp  %i4, %l3
    4cf0:	04 bf ff 76 	ble  4ac8 <ee_printf+0x788>
    4cf4:	9e 07 3f ff 	add  %i4, -1, %o7
    4cf8:	b8 27 00 13 	sub  %i4, %l3, %i4
    4cfc:	ac 20 00 1d 	neg  %i5, %l6
    4d00:	94 0d a0 03 	and  %l6, 3, %o2
    4d04:	80 a2 80 1c 	cmp  %o2, %i4
    4d08:	38 80 00 02 	bgu,a   4d10 <ee_printf+0x9d0>
    4d0c:	94 10 00 1c 	mov  %i4, %o2
    4d10:	80 a7 20 03 	cmp  %i4, 3
    4d14:	28 80 00 02 	bleu,a   4d1c <ee_printf+0x9dc>
    4d18:	94 10 00 1c 	mov  %i4, %o2
    4d1c:	80 a2 a0 00 	cmp  %o2, 0
    4d20:	02 80 00 0c 	be  4d50 <ee_printf+0xa10>
    4d24:	82 10 00 1d 	mov  %i5, %g1
    4d28:	98 10 20 20 	mov  0x20, %o4
    4d2c:	d8 28 40 00 	stb  %o4, [ %g1 ]
    4d30:	82 00 60 01 	inc  %g1
    4d34:	96 20 40 1d 	sub  %g1, %i5, %o3
    4d38:	80 a2 80 0b 	cmp  %o2, %o3
    4d3c:	18 bf ff fc 	bgu  4d2c <ee_printf+0x9ec>
    4d40:	9e 03 ff ff 	add  %o7, -1, %o7
    4d44:	80 a7 00 0a 	cmp  %i4, %o2
    4d48:	22 bf ff 60 	be,a   4ac8 <ee_printf+0x788>
    4d4c:	ba 07 40 1c 	add  %i5, %i4, %i5
    4d50:	a8 27 00 0a 	sub  %i4, %o2, %l4
    4d54:	9b 35 20 02 	srl  %l4, 2, %o5
    4d58:	ab 2b 60 02 	sll  %o5, 2, %l5
    4d5c:	80 a5 60 00 	cmp  %l5, 0
    4d60:	02 80 00 0e 	be  4d98 <ee_printf+0xa58>
    4d64:	ac 10 20 00 	clr  %l6
    4d68:	90 07 40 0a 	add  %i5, %o2, %o0
    4d6c:	84 10 20 00 	clr  %g2
    4d70:	e2 22 00 00 	st  %l1, [ %o0 ]
    4d74:	84 00 a0 01 	inc  %g2
    4d78:	80 a0 80 0d 	cmp  %g2, %o5
    4d7c:	0a bf ff fd 	bcs  4d70 <ee_printf+0xa30>
    4d80:	90 02 20 04 	add  %o0, 4, %o0
    4d84:	82 00 40 15 	add  %g1, %l5, %g1
    4d88:	80 a5 00 15 	cmp  %l4, %l5
    4d8c:	02 bf ff 4e 	be  4ac4 <ee_printf+0x784>
    4d90:	9e 23 c0 15 	sub  %o7, %l5, %o7
    4d94:	ac 10 20 00 	clr  %l6
    4d98:	92 03 e0 01 	add  %o7, 1, %o1
    4d9c:	86 10 20 20 	mov  0x20, %g3
    4da0:	c6 28 40 16 	stb  %g3, [ %g1 + %l6 ]
    4da4:	ac 05 a0 01 	inc  %l6
    4da8:	88 22 40 16 	sub  %o1, %l6, %g4
    4dac:	80 a4 c0 04 	cmp  %l3, %g4
    4db0:	26 bf ff fd 	bl,a   4da4 <ee_printf+0xa64>
    4db4:	c6 28 40 16 	stb  %g3, [ %g1 + %l6 ]
    4db8:	10 bf ff 44 	b  4ac8 <ee_printf+0x788>
    4dbc:	ba 07 40 1c 	add  %i5, %i4, %i5
    4dc0:	80 a7 3f ff 	cmp  %i4, -1
    4dc4:	22 80 02 02 	be,a   55cc <ee_printf+0x128c>
    4dc8:	9a 13 60 01 	or  %o5, 1, %o5
    4dcc:	d2 04 80 00 	ld  [ %l2 ], %o1
    4dd0:	90 10 00 1d 	mov  %i5, %o0
    4dd4:	98 10 00 13 	mov  %l3, %o4
    4dd8:	94 10 20 10 	mov  0x10, %o2
    4ddc:	7f ff fb c2 	call  3ce4 <number>
    4de0:	96 10 00 1c 	mov  %i4, %o3
    4de4:	a4 04 a0 04 	add  %l2, 4, %l2
    4de8:	ba 10 00 08 	mov  %o0, %i5
    4dec:	10 bf fd 6e 	b  43a4 <ee_printf+0x64>
    4df0:	d8 0e 20 01 	ldub  [ %i0 + 1 ], %o4
    4df4:	10 bf ff 39 	b  4ad8 <ee_printf+0x798>
    4df8:	94 10 20 08 	mov  8, %o2
    4dfc:	92 10 00 12 	mov  %l2, %o1
    4e00:	94 10 20 08 	mov  8, %o2
    4e04:	90 07 be 58 	add  %fp, -424, %o0
    4e08:	7f ff fd 15 	call  425c <memcpy>
    4e0c:	da 27 be 44 	st  %o5, [ %fp + -444 ]
    4e10:	d4 07 be 44 	ld  [ %fp + -444 ], %o2
    4e14:	a4 04 a0 08 	add  %l2, 8, %l2
    4e18:	80 8a a0 10 	btst  0x10, %o2
    4e1c:	02 80 00 03 	be  4e28 <ee_printf+0xae8>
    4e20:	d1 1f be 58 	ldd  [ %fp + -424 ], %f8
    4e24:	94 0a bf fe 	and  %o2, -2, %o2
    4e28:	aa 12 a0 02 	or  %o2, 2, %l5
    4e2c:	82 0d 60 01 	and  %l5, 1, %g1
    4e30:	80 a0 00 01 	cmp  %g0, %g1
    4e34:	03 00 00 81 	sethi  %hi(0x20400), %g1
    4e38:	98 40 3f ff 	addx  %g0, -1, %o4
    4e3c:	d5 18 62 78 	ldd  [ %g1 + 0x278 ], %f10
    4e40:	96 0b 20 f0 	and  %o4, 0xf0, %o3
    4e44:	81 aa 0a ca 	fcmped  %f8, %f10
    4e48:	01 00 00 00 	nop 
    4e4c:	09 80 03 0d 	fbl  5a80 <ee_printf+0x1740>
    4e50:	a8 02 e0 30 	add  %o3, 0x30, %l4
    4e54:	80 8d 60 04 	btst  4, %l5
    4e58:	02 80 02 d0 	be  5998 <ee_printf+0x1658>
    4e5c:	80 8d 60 08 	btst  8, %l5
    4e60:	b8 07 3f ff 	add  %i4, -1, %i4
    4e64:	ac 10 20 2b 	mov  0x2b, %l6
    4e68:	80 a4 ff ff 	cmp  %l3, -1
    4e6c:	22 80 00 02 	be,a   4e74 <ee_printf+0xb34>
    4e70:	a6 10 20 06 	mov  6, %l3
    4e74:	d1 3f be 38 	std  %f8, [ %fp + -456 ]
    4e78:	9a 07 be b0 	add  %fp, -336, %o5
    4e7c:	d0 1f be 38 	ldd  [ %fp + -456 ], %o0
    4e80:	94 10 00 13 	mov  %l3, %o2
    4e84:	96 07 be 50 	add  %fp, -432, %o3
    4e88:	7f ff fb 43 	call  3b94 <fcvtbuf>
    4e8c:	98 07 be 54 	add  %fp, -428, %o4
    4e90:	da 07 be 54 	ld  [ %fp + -428 ], %o5
    4e94:	80 a3 60 00 	cmp  %o5, 0
    4e98:	02 80 00 05 	be  4eac <ee_printf+0xb6c>
    4e9c:	82 07 be 60 	add  %fp, -416, %g1
    4ea0:	84 10 20 2d 	mov  0x2d, %g2
    4ea4:	82 07 be 61 	add  %fp, -415, %g1
    4ea8:	c4 2f be 60 	stb  %g2, [ %fp + -416 ]
    4eac:	de 4a 00 00 	ldsb  [ %o0 ], %o7
    4eb0:	80 a3 e0 00 	cmp  %o7, 0
    4eb4:	12 80 02 f9 	bne  5a98 <ee_printf+0x1758>
    4eb8:	da 0a 00 00 	ldub  [ %o0 ], %o5
    4ebc:	90 10 20 30 	mov  0x30, %o0
    4ec0:	80 a4 e0 00 	cmp  %l3, 0
    4ec4:	02 80 03 a7 	be  5d60 <ee_printf+0x1a20>
    4ec8:	d0 28 40 00 	stb  %o0, [ %g1 ]
    4ecc:	92 10 20 2e 	mov  0x2e, %o1
    4ed0:	d2 28 60 01 	stb  %o1, [ %g1 + 1 ]
    4ed4:	88 94 e0 00 	orcc  %l3, 0, %g4
    4ed8:	04 80 03 a0 	ble  5d58 <ee_printf+0x1a18>
    4edc:	82 00 60 02 	add  %g1, 2, %g1
    4ee0:	86 20 00 01 	neg  %g1, %g3
    4ee4:	94 08 e0 03 	and  %g3, 3, %o2
    4ee8:	80 a1 00 0a 	cmp  %g4, %o2
    4eec:	08 80 00 03 	bleu  4ef8 <ee_printf+0xbb8>
    4ef0:	9e 10 00 04 	mov  %g4, %o7
    4ef4:	9e 10 00 0a 	mov  %o2, %o7
    4ef8:	80 a1 20 03 	cmp  %g4, 3
    4efc:	28 80 00 02 	bleu,a   4f04 <ee_printf+0xbc4>
    4f00:	9e 10 00 04 	mov  %g4, %o7
    4f04:	84 10 00 01 	mov  %g1, %g2
    4f08:	80 a3 e0 00 	cmp  %o7, 0
    4f0c:	02 80 00 0b 	be  4f38 <ee_printf+0xbf8>
    4f10:	86 10 20 00 	clr  %g3
    4f14:	98 10 20 30 	mov  0x30, %o4
    4f18:	d8 28 80 00 	stb  %o4, [ %g2 ]
    4f1c:	86 00 e0 01 	inc  %g3
    4f20:	80 a3 c0 03 	cmp  %o7, %g3
    4f24:	18 bf ff fd 	bgu  4f18 <ee_printf+0xbd8>
    4f28:	84 00 a0 01 	inc  %g2
    4f2c:	80 a1 00 0f 	cmp  %g4, %o7
    4f30:	22 80 00 1b 	be,a   4f9c <ee_printf+0xc5c>
    4f34:	c0 28 40 04 	clrb  [ %g1 + %g4 ]
    4f38:	90 21 00 0f 	sub  %g4, %o7, %o0
    4f3c:	97 32 20 02 	srl  %o0, 2, %o3
    4f40:	93 2a e0 02 	sll  %o3, 2, %o1
    4f44:	80 a2 60 00 	cmp  %o1, 0
    4f48:	22 80 00 0e 	be,a   4f80 <ee_printf+0xc40>
    4f4c:	9e 10 20 30 	mov  0x30, %o7
    4f50:	94 00 40 0f 	add  %g1, %o7, %o2
    4f54:	9a 10 20 00 	clr  %o5
    4f58:	f4 22 80 00 	st  %i2, [ %o2 ]
    4f5c:	9a 03 60 01 	inc  %o5
    4f60:	80 a3 40 0b 	cmp  %o5, %o3
    4f64:	0a bf ff fd 	bcs  4f58 <ee_printf+0xc18>
    4f68:	94 02 a0 04 	add  %o2, 4, %o2
    4f6c:	84 00 80 09 	add  %g2, %o1, %g2
    4f70:	80 a2 00 09 	cmp  %o0, %o1
    4f74:	02 80 00 09 	be  4f98 <ee_printf+0xc58>
    4f78:	86 00 c0 09 	add  %g3, %o1, %g3
    4f7c:	9e 10 20 30 	mov  0x30, %o7
    4f80:	98 20 80 03 	sub  %g2, %g3, %o4
    4f84:	de 2b 00 03 	stb  %o7, [ %o4 + %g3 ]
    4f88:	86 00 e0 01 	inc  %g3
    4f8c:	80 a4 c0 03 	cmp  %l3, %g3
    4f90:	34 bf ff fe 	bg,a   4f88 <ee_printf+0xc48>
    4f94:	de 2b 00 03 	stb  %o7, [ %o4 + %g3 ]
    4f98:	c0 28 40 04 	clrb  [ %g1 + %g4 ]
    4f9c:	c2 0f be 60 	ldub  [ %fp + -416 ], %g1
    4fa0:	83 28 60 18 	sll  %g1, 0x18, %g1
    4fa4:	80 a0 60 00 	cmp  %g1, 0
    4fa8:	22 80 00 0e 	be,a   4fe0 <ee_printf+0xca0>
    4fac:	a6 10 20 00 	clr  %l3
    4fb0:	90 07 be 60 	add  %fp, -416, %o0
    4fb4:	9a 07 bf 60 	add  %fp, -160, %o5
    4fb8:	10 80 00 04 	b  4fc8 <ee_printf+0xc88>
    4fbc:	98 10 00 08 	mov  %o0, %o4
    4fc0:	02 80 00 08 	be  4fe0 <ee_printf+0xca0>
    4fc4:	a6 23 00 08 	sub  %o4, %o0, %l3
    4fc8:	98 03 20 01 	inc  %o4
    4fcc:	c2 4b 00 00 	ldsb  [ %o4 ], %g1
    4fd0:	80 a0 60 00 	cmp  %g1, 0
    4fd4:	12 bf ff fb 	bne  4fc0 <ee_printf+0xc80>
    4fd8:	80 a3 00 0d 	cmp  %o4, %o5
    4fdc:	a6 23 00 08 	sub  %o4, %o0, %l3
    4fe0:	80 8d 60 11 	btst  0x11, %l5
    4fe4:	12 80 00 37 	bne  50c0 <ee_printf+0xd80>
    4fe8:	b8 27 00 13 	sub  %i4, %l3, %i4
    4fec:	80 a7 20 00 	cmp  %i4, 0
    4ff0:	04 80 03 27 	ble  5c8c <ee_printf+0x194c>
    4ff4:	88 07 3f ff 	add  %i4, -1, %g4
    4ff8:	82 20 00 1d 	neg  %i5, %g1
    4ffc:	82 08 60 03 	and  %g1, 3, %g1
    5000:	80 a7 00 01 	cmp  %i4, %g1
    5004:	08 80 00 03 	bleu  5010 <ee_printf+0xcd0>
    5008:	86 10 00 1c 	mov  %i4, %g3
    500c:	86 10 00 01 	mov  %g1, %g3
    5010:	80 a7 20 03 	cmp  %i4, 3
    5014:	28 80 00 02 	bleu,a   501c <ee_printf+0xcdc>
    5018:	86 10 00 1c 	mov  %i4, %g3
    501c:	80 a0 e0 00 	cmp  %g3, 0
    5020:	02 80 00 0c 	be  5050 <ee_printf+0xd10>
    5024:	82 10 00 1d 	mov  %i5, %g1
    5028:	96 10 20 20 	mov  0x20, %o3
    502c:	d6 28 40 00 	stb  %o3, [ %g1 ]
    5030:	82 00 60 01 	inc  %g1
    5034:	94 20 40 1d 	sub  %g1, %i5, %o2
    5038:	80 a0 c0 0a 	cmp  %g3, %o2
    503c:	18 bf ff fc 	bgu  502c <ee_printf+0xcec>
    5040:	88 01 3f ff 	add  %g4, -1, %g4
    5044:	80 a7 00 03 	cmp  %i4, %g3
    5048:	22 80 00 1d 	be,a   50bc <ee_printf+0xd7c>
    504c:	ba 07 40 1c 	add  %i5, %i4, %i5
    5050:	92 27 00 03 	sub  %i4, %g3, %o1
    5054:	9f 32 60 02 	srl  %o1, 2, %o7
    5058:	91 2b e0 02 	sll  %o7, 2, %o0
    505c:	80 a2 20 00 	cmp  %o0, 0
    5060:	02 80 00 0e 	be  5098 <ee_printf+0xd58>
    5064:	94 10 20 00 	clr  %o2
    5068:	9a 07 40 03 	add  %i5, %g3, %o5
    506c:	84 10 20 00 	clr  %g2
    5070:	e2 23 40 00 	st  %l1, [ %o5 ]
    5074:	84 00 a0 01 	inc  %g2
    5078:	80 a0 80 0f 	cmp  %g2, %o7
    507c:	0a bf ff fd 	bcs  5070 <ee_printf+0xd30>
    5080:	9a 03 60 04 	add  %o5, 4, %o5
    5084:	82 00 40 08 	add  %g1, %o0, %g1
    5088:	80 a2 40 08 	cmp  %o1, %o0
    508c:	02 80 00 0b 	be  50b8 <ee_printf+0xd78>
    5090:	88 21 00 08 	sub  %g4, %o0, %g4
    5094:	94 10 20 00 	clr  %o2
    5098:	98 01 20 01 	add  %g4, 1, %o4
    509c:	96 10 20 20 	mov  0x20, %o3
    50a0:	d6 28 40 0a 	stb  %o3, [ %g1 + %o2 ]
    50a4:	94 02 a0 01 	inc  %o2
    50a8:	86 23 00 0a 	sub  %o4, %o2, %g3
    50ac:	80 a0 e0 00 	cmp  %g3, 0
    50b0:	34 bf ff fd 	bg,a   50a4 <ee_printf+0xd64>
    50b4:	d6 28 40 0a 	stb  %o3, [ %g1 + %o2 ]
    50b8:	ba 07 40 1c 	add  %i5, %i4, %i5
    50bc:	b8 10 3f ff 	mov  -1, %i4
    50c0:	80 8d a0 ff 	btst  0xff, %l6
    50c4:	02 80 00 04 	be  50d4 <ee_printf+0xd94>
    50c8:	80 8d 60 10 	btst  0x10, %l5
    50cc:	ec 2f 40 00 	stb  %l6, [ %i5 ]
    50d0:	ba 07 60 01 	inc  %i5
    50d4:	12 80 00 3e 	bne  51cc <ee_printf+0xe8c>
    50d8:	80 a4 e0 00 	cmp  %l3, 0
    50dc:	80 a7 20 00 	cmp  %i4, 0
    50e0:	04 80 02 f2 	ble  5ca8 <ee_printf+0x1968>
    50e4:	88 07 3f ff 	add  %i4, -1, %g4
    50e8:	aa 20 00 1d 	neg  %i5, %l5
    50ec:	ac 0d 60 03 	and  %l5, 3, %l6
    50f0:	80 a5 80 1c 	cmp  %l6, %i4
    50f4:	38 80 00 02 	bgu,a   50fc <ee_printf+0xdbc>
    50f8:	ac 10 00 1c 	mov  %i4, %l6
    50fc:	80 a7 20 03 	cmp  %i4, 3
    5100:	28 80 00 02 	bleu,a   5108 <ee_printf+0xdc8>
    5104:	ac 10 00 1c 	mov  %i4, %l6
    5108:	80 a5 a0 00 	cmp  %l6, 0
    510c:	02 80 00 0b 	be  5138 <ee_printf+0xdf8>
    5110:	82 10 00 1d 	mov  %i5, %g1
    5114:	e8 28 40 00 	stb  %l4, [ %g1 ]
    5118:	82 00 60 01 	inc  %g1
    511c:	92 20 40 1d 	sub  %g1, %i5, %o1
    5120:	80 a5 80 09 	cmp  %l6, %o1
    5124:	18 bf ff fc 	bgu  5114 <ee_printf+0xdd4>
    5128:	88 01 3f ff 	add  %g4, -1, %g4
    512c:	80 a7 00 16 	cmp  %i4, %l6
    5130:	22 80 00 25 	be,a   51c4 <ee_printf+0xe84>
    5134:	ba 07 40 1c 	add  %i5, %i4, %i5
    5138:	98 27 00 16 	sub  %i4, %l6, %o4
    513c:	9f 33 20 02 	srl  %o4, 2, %o7
    5140:	97 2b e0 02 	sll  %o7, 2, %o3
    5144:	80 a2 e0 00 	cmp  %o3, 0
    5148:	22 80 00 17 	be,a   51a4 <ee_printf+0xe64>
    514c:	9e 10 20 00 	clr  %o7
    5150:	9a 0d 20 ff 	and  %l4, 0xff, %o5
    5154:	91 2b 60 18 	sll  %o5, 0x18, %o0
    5158:	85 2b 60 10 	sll  %o5, 0x10, %g2
    515c:	94 0a 00 10 	and  %o0, %l0, %o2
    5160:	ab 2b 60 08 	sll  %o5, 8, %l5
    5164:	86 07 40 16 	add  %i5, %l6, %g3
    5168:	ac 12 80 02 	or  %o2, %g2, %l6
    516c:	84 10 20 00 	clr  %g2
    5170:	92 0d 80 19 	and  %l6, %i1, %o1
    5174:	90 12 40 15 	or  %o1, %l5, %o0
    5178:	9a 12 00 0d 	or  %o0, %o5, %o5
    517c:	da 20 c0 00 	st  %o5, [ %g3 ]
    5180:	84 00 a0 01 	inc  %g2
    5184:	80 a0 80 0f 	cmp  %g2, %o7
    5188:	0a bf ff fd 	bcs  517c <ee_printf+0xe3c>
    518c:	86 00 e0 04 	add  %g3, 4, %g3
    5190:	82 00 40 0b 	add  %g1, %o3, %g1
    5194:	80 a3 00 0b 	cmp  %o4, %o3
    5198:	02 80 00 0a 	be  51c0 <ee_printf+0xe80>
    519c:	88 21 00 0b 	sub  %g4, %o3, %g4
    51a0:	9e 10 20 00 	clr  %o7
    51a4:	98 01 20 01 	add  %g4, 1, %o4
    51a8:	e8 28 40 0f 	stb  %l4, [ %g1 + %o7 ]
    51ac:	9e 03 e0 01 	inc  %o7
    51b0:	96 23 00 0f 	sub  %o4, %o7, %o3
    51b4:	80 a2 e0 00 	cmp  %o3, 0
    51b8:	34 bf ff fd 	bg,a   51ac <ee_printf+0xe6c>
    51bc:	e8 28 40 0f 	stb  %l4, [ %g1 + %o7 ]
    51c0:	ba 07 40 1c 	add  %i5, %i4, %i5
    51c4:	b8 10 3f ff 	mov  -1, %i4
    51c8:	80 a4 e0 00 	cmp  %l3, 0
    51cc:	04 80 00 25 	ble  5260 <ee_printf+0xf20>
    51d0:	80 a7 20 00 	cmp  %i4, 0
    51d4:	82 0f 60 03 	and  %i5, 3, %g1
    51d8:	80 a0 00 01 	cmp  %g0, %g1
    51dc:	a9 34 e0 02 	srl  %l3, 2, %l4
    51e0:	94 60 3f ff 	subx  %g0, -1, %o2
    51e4:	83 2d 20 02 	sll  %l4, 2, %g1
    51e8:	80 a4 e0 03 	cmp  %l3, 3
    51ec:	18 80 00 03 	bgu  51f8 <ee_printf+0xeb8>
    51f0:	aa 10 20 01 	mov  1, %l5
    51f4:	aa 10 20 00 	clr  %l5
    51f8:	80 8a 80 15 	btst  %o2, %l5
    51fc:	02 80 02 d0 	be  5d3c <ee_printf+0x19fc>
    5200:	80 a0 60 00 	cmp  %g1, 0
    5204:	22 80 02 cf 	be,a   5d40 <ee_printf+0x1a00>
    5208:	9a 10 00 1d 	mov  %i5, %o5
    520c:	90 10 20 00 	clr  %o0
    5210:	92 10 20 00 	clr  %o1
    5214:	88 07 be 60 	add  %fp, -416, %g4
    5218:	ec 01 00 08 	ld  [ %g4 + %o0 ], %l6
    521c:	ec 27 40 08 	st  %l6, [ %i5 + %o0 ]
    5220:	92 02 60 01 	inc  %o1
    5224:	80 a5 00 09 	cmp  %l4, %o1
    5228:	18 bf ff fc 	bgu  5218 <ee_printf+0xed8>
    522c:	90 02 20 04 	add  %o0, 4, %o0
    5230:	80 a4 c0 01 	cmp  %l3, %g1
    5234:	02 80 00 09 	be  5258 <ee_printf+0xf18>
    5238:	9a 07 40 01 	add  %i5, %g1, %o5
    523c:	86 23 40 01 	sub  %o5, %g1, %g3
    5240:	c4 09 00 01 	ldub  [ %g4 + %g1 ], %g2
    5244:	c4 28 c0 01 	stb  %g2, [ %g3 + %g1 ]
    5248:	82 00 60 01 	inc  %g1
    524c:	80 a4 c0 01 	cmp  %l3, %g1
    5250:	34 bf ff fd 	bg,a   5244 <ee_printf+0xf04>
    5254:	c4 09 00 01 	ldub  [ %g4 + %g1 ], %g2
    5258:	ba 07 40 13 	add  %i5, %l3, %i5
    525c:	80 a7 20 00 	cmp  %i4, 0
    5260:	04 bf fe 1a 	ble  4ac8 <ee_printf+0x788>
    5264:	90 07 3f ff 	add  %i4, -1, %o0
    5268:	a6 20 00 1d 	neg  %i5, %l3
    526c:	96 0c e0 03 	and  %l3, 3, %o3
    5270:	80 a2 c0 1c 	cmp  %o3, %i4
    5274:	38 80 00 02 	bgu,a   527c <ee_printf+0xf3c>
    5278:	96 10 00 1c 	mov  %i4, %o3
    527c:	80 a7 20 03 	cmp  %i4, 3
    5280:	28 80 00 02 	bleu,a   5288 <ee_printf+0xf48>
    5284:	96 10 00 1c 	mov  %i4, %o3
    5288:	80 a2 e0 00 	cmp  %o3, 0
    528c:	02 80 00 0c 	be  52bc <ee_printf+0xf7c>
    5290:	82 10 00 1d 	mov  %i5, %g1
    5294:	98 10 20 20 	mov  0x20, %o4
    5298:	d8 28 40 00 	stb  %o4, [ %g1 ]
    529c:	82 00 60 01 	inc  %g1
    52a0:	9e 20 40 1d 	sub  %g1, %i5, %o7
    52a4:	80 a2 c0 0f 	cmp  %o3, %o7
    52a8:	18 bf ff fc 	bgu  5298 <ee_printf+0xf58>
    52ac:	90 02 3f ff 	add  %o0, -1, %o0
    52b0:	80 a7 00 0b 	cmp  %i4, %o3
    52b4:	22 bf fe 05 	be,a   4ac8 <ee_printf+0x788>
    52b8:	ba 07 40 1c 	add  %i5, %i4, %i5
    52bc:	a8 27 00 0b 	sub  %i4, %o3, %l4
    52c0:	95 35 20 02 	srl  %l4, 2, %o2
    52c4:	ab 2a a0 02 	sll  %o2, 2, %l5
    52c8:	80 a5 60 00 	cmp  %l5, 0
    52cc:	02 80 00 0e 	be  5304 <ee_printf+0xfc4>
    52d0:	84 10 20 00 	clr  %g2
    52d4:	92 07 40 0b 	add  %i5, %o3, %o1
    52d8:	ac 10 20 00 	clr  %l6
    52dc:	e2 22 40 00 	st  %l1, [ %o1 ]
    52e0:	ac 05 a0 01 	inc  %l6
    52e4:	80 a5 80 0a 	cmp  %l6, %o2
    52e8:	0a bf ff fd 	bcs  52dc <ee_printf+0xf9c>
    52ec:	92 02 60 04 	add  %o1, 4, %o1
    52f0:	82 00 40 15 	add  %g1, %l5, %g1
    52f4:	80 a5 00 15 	cmp  %l4, %l5
    52f8:	02 bf fd f3 	be  4ac4 <ee_printf+0x784>
    52fc:	90 22 00 15 	sub  %o0, %l5, %o0
    5300:	84 10 20 00 	clr  %g2
    5304:	9a 02 20 01 	add  %o0, 1, %o5
    5308:	88 10 20 20 	mov  0x20, %g4
    530c:	c8 28 40 02 	stb  %g4, [ %g1 + %g2 ]
    5310:	84 00 a0 01 	inc  %g2
    5314:	86 23 40 02 	sub  %o5, %g2, %g3
    5318:	80 a0 e0 00 	cmp  %g3, 0
    531c:	34 bf ff fd 	bg,a   5310 <ee_printf+0xfd0>
    5320:	c8 28 40 02 	stb  %g4, [ %g1 + %g2 ]
    5324:	10 bf fd e9 	b  4ac8 <ee_printf+0x788>
    5328:	ba 07 40 1c 	add  %i5, %i4, %i5
    532c:	10 bf fd eb 	b  4ad8 <ee_printf+0x798>
    5330:	94 10 20 10 	mov  0x10, %o2
    5334:	10 bf fd e9 	b  4ad8 <ee_printf+0x798>
    5338:	94 10 20 0a 	mov  0xa, %o2
    533c:	9a 13 60 02 	or  %o5, 2, %o5
    5340:	10 bf fd e6 	b  4ad8 <ee_printf+0x798>
    5344:	94 10 20 0a 	mov  0xa, %o2
    5348:	80 8b 60 10 	btst  0x10, %o5
    534c:	32 80 00 68 	bne,a   54ec <ee_printf+0x11ac>
    5350:	c2 04 80 00 	ld  [ %l2 ], %g1
    5354:	b8 07 3f ff 	add  %i4, -1, %i4
    5358:	92 97 20 00 	orcc  %i4, 0, %o1
    535c:	04 80 00 63 	ble  54e8 <ee_printf+0x11a8>
    5360:	82 20 00 1d 	neg  %i5, %g1
    5364:	82 08 60 03 	and  %g1, 3, %g1
    5368:	80 a7 00 01 	cmp  %i4, %g1
    536c:	08 80 00 03 	bleu  5378 <ee_printf+0x1038>
    5370:	a6 10 00 1c 	mov  %i4, %l3
    5374:	a6 10 00 01 	mov  %g1, %l3
    5378:	80 a7 20 03 	cmp  %i4, 3
    537c:	28 80 00 02 	bleu,a   5384 <ee_printf+0x1044>
    5380:	a6 10 00 1c 	mov  %i4, %l3
    5384:	80 a4 e0 00 	cmp  %l3, 0
    5388:	02 80 00 0c 	be  53b8 <ee_printf+0x1078>
    538c:	82 10 00 1d 	mov  %i5, %g1
    5390:	98 10 20 20 	mov  0x20, %o4
    5394:	d8 28 40 00 	stb  %o4, [ %g1 ]
    5398:	82 00 60 01 	inc  %g1
    539c:	86 20 40 1d 	sub  %g1, %i5, %g3
    53a0:	80 a4 c0 03 	cmp  %l3, %g3
    53a4:	18 bf ff fc 	bgu  5394 <ee_printf+0x1054>
    53a8:	92 02 7f ff 	add  %o1, -1, %o1
    53ac:	80 a7 00 13 	cmp  %i4, %l3
    53b0:	22 80 00 1a 	be,a   5418 <ee_printf+0x10d8>
    53b4:	d0 04 80 00 	ld  [ %l2 ], %o0
    53b8:	a8 27 00 13 	sub  %i4, %l3, %l4
    53bc:	97 35 20 02 	srl  %l4, 2, %o3
    53c0:	9f 2a e0 02 	sll  %o3, 2, %o7
    53c4:	80 a3 e0 00 	cmp  %o7, 0
    53c8:	02 80 00 0e 	be  5400 <ee_printf+0x10c0>
    53cc:	ac 10 20 20 	mov  0x20, %l6
    53d0:	aa 07 40 13 	add  %i5, %l3, %l5
    53d4:	94 10 20 00 	clr  %o2
    53d8:	e2 25 40 00 	st  %l1, [ %l5 ]
    53dc:	94 02 a0 01 	inc  %o2
    53e0:	80 a2 80 0b 	cmp  %o2, %o3
    53e4:	0a bf ff fd 	bcs  53d8 <ee_printf+0x1098>
    53e8:	aa 05 60 04 	add  %l5, 4, %l5
    53ec:	82 00 40 0f 	add  %g1, %o7, %g1
    53f0:	80 a5 00 0f 	cmp  %l4, %o7
    53f4:	02 80 00 08 	be  5414 <ee_printf+0x10d4>
    53f8:	92 22 40 0f 	sub  %o1, %o7, %o1
    53fc:	ac 10 20 20 	mov  0x20, %l6
    5400:	ec 28 40 00 	stb  %l6, [ %g1 ]
    5404:	92 02 7f ff 	add  %o1, -1, %o1
    5408:	80 a2 60 00 	cmp  %o1, 0
    540c:	14 bf ff fd 	bg  5400 <ee_printf+0x10c0>
    5410:	82 00 60 01 	inc  %g1
    5414:	d0 04 80 00 	ld  [ %l2 ], %o0
    5418:	82 07 40 1c 	add  %i5, %i4, %g1
    541c:	d0 2f 40 1c 	stb  %o0, [ %i5 + %i4 ]
    5420:	a4 04 a0 04 	add  %l2, 4, %l2
    5424:	ba 00 60 01 	add  %g1, 1, %i5
    5428:	10 bf fb df 	b  43a4 <ee_printf+0x64>
    542c:	d8 0e 20 01 	ldub  [ %i0 + 1 ], %o4
    5430:	f8 04 80 00 	ld  [ %l2 ], %i4
    5434:	84 06 20 02 	add  %i0, 2, %g2
    5438:	a4 04 a0 04 	add  %l2, 4, %l2
    543c:	80 a7 20 00 	cmp  %i4, 0
    5440:	16 bf fb fc 	bge  4430 <ee_printf+0xf0>
    5444:	c2 0e 20 02 	ldub  [ %i0 + 2 ], %g1
    5448:	b8 20 00 1c 	neg  %i4
    544c:	10 bf fb f9 	b  4430 <ee_printf+0xf0>
    5450:	9a 13 60 10 	or  %o5, 0x10, %o5
    5454:	82 10 20 30 	mov  0x30, %g1
    5458:	c2 2f be b0 	stb  %g1, [ %fp + -336 ]
    545c:	9e 10 20 01 	mov  1, %o7
    5460:	82 10 20 2e 	mov  0x2e, %g1
    5464:	aa 07 80 0f 	add  %fp, %o7, %l5
    5468:	c2 2d 7e b0 	stb  %g1, [ %l5 + -336 ]
    546c:	c6 08 a0 01 	ldub  [ %g2 + 1 ], %g3
    5470:	80 a0 e0 00 	cmp  %g3, 0
    5474:	12 bf fc 99 	bne  46d8 <ee_printf+0x398>
    5478:	ac 10 20 02 	mov  2, %l6
    547c:	82 07 80 16 	add  %fp, %l6, %g1
    5480:	98 10 20 30 	mov  0x30, %o4
    5484:	d8 28 7e b0 	stb  %o4, [ %g1 + -336 ]
    5488:	88 03 e0 02 	add  %o7, 2, %g4
    548c:	82 10 20 2e 	mov  0x2e, %g1
    5490:	a8 07 80 04 	add  %fp, %g4, %l4
    5494:	c2 2d 3e b0 	stb  %g1, [ %l4 + -336 ]
    5498:	c6 08 a0 02 	ldub  [ %g2 + 2 ], %g3
    549c:	80 a0 e0 00 	cmp  %g3, 0
    54a0:	12 bf fc b6 	bne  4778 <ee_printf+0x438>
    54a4:	ac 01 20 01 	add  %g4, 1, %l6
    54a8:	aa 07 80 16 	add  %fp, %l6, %l5
    54ac:	82 10 20 30 	mov  0x30, %g1
    54b0:	c2 2d 7e b0 	stb  %g1, [ %l5 + -336 ]
    54b4:	a6 01 20 02 	add  %g4, 2, %l3
    54b8:	82 10 20 2e 	mov  0x2e, %g1
    54bc:	ac 07 80 13 	add  %fp, %l3, %l6
    54c0:	c2 2d be b0 	stb  %g1, [ %l6 + -336 ]
    54c4:	c4 08 a0 03 	ldub  [ %g2 + 3 ], %g2
    54c8:	80 a0 a0 00 	cmp  %g2, 0
    54cc:	12 bf fc d3 	bne  4818 <ee_printf+0x4d8>
    54d0:	98 04 e0 01 	add  %l3, 1, %o4
    54d4:	82 07 80 0c 	add  %fp, %o4, %g1
    54d8:	a8 10 20 30 	mov  0x30, %l4
    54dc:	94 04 e0 02 	add  %l3, 2, %o2
    54e0:	10 bf fc ef 	b  489c <ee_printf+0x55c>
    54e4:	e8 28 7e b0 	stb  %l4, [ %g1 + -336 ]
    54e8:	c2 04 80 00 	ld  [ %l2 ], %g1
    54ec:	c2 2f 40 00 	stb  %g1, [ %i5 ]
    54f0:	b8 07 3f ff 	add  %i4, -1, %i4
    54f4:	98 07 60 01 	add  %i5, 1, %o4
    54f8:	84 97 20 00 	orcc  %i4, 0, %g2
    54fc:	04 80 01 e8 	ble  5c9c <ee_printf+0x195c>
    5500:	a4 04 a0 04 	add  %l2, 4, %l2
    5504:	a6 20 00 0c 	neg  %o4, %l3
    5508:	a8 0c e0 03 	and  %l3, 3, %l4
    550c:	80 a5 00 1c 	cmp  %l4, %i4
    5510:	38 80 00 02 	bgu,a   5518 <ee_printf+0x11d8>
    5514:	a8 10 00 1c 	mov  %i4, %l4
    5518:	80 a7 20 03 	cmp  %i4, 3
    551c:	28 80 00 02 	bleu,a   5524 <ee_printf+0x11e4>
    5520:	a8 10 00 1c 	mov  %i4, %l4
    5524:	80 a5 20 00 	cmp  %l4, 0
    5528:	02 80 00 0d 	be  555c <ee_printf+0x121c>
    552c:	82 10 00 0c 	mov  %o4, %g1
    5530:	96 38 00 1d 	xnor  %g0, %i5, %o3
    5534:	9e 10 20 20 	mov  0x20, %o7
    5538:	de 28 40 00 	stb  %o7, [ %g1 ]
    553c:	82 00 60 01 	inc  %g1
    5540:	94 00 40 0b 	add  %g1, %o3, %o2
    5544:	80 a5 00 0a 	cmp  %l4, %o2
    5548:	18 bf ff fc 	bgu  5538 <ee_printf+0x11f8>
    554c:	84 00 bf ff 	add  %g2, -1, %g2
    5550:	80 a7 00 14 	cmp  %i4, %l4
    5554:	22 80 00 1a 	be,a   55bc <ee_printf+0x127c>
    5558:	ba 03 00 1c 	add  %o4, %i4, %i5
    555c:	aa 27 00 14 	sub  %i4, %l4, %l5
    5560:	ad 35 60 02 	srl  %l5, 2, %l6
    5564:	93 2d a0 02 	sll  %l6, 2, %o1
    5568:	80 a2 60 00 	cmp  %o1, 0
    556c:	02 80 00 0d 	be  55a0 <ee_printf+0x1260>
    5570:	90 05 20 01 	add  %l4, 1, %o0
    5574:	9a 10 20 00 	clr  %o5
    5578:	ba 07 40 08 	add  %i5, %o0, %i5
    557c:	e2 27 40 00 	st  %l1, [ %i5 ]
    5580:	9a 03 60 01 	inc  %o5
    5584:	80 a3 40 16 	cmp  %o5, %l6
    5588:	0a bf ff fd 	bcs  557c <ee_printf+0x123c>
    558c:	ba 07 60 04 	add  %i5, 4, %i5
    5590:	82 00 40 09 	add  %g1, %o1, %g1
    5594:	80 a5 40 09 	cmp  %l5, %o1
    5598:	02 80 00 08 	be  55b8 <ee_printf+0x1278>
    559c:	84 20 80 09 	sub  %g2, %o1, %g2
    55a0:	88 10 20 20 	mov  0x20, %g4
    55a4:	c8 28 40 00 	stb  %g4, [ %g1 ]
    55a8:	84 00 bf ff 	add  %g2, -1, %g2
    55ac:	80 a0 a0 00 	cmp  %g2, 0
    55b0:	14 bf ff fd 	bg  55a4 <ee_printf+0x1264>
    55b4:	82 00 60 01 	inc  %g1
    55b8:	ba 03 00 1c 	add  %o4, %i4, %i5
    55bc:	10 bf fb 7a 	b  43a4 <ee_printf+0x64>
    55c0:	d8 0e 20 01 	ldub  [ %i0 + 1 ], %o4
    55c4:	10 bf fd a9 	b  4c68 <ee_printf+0x928>
    55c8:	82 10 20 00 	clr  %g1
    55cc:	10 bf fe 00 	b  4dcc <ee_printf+0xa8c>
    55d0:	b8 10 20 08 	mov  8, %i4
    55d4:	80 8b 60 40 	btst  0x40, %o5
    55d8:	02 80 00 ed 	be  598c <ee_printf+0x164c>
    55dc:	a4 04 a0 04 	add  %l2, 4, %l2
    55e0:	03 00 00 80 	sethi  %hi(0x20000), %g1
    55e4:	82 10 61 28 	or  %g1, 0x128, %g1	! 20128 <state_known_crc+0x114>
    55e8:	d4 08 80 00 	ldub  [ %g2 ], %o2
    55ec:	a8 10 20 3a 	mov  0x3a, %l4
    55f0:	9e 0a a0 ff 	and  %o2, 0xff, %o7
    55f4:	e8 2f be b2 	stb  %l4, [ %fp + -334 ]
    55f8:	91 33 e0 04 	srl  %o7, 4, %o0
    55fc:	aa 0a a0 0f 	and  %o2, 0xf, %l5
    5600:	d8 08 40 08 	ldub  [ %g1 + %o0 ], %o4
    5604:	c6 08 40 15 	ldub  [ %g1 + %l5 ], %g3
    5608:	d8 2f be b0 	stb  %o4, [ %fp + -336 ]
    560c:	c6 2f be b1 	stb  %g3, [ %fp + -335 ]
    5610:	e6 08 a0 01 	ldub  [ %g2 + 1 ], %l3
    5614:	92 0c e0 ff 	and  %l3, 0xff, %o1
    5618:	96 0c e0 0f 	and  %l3, 0xf, %o3
    561c:	89 32 60 04 	srl  %o1, 4, %g4
    5620:	e8 2f be b5 	stb  %l4, [ %fp + -331 ]
    5624:	ec 08 40 0b 	ldub  [ %g1 + %o3 ], %l6
    5628:	d4 08 40 04 	ldub  [ %g1 + %g4 ], %o2
    562c:	ec 2f be b4 	stb  %l6, [ %fp + -332 ]
    5630:	d4 2f be b3 	stb  %o2, [ %fp + -333 ]
    5634:	de 08 a0 02 	ldub  [ %g2 + 2 ], %o7
    5638:	e8 2f be b8 	stb  %l4, [ %fp + -328 ]
    563c:	90 0b e0 ff 	and  %o7, 0xff, %o0
    5640:	aa 0b e0 0f 	and  %o7, 0xf, %l5
    5644:	99 32 20 04 	srl  %o0, 4, %o4
    5648:	c6 08 40 15 	ldub  [ %g1 + %l5 ], %g3
    564c:	e6 08 40 0c 	ldub  [ %g1 + %o4 ], %l3
    5650:	c6 2f be b7 	stb  %g3, [ %fp + -329 ]
    5654:	e6 2f be b6 	stb  %l3, [ %fp + -330 ]
    5658:	d2 08 a0 03 	ldub  [ %g2 + 3 ], %o1
    565c:	96 0a 60 ff 	and  %o1, 0xff, %o3
    5660:	88 0a 60 0f 	and  %o1, 0xf, %g4
    5664:	e8 2f be bb 	stb  %l4, [ %fp + -325 ]
    5668:	d4 08 40 04 	ldub  [ %g1 + %g4 ], %o2
    566c:	ad 32 e0 04 	srl  %o3, 4, %l6
    5670:	d4 2f be ba 	stb  %o2, [ %fp + -326 ]
    5674:	de 08 40 16 	ldub  [ %g1 + %l6 ], %o7
    5678:	de 2f be b9 	stb  %o7, [ %fp + -327 ]
    567c:	d0 08 a0 04 	ldub  [ %g2 + 4 ], %o0
    5680:	e8 2f be be 	stb  %l4, [ %fp + -322 ]
    5684:	aa 0a 20 0f 	and  %o0, 0xf, %l5
    5688:	a8 0a 20 ff 	and  %o0, 0xff, %l4
    568c:	e6 08 40 15 	ldub  [ %g1 + %l5 ], %l3
    5690:	99 35 20 04 	srl  %l4, 4, %o4
    5694:	e6 2f be bd 	stb  %l3, [ %fp + -323 ]
    5698:	c6 08 40 0c 	ldub  [ %g1 + %o4 ], %g3
    569c:	c6 2f be bc 	stb  %g3, [ %fp + -324 ]
    56a0:	c4 08 a0 05 	ldub  [ %g2 + 5 ], %g2
    56a4:	92 08 a0 ff 	and  %g2, 0xff, %o1
    56a8:	97 32 60 04 	srl  %o1, 4, %o3
    56ac:	c8 08 40 0b 	ldub  [ %g1 + %o3 ], %g4
    56b0:	c8 2f be bf 	stb  %g4, [ %fp + -321 ]
    56b4:	ac 08 a0 0f 	and  %g2, 0xf, %l6
    56b8:	80 8b 60 10 	btst  0x10, %o5
    56bc:	c2 08 40 16 	ldub  [ %g1 + %l6 ], %g1
    56c0:	12 80 00 37 	bne  579c <ee_printf+0x145c>
    56c4:	c2 2f be c0 	stb  %g1, [ %fp + -320 ]
    56c8:	80 a7 20 11 	cmp  %i4, 0x11
    56cc:	04 80 01 79 	ble  5cb0 <ee_printf+0x1970>
    56d0:	86 07 3f ff 	add  %i4, -1, %g3
    56d4:	b8 07 3f ef 	add  %i4, -17, %i4
    56d8:	82 20 00 1d 	neg  %i5, %g1
    56dc:	82 08 60 03 	and  %g1, 3, %g1
    56e0:	80 a7 00 01 	cmp  %i4, %g1
    56e4:	18 80 00 eb 	bgu  5a90 <ee_printf+0x1750>
    56e8:	94 10 00 1c 	mov  %i4, %o2
    56ec:	80 a7 20 03 	cmp  %i4, 3
    56f0:	28 80 00 02 	bleu,a   56f8 <ee_printf+0x13b8>
    56f4:	94 10 00 1c 	mov  %i4, %o2
    56f8:	80 a2 a0 00 	cmp  %o2, 0
    56fc:	02 80 00 0c 	be  572c <ee_printf+0x13ec>
    5700:	82 10 00 1d 	mov  %i5, %g1
    5704:	9a 10 20 20 	mov  0x20, %o5
    5708:	da 28 40 00 	stb  %o5, [ %g1 ]
    570c:	82 00 60 01 	inc  %g1
    5710:	9e 20 40 1d 	sub  %g1, %i5, %o7
    5714:	80 a2 80 0f 	cmp  %o2, %o7
    5718:	18 bf ff fc 	bgu  5708 <ee_printf+0x13c8>
    571c:	86 00 ff ff 	add  %g3, -1, %g3
    5720:	80 a7 00 0a 	cmp  %i4, %o2
    5724:	22 80 00 1d 	be,a   5798 <ee_printf+0x1458>
    5728:	ba 07 40 1c 	add  %i5, %i4, %i5
    572c:	90 27 00 0a 	sub  %i4, %o2, %o0
    5730:	a9 32 20 02 	srl  %o0, 2, %l4
    5734:	ab 2d 20 02 	sll  %l4, 2, %l5
    5738:	80 a5 60 00 	cmp  %l5, 0
    573c:	02 80 00 0e 	be  5774 <ee_printf+0x1434>
    5740:	84 10 20 00 	clr  %g2
    5744:	a6 07 40 0a 	add  %i5, %o2, %l3
    5748:	98 10 20 00 	clr  %o4
    574c:	e2 24 c0 00 	st  %l1, [ %l3 ]
    5750:	98 03 20 01 	inc  %o4
    5754:	80 a3 00 14 	cmp  %o4, %l4
    5758:	0a bf ff fd 	bcs  574c <ee_printf+0x140c>
    575c:	a6 04 e0 04 	add  %l3, 4, %l3
    5760:	82 00 40 15 	add  %g1, %l5, %g1
    5764:	80 a2 00 15 	cmp  %o0, %l5
    5768:	02 80 00 0b 	be  5794 <ee_printf+0x1454>
    576c:	86 20 c0 15 	sub  %g3, %l5, %g3
    5770:	84 10 20 00 	clr  %g2
    5774:	92 00 e0 01 	add  %g3, 1, %o1
    5778:	96 10 20 20 	mov  0x20, %o3
    577c:	d6 28 40 02 	stb  %o3, [ %g1 + %g2 ]
    5780:	84 00 a0 01 	inc  %g2
    5784:	88 22 40 02 	sub  %o1, %g2, %g4
    5788:	80 a1 20 11 	cmp  %g4, 0x11
    578c:	34 bf ff fd 	bg,a   5780 <ee_printf+0x1440>
    5790:	d6 28 40 02 	stb  %o3, [ %g1 + %g2 ]
    5794:	ba 07 40 1c 	add  %i5, %i4, %i5
    5798:	b8 10 20 10 	mov  0x10, %i4
    579c:	80 8f 60 03 	btst  3, %i5
    57a0:	12 80 01 60 	bne  5d20 <ee_printf+0x19e0>
    57a4:	c2 07 be b0 	ld  [ %fp + -336 ], %g1
    57a8:	c2 27 40 00 	st  %g1, [ %i5 ]
    57ac:	c2 07 be b4 	ld  [ %fp + -332 ], %g1
    57b0:	c2 27 60 04 	st  %g1, [ %i5 + 4 ]
    57b4:	c2 07 be b8 	ld  [ %fp + -328 ], %g1
    57b8:	ac 07 60 10 	add  %i5, 0x10, %l6
    57bc:	c2 27 60 08 	st  %g1, [ %i5 + 8 ]
    57c0:	94 10 20 01 	mov  1, %o2
    57c4:	c2 07 be bc 	ld  [ %fp + -324 ], %g1
    57c8:	9a 10 20 10 	mov  0x10, %o5
    57cc:	c2 27 60 0c 	st  %g1, [ %i5 + 0xc ]
    57d0:	82 10 00 0d 	mov  %o5, %g1
    57d4:	9e 03 40 0a 	add  %o5, %o2, %o7
    57d8:	90 25 80 0d 	sub  %l6, %o5, %o0
    57dc:	a8 07 be b0 	add  %fp, -336, %l4
    57e0:	ea 0d 00 01 	ldub  [ %l4 + %g1 ], %l5
    57e4:	ea 2a 00 01 	stb  %l5, [ %o0 + %g1 ]
    57e8:	82 00 60 01 	inc  %g1
    57ec:	80 a0 40 0f 	cmp  %g1, %o7
    57f0:	32 bf ff fd 	bne,a   57e4 <ee_printf+0x14a4>
    57f4:	ea 0d 00 01 	ldub  [ %l4 + %g1 ], %l5
    57f8:	98 07 60 11 	add  %i5, 0x11, %o4
    57fc:	80 a7 20 11 	cmp  %i4, 0x11
    5800:	04 80 01 27 	ble  5c9c <ee_printf+0x195c>
    5804:	86 07 3f ff 	add  %i4, -1, %g3
    5808:	b8 07 3f ef 	add  %i4, -17, %i4
    580c:	a6 20 00 0c 	neg  %o4, %l3
    5810:	92 0c e0 03 	and  %l3, 3, %o1
    5814:	80 a2 40 1c 	cmp  %o1, %i4
    5818:	38 80 00 02 	bgu,a   5820 <ee_printf+0x14e0>
    581c:	92 10 00 1c 	mov  %i4, %o1
    5820:	80 a7 20 03 	cmp  %i4, 3
    5824:	28 80 00 02 	bleu,a   582c <ee_printf+0x14ec>
    5828:	92 10 00 1c 	mov  %i4, %o1
    582c:	80 a2 60 00 	cmp  %o1, 0
    5830:	02 80 00 0e 	be  5868 <ee_printf+0x1528>
    5834:	82 10 00 0c 	mov  %o4, %g1
    5838:	84 10 3f ef 	mov  -17, %g2
    583c:	96 10 20 20 	mov  0x20, %o3
    5840:	88 20 80 1d 	sub  %g2, %i5, %g4
    5844:	d6 28 40 00 	stb  %o3, [ %g1 ]
    5848:	82 00 60 01 	inc  %g1
    584c:	ac 00 40 04 	add  %g1, %g4, %l6
    5850:	80 a2 40 16 	cmp  %o1, %l6
    5854:	18 bf ff fc 	bgu  5844 <ee_printf+0x1504>
    5858:	86 00 ff ff 	add  %g3, -1, %g3
    585c:	80 a7 00 09 	cmp  %i4, %o1
    5860:	22 80 00 1d 	be,a   58d4 <ee_printf+0x1594>
    5864:	ba 03 00 1c 	add  %o4, %i4, %i5
    5868:	94 27 00 09 	sub  %i4, %o1, %o2
    586c:	9f 32 a0 02 	srl  %o2, 2, %o7
    5870:	9b 2b e0 02 	sll  %o7, 2, %o5
    5874:	80 a3 60 00 	cmp  %o5, 0
    5878:	02 80 00 0d 	be  58ac <ee_printf+0x156c>
    587c:	90 02 60 11 	add  %o1, 0x11, %o0
    5880:	a8 10 20 00 	clr  %l4
    5884:	ba 07 40 08 	add  %i5, %o0, %i5
    5888:	e2 27 40 00 	st  %l1, [ %i5 ]
    588c:	a8 05 20 01 	inc  %l4
    5890:	80 a5 00 0f 	cmp  %l4, %o7
    5894:	0a bf ff fd 	bcs  5888 <ee_printf+0x1548>
    5898:	ba 07 60 04 	add  %i5, 4, %i5
    589c:	82 00 40 0d 	add  %g1, %o5, %g1
    58a0:	80 a2 80 0d 	cmp  %o2, %o5
    58a4:	02 80 00 0b 	be  58d0 <ee_printf+0x1590>
    58a8:	86 20 c0 0d 	sub  %g3, %o5, %g3
    58ac:	92 10 20 00 	clr  %o1
    58b0:	aa 00 e0 01 	add  %g3, 1, %l5
    58b4:	a6 10 20 20 	mov  0x20, %l3
    58b8:	e6 28 40 09 	stb  %l3, [ %g1 + %o1 ]
    58bc:	92 02 60 01 	inc  %o1
    58c0:	96 25 40 09 	sub  %l5, %o1, %o3
    58c4:	80 a2 e0 11 	cmp  %o3, 0x11
    58c8:	34 bf ff fd 	bg,a   58bc <ee_printf+0x157c>
    58cc:	e6 28 40 09 	stb  %l3, [ %g1 + %o1 ]
    58d0:	ba 03 00 1c 	add  %o4, %i4, %i5
    58d4:	10 bf fa b4 	b  43a4 <ee_printf+0x64>
    58d8:	d8 0e 20 01 	ldub  [ %i0 + 1 ], %o4
    58dc:	e6 04 80 00 	ld  [ %l2 ], %l3
    58e0:	9e 06 20 02 	add  %i0, 2, %o7
    58e4:	a4 04 a0 04 	add  %l2, 4, %l2
    58e8:	80 a4 e0 00 	cmp  %l3, 0
    58ec:	16 bf fb 3d 	bge  45e0 <ee_printf+0x2a0>
    58f0:	c2 0e 20 02 	ldub  [ %i0 + 2 ], %g1
    58f4:	a6 10 20 00 	clr  %l3
    58f8:	10 bf fa d4 	b  4448 <ee_printf+0x108>
    58fc:	b0 10 00 0f 	mov  %o7, %i0
    5900:	34 80 00 3b 	bg,a   59ec <ee_printf+0x16ac>
    5904:	ac 07 80 16 	add  %fp, %l6, %l6
    5908:	03 00 00 80 	sethi  %hi(0x20000), %g1
    590c:	10 bf fb b8 	b  47ec <ee_printf+0x4ac>
    5910:	82 10 61 00 	or  %g1, 0x100, %g1	! 20100 <state_known_crc+0xec>
    5914:	34 80 00 26 	bg,a   59ac <ee_printf+0x166c>
    5918:	ac 07 80 16 	add  %fp, %l6, %l6
    591c:	03 00 00 80 	sethi  %hi(0x20000), %g1
    5920:	10 bf fb 8b 	b  474c <ee_printf+0x40c>
    5924:	82 10 61 00 	or  %g1, 0x100, %g1	! 20100 <state_known_crc+0xec>
    5928:	34 80 00 41 	bg,a   5a2c <ee_printf+0x16ec>
    592c:	98 07 80 0c 	add  %fp, %o4, %o4
    5930:	03 00 00 80 	sethi  %hi(0x20000), %g1
    5934:	10 bf fb d6 	b  488c <ee_printf+0x54c>
    5938:	82 10 61 00 	or  %g1, 0x100, %g1	! 20100 <state_known_crc+0xec>
    593c:	24 80 00 4c 	ble,a   5a6c <ee_printf+0x172c>
    5940:	03 00 00 80 	sethi  %hi(0x20000), %g1
    5944:	83 38 e0 1f 	sra  %g3, 0x1f, %g1
    5948:	81 80 60 00 	mov  %g1, %y
    594c:	01 00 00 00 	nop 
    5950:	01 00 00 00 	nop 
    5954:	01 00 00 00 	nop 
    5958:	88 78 e0 0a 	sdiv  %g3, 0xa, %g4
    595c:	99 29 20 03 	sll  %g4, 3, %o4
    5960:	03 00 00 80 	sethi  %hi(0x20000), %g1
    5964:	a6 01 00 04 	add  %g4, %g4, %l3
    5968:	82 10 61 00 	or  %g1, 0x100, %g1
    596c:	96 04 c0 0c 	add  %l3, %o4, %o3
    5970:	e8 08 40 04 	ldub  [ %g1 + %g4 ], %l4
    5974:	86 20 c0 0b 	sub  %g3, %o3, %g3
    5978:	e8 2f be b0 	stb  %l4, [ %fp + -336 ]
    597c:	ac 10 20 03 	mov  3, %l6
    5980:	9e 10 20 02 	mov  2, %o7
    5984:	10 bf fb 4b 	b  46b0 <ee_printf+0x370>
    5988:	98 10 20 01 	mov  1, %o4
    598c:	03 00 00 80 	sethi  %hi(0x20000), %g1
    5990:	10 bf ff 16 	b  55e8 <ee_printf+0x12a8>
    5994:	82 10 61 00 	or  %g1, 0x100, %g1	! 20100 <state_known_crc+0xec>
    5998:	02 bf fd 34 	be  4e68 <ee_printf+0xb28>
    599c:	ac 10 20 00 	clr  %l6
    59a0:	b8 07 3f ff 	add  %i4, -1, %i4
    59a4:	10 bf fd 31 	b  4e68 <ee_printf+0xb28>
    59a8:	ac 10 20 20 	mov  0x20, %l6
    59ac:	83 38 e0 1f 	sra  %g3, 0x1f, %g1
    59b0:	81 80 60 00 	mov  %g1, %y
    59b4:	01 00 00 00 	nop 
    59b8:	01 00 00 00 	nop 
    59bc:	01 00 00 00 	nop 
    59c0:	96 78 e0 0a 	sdiv  %g3, 0xa, %o3
    59c4:	03 00 00 80 	sethi  %hi(0x20000), %g1
    59c8:	92 02 c0 0b 	add  %o3, %o3, %o1
    59cc:	82 10 61 00 	or  %g1, 0x100, %g1
    59d0:	95 2a e0 03 	sll  %o3, 3, %o2
    59d4:	d0 08 40 0b 	ldub  [ %g1 + %o3 ], %o0
    59d8:	a6 02 40 0a 	add  %o1, %o2, %l3
    59dc:	d0 2d be b0 	stb  %o0, [ %l6 + -336 ]
    59e0:	86 20 c0 13 	sub  %g3, %l3, %g3
    59e4:	10 bf fb 5a 	b  474c <ee_printf+0x40c>
    59e8:	ac 03 e0 02 	add  %o7, 2, %l6
    59ec:	83 38 e0 1f 	sra  %g3, 0x1f, %g1
    59f0:	81 80 60 00 	mov  %g1, %y
    59f4:	01 00 00 00 	nop 
    59f8:	01 00 00 00 	nop 
    59fc:	01 00 00 00 	nop 
    5a00:	96 78 e0 0a 	sdiv  %g3, 0xa, %o3
    5a04:	03 00 00 80 	sethi  %hi(0x20000), %g1
    5a08:	9e 02 c0 0b 	add  %o3, %o3, %o7
    5a0c:	82 10 61 00 	or  %g1, 0x100, %g1
    5a10:	93 2a e0 03 	sll  %o3, 3, %o1
    5a14:	d4 08 40 0b 	ldub  [ %g1 + %o3 ], %o2
    5a18:	90 03 c0 09 	add  %o7, %o1, %o0
    5a1c:	d4 2d be b0 	stb  %o2, [ %l6 + -336 ]
    5a20:	86 20 c0 08 	sub  %g3, %o0, %g3
    5a24:	10 bf fb 72 	b  47ec <ee_printf+0x4ac>
    5a28:	ac 01 20 02 	add  %g4, 2, %l6
    5a2c:	9f 38 a0 1f 	sra  %g2, 0x1f, %o7
    5a30:	81 83 e0 00 	mov  %o7, %y
    5a34:	01 00 00 00 	nop 
    5a38:	01 00 00 00 	nop 
    5a3c:	01 00 00 00 	nop 
    5a40:	88 78 a0 0a 	sdiv  %g2, 0xa, %g4
    5a44:	03 00 00 80 	sethi  %hi(0x20000), %g1
    5a48:	92 01 00 04 	add  %g4, %g4, %o1
    5a4c:	82 10 61 00 	or  %g1, 0x100, %g1
    5a50:	97 29 20 03 	sll  %g4, 3, %o3
    5a54:	de 08 40 04 	ldub  [ %g1 + %g4 ], %o7
    5a58:	94 02 40 0b 	add  %o1, %o3, %o2
    5a5c:	de 2b 3e b0 	stb  %o7, [ %o4 + -336 ]
    5a60:	84 20 80 0a 	sub  %g2, %o2, %g2
    5a64:	10 bf fb 8a 	b  488c <ee_printf+0x54c>
    5a68:	98 04 e0 02 	add  %l3, 2, %o4
    5a6c:	ac 10 20 02 	mov  2, %l6
    5a70:	9e 10 20 01 	mov  1, %o7
    5a74:	98 10 20 00 	clr  %o4
    5a78:	10 bf fb 0e 	b  46b0 <ee_printf+0x370>
    5a7c:	82 10 61 00 	or  %g1, 0x100, %g1
    5a80:	91 a0 00 a8 	fnegs  %f8, %f8
    5a84:	b8 07 3f ff 	add  %i4, -1, %i4
    5a88:	10 bf fc f8 	b  4e68 <ee_printf+0xb28>
    5a8c:	ac 10 20 2d 	mov  0x2d, %l6
    5a90:	10 bf ff 17 	b  56ec <ee_printf+0x13ac>
    5a94:	94 10 00 01 	mov  %g1, %o2
    5a98:	d6 07 be 50 	ld  [ %fp + -432 ], %o3
    5a9c:	94 10 00 08 	mov  %o0, %o2
    5aa0:	80 a2 e0 00 	cmp  %o3, 0
    5aa4:	14 80 00 0b 	bg  5ad0 <ee_printf+0x1790>
    5aa8:	92 10 20 2e 	mov  0x2e, %o1
    5aac:	10 80 00 10 	b  5aec <ee_printf+0x17ac>
    5ab0:	9e 10 20 30 	mov  0x30, %o7
    5ab4:	da 28 40 00 	stb  %o5, [ %g1 ]
    5ab8:	94 02 a0 01 	inc  %o2
    5abc:	82 00 60 01 	inc  %g1
    5ac0:	c4 4a 80 00 	ldsb  [ %o2 ], %g2
    5ac4:	80 a0 a0 00 	cmp  %g2, 0
    5ac8:	02 80 00 44 	be  5bd8 <ee_printf+0x1898>
    5acc:	da 0a 80 00 	ldub  [ %o2 ], %o5
    5ad0:	88 22 80 08 	sub  %o2, %o0, %g4
    5ad4:	80 a2 c0 04 	cmp  %o3, %g4
    5ad8:	32 bf ff f8 	bne,a   5ab8 <ee_printf+0x1778>
    5adc:	da 28 40 00 	stb  %o5, [ %g1 ]
    5ae0:	d2 28 40 00 	stb  %o1, [ %g1 ]
    5ae4:	10 bf ff f4 	b  5ab4 <ee_printf+0x1774>
    5ae8:	82 00 60 01 	inc  %g1
    5aec:	98 10 20 2e 	mov  0x2e, %o4
    5af0:	de 28 40 00 	stb  %o7, [ %g1 ]
    5af4:	d8 28 60 01 	stb  %o4, [ %g1 + 1 ]
    5af8:	84 a0 00 0b 	subcc  %g0, %o3, %g2
    5afc:	02 80 00 30 	be  5bbc <ee_printf+0x187c>
    5b00:	82 00 60 02 	add  %g1, 2, %g1
    5b04:	86 20 00 01 	neg  %g1, %g3
    5b08:	96 08 e0 03 	and  %g3, 3, %o3
    5b0c:	80 a2 c0 02 	cmp  %o3, %g2
    5b10:	38 80 00 02 	bgu,a   5b18 <ee_printf+0x17d8>
    5b14:	96 10 00 02 	mov  %g2, %o3
    5b18:	80 a0 a0 03 	cmp  %g2, 3
    5b1c:	28 80 00 02 	bleu,a   5b24 <ee_printf+0x17e4>
    5b20:	96 10 00 02 	mov  %g2, %o3
    5b24:	88 10 00 01 	mov  %g1, %g4
    5b28:	80 a2 e0 00 	cmp  %o3, 0
    5b2c:	02 80 00 0b 	be  5b58 <ee_printf+0x1818>
    5b30:	9e 10 20 00 	clr  %o7
    5b34:	92 10 20 30 	mov  0x30, %o1
    5b38:	d2 29 00 00 	stb  %o1, [ %g4 ]
    5b3c:	9e 03 e0 01 	inc  %o7
    5b40:	80 a2 c0 0f 	cmp  %o3, %o7
    5b44:	18 bf ff fd 	bgu  5b38 <ee_printf+0x17f8>
    5b48:	88 01 20 01 	inc  %g4
    5b4c:	80 a0 80 0b 	cmp  %g2, %o3
    5b50:	22 80 00 1b 	be,a   5bbc <ee_printf+0x187c>
    5b54:	82 00 40 02 	add  %g1, %g2, %g1
    5b58:	94 20 80 0b 	sub  %g2, %o3, %o2
    5b5c:	93 32 a0 02 	srl  %o2, 2, %o1
    5b60:	99 2a 60 02 	sll  %o1, 2, %o4
    5b64:	80 a3 20 00 	cmp  %o4, 0
    5b68:	22 80 00 0e 	be,a   5ba0 <ee_printf+0x1860>
    5b6c:	94 10 20 30 	mov  0x30, %o2
    5b70:	86 00 40 0b 	add  %g1, %o3, %g3
    5b74:	96 10 20 00 	clr  %o3
    5b78:	f4 20 c0 00 	st  %i2, [ %g3 ]
    5b7c:	96 02 e0 01 	inc  %o3
    5b80:	80 a2 c0 09 	cmp  %o3, %o1
    5b84:	0a bf ff fd 	bcs  5b78 <ee_printf+0x1838>
    5b88:	86 00 e0 04 	add  %g3, 4, %g3
    5b8c:	88 01 00 0c 	add  %g4, %o4, %g4
    5b90:	80 a2 80 0c 	cmp  %o2, %o4
    5b94:	02 80 00 09 	be  5bb8 <ee_printf+0x1878>
    5b98:	9e 03 c0 0c 	add  %o7, %o4, %o7
    5b9c:	94 10 20 30 	mov  0x30, %o2
    5ba0:	92 21 00 0f 	sub  %g4, %o7, %o1
    5ba4:	d4 2a 40 0f 	stb  %o2, [ %o1 + %o7 ]
    5ba8:	9e 03 e0 01 	inc  %o7
    5bac:	80 a0 80 0f 	cmp  %g2, %o7
    5bb0:	34 bf ff fe 	bg,a   5ba8 <ee_printf+0x1868>
    5bb4:	d4 2a 40 0f 	stb  %o2, [ %o1 + %o7 ]
    5bb8:	82 00 40 02 	add  %g1, %g2, %g1
    5bbc:	da 28 40 00 	stb  %o5, [ %g1 ]
    5bc0:	90 02 20 01 	inc  %o0
    5bc4:	82 00 60 01 	inc  %g1
    5bc8:	c4 4a 00 00 	ldsb  [ %o0 ], %g2
    5bcc:	80 a0 a0 00 	cmp  %g2, 0
    5bd0:	12 bf ff fb 	bne  5bbc <ee_printf+0x187c>
    5bd4:	da 0a 00 00 	ldub  [ %o0 ], %o5
    5bd8:	80 8d 60 20 	btst  0x20, %l5
    5bdc:	02 bf fc f0 	be  4f9c <ee_printf+0xc5c>
    5be0:	c0 28 40 00 	clrb  [ %g1 ]
    5be4:	80 a4 e0 00 	cmp  %l3, 0
    5be8:	12 bf fc ee 	bne  4fa0 <ee_printf+0xc60>
    5bec:	c2 0f be 60 	ldub  [ %fp + -416 ], %g1
    5bf0:	c2 4f be 60 	ldsb  [ %fp + -416 ], %g1
    5bf4:	80 a0 60 00 	cmp  %g1, 0
    5bf8:	02 80 00 4e 	be  5d30 <ee_printf+0x19f0>
    5bfc:	e6 0f be 60 	ldub  [ %fp + -416 ], %l3
    5c00:	80 a0 60 2e 	cmp  %g1, 0x2e
    5c04:	02 bf fc eb 	be  4fb0 <ee_printf+0xc70>
    5c08:	82 0c ff df 	and  %l3, -33, %g1
    5c0c:	83 28 60 18 	sll  %g1, 0x18, %g1
    5c10:	83 38 60 18 	sra  %g1, 0x18, %g1
    5c14:	80 a0 60 45 	cmp  %g1, 0x45
    5c18:	02 80 00 28 	be  5cb8 <ee_printf+0x1978>
    5c1c:	94 07 be 60 	add  %fp, -416, %o2
    5c20:	10 80 00 0b 	b  5c4c <ee_printf+0x190c>
    5c24:	82 07 be 61 	add  %fp, -415, %g1
    5c28:	80 a2 20 2e 	cmp  %o0, 0x2e
    5c2c:	02 bf fc e2 	be  4fb4 <ee_printf+0xc74>
    5c30:	90 07 be 60 	add  %fp, -416, %o0
    5c34:	98 0b 7f df 	and  %o5, -33, %o4
    5c38:	97 2b 20 18 	sll  %o4, 0x18, %o3
    5c3c:	87 3a e0 18 	sra  %o3, 0x18, %g3
    5c40:	80 a0 e0 45 	cmp  %g3, 0x45
    5c44:	02 80 00 1d 	be  5cb8 <ee_printf+0x1978>
    5c48:	82 00 60 01 	inc  %g1
    5c4c:	d0 48 40 00 	ldsb  [ %g1 ], %o0
    5c50:	94 10 00 01 	mov  %g1, %o2
    5c54:	80 a2 20 00 	cmp  %o0, 0
    5c58:	12 bf ff f4 	bne  5c28 <ee_printf+0x18e8>
    5c5c:	da 08 40 00 	ldub  [ %g1 ], %o5
    5c60:	c0 2a a0 01 	clrb  [ %o2 + 1 ]
    5c64:	82 10 20 2e 	mov  0x2e, %g1
    5c68:	10 bf fc cd 	b  4f9c <ee_printf+0xc5c>
    5c6c:	c2 2a 80 00 	stb  %g1, [ %o2 ]
    5c70:	03 00 00 80 	sethi  %hi(0x20000), %g1
    5c74:	10 bf fb a6 	b  4b0c <ee_printf+0x7cc>
    5c78:	ac 10 61 50 	or  %g1, 0x150, %l6	! 20150 <state_known_crc+0x13c>
    5c7c:	10 bf fb 41 	b  4980 <ee_printf+0x640>
    5c80:	b8 10 00 04 	mov  %g4, %i4
    5c84:	10 bf fb b2 	b  4b4c <ee_printf+0x80c>
    5c88:	a6 10 20 00 	clr  %l3
    5c8c:	10 bf fd 0d 	b  50c0 <ee_printf+0xd80>
    5c90:	b8 10 00 04 	mov  %g4, %i4
    5c94:	10 bf fb e7 	b  4c30 <ee_printf+0x8f0>
    5c98:	b8 10 00 0d 	mov  %o5, %i4
    5c9c:	ba 10 00 0c 	mov  %o4, %i5
    5ca0:	10 bf f9 c1 	b  43a4 <ee_printf+0x64>
    5ca4:	d8 0e 20 01 	ldub  [ %i0 + 1 ], %o4
    5ca8:	10 bf fd 48 	b  51c8 <ee_printf+0xe88>
    5cac:	b8 10 00 04 	mov  %g4, %i4
    5cb0:	10 bf fe bb 	b  579c <ee_printf+0x145c>
    5cb4:	b8 10 00 03 	mov  %g3, %i4
    5cb8:	88 02 a1 00 	add  %o2, 0x100, %g4
    5cbc:	10 80 00 04 	b  5ccc <ee_printf+0x198c>
    5cc0:	82 10 00 0a 	mov  %o2, %g1
    5cc4:	22 80 00 08 	be,a   5ce4 <ee_printf+0x19a4>
    5cc8:	82 20 40 0a 	sub  %g1, %o2, %g1
    5ccc:	82 00 60 01 	inc  %g1
    5cd0:	d2 48 40 00 	ldsb  [ %g1 ], %o1
    5cd4:	80 a2 60 00 	cmp  %o1, 0
    5cd8:	12 bf ff fb 	bne  5cc4 <ee_printf+0x1984>
    5cdc:	80 a0 40 04 	cmp  %g1, %g4
    5ce0:	82 20 40 0a 	sub  %g1, %o2, %g1
    5ce4:	80 a0 60 00 	cmp  %g1, 0
    5ce8:	24 bf ff e0 	ble,a   5c68 <ee_printf+0x1928>
    5cec:	82 10 20 2e 	mov  0x2e, %g1
    5cf0:	de 0a 80 01 	ldub  [ %o2 + %g1 ], %o7
    5cf4:	84 02 80 01 	add  %o2, %g1, %g2
    5cf8:	82 80 7f ff 	addcc  %g1, -1, %g1
    5cfc:	12 bf ff fd 	bne  5cf0 <ee_printf+0x19b0>
    5d00:	de 28 a0 01 	stb  %o7, [ %g2 + 1 ]
    5d04:	82 10 20 2e 	mov  0x2e, %g1
    5d08:	10 bf fc a5 	b  4f9c <ee_printf+0xc5c>
    5d0c:	c2 2a 80 00 	stb  %g1, [ %o2 ]
    5d10:	a6 10 00 1d 	mov  %i5, %l3
    5d14:	82 10 20 00 	clr  %g1
    5d18:	10 bf fb 30 	b  49d8 <ee_printf+0x698>
    5d1c:	92 07 be b0 	add  %fp, -336, %o1
    5d20:	ac 10 00 1d 	mov  %i5, %l6
    5d24:	94 10 20 11 	mov  0x11, %o2
    5d28:	10 bf fe aa 	b  57d0 <ee_printf+0x1490>
    5d2c:	9a 10 20 00 	clr  %o5
    5d30:	94 07 be 60 	add  %fp, -416, %o2
    5d34:	10 bf ff cc 	b  5c64 <ee_printf+0x1924>
    5d38:	c0 2a a0 01 	clrb  [ %o2 + 1 ]
    5d3c:	9a 10 00 1d 	mov  %i5, %o5
    5d40:	82 10 20 00 	clr  %g1
    5d44:	10 bf fd 3e 	b  523c <ee_printf+0xefc>
    5d48:	88 07 be 60 	add  %fp, -416, %g4
    5d4c:	aa 10 00 1d 	mov  %i5, %l5
    5d50:	10 bf fb dd 	b  4cc4 <ee_printf+0x984>
    5d54:	82 10 20 00 	clr  %g1
    5d58:	10 bf fc 62 	b  4ee0 <ee_printf+0xba0>
    5d5c:	88 10 20 01 	mov  1, %g4
    5d60:	80 8d 60 20 	btst  0x20, %l5
    5d64:	12 bf ff a3 	bne  5bf0 <ee_printf+0x18b0>
    5d68:	c0 28 60 01 	clrb  [ %g1 + 1 ]
    5d6c:	10 bf fc 8d 	b  4fa0 <ee_printf+0xc60>
    5d70:	c2 0f be 60 	ldub  [ %fp + -416 ], %g1

00005d74 <cmp_idx>:
    5d74:	80 a2 a0 00 	cmp  %o2, 0
    5d78:	22 80 00 06 	be,a   5d90 <cmp_idx+0x1c>
    5d7c:	c2 12 00 00 	lduh  [ %o0 ], %g1
    5d80:	d0 52 20 02 	ldsh  [ %o0 + 2 ], %o0
    5d84:	c2 52 60 02 	ldsh  [ %o1 + 2 ], %g1
    5d88:	81 c3 e0 08 	retl 
    5d8c:	90 22 00 01 	sub  %o0, %g1, %o0
    5d90:	85 28 60 10 	sll  %g1, 0x10, %g2
    5d94:	82 08 7f 00 	and  %g1, -256, %g1
    5d98:	87 30 a0 18 	srl  %g2, 0x18, %g3
    5d9c:	82 10 c0 01 	or  %g3, %g1, %g1
    5da0:	c2 32 00 00 	sth  %g1, [ %o0 ]
    5da4:	c2 12 40 00 	lduh  [ %o1 ], %g1
    5da8:	89 28 60 10 	sll  %g1, 0x10, %g4
    5dac:	82 08 7f 00 	and  %g1, -256, %g1
    5db0:	95 31 20 18 	srl  %g4, 0x18, %o2
    5db4:	82 12 80 01 	or  %o2, %g1, %g1
    5db8:	d0 52 20 02 	ldsh  [ %o0 + 2 ], %o0
    5dbc:	c2 32 40 00 	sth  %g1, [ %o1 ]
    5dc0:	c2 52 60 02 	ldsh  [ %o1 + 2 ], %g1
    5dc4:	81 c3 e0 08 	retl 
    5dc8:	90 22 00 01 	sub  %o0, %g1, %o0

00005dcc <core_list_mergesort.constprop.1>:
    5dcc:	9d e3 bf a0 	save  %sp, -96, %sp
    5dd0:	80 a6 20 00 	cmp  %i0, 0
    5dd4:	02 80 00 2f 	be  5e90 <core_list_mergesort.constprop.1+0xc4>
    5dd8:	86 10 20 01 	mov  1, %g3
    5ddc:	9a 10 20 00 	clr  %o5
    5de0:	88 10 20 00 	clr  %g4
    5de4:	b6 10 20 00 	clr  %i3
    5de8:	b6 06 e0 01 	inc  %i3
    5dec:	84 10 00 18 	mov  %i0, %g2
    5df0:	82 10 20 00 	clr  %g1
    5df4:	c4 00 80 00 	ld  [ %g2 ], %g2
    5df8:	80 a0 a0 00 	cmp  %g2, 0
    5dfc:	02 80 00 05 	be  5e10 <core_list_mergesort.constprop.1+0x44>
    5e00:	82 00 60 01 	inc  %g1
    5e04:	80 a0 40 03 	cmp  %g1, %g3
    5e08:	26 bf ff fc 	bl,a   5df8 <core_list_mergesort.constprop.1+0x2c>
    5e0c:	c4 00 80 00 	ld  [ %g2 ], %g2
    5e10:	b8 10 00 18 	mov  %i0, %i4
    5e14:	ba 10 00 03 	mov  %g3, %i5
    5e18:	80 a0 60 00 	cmp  %g1, 0
    5e1c:	02 80 00 10 	be  5e5c <core_list_mergesort.constprop.1+0x90>
    5e20:	b0 10 00 02 	mov  %g2, %i0
    5e24:	80 a6 20 00 	cmp  %i0, 0
    5e28:	12 80 00 1f 	bne  5ea4 <core_list_mergesort.constprop.1+0xd8>
    5e2c:	80 a7 60 00 	cmp  %i5, 0
    5e30:	b4 10 00 1c 	mov  %i4, %i2
    5e34:	82 00 7f ff 	add  %g1, -1, %g1
    5e38:	f8 07 00 00 	ld  [ %i4 ], %i4
    5e3c:	80 a1 20 00 	cmp  %g4, 0
    5e40:	22 80 00 17 	be,a   5e9c <core_list_mergesort.constprop.1+0xd0>
    5e44:	9a 10 00 1a 	mov  %i2, %o5
    5e48:	f4 21 00 00 	st  %i2, [ %g4 ]
    5e4c:	88 10 00 1a 	mov  %i2, %g4
    5e50:	80 a0 60 00 	cmp  %g1, 0
    5e54:	12 bf ff f5 	bne  5e28 <core_list_mergesort.constprop.1+0x5c>
    5e58:	80 a6 20 00 	cmp  %i0, 0
    5e5c:	80 a6 20 00 	cmp  %i0, 0
    5e60:	12 80 00 2a 	bne  5f08 <core_list_mergesort.constprop.1+0x13c>
    5e64:	80 a7 60 00 	cmp  %i5, 0
    5e68:	80 a6 20 00 	cmp  %i0, 0
    5e6c:	32 bf ff e0 	bne,a   5dec <core_list_mergesort.constprop.1+0x20>
    5e70:	b6 06 e0 01 	inc  %i3
    5e74:	80 a6 e0 01 	cmp  %i3, 1
    5e78:	02 80 00 28 	be  5f18 <core_list_mergesort.constprop.1+0x14c>
    5e7c:	c0 21 00 00 	clr  [ %g4 ]
    5e80:	b0 10 00 0d 	mov  %o5, %i0
    5e84:	80 a6 20 00 	cmp  %i0, 0
    5e88:	12 bf ff d5 	bne  5ddc <core_list_mergesort.constprop.1+0x10>
    5e8c:	86 00 c0 03 	add  %g3, %g3, %g3
    5e90:	c0 20 20 00 	clr  [ %g0 ]
    5e94:	81 c7 e0 08 	ret 
    5e98:	81 e8 00 00 	restore 
    5e9c:	10 bf ff ed 	b  5e50 <core_list_mergesort.constprop.1+0x84>
    5ea0:	88 10 00 1a 	mov  %i2, %g4
    5ea4:	02 bf ff e4 	be  5e34 <core_list_mergesort.constprop.1+0x68>
    5ea8:	b4 10 00 1c 	mov  %i4, %i2
    5eac:	f4 07 20 04 	ld  [ %i4 + 4 ], %i2
    5eb0:	c4 06 20 04 	ld  [ %i0 + 4 ], %g2
    5eb4:	f2 16 80 00 	lduh  [ %i2 ], %i1
    5eb8:	9f 2e 60 10 	sll  %i1, 0x10, %o7
    5ebc:	b2 0e 7f 00 	and  %i1, -256, %i1
    5ec0:	9f 33 e0 18 	srl  %o7, 0x18, %o7
    5ec4:	b2 13 c0 19 	or  %o7, %i1, %i1
    5ec8:	f2 36 80 00 	sth  %i1, [ %i2 ]
    5ecc:	f2 10 80 00 	lduh  [ %g2 ], %i1
    5ed0:	9f 2e 60 10 	sll  %i1, 0x10, %o7
    5ed4:	b2 0e 7f 00 	and  %i1, -256, %i1
    5ed8:	9f 33 e0 18 	srl  %o7, 0x18, %o7
    5edc:	b2 13 c0 19 	or  %o7, %i1, %i1
    5ee0:	f2 30 80 00 	sth  %i1, [ %g2 ]
    5ee4:	f4 56 a0 02 	ldsh  [ %i2 + 2 ], %i2
    5ee8:	c4 50 a0 02 	ldsh  [ %g2 + 2 ], %g2
    5eec:	b2 26 80 02 	sub  %i2, %g2, %i1
    5ef0:	80 a6 60 00 	cmp  %i1, 0
    5ef4:	04 bf ff cf 	ble  5e30 <core_list_mergesort.constprop.1+0x64>
    5ef8:	b4 10 00 18 	mov  %i0, %i2
    5efc:	ba 07 7f ff 	add  %i5, -1, %i5
    5f00:	10 bf ff cf 	b  5e3c <core_list_mergesort.constprop.1+0x70>
    5f04:	f0 06 00 00 	ld  [ %i0 ], %i0
    5f08:	04 bf ff d9 	ble  5e6c <core_list_mergesort.constprop.1+0xa0>
    5f0c:	80 a6 20 00 	cmp  %i0, 0
    5f10:	10 bf ff fb 	b  5efc <core_list_mergesort.constprop.1+0x130>
    5f14:	b4 10 00 18 	mov  %i0, %i2
    5f18:	81 c7 e0 08 	ret 
    5f1c:	91 e8 00 0d 	restore  %g0, %o5, %o0

00005f20 <calc_func>:
    5f20:	9d e3 bf a0 	save  %sp, -96, %sp
    5f24:	fa 16 00 00 	lduh  [ %i0 ], %i5
    5f28:	80 8f 60 80 	btst  0x80, %i5
    5f2c:	12 80 00 2e 	bne  5fe4 <calc_func+0xc4>
    5f30:	83 2f 60 10 	sll  %i5, 0x10, %g1
    5f34:	83 38 60 13 	sra  %g1, 0x13, %g1
    5f38:	84 8f 60 07 	andcc  %i5, 7, %g2
    5f3c:	82 08 60 0f 	and  %g1, 0xf, %g1
    5f40:	93 28 60 04 	sll  %g1, 4, %o1
    5f44:	92 12 40 01 	or  %o1, %g1, %o1
    5f48:	02 80 00 17 	be  5fa4 <calc_func+0x84>
    5f4c:	98 10 00 09 	mov  %o1, %o4
    5f50:	80 a0 a0 01 	cmp  %g2, 1
    5f54:	02 80 00 28 	be  5ff4 <calc_func+0xd4>
    5f58:	b8 10 00 1d 	mov  %i5, %i4
    5f5c:	d2 16 60 38 	lduh  [ %i1 + 0x38 ], %o1
    5f60:	40 00 09 4f 	call  849c <crcu8>
    5f64:	90 0f 20 ff 	and  %i4, 0xff, %o0
    5f68:	83 2f 20 10 	sll  %i4, 0x10, %g1
    5f6c:	87 2a 20 10 	sll  %o0, 0x10, %g3
    5f70:	91 30 60 18 	srl  %g1, 0x18, %o0
    5f74:	40 00 09 4a 	call  849c <crcu8>
    5f78:	93 30 e0 10 	srl  %g3, 0x10, %o1
    5f7c:	d0 36 60 38 	sth  %o0, [ %i1 + 0x38 ]
    5f80:	88 0f 20 7f 	and  %i4, 0x7f, %g4
    5f84:	90 0f 7f 00 	and  %i5, -256, %o0
    5f88:	82 10 00 04 	mov  %g4, %g1
    5f8c:	94 12 20 80 	or  %o0, 0x80, %o2
    5f90:	96 12 80 04 	or  %o2, %g4, %o3
    5f94:	d6 36 00 00 	sth  %o3, [ %i0 ]
    5f98:	b0 08 60 7f 	and  %g1, 0x7f, %i0
    5f9c:	81 c7 e0 08 	ret 
    5fa0:	81 e8 00 00 	restore 
    5fa4:	80 a2 60 21 	cmp  %o1, 0x21
    5fa8:	24 80 00 02 	ble,a   5fb0 <calc_func+0x90>
    5fac:	98 10 20 22 	mov  0x22, %o4
    5fb0:	d0 06 60 18 	ld  [ %i1 + 0x18 ], %o0
    5fb4:	d2 06 60 14 	ld  [ %i1 + 0x14 ], %o1
    5fb8:	d4 56 40 00 	ldsh  [ %i1 ], %o2
    5fbc:	d6 56 60 02 	ldsh  [ %i1 + 2 ], %o3
    5fc0:	98 0b 20 ff 	and  %o4, 0xff, %o4
    5fc4:	7f ff f5 50 	call  3504 <core_bench_state>
    5fc8:	da 16 60 38 	lduh  [ %i1 + 0x38 ], %o5
    5fcc:	c2 16 60 3e 	lduh  [ %i1 + 0x3e ], %g1
    5fd0:	80 a0 60 00 	cmp  %g1, 0
    5fd4:	12 bf ff e2 	bne  5f5c <calc_func+0x3c>
    5fd8:	b8 10 00 08 	mov  %o0, %i4
    5fdc:	10 bf ff e0 	b  5f5c <calc_func+0x3c>
    5fe0:	d0 36 60 3e 	sth  %o0, [ %i1 + 0x3e ]
    5fe4:	82 0f 60 7f 	and  %i5, 0x7f, %g1
    5fe8:	b0 08 60 7f 	and  %g1, 0x7f, %i0
    5fec:	81 c7 e0 08 	ret 
    5ff0:	81 e8 00 00 	restore 
    5ff4:	90 06 60 28 	add  %i1, 0x28, %o0
    5ff8:	40 00 05 20 	call  7478 <core_bench_matrix>
    5ffc:	d4 16 60 38 	lduh  [ %i1 + 0x38 ], %o2
    6000:	c2 16 60 3c 	lduh  [ %i1 + 0x3c ], %g1
    6004:	80 a0 60 00 	cmp  %g1, 0
    6008:	12 bf ff d5 	bne  5f5c <calc_func+0x3c>
    600c:	b8 10 00 08 	mov  %o0, %i4
    6010:	10 bf ff d3 	b  5f5c <calc_func+0x3c>
    6014:	d0 36 60 3c 	sth  %o0, [ %i1 + 0x3c ]

00006018 <cmp_complex>:
    6018:	9d e3 bf a0 	save  %sp, -96, %sp
    601c:	92 10 00 1a 	mov  %i2, %o1
    6020:	7f ff ff c0 	call  5f20 <calc_func>
    6024:	90 10 00 18 	mov  %i0, %o0
    6028:	92 10 00 1a 	mov  %i2, %o1
    602c:	ba 10 00 08 	mov  %o0, %i5
    6030:	7f ff ff bc 	call  5f20 <calc_func>
    6034:	90 10 00 19 	mov  %i1, %o0
    6038:	83 2f 60 10 	sll  %i5, 0x10, %g1
    603c:	91 2a 20 10 	sll  %o0, 0x10, %o0
    6040:	85 38 60 10 	sra  %g1, 0x10, %g2
    6044:	b1 3a 20 10 	sra  %o0, 0x10, %i0
    6048:	b0 20 80 18 	sub  %g2, %i0, %i0
    604c:	81 c7 e0 08 	ret 
    6050:	81 e8 00 00 	restore 

00006054 <copy_info>:
    6054:	c4 12 40 00 	lduh  [ %o1 ], %g2
    6058:	c2 12 60 02 	lduh  [ %o1 + 2 ], %g1
    605c:	c4 32 00 00 	sth  %g2, [ %o0 ]
    6060:	81 c3 e0 08 	retl 
    6064:	c2 32 20 02 	sth  %g1, [ %o0 + 2 ]

00006068 <core_list_init>:
    6068:	9d e3 bf a0 	save  %sp, -96, %sp
    606c:	81 80 20 00 	mov  %g0, %y
    6070:	01 00 00 00 	nop 
    6074:	01 00 00 00 	nop 
    6078:	01 00 00 00 	nop 
    607c:	b0 76 20 14 	udiv  %i0, 0x14, %i0
    6080:	c0 26 40 00 	clr  [ %i1 ]
    6084:	b6 06 3f fe 	add  %i0, -2, %i3
    6088:	83 2e e0 03 	sll  %i3, 3, %g1
    608c:	ba 06 40 01 	add  %i1, %g1, %i5
    6090:	fa 26 60 04 	st  %i5, [ %i1 + 4 ]
    6094:	05 3f ff e0 	sethi  %hi(0xffff8000), %g2
    6098:	c0 37 60 02 	clrh  [ %i5 + 2 ]
    609c:	86 10 a0 80 	or  %g2, 0x80, %g3
    60a0:	c6 36 40 01 	sth  %g3, [ %i1 + %g1 ]
    60a4:	89 2e e0 02 	sll  %i3, 2, %g4
    60a8:	82 06 60 10 	add  %i1, 0x10, %g1
    60ac:	b0 07 40 04 	add  %i5, %g4, %i0
    60b0:	86 06 60 08 	add  %i1, 8, %g3
    60b4:	b8 07 60 04 	add  %i5, 4, %i4
    60b8:	80 a7 40 01 	cmp  %i5, %g1
    60bc:	08 80 00 06 	bleu  60d4 <core_list_init+0x6c>
    60c0:	84 10 20 00 	clr  %g2
    60c4:	88 07 60 08 	add  %i5, 8, %g4
    60c8:	80 a6 00 04 	cmp  %i0, %g4
    60cc:	38 80 00 41 	bgu,a   61d0 <core_list_init+0x168>
    60d0:	c6 26 40 00 	st  %g3, [ %i1 ]
    60d4:	80 a6 e0 00 	cmp  %i3, 0
    60d8:	02 80 00 21 	be  615c <core_list_init+0xf4>
    60dc:	01 00 00 00 	nop 
    60e0:	17 00 00 1f 	sethi  %hi(0x7c00), %o3
    60e4:	94 10 00 1a 	mov  %i2, %o2
    60e8:	82 10 20 00 	clr  %g1
    60ec:	96 12 e3 ff 	or  %o3, 0x3ff, %o3
    60f0:	88 00 e0 08 	add  %g3, 8, %g4
    60f4:	80 a7 40 04 	cmp  %i5, %g4
    60f8:	28 80 00 16 	bleu,a   6150 <core_list_init+0xe8>
    60fc:	82 00 60 01 	inc  %g1
    6100:	9e 07 20 04 	add  %i4, 4, %o7
    6104:	80 a6 00 0f 	cmp  %i0, %o7
    6108:	28 80 00 12 	bleu,a   6150 <core_list_init+0xe8>
    610c:	82 00 60 01 	inc  %g1
    6110:	c4 20 c0 00 	st  %g2, [ %g3 ]
    6114:	f8 20 e0 04 	st  %i4, [ %g3 + 4 ]
    6118:	c6 26 40 00 	st  %g3, [ %i1 ]
    611c:	9a 08 60 07 	and  %g1, 7, %o5
    6120:	98 18 40 0a 	xor  %g1, %o2, %o4
    6124:	d6 37 20 02 	sth  %o3, [ %i4 + 2 ]
    6128:	98 0b 20 0f 	and  %o4, 0xf, %o4
    612c:	84 10 00 03 	mov  %g3, %g2
    6130:	99 2b 20 03 	sll  %o4, 3, %o4
    6134:	86 10 00 04 	mov  %g4, %g3
    6138:	88 13 00 0d 	or  %o4, %o5, %g4
    613c:	9b 29 20 08 	sll  %g4, 8, %o5
    6140:	88 13 40 04 	or  %o5, %g4, %g4
    6144:	c8 37 00 00 	sth  %g4, [ %i4 ]
    6148:	b8 10 00 0f 	mov  %o7, %i4
    614c:	82 00 60 01 	inc  %g1
    6150:	80 a6 c0 01 	cmp  %i3, %g1
    6154:	32 bf ff e8 	bne,a   60f4 <core_list_init+0x8c>
    6158:	88 00 e0 08 	add  %g3, 8, %g4
    615c:	81 80 20 00 	mov  %g0, %y
    6160:	01 00 00 00 	nop 
    6164:	01 00 00 00 	nop 
    6168:	01 00 00 00 	nop 
    616c:	ba 76 e0 05 	udiv  %i3, 5, %i5
    6170:	82 10 20 01 	mov  1, %g1
    6174:	37 00 00 0f 	sethi  %hi(0x3c00), %i3
    6178:	88 10 20 02 	mov  2, %g4
    617c:	10 80 00 06 	b  6194 <core_list_init+0x12c>
    6180:	b0 16 e3 ff 	or  %i3, 0x3ff, %i0
    6184:	c2 30 a0 02 	sth  %g1, [ %g2 + 2 ]
    6188:	88 01 20 01 	inc  %g4
    618c:	82 00 60 01 	inc  %g1
    6190:	84 10 00 03 	mov  %g3, %g2
    6194:	c6 00 80 00 	ld  [ %g2 ], %g3
    6198:	80 a0 e0 00 	cmp  %g3, 0
    619c:	02 80 00 0b 	be  61c8 <core_list_init+0x160>
    61a0:	80 a7 40 01 	cmp  %i5, %g1
    61a4:	18 bf ff f8 	bgu  6184 <core_list_init+0x11c>
    61a8:	c4 00 a0 04 	ld  [ %g2 + 4 ], %g2
    61ac:	b8 09 20 07 	and  %g4, 7, %i4
    61b0:	b9 2f 20 08 	sll  %i4, 8, %i4
    61b4:	b6 18 40 1a 	xor  %g1, %i2, %i3
    61b8:	b6 17 00 1b 	or  %i4, %i3, %i3
    61bc:	b8 0e c0 18 	and  %i3, %i0, %i4
    61c0:	10 bf ff f2 	b  6188 <core_list_init+0x120>
    61c4:	f8 30 a0 02 	sth  %i4, [ %g2 + 2 ]
    61c8:	7f ff ff 01 	call  5dcc <core_list_mergesort.constprop.1>
    61cc:	91 e8 00 19 	restore  %g0, %i1, %o0
    61d0:	f8 26 60 0c 	st  %i4, [ %i1 + 0xc ]
    61d4:	c0 26 60 08 	clr  [ %i1 + 8 ]
    61d8:	b8 10 3f ff 	mov  -1, %i4
    61dc:	84 10 00 03 	mov  %g3, %g2
    61e0:	f8 37 60 04 	sth  %i4, [ %i5 + 4 ]
    61e4:	07 00 00 1f 	sethi  %hi(0x7c00), %g3
    61e8:	b8 10 e3 ff 	or  %g3, 0x3ff, %i4	! 7fff <ajit_main+0x6fb>
    61ec:	86 10 00 01 	mov  %g1, %g3
    61f0:	f8 37 60 06 	sth  %i4, [ %i5 + 6 ]
    61f4:	10 bf ff b8 	b  60d4 <core_list_init+0x6c>
    61f8:	b8 10 00 04 	mov  %g4, %i4

000061fc <core_list_insert_new>:
    61fc:	c2 02 80 00 	ld  [ %o2 ], %g1
    6200:	84 00 60 08 	add  %g1, 8, %g2
    6204:	80 a0 80 0c 	cmp  %g2, %o4
    6208:	3a 80 00 17 	bcc,a   6264 <core_list_insert_new+0x68>
    620c:	82 10 20 00 	clr  %g1
    6210:	c6 02 c0 00 	ld  [ %o3 ], %g3
    6214:	88 00 e0 04 	add  %g3, 4, %g4
    6218:	80 a3 40 04 	cmp  %o5, %g4
    621c:	28 80 00 12 	bleu,a   6264 <core_list_insert_new+0x68>
    6220:	82 10 20 00 	clr  %g1
    6224:	c4 22 80 00 	st  %g2, [ %o2 ]
    6228:	d4 02 00 00 	ld  [ %o0 ], %o2
    622c:	d4 20 40 00 	st  %o2, [ %g1 ]
    6230:	c2 22 00 00 	st  %g1, [ %o0 ]
    6234:	d0 02 c0 00 	ld  [ %o3 ], %o0
    6238:	d0 20 60 04 	st  %o0, [ %g1 + 4 ]
    623c:	d8 02 c0 00 	ld  [ %o3 ], %o4
    6240:	9a 03 20 04 	add  %o4, 4, %o5
    6244:	da 22 c0 00 	st  %o5, [ %o3 ]
    6248:	90 10 00 01 	mov  %g1, %o0
    624c:	d6 12 40 00 	lduh  [ %o1 ], %o3
    6250:	c4 00 60 04 	ld  [ %g1 + 4 ], %g2
    6254:	d2 12 60 02 	lduh  [ %o1 + 2 ], %o1
    6258:	d6 30 80 00 	sth  %o3, [ %g2 ]
    625c:	81 c3 e0 08 	retl 
    6260:	d2 30 a0 02 	sth  %o1, [ %g2 + 2 ]
    6264:	81 c3 e0 08 	retl 
    6268:	90 10 00 01 	mov  %g1, %o0

0000626c <core_list_remove>:
    626c:	c2 02 00 00 	ld  [ %o0 ], %g1
    6270:	c4 02 20 04 	ld  [ %o0 + 4 ], %g2
    6274:	c8 00 60 04 	ld  [ %g1 + 4 ], %g4
    6278:	c6 00 40 00 	ld  [ %g1 ], %g3
    627c:	c8 22 20 04 	st  %g4, [ %o0 + 4 ]
    6280:	c6 22 00 00 	st  %g3, [ %o0 ]
    6284:	c4 20 60 04 	st  %g2, [ %g1 + 4 ]
    6288:	c0 20 40 00 	clr  [ %g1 ]
    628c:	81 c3 e0 08 	retl 
    6290:	90 10 00 01 	mov  %g1, %o0

00006294 <core_list_undo_remove>:
    6294:	c4 02 20 04 	ld  [ %o0 + 4 ], %g2
    6298:	c8 02 60 04 	ld  [ %o1 + 4 ], %g4
    629c:	c6 02 40 00 	ld  [ %o1 ], %g3
    62a0:	c8 22 20 04 	st  %g4, [ %o0 + 4 ]
    62a4:	c6 22 00 00 	st  %g3, [ %o0 ]
    62a8:	c4 22 60 04 	st  %g2, [ %o1 + 4 ]
    62ac:	81 c3 e0 08 	retl 
    62b0:	d0 22 40 00 	st  %o0, [ %o1 ]

000062b4 <core_list_find>:
    62b4:	c4 52 60 02 	ldsh  [ %o1 + 2 ], %g2
    62b8:	80 a0 a0 00 	cmp  %g2, 0
    62bc:	06 80 00 14 	bl  630c <core_list_find+0x58>
    62c0:	80 a2 20 00 	cmp  %o0, 0
    62c4:	02 80 00 23 	be  6350 <core_list_find+0x9c>
    62c8:	01 00 00 00 	nop 
    62cc:	c2 02 20 04 	ld  [ %o0 + 4 ], %g1
    62d0:	c2 50 60 02 	ldsh  [ %g1 + 2 ], %g1
    62d4:	80 a0 80 01 	cmp  %g2, %g1
    62d8:	32 80 00 08 	bne,a   62f8 <core_list_find+0x44>
    62dc:	d0 02 00 00 	ld  [ %o0 ], %o0
    62e0:	30 80 00 1c 	b,a   6350 <core_list_find+0x9c>
    62e4:	c2 50 60 02 	ldsh  [ %g1 + 2 ], %g1
    62e8:	80 a0 80 01 	cmp  %g2, %g1
    62ec:	02 80 00 19 	be  6350 <core_list_find+0x9c>
    62f0:	01 00 00 00 	nop 
    62f4:	d0 02 00 00 	ld  [ %o0 ], %o0
    62f8:	80 a2 20 00 	cmp  %o0, 0
    62fc:	32 bf ff fa 	bne,a   62e4 <core_list_find+0x30>
    6300:	c2 02 20 04 	ld  [ %o0 + 4 ], %g1
    6304:	81 c3 e0 08 	retl 
    6308:	01 00 00 00 	nop 
    630c:	02 80 00 11 	be  6350 <core_list_find+0x9c>
    6310:	01 00 00 00 	nop 
    6314:	c6 52 40 00 	ldsh  [ %o1 ], %g3
    6318:	c2 02 20 04 	ld  [ %o0 + 4 ], %g1
    631c:	c2 08 60 01 	ldub  [ %g1 + 1 ], %g1
    6320:	80 a0 40 03 	cmp  %g1, %g3
    6324:	32 80 00 08 	bne,a   6344 <core_list_find+0x90>
    6328:	d0 02 00 00 	ld  [ %o0 ], %o0
    632c:	30 80 00 09 	b,a   6350 <core_list_find+0x9c>
    6330:	c2 08 60 01 	ldub  [ %g1 + 1 ], %g1
    6334:	80 a0 40 03 	cmp  %g1, %g3
    6338:	02 80 00 06 	be  6350 <core_list_find+0x9c>
    633c:	01 00 00 00 	nop 
    6340:	d0 02 00 00 	ld  [ %o0 ], %o0
    6344:	80 a2 20 00 	cmp  %o0, 0
    6348:	32 bf ff fa 	bne,a   6330 <core_list_find+0x7c>
    634c:	c2 02 20 04 	ld  [ %o0 + 4 ], %g1
    6350:	81 c3 e0 08 	retl 
    6354:	01 00 00 00 	nop 

00006358 <core_list_reverse>:
    6358:	80 a2 20 00 	cmp  %o0, 0
    635c:	02 80 00 0c 	be  638c <core_list_reverse+0x34>
    6360:	84 10 20 00 	clr  %g2
    6364:	10 80 00 04 	b  6374 <core_list_reverse+0x1c>
    6368:	c2 02 00 00 	ld  [ %o0 ], %g1
    636c:	90 10 00 01 	mov  %g1, %o0
    6370:	c2 02 00 00 	ld  [ %o0 ], %g1
    6374:	c4 22 00 00 	st  %g2, [ %o0 ]
    6378:	80 a0 60 00 	cmp  %g1, 0
    637c:	12 bf ff fc 	bne  636c <core_list_reverse+0x14>
    6380:	84 10 00 08 	mov  %o0, %g2
    6384:	81 c3 e0 08 	retl 
    6388:	01 00 00 00 	nop 
    638c:	81 c3 e0 08 	retl 
    6390:	90 10 20 00 	clr  %o0	! 0 <_start>

00006394 <core_list_mergesort>:
    6394:	9d e3 bf a0 	save  %sp, -96, %sp
    6398:	80 a6 20 00 	cmp  %i0, 0
    639c:	02 80 00 2d 	be  6450 <core_list_mergesort+0xbc>
    63a0:	b6 10 20 01 	mov  1, %i3
    63a4:	a2 10 00 18 	mov  %i0, %l1
    63a8:	a6 10 20 00 	clr  %l3
    63ac:	a0 10 20 00 	clr  %l0
    63b0:	b0 10 20 00 	clr  %i0
    63b4:	a6 04 e0 01 	inc  %l3
    63b8:	ba 10 00 11 	mov  %l1, %i5
    63bc:	b8 10 20 00 	clr  %i4
    63c0:	fa 07 40 00 	ld  [ %i5 ], %i5
    63c4:	80 a7 60 00 	cmp  %i5, 0
    63c8:	02 80 00 05 	be  63dc <core_list_mergesort+0x48>
    63cc:	b8 07 20 01 	inc  %i4
    63d0:	80 a6 c0 1c 	cmp  %i3, %i4
    63d4:	34 bf ff fc 	bg,a   63c4 <core_list_mergesort+0x30>
    63d8:	fa 07 40 00 	ld  [ %i5 ], %i5
    63dc:	80 a7 20 00 	cmp  %i4, 0
    63e0:	02 80 00 10 	be  6420 <core_list_mergesort+0x8c>
    63e4:	a4 10 00 1b 	mov  %i3, %l2
    63e8:	80 a7 60 00 	cmp  %i5, 0
    63ec:	12 80 00 1e 	bne  6464 <core_list_mergesort+0xd0>
    63f0:	80 a4 a0 00 	cmp  %l2, 0
    63f4:	82 10 00 11 	mov  %l1, %g1
    63f8:	b8 07 3f ff 	add  %i4, -1, %i4
    63fc:	e2 04 40 00 	ld  [ %l1 ], %l1
    6400:	80 a4 20 00 	cmp  %l0, 0
    6404:	22 80 00 16 	be,a   645c <core_list_mergesort+0xc8>
    6408:	b0 10 00 01 	mov  %g1, %i0
    640c:	c2 24 00 00 	st  %g1, [ %l0 ]
    6410:	a0 10 00 01 	mov  %g1, %l0
    6414:	80 a7 20 00 	cmp  %i4, 0
    6418:	12 bf ff f5 	bne  63ec <core_list_mergesort+0x58>
    641c:	80 a7 60 00 	cmp  %i5, 0
    6420:	80 a7 60 00 	cmp  %i5, 0
    6424:	12 80 00 1c 	bne  6494 <core_list_mergesort+0x100>
    6428:	80 a4 a0 00 	cmp  %l2, 0
    642c:	a2 97 60 00 	orcc  %i5, 0, %l1
    6430:	32 bf ff e2 	bne,a   63b8 <core_list_mergesort+0x24>
    6434:	a6 04 e0 01 	inc  %l3
    6438:	80 a4 e0 01 	cmp  %l3, 1
    643c:	02 80 00 06 	be  6454 <core_list_mergesort+0xc0>
    6440:	c0 24 00 00 	clr  [ %l0 ]
    6444:	80 a6 20 00 	cmp  %i0, 0
    6448:	12 bf ff d7 	bne  63a4 <core_list_mergesort+0x10>
    644c:	b6 06 c0 1b 	add  %i3, %i3, %i3
    6450:	c0 20 20 00 	clr  [ %g0 ]
    6454:	81 c7 e0 08 	ret 
    6458:	81 e8 00 00 	restore 
    645c:	10 bf ff ee 	b  6414 <core_list_mergesort+0x80>
    6460:	a0 10 00 01 	mov  %g1, %l0
    6464:	02 bf ff e5 	be  63f8 <core_list_mergesort+0x64>
    6468:	82 10 00 11 	mov  %l1, %g1
    646c:	d0 04 60 04 	ld  [ %l1 + 4 ], %o0
    6470:	d2 07 60 04 	ld  [ %i5 + 4 ], %o1
    6474:	9f c6 40 00 	call  %i1
    6478:	94 10 00 1a 	mov  %i2, %o2
    647c:	80 a2 20 00 	cmp  %o0, 0
    6480:	04 bf ff dd 	ble  63f4 <core_list_mergesort+0x60>
    6484:	82 10 00 1d 	mov  %i5, %g1
    6488:	a4 04 bf ff 	add  %l2, -1, %l2
    648c:	10 bf ff dd 	b  6400 <core_list_mergesort+0x6c>
    6490:	fa 07 40 00 	ld  [ %i5 ], %i5
    6494:	24 bf ff e7 	ble,a   6430 <core_list_mergesort+0x9c>
    6498:	a2 97 60 00 	orcc  %i5, 0, %l1
    649c:	10 bf ff fb 	b  6488 <core_list_mergesort+0xf4>
    64a0:	82 10 00 1d 	mov  %i5, %g1

000064a4 <core_bench_list>:
    64a4:	9d e3 bf a0 	save  %sp, -96, %sp
    64a8:	da 56 20 04 	ldsh  [ %i0 + 4 ], %o5
    64ac:	80 a3 60 00 	cmp  %o5, 0
    64b0:	04 80 00 c6 	ble  67c8 <core_bench_list+0x324>
    64b4:	fa 06 20 24 	ld  [ %i0 + 0x24 ], %i5
    64b8:	b4 10 00 19 	mov  %i1, %i2
    64bc:	88 10 20 00 	clr  %g4
    64c0:	98 10 20 00 	clr  %o4
    64c4:	9e 10 20 00 	clr  %o7
    64c8:	b8 10 20 00 	clr  %i4
    64cc:	b7 2e a0 10 	sll  %i2, 0x10, %i3
    64d0:	82 09 20 ff 	and  %g4, 0xff, %g1
    64d4:	87 3e e0 10 	sra  %i3, 0x10, %g3
    64d8:	80 a0 e0 00 	cmp  %g3, 0
    64dc:	06 80 00 84 	bl  66ec <core_bench_list+0x248>
    64e0:	a0 10 00 01 	mov  %g1, %l0
    64e4:	80 a7 60 00 	cmp  %i5, 0
    64e8:	22 80 00 96 	be,a   6740 <core_bench_list+0x29c>
    64ec:	c2 07 40 00 	ld  [ %i5 ], %g1
    64f0:	c2 07 60 04 	ld  [ %i5 + 4 ], %g1
    64f4:	d4 50 60 02 	ldsh  [ %g1 + 2 ], %o2
    64f8:	80 a0 c0 0a 	cmp  %g3, %o2
    64fc:	12 80 00 08 	bne  651c <core_bench_list+0x78>
    6500:	82 10 00 1d 	mov  %i5, %g1
    6504:	10 80 00 0e 	b  653c <core_bench_list+0x98>
    6508:	86 10 20 00 	clr  %g3
    650c:	d0 52 e0 02 	ldsh  [ %o3 + 2 ], %o0
    6510:	80 a0 c0 08 	cmp  %g3, %o0
    6514:	22 80 00 0a 	be,a   653c <core_bench_list+0x98>
    6518:	86 10 20 00 	clr  %g3
    651c:	c2 00 40 00 	ld  [ %g1 ], %g1
    6520:	80 a0 60 00 	cmp  %g1, 0
    6524:	32 bf ff fa 	bne,a   650c <core_bench_list+0x68>
    6528:	d6 00 60 04 	ld  [ %g1 + 4 ], %o3
    652c:	82 10 20 00 	clr  %g1
    6530:	10 80 00 03 	b  653c <core_bench_list+0x98>
    6534:	86 10 20 00 	clr  %g3
    6538:	ba 10 00 02 	mov  %g2, %i5
    653c:	c4 07 40 00 	ld  [ %i5 ], %g2
    6540:	c6 27 40 00 	st  %g3, [ %i5 ]
    6544:	80 a0 a0 00 	cmp  %g2, 0
    6548:	12 bf ff fc 	bne  6538 <core_bench_list+0x94>
    654c:	86 10 00 1d 	mov  %i5, %g3
    6550:	80 a0 60 00 	cmp  %g1, 0
    6554:	22 80 00 7b 	be,a   6740 <core_bench_list+0x29c>
    6558:	c2 07 40 00 	ld  [ %i5 ], %g1
    655c:	d2 00 60 04 	ld  [ %g1 + 4 ], %o1
    6560:	d4 12 40 00 	lduh  [ %o1 ], %o2
    6564:	80 8a a0 01 	btst  1, %o2
    6568:	02 80 00 05 	be  657c <core_bench_list+0xd8>
    656c:	9e 03 e0 01 	inc  %o7
    6570:	97 32 a0 09 	srl  %o2, 9, %o3
    6574:	90 0a e0 01 	and  %o3, 1, %o0
    6578:	b8 02 00 1c 	add  %o0, %i4, %i4
    657c:	c4 00 40 00 	ld  [ %g1 ], %g2
    6580:	80 a0 a0 00 	cmp  %g2, 0
    6584:	02 80 00 08 	be  65a4 <core_bench_list+0x100>
    6588:	80 a6 e0 00 	cmp  %i3, 0
    658c:	c6 00 80 00 	ld  [ %g2 ], %g3
    6590:	c6 20 40 00 	st  %g3, [ %g1 ]
    6594:	c2 07 40 00 	ld  [ %i5 ], %g1
    6598:	c2 20 80 00 	st  %g1, [ %g2 ]
    659c:	c4 27 40 00 	st  %g2, [ %i5 ]
    65a0:	80 a6 e0 00 	cmp  %i3, 0
    65a4:	06 80 00 04 	bl  65b4 <core_bench_list+0x110>
    65a8:	88 01 20 01 	inc  %g4
    65ac:	b4 06 a0 01 	inc  %i2
    65b0:	b7 2e a0 10 	sll  %i2, 0x10, %i3
    65b4:	83 29 20 10 	sll  %g4, 0x10, %g1
    65b8:	83 38 60 10 	sra  %g1, 0x10, %g1
    65bc:	80 a0 40 0d 	cmp  %g1, %o5
    65c0:	12 bf ff c5 	bne  64d4 <core_bench_list+0x30>
    65c4:	82 09 20 ff 	and  %g4, 0xff, %g1
    65c8:	9b 2b e0 02 	sll  %o7, 2, %o5
    65cc:	98 23 40 0c 	sub  %o5, %o4, %o4
    65d0:	b8 03 00 1c 	add  %o4, %i4, %i4
    65d4:	80 a6 60 00 	cmp  %i1, 0
    65d8:	04 80 00 07 	ble  65f4 <core_bench_list+0x150>
    65dc:	90 10 00 1d 	mov  %i5, %o0
    65e0:	94 10 00 18 	mov  %i0, %o2
    65e4:	31 00 00 18 	sethi  %hi(0x6000), %i0
    65e8:	7f ff ff 6b 	call  6394 <core_list_mergesort>
    65ec:	92 16 20 18 	or  %i0, 0x18, %o1	! 6018 <cmp_complex>
    65f0:	ba 10 00 08 	mov  %o0, %i5
    65f4:	c2 07 40 00 	ld  [ %i5 ], %g1
    65f8:	f4 00 40 00 	ld  [ %g1 ], %i2
    65fc:	d0 00 60 04 	ld  [ %g1 + 4 ], %o0
    6600:	f2 06 a0 04 	ld  [ %i2 + 4 ], %i1
    6604:	d2 06 80 00 	ld  [ %i2 ], %o1
    6608:	f2 20 60 04 	st  %i1, [ %g1 + 4 ]
    660c:	d2 20 40 00 	st  %o1, [ %g1 ]
    6610:	d0 26 a0 04 	st  %o0, [ %i2 + 4 ]
    6614:	c0 26 80 00 	clr  [ %i2 ]
    6618:	b7 3e e0 10 	sra  %i3, 0x10, %i3
    661c:	80 a6 e0 00 	cmp  %i3, 0
    6620:	06 80 00 59 	bl  6784 <core_bench_list+0x2e0>
    6624:	82 10 00 1d 	mov  %i5, %g1
    6628:	de 00 60 04 	ld  [ %g1 + 4 ], %o7
    662c:	d4 53 e0 02 	ldsh  [ %o7 + 2 ], %o2
    6630:	80 a6 c0 0a 	cmp  %i3, %o2
    6634:	22 80 00 49 	be,a   6758 <core_bench_list+0x2b4>
    6638:	b0 10 00 01 	mov  %g1, %i0
    663c:	c2 00 40 00 	ld  [ %g1 ], %g1
    6640:	80 a0 60 00 	cmp  %g1, 0
    6644:	32 bf ff fa 	bne,a   662c <core_bench_list+0x188>
    6648:	de 00 60 04 	ld  [ %g1 + 4 ], %o7
    664c:	c2 07 40 00 	ld  [ %i5 ], %g1
    6650:	b0 90 60 00 	orcc  %g1, 0, %i0
    6654:	22 80 00 0e 	be,a   668c <core_bench_list+0x1e8>
    6658:	c6 00 60 04 	ld  [ %g1 + 4 ], %g3
    665c:	97 2f 20 10 	sll  %i4, 0x10, %o3
    6660:	c2 07 60 04 	ld  [ %i5 + 4 ], %g1
    6664:	93 32 e0 10 	srl  %o3, 0x10, %o1
    6668:	40 00 0c a2 	call  98f0 <crc16>
    666c:	d0 50 40 00 	ldsh  [ %g1 ], %o0
    6670:	f0 06 00 00 	ld  [ %i0 ], %i0
    6674:	80 a6 20 00 	cmp  %i0, 0
    6678:	12 80 00 38 	bne  6758 <core_bench_list+0x2b4>
    667c:	b8 10 00 08 	mov  %o0, %i4
    6680:	d0 06 a0 04 	ld  [ %i2 + 4 ], %o0
    6684:	c2 07 40 00 	ld  [ %i5 ], %g1
    6688:	c6 00 60 04 	ld  [ %g1 + 4 ], %g3
    668c:	c4 00 40 00 	ld  [ %g1 ], %g2
    6690:	c6 26 a0 04 	st  %g3, [ %i2 + 4 ]
    6694:	c4 26 80 00 	st  %g2, [ %i2 ]
    6698:	d0 20 60 04 	st  %o0, [ %g1 + 4 ]
    669c:	f4 20 40 00 	st  %i2, [ %g1 ]
    66a0:	7f ff fd cb 	call  5dcc <core_list_mergesort.constprop.1>
    66a4:	90 10 00 1d 	mov  %i5, %o0
    66a8:	e0 02 00 00 	ld  [ %o0 ], %l0
    66ac:	80 a4 20 00 	cmp  %l0, 0
    66b0:	02 80 00 0b 	be  66dc <core_bench_list+0x238>
    66b4:	b2 10 00 08 	mov  %o0, %i1
    66b8:	c2 06 60 04 	ld  [ %i1 + 4 ], %g1
    66bc:	b9 2f 20 10 	sll  %i4, 0x10, %i4
    66c0:	d0 50 40 00 	ldsh  [ %g1 ], %o0
    66c4:	40 00 0c 8b 	call  98f0 <crc16>
    66c8:	93 37 20 10 	srl  %i4, 0x10, %o1
    66cc:	e0 04 00 00 	ld  [ %l0 ], %l0
    66d0:	80 a4 20 00 	cmp  %l0, 0
    66d4:	12 bf ff f9 	bne  66b8 <core_bench_list+0x214>
    66d8:	b8 10 00 08 	mov  %o0, %i4
    66dc:	89 2f 20 10 	sll  %i4, 0x10, %g4
    66e0:	b1 31 20 10 	srl  %g4, 0x10, %i0
    66e4:	81 c7 e0 08 	ret 
    66e8:	81 e8 00 00 	restore 
    66ec:	80 a7 60 00 	cmp  %i5, 0
    66f0:	02 80 00 13 	be  673c <core_bench_list+0x298>
    66f4:	90 10 00 01 	mov  %g1, %o0
    66f8:	c2 07 60 04 	ld  [ %i5 + 4 ], %g1
    66fc:	c2 08 60 01 	ldub  [ %g1 + 1 ], %g1
    6700:	80 a0 40 08 	cmp  %g1, %o0
    6704:	12 80 00 08 	bne  6724 <core_bench_list+0x280>
    6708:	82 10 00 1d 	mov  %i5, %g1
    670c:	10 bf ff 8c 	b  653c <core_bench_list+0x98>
    6710:	86 10 20 00 	clr  %g3
    6714:	d2 08 a0 01 	ldub  [ %g2 + 1 ], %o1
    6718:	80 a2 40 08 	cmp  %o1, %o0
    671c:	02 bf ff 88 	be  653c <core_bench_list+0x98>
    6720:	86 10 20 00 	clr  %g3
    6724:	c2 00 40 00 	ld  [ %g1 ], %g1
    6728:	80 a0 60 00 	cmp  %g1, 0
    672c:	32 bf ff fa 	bne,a   6714 <core_bench_list+0x270>
    6730:	c4 00 60 04 	ld  [ %g1 + 4 ], %g2
    6734:	10 bf ff 82 	b  653c <core_bench_list+0x98>
    6738:	86 10 20 00 	clr  %g3
    673c:	c2 07 40 00 	ld  [ %i5 ], %g1
    6740:	98 03 20 01 	inc  %o4
    6744:	c2 00 60 04 	ld  [ %g1 + 4 ], %g1
    6748:	c2 48 40 00 	ldsb  [ %g1 ], %g1
    674c:	82 08 60 01 	and  %g1, 1, %g1
    6750:	10 bf ff 94 	b  65a0 <core_bench_list+0xfc>
    6754:	b8 00 40 1c 	add  %g1, %i4, %i4
    6758:	97 2f 20 10 	sll  %i4, 0x10, %o3
    675c:	c2 07 60 04 	ld  [ %i5 + 4 ], %g1
    6760:	93 32 e0 10 	srl  %o3, 0x10, %o1
    6764:	40 00 0c 63 	call  98f0 <crc16>
    6768:	d0 50 40 00 	ldsh  [ %g1 ], %o0
    676c:	f0 06 00 00 	ld  [ %i0 ], %i0
    6770:	80 a6 20 00 	cmp  %i0, 0
    6774:	12 bf ff f9 	bne  6758 <core_bench_list+0x2b4>
    6778:	b8 10 00 08 	mov  %o0, %i4
    677c:	10 bf ff c2 	b  6684 <core_bench_list+0x1e0>
    6780:	d0 06 a0 04 	ld  [ %i2 + 4 ], %o0
    6784:	a0 0c 20 ff 	and  %l0, 0xff, %l0
    6788:	b0 10 00 1d 	mov  %i5, %i0
    678c:	c2 06 20 04 	ld  [ %i0 + 4 ], %g1
    6790:	c2 08 60 01 	ldub  [ %g1 + 1 ], %g1
    6794:	80 a0 40 10 	cmp  %g1, %l0
    6798:	02 bf ff f1 	be  675c <core_bench_list+0x2b8>
    679c:	97 2f 20 10 	sll  %i4, 0x10, %o3
    67a0:	f0 06 00 00 	ld  [ %i0 ], %i0
    67a4:	80 a6 20 00 	cmp  %i0, 0
    67a8:	32 bf ff fa 	bne,a   6790 <core_bench_list+0x2ec>
    67ac:	c2 06 20 04 	ld  [ %i0 + 4 ], %g1
    67b0:	c2 07 40 00 	ld  [ %i5 ], %g1
    67b4:	b0 90 60 00 	orcc  %g1, 0, %i0
    67b8:	32 bf ff ab 	bne,a   6664 <core_bench_list+0x1c0>
    67bc:	c2 07 60 04 	ld  [ %i5 + 4 ], %g1
    67c0:	10 bf ff b3 	b  668c <core_bench_list+0x1e8>
    67c4:	c6 00 60 04 	ld  [ %g1 + 4 ], %g3
    67c8:	b8 10 20 00 	clr  %i4
    67cc:	a0 10 20 00 	clr  %l0
    67d0:	10 bf ff 81 	b  65d4 <core_bench_list+0x130>
    67d4:	b7 2e 60 10 	sll  %i1, 0x10, %i3

000067d8 <barebones_clock>:
    67d8:	9d e3 bf a0 	save  %sp, -96, %sp
    67dc:	40 00 00 fa 	call  6bc4 <__ajit_read_cycle_count_register_high__>
    67e0:	01 00 00 00 	nop 
    67e4:	40 00 00 fb 	call  6bd0 <__ajit_read_cycle_count_register_low__>
    67e8:	b0 10 00 08 	mov  %o0, %i0
    67ec:	83 2e 20 18 	sll  %i0, 0x18, %g1
    67f0:	91 32 20 08 	srl  %o0, 8, %o0
    67f4:	b0 12 00 01 	or  %o0, %g1, %i0
    67f8:	81 c7 e0 08 	ret 
    67fc:	81 e8 00 00 	restore 

00006800 <start_time>:
    6800:	9d e3 bf a0 	save  %sp, -96, %sp
    6804:	40 00 00 f0 	call  6bc4 <__ajit_read_cycle_count_register_high__>
    6808:	01 00 00 00 	nop 
    680c:	40 00 00 f1 	call  6bd0 <__ajit_read_cycle_count_register_low__>
    6810:	ba 10 00 08 	mov  %o0, %i5
    6814:	83 2f 60 18 	sll  %i5, 0x18, %g1
    6818:	91 32 20 08 	srl  %o0, 8, %o0
    681c:	84 12 00 01 	or  %o0, %g1, %g2
    6820:	03 00 00 81 	sethi  %hi(0x20400), %g1
    6824:	c4 20 63 68 	st  %g2, [ %g1 + 0x368 ]	! 20768 <start_time_val>
    6828:	81 c7 e0 08 	ret 
    682c:	81 e8 00 00 	restore 

00006830 <stop_time>:
    6830:	9d e3 bf a0 	save  %sp, -96, %sp
    6834:	40 00 00 e4 	call  6bc4 <__ajit_read_cycle_count_register_high__>
    6838:	01 00 00 00 	nop 
    683c:	40 00 00 e5 	call  6bd0 <__ajit_read_cycle_count_register_low__>
    6840:	ba 10 00 08 	mov  %o0, %i5
    6844:	83 2f 60 18 	sll  %i5, 0x18, %g1
    6848:	91 32 20 08 	srl  %o0, 8, %o0
    684c:	84 12 00 01 	or  %o0, %g1, %g2
    6850:	03 00 00 81 	sethi  %hi(0x20400), %g1
    6854:	c4 20 63 6c 	st  %g2, [ %g1 + 0x36c ]	! 2076c <stop_time_val>
    6858:	81 c7 e0 08 	ret 
    685c:	81 e8 00 00 	restore 

00006860 <get_time>:
    6860:	03 00 00 81 	sethi  %hi(0x20400), %g1
    6864:	d0 00 63 6c 	ld  [ %g1 + 0x36c ], %o0	! 2076c <stop_time_val>
    6868:	03 00 00 81 	sethi  %hi(0x20400), %g1
    686c:	c2 00 63 68 	ld  [ %g1 + 0x368 ], %g1	! 20768 <start_time_val>
    6870:	81 c3 e0 08 	retl 
    6874:	90 22 00 01 	sub  %o0, %g1, %o0

00006878 <time_in_secs>:
    6878:	9c 03 bf b0 	add  %sp, -80, %sp
    687c:	d0 23 a0 4c 	st  %o0, [ %sp + 0x4c ]
    6880:	80 a2 20 00 	cmp  %o0, 0
    6884:	d5 03 a0 4c 	ld  [ %sp + 0x4c ], %f10
    6888:	06 80 00 07 	bl  68a4 <time_in_secs+0x2c>
    688c:	91 a0 19 0a 	fitod  %f10, %f8
    6890:	03 00 00 81 	sethi  %hi(0x20400), %g1
    6894:	9c 23 bf b0 	sub  %sp, -80, %sp
    6898:	c5 18 62 a0 	ldd  [ %g1 + 0x2a0 ], %f2
    689c:	81 c3 e0 08 	retl 
    68a0:	81 a2 09 c2 	fdivd  %f8, %f2, %f0
    68a4:	03 00 00 81 	sethi  %hi(0x20400), %g1
    68a8:	c1 18 62 98 	ldd  [ %g1 + 0x298 ], %f0	! 20698 <state_known_crc+0x684>
    68ac:	9c 23 bf b0 	sub  %sp, -80, %sp
    68b0:	91 a2 08 40 	faddd  %f8, %f0, %f8
    68b4:	03 00 00 81 	sethi  %hi(0x20400), %g1
    68b8:	c5 18 62 a0 	ldd  [ %g1 + 0x2a0 ], %f2	! 206a0 <state_known_crc+0x68c>
    68bc:	81 c3 e0 08 	retl 
    68c0:	81 a2 09 c2 	fdivd  %f8, %f2, %f0

000068c4 <portable_init>:
    68c4:	9d e3 bf a0 	save  %sp, -96, %sp
    68c8:	90 10 20 01 	mov  1, %o0
    68cc:	92 10 20 00 	clr  %o1
    68d0:	40 00 01 27 	call  6d6c <__ajit_serial_configure__>
    68d4:	94 10 20 00 	clr  %o2
    68d8:	92 10 20 0d 	mov  0xd, %o1
    68dc:	11 00 00 80 	sethi  %hi(0x20000), %o0
    68e0:	40 00 01 63 	call  6e6c <__ajit_serial_puts__>
    68e4:	90 12 21 58 	or  %o0, 0x158, %o0	! 20158 <state_known_crc+0x144>
    68e8:	03 00 00 81 	sethi  %hi(0x20400), %g1
    68ec:	c0 20 63 64 	clr  [ %g1 + 0x364 ]	! 20764 <seed1_volatile>
    68f0:	03 00 00 81 	sethi  %hi(0x20400), %g1
    68f4:	c0 20 63 60 	clr  [ %g1 + 0x360 ]	! 20760 <seed2_volatile>
    68f8:	84 10 20 66 	mov  0x66, %g2
    68fc:	03 00 00 81 	sethi  %hi(0x20400), %g1
    6900:	c4 20 62 fc 	st  %g2, [ %g1 + 0x2fc ]	! 206fc <seed3_volatile>
    6904:	86 10 27 d0 	mov  0x7d0, %g3
    6908:	03 00 00 81 	sethi  %hi(0x20400), %g1
    690c:	c6 20 62 f8 	st  %g3, [ %g1 + 0x2f8 ]	! 206f8 <seed4_volatile>
    6910:	03 00 00 81 	sethi  %hi(0x20400), %g1
    6914:	c0 20 62 f4 	clr  [ %g1 + 0x2f4 ]	! 206f4 <seed5_volatile>
    6918:	82 10 20 01 	mov  1, %g1
    691c:	c2 2e 00 00 	stb  %g1, [ %i0 ]
    6920:	81 c7 e0 08 	ret 
    6924:	81 e8 00 00 	restore 

00006928 <portable_fini>:
    6928:	9d e3 bf a0 	save  %sp, -96, %sp
    692c:	92 10 20 0e 	mov  0xe, %o1
    6930:	11 00 00 80 	sethi  %hi(0x20000), %o0
    6934:	40 00 01 4e 	call  6e6c <__ajit_serial_puts__>
    6938:	90 12 21 68 	or  %o0, 0x168, %o0	! 20168 <state_known_crc+0x154>
    693c:	c0 2e 00 00 	clrb  [ %i0 ]
    6940:	81 c7 e0 08 	ret 
    6944:	81 e8 00 00 	restore 

00006948 <__ajit_clear_all_gp_registers__>:
    6948:	82 10 00 00 	mov  %g0, %g1
    694c:	84 10 00 00 	mov  %g0, %g2
    6950:	86 10 00 00 	mov  %g0, %g3
    6954:	88 10 00 00 	mov  %g0, %g4
    6958:	8a 10 00 00 	mov  %g0, %g5
    695c:	8c 10 00 00 	mov  %g0, %g6
    6960:	8e 10 00 00 	mov  %g0, %g7
    6964:	b0 10 00 00 	mov  %g0, %i0
    6968:	b2 10 00 00 	mov  %g0, %i1
    696c:	b4 10 00 00 	mov  %g0, %i2
    6970:	b6 10 00 00 	mov  %g0, %i3
    6974:	b8 10 00 00 	mov  %g0, %i4
    6978:	ba 10 00 00 	mov  %g0, %i5
    697c:	bc 10 00 00 	mov  %g0, %fp
    6980:	be 10 00 00 	mov  %g0, %i7
    6984:	a0 10 00 00 	mov  %g0, %l0
    6988:	a2 10 00 00 	mov  %g0, %l1
    698c:	a4 10 00 00 	mov  %g0, %l2
    6990:	a6 10 00 00 	mov  %g0, %l3
    6994:	a8 10 00 00 	mov  %g0, %l4
    6998:	aa 10 00 00 	mov  %g0, %l5
    699c:	ac 10 00 00 	mov  %g0, %l6
    69a0:	ae 10 00 00 	mov  %g0, %l7
    69a4:	90 10 00 00 	mov  %g0, %o0
    69a8:	92 10 00 00 	mov  %g0, %o1
    69ac:	94 10 00 00 	mov  %g0, %o2
    69b0:	96 10 00 00 	mov  %g0, %o3
    69b4:	98 10 00 00 	mov  %g0, %o4
    69b8:	9a 10 00 00 	mov  %g0, %o5
    69bc:	9c 10 00 00 	mov  %g0, %sp
    69c0:	9e 10 00 00 	mov  %g0, %o7
    69c4:	81 e0 00 00 	save 
    69c8:	a0 10 00 00 	mov  %g0, %l0
    69cc:	a2 10 00 00 	mov  %g0, %l1
    69d0:	a4 10 00 00 	mov  %g0, %l2
    69d4:	a6 10 00 00 	mov  %g0, %l3
    69d8:	a8 10 00 00 	mov  %g0, %l4
    69dc:	aa 10 00 00 	mov  %g0, %l5
    69e0:	ac 10 00 00 	mov  %g0, %l6
    69e4:	ae 10 00 00 	mov  %g0, %l7
    69e8:	90 10 00 00 	mov  %g0, %o0
    69ec:	92 10 00 00 	mov  %g0, %o1
    69f0:	94 10 00 00 	mov  %g0, %o2
    69f4:	96 10 00 00 	mov  %g0, %o3
    69f8:	98 10 00 00 	mov  %g0, %o4
    69fc:	9a 10 00 00 	mov  %g0, %o5
    6a00:	9c 10 00 00 	mov  %g0, %sp
    6a04:	9e 10 00 00 	mov  %g0, %o7
    6a08:	81 e0 00 00 	save 
    6a0c:	a0 10 00 00 	mov  %g0, %l0
    6a10:	a2 10 00 00 	mov  %g0, %l1
    6a14:	a4 10 00 00 	mov  %g0, %l2
    6a18:	a6 10 00 00 	mov  %g0, %l3
    6a1c:	a8 10 00 00 	mov  %g0, %l4
    6a20:	aa 10 00 00 	mov  %g0, %l5
    6a24:	ac 10 00 00 	mov  %g0, %l6
    6a28:	ae 10 00 00 	mov  %g0, %l7
    6a2c:	90 10 00 00 	mov  %g0, %o0
    6a30:	92 10 00 00 	mov  %g0, %o1
    6a34:	94 10 00 00 	mov  %g0, %o2
    6a38:	96 10 00 00 	mov  %g0, %o3
    6a3c:	98 10 00 00 	mov  %g0, %o4
    6a40:	9a 10 00 00 	mov  %g0, %o5
    6a44:	9c 10 00 00 	mov  %g0, %sp
    6a48:	9e 10 00 00 	mov  %g0, %o7
    6a4c:	81 e0 00 00 	save 
    6a50:	a0 10 00 00 	mov  %g0, %l0
    6a54:	a2 10 00 00 	mov  %g0, %l1
    6a58:	a4 10 00 00 	mov  %g0, %l2
    6a5c:	a6 10 00 00 	mov  %g0, %l3
    6a60:	a8 10 00 00 	mov  %g0, %l4
    6a64:	aa 10 00 00 	mov  %g0, %l5
    6a68:	ac 10 00 00 	mov  %g0, %l6
    6a6c:	ae 10 00 00 	mov  %g0, %l7
    6a70:	90 10 00 00 	mov  %g0, %o0
    6a74:	92 10 00 00 	mov  %g0, %o1
    6a78:	94 10 00 00 	mov  %g0, %o2
    6a7c:	96 10 00 00 	mov  %g0, %o3
    6a80:	98 10 00 00 	mov  %g0, %o4
    6a84:	9a 10 00 00 	mov  %g0, %o5
    6a88:	9c 10 00 00 	mov  %g0, %sp
    6a8c:	9e 10 00 00 	mov  %g0, %o7
    6a90:	81 e0 00 00 	save 
    6a94:	a0 10 00 00 	mov  %g0, %l0
    6a98:	a2 10 00 00 	mov  %g0, %l1
    6a9c:	a4 10 00 00 	mov  %g0, %l2
    6aa0:	a6 10 00 00 	mov  %g0, %l3
    6aa4:	a8 10 00 00 	mov  %g0, %l4
    6aa8:	aa 10 00 00 	mov  %g0, %l5
    6aac:	ac 10 00 00 	mov  %g0, %l6
    6ab0:	ae 10 00 00 	mov  %g0, %l7
    6ab4:	90 10 00 00 	mov  %g0, %o0
    6ab8:	92 10 00 00 	mov  %g0, %o1
    6abc:	94 10 00 00 	mov  %g0, %o2
    6ac0:	96 10 00 00 	mov  %g0, %o3
    6ac4:	98 10 00 00 	mov  %g0, %o4
    6ac8:	9a 10 00 00 	mov  %g0, %o5
    6acc:	9c 10 00 00 	mov  %g0, %sp
    6ad0:	9e 10 00 00 	mov  %g0, %o7
    6ad4:	81 e0 00 00 	save 
    6ad8:	a0 10 00 00 	mov  %g0, %l0
    6adc:	a2 10 00 00 	mov  %g0, %l1
    6ae0:	a4 10 00 00 	mov  %g0, %l2
    6ae4:	a6 10 00 00 	mov  %g0, %l3
    6ae8:	a8 10 00 00 	mov  %g0, %l4
    6aec:	aa 10 00 00 	mov  %g0, %l5
    6af0:	ac 10 00 00 	mov  %g0, %l6
    6af4:	ae 10 00 00 	mov  %g0, %l7
    6af8:	90 10 00 00 	mov  %g0, %o0
    6afc:	92 10 00 00 	mov  %g0, %o1
    6b00:	94 10 00 00 	mov  %g0, %o2
    6b04:	96 10 00 00 	mov  %g0, %o3
    6b08:	98 10 00 00 	mov  %g0, %o4
    6b0c:	9a 10 00 00 	mov  %g0, %o5
    6b10:	9c 10 00 00 	mov  %g0, %sp
    6b14:	9e 10 00 00 	mov  %g0, %o7
    6b18:	81 e0 00 00 	save 
    6b1c:	a0 10 00 00 	mov  %g0, %l0
    6b20:	a2 10 00 00 	mov  %g0, %l1
    6b24:	a4 10 00 00 	mov  %g0, %l2
    6b28:	a6 10 00 00 	mov  %g0, %l3
    6b2c:	a8 10 00 00 	mov  %g0, %l4
    6b30:	aa 10 00 00 	mov  %g0, %l5
    6b34:	ac 10 00 00 	mov  %g0, %l6
    6b38:	ae 10 00 00 	mov  %g0, %l7
    6b3c:	90 10 00 00 	mov  %g0, %o0
    6b40:	92 10 00 00 	mov  %g0, %o1
    6b44:	94 10 00 00 	mov  %g0, %o2
    6b48:	96 10 00 00 	mov  %g0, %o3
    6b4c:	98 10 00 00 	mov  %g0, %o4
    6b50:	9a 10 00 00 	mov  %g0, %o5
    6b54:	9c 10 00 00 	mov  %g0, %sp
    6b58:	9e 10 00 00 	mov  %g0, %o7
    6b5c:	81 e0 00 00 	save 
    6b60:	a0 10 00 00 	mov  %g0, %l0
    6b64:	a2 10 00 00 	mov  %g0, %l1
    6b68:	a4 10 00 00 	mov  %g0, %l2
    6b6c:	a6 10 00 00 	mov  %g0, %l3
    6b70:	a8 10 00 00 	mov  %g0, %l4
    6b74:	aa 10 00 00 	mov  %g0, %l5
    6b78:	ac 10 00 00 	mov  %g0, %l6
    6b7c:	ae 10 00 00 	mov  %g0, %l7
    6b80:	90 10 00 00 	mov  %g0, %o0
    6b84:	92 10 00 00 	mov  %g0, %o1
    6b88:	94 10 00 00 	mov  %g0, %o2
    6b8c:	96 10 00 00 	mov  %g0, %o3
    6b90:	98 10 00 00 	mov  %g0, %o4
    6b94:	9a 10 00 00 	mov  %g0, %o5
    6b98:	9c 10 00 00 	mov  %g0, %sp
    6b9c:	9e 10 00 00 	mov  %g0, %o7
    6ba0:	81 e8 00 00 	restore 
    6ba4:	81 e8 00 00 	restore 
    6ba8:	81 e8 00 00 	restore 
    6bac:	81 e8 00 00 	restore 
    6bb0:	81 e8 00 00 	restore 
    6bb4:	81 e8 00 00 	restore 
    6bb8:	81 e8 00 00 	restore 
    6bbc:	81 c3 e0 08 	retl 
    6bc0:	01 00 00 00 	nop 

00006bc4 <__ajit_read_cycle_count_register_high__>:
    6bc4:	91 47 80 00 	rd  %asr30, %o0
    6bc8:	81 c3 e0 08 	retl 
    6bcc:	01 00 00 00 	nop 

00006bd0 <__ajit_read_cycle_count_register_low__>:
    6bd0:	91 47 c0 00 	rd  %asr31, %o0
    6bd4:	81 c3 e0 08 	retl 
    6bd8:	01 00 00 00 	nop 

00006bdc <__ajit_get_clock_time>:
    6bdc:	99 47 c0 00 	rd  %asr31, %o4
    6be0:	83 47 80 00 	rd  %asr30, %g1
    6be4:	88 10 20 00 	clr  %g4
    6be8:	86 10 20 00 	clr  %g3
    6bec:	90 10 40 04 	or  %g1, %g4, %o0
    6bf0:	81 c3 e0 08 	retl 
    6bf4:	92 10 c0 0c 	or  %g3, %o4, %o1

00006bf8 <__ajit_set_mmu_default_cacheable_bit__>:
    6bf8:	80 a0 00 08 	cmp  %g0, %o0
    6bfc:	84 10 20 00 	clr  %g2
    6c00:	82 40 20 00 	addx  %g0, 0, %g1
    6c04:	83 28 60 08 	sll  %g1, 8, %g1
    6c08:	c2 a0 80 80 	sta  %g1, [ %g2 ] #ASI_N
    6c0c:	81 c3 e0 08 	retl 
    6c10:	01 00 00 00 	nop 

00006c14 <__ajit_store_word_mmu_reg__>:
    6c14:	d0 a2 40 80 	sta  %o0, [ %o1 ] #ASI_N
    6c18:	81 c3 e0 08 	retl 
    6c1c:	01 00 00 00 	nop 

00006c20 <__ajit_store_word_mmu_bypass__>:
    6c20:	d0 a2 44 00 	sta  %o0, [ %o1 ] #ASI_SCRATCHPAD
    6c24:	81 c3 e0 08 	retl 
    6c28:	01 00 00 00 	nop 

00006c2c <__ajit_load_word_mmu_reg__>:
    6c2c:	d0 82 00 80 	lda  [ %o0 ] #ASI_N, %o0
    6c30:	81 c3 e0 08 	retl 
    6c34:	01 00 00 00 	nop 

00006c38 <__ajit_load_word_mmu_bypass__>:
    6c38:	d0 82 04 00 	lda  [ %o0 ] #ASI_SCRATCHPAD, %o0
    6c3c:	81 c3 e0 08 	retl 
    6c40:	01 00 00 00 	nop 

00006c44 <__ajit_enable_mmu__>:
    6c44:	82 10 20 00 	clr  %g1	! 0 <_start>
    6c48:	c2 80 40 80 	lda  [ %g1 ] #ASI_N, %g1
    6c4c:	84 10 20 00 	clr  %g2
    6c50:	82 10 60 01 	or  %g1, 1, %g1
    6c54:	c2 a0 80 80 	sta  %g1, [ %g2 ] #ASI_N
    6c58:	81 c3 e0 08 	retl 
    6c5c:	01 00 00 00 	nop 

00006c60 <__ajit_disable_mmu__>:
    6c60:	82 10 20 00 	clr  %g1	! 0 <_start>
    6c64:	c2 80 40 80 	lda  [ %g1 ] #ASI_N, %g1
    6c68:	84 10 20 00 	clr  %g2
    6c6c:	82 08 7f fe 	and  %g1, -2, %g1
    6c70:	c2 a0 80 80 	sta  %g1, [ %g2 ] #ASI_N
    6c74:	81 c3 e0 08 	retl 
    6c78:	01 00 00 00 	nop 

00006c7c <__ajit_mmu_flush__>:
    6c7c:	d0 a2 40 60 	sta  %o0, [ %o1 ] (3)
    6c80:	81 c3 e0 08 	retl 
    6c84:	01 00 00 00 	nop 

00006c88 <__ajit_mmu_probe__>:
    6c88:	d0 82 00 60 	lda  [ %o0 ] (3), %o0
    6c8c:	81 c3 e0 08 	retl 
    6c90:	01 00 00 00 	nop 

00006c94 <__ajit_mmu_context_switch__>:
    6c94:	a0 10 00 08 	mov  %o0, %l0
    6c98:	c0 a0 02 60 	sta  %g0, [ %g0 ] (19)
    6c9c:	81 d8 20 00 	flush  %g0
    6ca0:	c0 a0 00 60 	sta  %g0, [ %g0 ] (3)
    6ca4:	82 10 22 00 	mov  0x200, %g1
    6ca8:	e0 a0 40 80 	sta  %l0, [ %g1 ] #ASI_N
    6cac:	c0 a0 02 60 	sta  %g0, [ %g0 ] (19)
    6cb0:	81 d8 20 00 	flush  %g0
    6cb4:	c0 a0 00 60 	sta  %g0, [ %g0 ] (3)
    6cb8:	81 c3 e0 08 	retl 
    6cbc:	01 00 00 00 	nop 

00006cc0 <_ajit_va_l1_offset>:
    6cc0:	81 c3 e0 08 	retl 
    6cc4:	91 32 20 18 	srl  %o0, 0x18, %o0

00006cc8 <_ajit_va_l2_offset>:
    6cc8:	91 32 20 12 	srl  %o0, 0x12, %o0
    6ccc:	81 c3 e0 08 	retl 
    6cd0:	90 0a 20 1f 	and  %o0, 0x1f, %o0

00006cd4 <_ajit_va_l3_offset>:
    6cd4:	91 32 20 0c 	srl  %o0, 0xc, %o0
    6cd8:	81 c3 e0 08 	retl 
    6cdc:	90 0a 20 1f 	and  %o0, 0x1f, %o0

00006ce0 <__ajit_make_pte__>:
    6ce0:	93 2a 60 07 	sll  %o1, 7, %o1
    6ce4:	95 2a a0 06 	sll  %o2, 6, %o2
    6ce8:	82 12 60 02 	or  %o1, 2, %g1
    6cec:	97 2a e0 05 	sll  %o3, 5, %o3
    6cf0:	84 10 40 0a 	or  %g1, %o2, %g2
    6cf4:	99 2b 20 02 	sll  %o4, 2, %o4
    6cf8:	86 10 80 0b 	or  %g2, %o3, %g3
    6cfc:	91 2a 20 08 	sll  %o0, 8, %o0
    6d00:	88 10 c0 0c 	or  %g3, %o4, %g4
    6d04:	81 c3 e0 08 	retl 
    6d08:	90 11 00 08 	or  %g4, %o0, %o0

00006d0c <__ajit_make_ptd__>:
    6d0c:	91 2a 20 02 	sll  %o0, 2, %o0
    6d10:	81 c3 e0 08 	retl 
    6d14:	90 12 20 01 	or  %o0, 1, %o0

00006d18 <__ajit_flush_icache__>:
    6d18:	81 d8 20 00 	flush  %g0
    6d1c:	81 c3 e0 08 	retl 
    6d20:	01 00 00 00 	nop 

00006d24 <__ajit_flush_dcache__>:
    6d24:	c0 a0 02 60 	sta  %g0, [ %g0 ] (19)
    6d28:	81 c3 e0 08 	retl 
    6d2c:	01 00 00 00 	nop 

00006d30 <__ajit_write_timer_control_register__>:
    6d30:	03 3f ff cc 	sethi  %hi(0xffff3000), %g1
    6d34:	82 10 61 00 	or  %g1, 0x100, %g1	! ffff3100 <static_memblk+0xfffd2990>
    6d38:	d0 a0 44 00 	sta  %o0, [ %g1 ] #ASI_SCRATCHPAD
    6d3c:	81 c3 e0 08 	retl 
    6d40:	01 00 00 00 	nop 

00006d44 <__ajit_read_timer_control_register__>:
    6d44:	11 3f ff cc 	sethi  %hi(0xffff3000), %o0
    6d48:	82 12 21 00 	or  %o0, 0x100, %g1	! ffff3100 <static_memblk+0xfffd2990>
    6d4c:	d0 80 44 00 	lda  [ %g1 ] #ASI_SCRATCHPAD, %o0
    6d50:	81 c3 e0 08 	retl 
    6d54:	01 00 00 00 	nop 

00006d58 <__ajit_write_serial_control_register__>:
    6d58:	03 3f ff cc 	sethi  %hi(0xffff3000), %g1
    6d5c:	82 10 62 00 	or  %g1, 0x200, %g1	! ffff3200 <static_memblk+0xfffd2a90>
    6d60:	d0 a0 44 00 	sta  %o0, [ %g1 ] #ASI_SCRATCHPAD
    6d64:	81 c3 e0 08 	retl 
    6d68:	01 00 00 00 	nop 

00006d6c <__ajit_serial_configure__>:
    6d6c:	05 3f ff cc 	sethi  %hi(0xffff3000), %g2
    6d70:	82 10 a2 00 	or  %g2, 0x200, %g1	! ffff3200 <static_memblk+0xfffd2a90>
    6d74:	c6 80 44 00 	lda  [ %g1 ] #ASI_SCRATCHPAD, %g3
    6d78:	80 a2 20 00 	cmp  %o0, 0
    6d7c:	02 80 00 03 	be  6d88 <__ajit_serial_configure__+0x1c>
    6d80:	82 08 ff fe 	and  %g3, -2, %g1
    6d84:	82 10 e0 01 	or  %g3, 1, %g1
    6d88:	80 a2 60 00 	cmp  %o1, 0
    6d8c:	02 80 00 03 	be  6d98 <__ajit_serial_configure__+0x2c>
    6d90:	88 08 7f fd 	and  %g1, -3, %g4
    6d94:	88 10 60 02 	or  %g1, 2, %g4
    6d98:	80 a2 a0 00 	cmp  %o2, 0
    6d9c:	02 80 00 03 	be  6da8 <__ajit_serial_configure__+0x3c>
    6da0:	82 09 3f fb 	and  %g4, -5, %g1
    6da4:	82 11 20 04 	or  %g4, 4, %g1
    6da8:	11 3f ff cc 	sethi  %hi(0xffff3000), %o0
    6dac:	92 12 22 00 	or  %o0, 0x200, %o1	! ffff3200 <static_memblk+0xfffd2a90>
    6db0:	c2 a2 44 00 	sta  %g1, [ %o1 ] #ASI_SCRATCHPAD
    6db4:	81 c3 e0 08 	retl 
    6db8:	01 00 00 00 	nop 

00006dbc <__ajit_read_serial_control_register__>:
    6dbc:	11 3f ff cc 	sethi  %hi(0xffff3000), %o0
    6dc0:	82 12 22 00 	or  %o0, 0x200, %g1	! ffff3200 <static_memblk+0xfffd2a90>
    6dc4:	d0 80 44 00 	lda  [ %g1 ] #ASI_SCRATCHPAD, %o0
    6dc8:	81 c3 e0 08 	retl 
    6dcc:	01 00 00 00 	nop 

00006dd0 <__ajit_write_serial_tx_register__>:
    6dd0:	03 3f ff cc 	sethi  %hi(0xffff3000), %g1
    6dd4:	82 10 62 10 	or  %g1, 0x210, %g1	! ffff3210 <static_memblk+0xfffd2aa0>
    6dd8:	d0 a0 44 00 	sta  %o0, [ %g1 ] #ASI_SCRATCHPAD
    6ddc:	81 c3 e0 08 	retl 
    6de0:	01 00 00 00 	nop 

00006de4 <__ajit_read_serial_tx_register__>:
    6de4:	11 3f ff cc 	sethi  %hi(0xffff3000), %o0
    6de8:	82 12 22 10 	or  %o0, 0x210, %g1	! ffff3210 <static_memblk+0xfffd2aa0>
    6dec:	d0 80 44 00 	lda  [ %g1 ] #ASI_SCRATCHPAD, %o0
    6df0:	81 c3 e0 08 	retl 
    6df4:	01 00 00 00 	nop 

00006df8 <__ajit_read_serial_rx_register__>:
    6df8:	11 3f ff cc 	sethi  %hi(0xffff3000), %o0
    6dfc:	82 12 22 20 	or  %o0, 0x220, %g1	! ffff3220 <static_memblk+0xfffd2ab0>
    6e00:	d0 88 44 00 	lduba  [ %g1 ] #ASI_SCRATCHPAD, %o0
    6e04:	81 c3 e0 08 	retl 
    6e08:	01 00 00 00 	nop 

00006e0c <__ajit_serial_putchar__>:
    6e0c:	05 3f ff cc 	sethi  %hi(0xffff3000), %g2
    6e10:	82 10 a2 00 	or  %g2, 0x200, %g1	! ffff3200 <static_memblk+0xfffd2a90>
    6e14:	c2 80 44 00 	lda  [ %g1 ] #ASI_SCRATCHPAD, %g1
    6e18:	80 88 60 01 	btst  1, %g1
    6e1c:	02 80 00 07 	be  6e38 <__ajit_serial_putchar__+0x2c>
    6e20:	88 10 20 00 	clr  %g4
    6e24:	80 88 60 08 	btst  8, %g1
    6e28:	12 80 00 04 	bne  6e38 <__ajit_serial_putchar__+0x2c>
    6e2c:	86 10 a2 10 	or  %g2, 0x210, %g3
    6e30:	d0 a8 c4 00 	stba  %o0, [ %g3 ] #ASI_SCRATCHPAD
    6e34:	88 10 00 08 	mov  %o0, %g4
    6e38:	81 c3 e0 08 	retl 
    6e3c:	90 10 00 04 	mov  %g4, %o0

00006e40 <__ajit_serial_getchar__>:
    6e40:	03 3f ff cc 	sethi  %hi(0xffff3000), %g1
    6e44:	84 10 62 00 	or  %g1, 0x200, %g2	! ffff3200 <static_memblk+0xfffd2a90>
    6e48:	c6 80 84 00 	lda  [ %g2 ] #ASI_SCRATCHPAD, %g3
    6e4c:	88 08 e0 12 	and  %g3, 0x12, %g4
    6e50:	80 a1 20 12 	cmp  %g4, 0x12
    6e54:	12 80 00 04 	bne  6e64 <__ajit_serial_getchar__+0x24>
    6e58:	90 10 20 00 	clr  %o0
    6e5c:	90 10 62 20 	or  %g1, 0x220, %o0
    6e60:	d0 8a 04 00 	lduba  [ %o0 ] #ASI_SCRATCHPAD, %o0
    6e64:	81 c3 e0 08 	retl 
    6e68:	01 00 00 00 	nop 

00006e6c <__ajit_serial_puts__>:
    6e6c:	80 a2 60 00 	cmp  %o1, 0
    6e70:	02 80 00 16 	be  6ec8 <__ajit_serial_puts__+0x5c>
    6e74:	19 3f ff cc 	sethi  %hi(0xffff3000), %o4
    6e78:	9a 10 20 00 	clr  %o5
    6e7c:	84 13 22 00 	or  %o4, 0x200, %g2
    6e80:	88 10 20 00 	clr  %g4
    6e84:	98 13 22 10 	or  %o4, 0x210, %o4
    6e88:	c6 0a 00 0d 	ldub  [ %o0 + %o5 ], %g3
    6e8c:	c2 80 84 00 	lda  [ %g2 ] #ASI_SCRATCHPAD, %g1
    6e90:	80 88 60 01 	btst  1, %g1
    6e94:	02 bf ff fe 	be  6e8c <__ajit_serial_puts__+0x20>
    6e98:	80 88 60 08 	btst  8, %g1
    6e9c:	12 bf ff fc 	bne  6e8c <__ajit_serial_puts__+0x20>
    6ea0:	01 00 00 00 	nop 
    6ea4:	c6 ab 04 00 	stba  %g3, [ %o4 ] #ASI_SCRATCHPAD
    6ea8:	87 28 e0 18 	sll  %g3, 0x18, %g3
    6eac:	80 a0 e0 00 	cmp  %g3, 0
    6eb0:	22 bf ff f7 	be,a   6e8c <__ajit_serial_puts__+0x20>
    6eb4:	c6 0a 00 0d 	ldub  [ %o0 + %o5 ], %g3
    6eb8:	88 01 20 01 	inc  %g4
    6ebc:	80 a1 00 09 	cmp  %g4, %o1
    6ec0:	12 bf ff f2 	bne  6e88 <__ajit_serial_puts__+0x1c>
    6ec4:	9a 10 00 04 	mov  %g4, %o5
    6ec8:	81 c3 e0 08 	retl 
    6ecc:	01 00 00 00 	nop 

00006ed0 <__ajit_serial_gets__>:
    6ed0:	80 a2 60 00 	cmp  %o1, 0
    6ed4:	02 80 00 15 	be  6f28 <__ajit_serial_gets__+0x58>
    6ed8:	09 3f ff cc 	sethi  %hi(0xffff3000), %g4
    6edc:	9a 10 20 00 	clr  %o5
    6ee0:	84 11 22 00 	or  %g4, 0x200, %g2
    6ee4:	86 10 20 00 	clr  %g3
    6ee8:	88 11 22 20 	or  %g4, 0x220, %g4
    6eec:	c2 80 84 00 	lda  [ %g2 ] #ASI_SCRATCHPAD, %g1
    6ef0:	80 88 60 02 	btst  2, %g1
    6ef4:	02 bf ff fe 	be  6eec <__ajit_serial_gets__+0x1c>
    6ef8:	80 88 60 10 	btst  0x10, %g1
    6efc:	02 bf ff fc 	be  6eec <__ajit_serial_gets__+0x1c>
    6f00:	01 00 00 00 	nop 
    6f04:	c2 89 04 00 	lduba  [ %g4 ] #ASI_SCRATCHPAD, %g1
    6f08:	80 a0 60 00 	cmp  %g1, 0
    6f0c:	02 bf ff f8 	be  6eec <__ajit_serial_gets__+0x1c>
    6f10:	01 00 00 00 	nop 
    6f14:	c2 2a 00 0d 	stb  %g1, [ %o0 + %o5 ]
    6f18:	86 00 e0 01 	inc  %g3
    6f1c:	80 a0 c0 09 	cmp  %g3, %o1
    6f20:	12 bf ff f3 	bne  6eec <__ajit_serial_gets__+0x1c>
    6f24:	9a 10 00 03 	mov  %g3, %o5
    6f28:	81 c3 e0 08 	retl 
    6f2c:	01 00 00 00 	nop 

00006f30 <__ajit_write_irc_control_register__>:
    6f30:	03 3f ff cc 	sethi  %hi(0xffff3000), %g1
    6f34:	d0 a0 44 00 	sta  %o0, [ %g1 ] #ASI_SCRATCHPAD
    6f38:	81 c3 e0 08 	retl 
    6f3c:	01 00 00 00 	nop 

00006f40 <__ajit_read_irc_control_register__>:
    6f40:	11 3f ff cc 	sethi  %hi(0xffff3000), %o0
    6f44:	d0 82 04 00 	lda  [ %o0 ] #ASI_SCRATCHPAD, %o0
    6f48:	81 c3 e0 08 	retl 
    6f4c:	01 00 00 00 	nop 

00006f50 <__ajit_write_spi_master_register__>:
    6f50:	91 2a 20 02 	sll  %o0, 2, %o0
    6f54:	03 3f ff cc 	sethi  %hi(0xffff3000), %g1
    6f58:	82 10 63 00 	or  %g1, 0x300, %g1	! ffff3300 <static_memblk+0xfffd2b90>
    6f5c:	84 02 00 01 	add  %o0, %g1, %g2
    6f60:	d2 a0 84 00 	sta  %o1, [ %g2 ] #ASI_SCRATCHPAD
    6f64:	81 c3 e0 08 	retl 
    6f68:	01 00 00 00 	nop 

00006f6c <__ajit_read_spi_master_register__>:
    6f6c:	91 2a 20 02 	sll  %o0, 2, %o0
    6f70:	03 3f ff cc 	sethi  %hi(0xffff3000), %g1
    6f74:	82 10 63 00 	or  %g1, 0x300, %g1	! ffff3300 <static_memblk+0xfffd2b90>
    6f78:	84 02 00 01 	add  %o0, %g1, %g2
    6f7c:	d0 80 84 00 	lda  [ %g2 ] #ASI_SCRATCHPAD, %o0
    6f80:	81 c3 e0 08 	retl 
    6f84:	01 00 00 00 	nop 

00006f88 <__ajit_gpio_xfer__>:
    6f88:	09 3f ff cc 	sethi  %hi(0xffff3000), %g4
    6f8c:	82 11 23 00 	or  %g4, 0x300, %g1	! ffff3300 <static_memblk+0xfffd2b90>
    6f90:	d0 a0 44 00 	sta  %o0, [ %g1 ] #ASI_SCRATCHPAD
    6f94:	82 10 20 13 	mov  0x13, %g1
    6f98:	90 11 23 08 	or  %g4, 0x308, %o0
    6f9c:	c2 a2 04 00 	sta  %g1, [ %o0 ] #ASI_SCRATCHPAD
    6fa0:	82 10 21 00 	mov  0x100, %g1
    6fa4:	c6 82 04 00 	lda  [ %o0 ] #ASI_SCRATCHPAD, %g3
    6fa8:	82 00 7f ff 	add  %g1, -1, %g1
    6fac:	85 38 60 1f 	sra  %g1, 0x1f, %g2
    6fb0:	88 20 80 01 	sub  %g2, %g1, %g4
    6fb4:	85 31 20 1f 	srl  %g4, 0x1f, %g2
    6fb8:	80 88 c0 02 	btst  %g3, %g2
    6fbc:	12 bf ff fa 	bne  6fa4 <__ajit_gpio_xfer__+0x1c>
    6fc0:	01 00 00 00 	nop 
    6fc4:	11 3f ff cc 	sethi  %hi(0xffff3000), %o0
    6fc8:	86 12 23 00 	or  %o0, 0x300, %g3	! ffff3300 <static_memblk+0xfffd2b90>
    6fcc:	d0 80 c4 00 	lda  [ %g3 ] #ASI_SCRATCHPAD, %o0
    6fd0:	81 c3 e0 08 	retl 
    6fd4:	01 00 00 00 	nop 

00006fd8 <__ajit_ta_0__>:
    6fd8:	91 d0 20 00 	ta  0
    6fdc:	01 00 00 00 	nop 
    6fe0:	01 00 00 00 	nop 
    6fe4:	81 c3 e0 08 	retl 
    6fe8:	01 00 00 00 	nop 

00006fec <matrix_test>:
    6fec:	9d e3 bf a0 	save  %sp, -96, %sp
    6ff0:	80 a6 20 00 	cmp  %i0, 0
    6ff4:	02 80 01 0e 	be  742c <matrix_test+0x440>
    6ff8:	a0 17 30 00 	or  %i4, -4096, %l0
    6ffc:	a4 10 00 1c 	mov  %i4, %l2
    7000:	ba 06 00 18 	add  %i0, %i0, %i5
    7004:	a8 10 00 1a 	mov  %i2, %l4
    7008:	82 10 00 1a 	mov  %i2, %g1
    700c:	88 10 20 00 	clr  %g4
    7010:	86 07 40 01 	add  %i5, %g1, %g3
    7014:	d0 10 40 00 	lduh  [ %g1 ], %o0
    7018:	94 02 00 12 	add  %o0, %l2, %o2
    701c:	d4 30 40 00 	sth  %o2, [ %g1 ]
    7020:	82 00 60 02 	add  %g1, 2, %g1
    7024:	80 a0 c0 01 	cmp  %g3, %g1
    7028:	32 bf ff fc 	bne,a   7018 <matrix_test+0x2c>
    702c:	d0 10 40 00 	lduh  [ %g1 ], %o0
    7030:	88 01 20 01 	inc  %g4
    7034:	80 a1 00 18 	cmp  %g4, %i0
    7038:	12 bf ff f6 	bne  7010 <matrix_test+0x24>
    703c:	82 10 00 03 	mov  %g3, %g1
    7040:	a3 2e 20 02 	sll  %i0, 2, %l1
    7044:	a6 10 00 19 	mov  %i1, %l3
    7048:	9e 10 00 19 	mov  %i1, %o7
    704c:	84 10 00 1a 	mov  %i2, %g2
    7050:	9a 10 20 00 	clr  %o5
    7054:	82 10 20 00 	clr  %g1
    7058:	d6 50 80 01 	ldsh  [ %g2 + %g1 ], %o3
    705c:	98 00 40 01 	add  %g1, %g1, %o4
    7060:	92 5a c0 1c 	smul  %o3, %i4, %o1
    7064:	82 00 60 02 	add  %g1, 2, %g1
    7068:	80 a7 40 01 	cmp  %i5, %g1
    706c:	12 bf ff fb 	bne  7058 <matrix_test+0x6c>
    7070:	d2 23 c0 0c 	st  %o1, [ %o7 + %o4 ]
    7074:	9a 03 60 01 	inc  %o5
    7078:	84 00 80 1d 	add  %g2, %i5, %g2
    707c:	80 a3 40 18 	cmp  %o5, %i0
    7080:	12 bf ff f5 	bne  7054 <matrix_test+0x68>
    7084:	9e 03 c0 11 	add  %o7, %l1, %o7
    7088:	96 10 00 19 	mov  %i1, %o3
    708c:	94 10 20 00 	clr  %o2
    7090:	88 10 20 00 	clr  %g4
    7094:	82 10 20 00 	clr  %g1
    7098:	9a 10 20 00 	clr  %o5
    709c:	90 10 00 01 	mov  %g1, %o0
    70a0:	92 10 20 00 	clr  %o1
    70a4:	c2 02 c0 09 	ld  [ %o3 + %o1 ], %g1
    70a8:	98 01 20 0a 	add  %g4, 0xa, %o4
    70ac:	86 00 40 0d 	add  %g1, %o5, %g3
    70b0:	80 a0 40 08 	cmp  %g1, %o0
    70b4:	14 80 00 03 	bg  70c0 <matrix_test+0xd4>
    70b8:	b8 10 20 01 	mov  1, %i4
    70bc:	b8 10 20 00 	clr  %i4
    70c0:	84 01 00 1c 	add  %g4, %i4, %g2
    70c4:	80 a0 c0 10 	cmp  %g3, %l0
    70c8:	04 80 00 04 	ble  70d8 <matrix_test+0xec>
    70cc:	9a 10 00 03 	mov  %g3, %o5
    70d0:	9a 10 20 00 	clr  %o5
    70d4:	80 a0 c0 10 	cmp  %g3, %l0
    70d8:	34 80 00 02 	bg,a   70e0 <matrix_test+0xf4>
    70dc:	84 10 00 0c 	mov  %o4, %g2
    70e0:	92 02 60 04 	add  %o1, 4, %o1
    70e4:	88 10 00 02 	mov  %g2, %g4
    70e8:	80 a4 40 09 	cmp  %l1, %o1
    70ec:	12 bf ff ee 	bne  70a4 <matrix_test+0xb8>
    70f0:	90 10 00 01 	mov  %g1, %o0
    70f4:	94 02 a0 01 	inc  %o2
    70f8:	80 a2 80 18 	cmp  %o2, %i0
    70fc:	12 bf ff e9 	bne  70a0 <matrix_test+0xb4>
    7100:	96 02 c0 11 	add  %o3, %l1, %o3
    7104:	9f 28 a0 10 	sll  %g2, 0x10, %o7
    7108:	91 3b e0 10 	sra  %o7, 0x10, %o0
    710c:	40 00 09 f9 	call  98f0 <crc16>
    7110:	92 10 20 00 	clr  %o1
    7114:	92 10 00 1a 	mov  %i2, %o1
    7118:	98 10 20 00 	clr  %o4
    711c:	c0 26 40 0c 	clr  [ %i1 + %o4 ]
    7120:	82 10 20 00 	clr  %g1
    7124:	84 10 20 00 	clr  %g2
    7128:	f8 52 40 01 	ldsh  [ %o1 + %g1 ], %i4
    712c:	c6 56 c0 01 	ldsh  [ %i3 + %g1 ], %g3
    7130:	82 00 60 02 	add  %g1, 2, %g1
    7134:	9a 5f 00 03 	smul  %i4, %g3, %o5
    7138:	80 a7 40 01 	cmp  %i5, %g1
    713c:	12 bf ff fb 	bne  7128 <matrix_test+0x13c>
    7140:	84 00 80 0d 	add  %g2, %o5, %g2
    7144:	c4 26 40 0c 	st  %g2, [ %i1 + %o4 ]
    7148:	98 03 20 04 	add  %o4, 4, %o4
    714c:	80 a4 40 0c 	cmp  %l1, %o4
    7150:	12 bf ff f3 	bne  711c <matrix_test+0x130>
    7154:	92 02 40 1d 	add  %o1, %i5, %o1
    7158:	96 10 00 19 	mov  %i1, %o3
    715c:	94 10 20 00 	clr  %o2
    7160:	88 10 20 00 	clr  %g4
    7164:	82 10 20 00 	clr  %g1
    7168:	84 10 20 00 	clr  %g2
    716c:	92 10 00 01 	mov  %g1, %o1
    7170:	9a 10 20 00 	clr  %o5
    7174:	c2 02 c0 0d 	ld  [ %o3 + %o5 ], %g1
    7178:	98 01 20 0a 	add  %g4, 0xa, %o4
    717c:	86 00 40 02 	add  %g1, %g2, %g3
    7180:	80 a0 40 09 	cmp  %g1, %o1
    7184:	14 80 00 03 	bg  7190 <matrix_test+0x1a4>
    7188:	9e 10 20 01 	mov  1, %o7
    718c:	9e 10 20 00 	clr  %o7
    7190:	b8 01 00 0f 	add  %g4, %o7, %i4
    7194:	80 a0 c0 10 	cmp  %g3, %l0
    7198:	04 80 00 04 	ble  71a8 <matrix_test+0x1bc>
    719c:	84 10 00 03 	mov  %g3, %g2
    71a0:	84 10 20 00 	clr  %g2
    71a4:	80 a0 c0 10 	cmp  %g3, %l0
    71a8:	34 80 00 02 	bg,a   71b0 <matrix_test+0x1c4>
    71ac:	b8 10 00 0c 	mov  %o4, %i4
    71b0:	9a 03 60 04 	add  %o5, 4, %o5
    71b4:	88 10 00 1c 	mov  %i4, %g4
    71b8:	80 a4 40 0d 	cmp  %l1, %o5
    71bc:	12 bf ff ee 	bne  7174 <matrix_test+0x188>
    71c0:	92 10 00 01 	mov  %g1, %o1
    71c4:	94 02 a0 01 	inc  %o2
    71c8:	80 a2 80 18 	cmp  %o2, %i0
    71cc:	12 bf ff e9 	bne  7170 <matrix_test+0x184>
    71d0:	96 02 c0 11 	add  %o3, %l1, %o3
    71d4:	9b 2f 20 10 	sll  %i4, 0x10, %o5
    71d8:	93 2a 20 10 	sll  %o0, 0x10, %o1
    71dc:	91 3b 60 10 	sra  %o5, 0x10, %o0
    71e0:	40 00 09 c4 	call  98f0 <crc16>
    71e4:	93 32 60 10 	srl  %o1, 0x10, %o1
    71e8:	94 10 00 19 	mov  %i1, %o2
    71ec:	9e 10 00 1a 	mov  %i2, %o7
    71f0:	96 10 20 00 	clr  %o3
    71f4:	98 10 00 0a 	mov  %o2, %o4
    71f8:	9a 10 20 00 	clr  %o5
    71fc:	c0 23 00 00 	clr  [ %o4 ]
    7200:	84 03 40 1b 	add  %o5, %i3, %g2
    7204:	82 10 20 00 	clr  %g1
    7208:	86 10 20 00 	clr  %g3
    720c:	f8 53 c0 01 	ldsh  [ %o7 + %g1 ], %i4
    7210:	c8 50 80 00 	ldsh  [ %g2 ], %g4
    7214:	82 00 60 02 	add  %g1, 2, %g1
    7218:	92 5f 00 04 	smul  %i4, %g4, %o1
    721c:	84 00 80 1d 	add  %g2, %i5, %g2
    7220:	80 a7 40 01 	cmp  %i5, %g1
    7224:	12 bf ff fa 	bne  720c <matrix_test+0x220>
    7228:	86 00 c0 09 	add  %g3, %o1, %g3
    722c:	c6 23 00 00 	st  %g3, [ %o4 ]
    7230:	9a 03 60 02 	add  %o5, 2, %o5
    7234:	80 a7 40 0d 	cmp  %i5, %o5
    7238:	12 bf ff f1 	bne  71fc <matrix_test+0x210>
    723c:	98 03 20 04 	add  %o4, 4, %o4
    7240:	96 02 e0 01 	inc  %o3
    7244:	9e 03 c0 1d 	add  %o7, %i5, %o7
    7248:	80 a2 c0 18 	cmp  %o3, %i0
    724c:	12 bf ff ea 	bne  71f4 <matrix_test+0x208>
    7250:	94 02 80 11 	add  %o2, %l1, %o2
    7254:	96 10 00 19 	mov  %i1, %o3
    7258:	94 10 20 00 	clr  %o2
    725c:	88 10 20 00 	clr  %g4
    7260:	82 10 20 00 	clr  %g1
    7264:	86 10 20 00 	clr  %g3
    7268:	9a 10 00 01 	mov  %g1, %o5
    726c:	92 10 20 00 	clr  %o1
    7270:	c2 02 c0 09 	ld  [ %o3 + %o1 ], %g1
    7274:	98 01 20 0a 	add  %g4, 0xa, %o4
    7278:	84 00 40 03 	add  %g1, %g3, %g2
    727c:	80 a0 40 0d 	cmp  %g1, %o5
    7280:	14 80 00 03 	bg  728c <matrix_test+0x2a0>
    7284:	9e 10 20 01 	mov  1, %o7
    7288:	9e 10 20 00 	clr  %o7
    728c:	b8 01 00 0f 	add  %g4, %o7, %i4
    7290:	80 a0 80 10 	cmp  %g2, %l0
    7294:	04 80 00 04 	ble  72a4 <matrix_test+0x2b8>
    7298:	86 10 00 02 	mov  %g2, %g3
    729c:	86 10 20 00 	clr  %g3
    72a0:	80 a0 80 10 	cmp  %g2, %l0
    72a4:	34 80 00 02 	bg,a   72ac <matrix_test+0x2c0>
    72a8:	b8 10 00 0c 	mov  %o4, %i4
    72ac:	92 02 60 04 	add  %o1, 4, %o1
    72b0:	88 10 00 1c 	mov  %i4, %g4
    72b4:	80 a4 40 09 	cmp  %l1, %o1
    72b8:	12 bf ff ee 	bne  7270 <matrix_test+0x284>
    72bc:	9a 10 00 01 	mov  %g1, %o5
    72c0:	94 02 a0 01 	inc  %o2
    72c4:	80 a2 80 18 	cmp  %o2, %i0
    72c8:	12 bf ff e9 	bne  726c <matrix_test+0x280>
    72cc:	96 02 c0 11 	add  %o3, %l1, %o3
    72d0:	9b 2f 20 10 	sll  %i4, 0x10, %o5
    72d4:	93 2a 20 10 	sll  %o0, 0x10, %o1
    72d8:	91 3b 60 10 	sra  %o5, 0x10, %o0
    72dc:	40 00 09 85 	call  98f0 <crc16>
    72e0:	93 32 60 10 	srl  %o1, 0x10, %o1
    72e4:	98 10 20 00 	clr  %o4
    72e8:	94 10 00 19 	mov  %i1, %o2
    72ec:	9e 10 20 00 	clr  %o7
    72f0:	c0 22 80 00 	clr  [ %o2 ]
    72f4:	84 06 c0 0f 	add  %i3, %o7, %g2
    72f8:	82 10 20 00 	clr  %g1
    72fc:	88 10 20 00 	clr  %g4
    7300:	f8 56 80 01 	ldsh  [ %i2 + %g1 ], %i4
    7304:	c6 50 80 00 	ldsh  [ %g2 ], %g3
    7308:	96 5f 00 03 	smul  %i4, %g3, %o3
    730c:	82 00 60 02 	add  %g1, 2, %g1
    7310:	9b 3a e0 05 	sra  %o3, 5, %o5
    7314:	93 3a e0 02 	sra  %o3, 2, %o1
    7318:	b8 0b 60 7f 	and  %o5, 0x7f, %i4
    731c:	86 0a 60 0f 	and  %o1, 0xf, %g3
    7320:	84 00 80 1d 	add  %g2, %i5, %g2
    7324:	96 5f 00 03 	smul  %i4, %g3, %o3
    7328:	80 a7 40 01 	cmp  %i5, %g1
    732c:	12 bf ff f5 	bne  7300 <matrix_test+0x314>
    7330:	88 02 c0 04 	add  %o3, %g4, %g4
    7334:	c8 22 80 00 	st  %g4, [ %o2 ]
    7338:	9e 03 e0 02 	add  %o7, 2, %o7
    733c:	80 a7 40 0f 	cmp  %i5, %o7
    7340:	12 bf ff ec 	bne  72f0 <matrix_test+0x304>
    7344:	94 02 a0 04 	add  %o2, 4, %o2
    7348:	98 03 20 01 	inc  %o4
    734c:	b4 06 80 1d 	add  %i2, %i5, %i2
    7350:	80 a3 00 18 	cmp  %o4, %i0
    7354:	12 bf ff e5 	bne  72e8 <matrix_test+0x2fc>
    7358:	b2 06 40 11 	add  %i1, %l1, %i1
    735c:	9e 10 20 00 	clr  %o7
    7360:	92 10 20 00 	clr  %o1
    7364:	82 10 20 00 	clr  %g1
    7368:	84 10 20 00 	clr  %g2
    736c:	b4 10 00 01 	mov  %g1, %i2
    7370:	98 10 20 00 	clr  %o4
    7374:	c2 04 c0 0c 	ld  [ %l3 + %o4 ], %g1
    7378:	b2 02 60 0a 	add  %o1, 0xa, %i1
    737c:	94 00 40 02 	add  %g1, %g2, %o2
    7380:	80 a0 40 1a 	cmp  %g1, %i2
    7384:	14 80 00 03 	bg  7390 <matrix_test+0x3a4>
    7388:	b6 10 20 01 	mov  1, %i3
    738c:	b6 10 20 00 	clr  %i3
    7390:	9a 02 40 1b 	add  %o1, %i3, %o5
    7394:	80 a2 80 10 	cmp  %o2, %l0
    7398:	04 80 00 04 	ble  73a8 <matrix_test+0x3bc>
    739c:	84 10 00 0a 	mov  %o2, %g2
    73a0:	84 10 20 00 	clr  %g2
    73a4:	80 a2 80 10 	cmp  %o2, %l0
    73a8:	34 80 00 02 	bg,a   73b0 <matrix_test+0x3c4>
    73ac:	9a 10 00 19 	mov  %i1, %o5
    73b0:	98 03 20 04 	add  %o4, 4, %o4
    73b4:	92 10 00 0d 	mov  %o5, %o1
    73b8:	80 a4 40 0c 	cmp  %l1, %o4
    73bc:	12 bf ff ee 	bne  7374 <matrix_test+0x388>
    73c0:	b4 10 00 01 	mov  %g1, %i2
    73c4:	9e 03 e0 01 	inc  %o7
    73c8:	80 a3 c0 18 	cmp  %o7, %i0
    73cc:	12 bf ff e9 	bne  7370 <matrix_test+0x384>
    73d0:	a6 04 c0 11 	add  %l3, %l1, %l3
    73d4:	a1 2b 60 10 	sll  %o5, 0x10, %l0
    73d8:	a3 2a 20 10 	sll  %o0, 0x10, %l1
    73dc:	a6 10 20 00 	clr  %l3
    73e0:	91 3c 20 10 	sra  %l0, 0x10, %o0
    73e4:	40 00 09 43 	call  98f0 <crc16>
    73e8:	93 34 60 10 	srl  %l1, 0x10, %o1
    73ec:	b8 07 40 14 	add  %i5, %l4, %i4
    73f0:	c2 15 00 00 	lduh  [ %l4 ], %g1
    73f4:	82 20 40 12 	sub  %g1, %l2, %g1
    73f8:	c2 35 00 00 	sth  %g1, [ %l4 ]
    73fc:	a8 05 20 02 	add  %l4, 2, %l4
    7400:	80 a5 00 1c 	cmp  %l4, %i4
    7404:	32 bf ff fc 	bne,a   73f4 <matrix_test+0x408>
    7408:	c2 15 00 00 	lduh  [ %l4 ], %g1
    740c:	a6 04 e0 01 	inc  %l3
    7410:	80 a4 c0 18 	cmp  %l3, %i0
    7414:	32 bf ff f7 	bne,a   73f0 <matrix_test+0x404>
    7418:	b8 07 40 14 	add  %i5, %l4, %i4
    741c:	b1 2a 20 10 	sll  %o0, 0x10, %i0
    7420:	b1 3e 20 10 	sra  %i0, 0x10, %i0
    7424:	81 c7 e0 08 	ret 
    7428:	81 e8 00 00 	restore 
    742c:	92 10 20 00 	clr  %o1
    7430:	40 00 09 30 	call  98f0 <crc16>
    7434:	90 10 20 00 	clr  %o0
    7438:	93 2a 20 10 	sll  %o0, 0x10, %o1
    743c:	90 10 20 00 	clr  %o0
    7440:	40 00 09 2c 	call  98f0 <crc16>
    7444:	93 32 60 10 	srl  %o1, 0x10, %o1
