
.//core_mark.elf:     file format elf32-sparc


Disassembly of section .text:

00000000 <_start>:
       0:	90 10 21 00 	mov  0x100, %o0
       4:	d0 a0 00 80 	sta  %o0, [ %g0 ] #ASI_N
       8:	9c 10 30 00 	mov  -4096, %sp
       c:	bc 10 00 00 	mov  %g0, %fp
      10:	a0 10 20 01 	mov  1, %l0
      14:	81 94 20 00 	mov  %l0, %wim
      18:	21 00 00 04 	sethi  %hi(0x1000), %l0
      1c:	a0 14 20 e0 	or  %l0, 0xe0, %l0	! 10e0 <window_underflow_trap_handler+0x7c>
      20:	81 88 00 10 	mov  %l0, %psr
      24:	21 00 00 08 	sethi  %hi(0x2000), %l0
      28:	a0 14 20 00 	mov  %l0, %l0	! 2000 <trap_table_base>
      2c:	81 9c 20 00 	mov  %l0, %tbr
      30:	40 00 0e b3 	call  3afc <ajit_main>
      34:	01 00 00 00 	nop 
      38:	91 d0 20 00 	ta  0
	...

00001000 <window_overflow_trap_handler>:
    1000:	a7 50 00 00 	rd  %wim, %l3
    1004:	a9 2c e0 07 	sll  %l3, 7, %l4
    1008:	a7 34 e0 01 	srl  %l3, 1, %l3
    100c:	a6 14 c0 14 	or  %l3, %l4, %l3
    1010:	a6 0c e0 ff 	and  %l3, 0xff, %l3
    1014:	81 90 00 00 	mov  %g0, %wim
    1018:	01 00 00 00 	nop 
    101c:	01 00 00 00 	nop 
    1020:	01 00 00 00 	nop 
    1024:	81 e0 00 00 	save 
    1028:	e0 3b a0 00 	std  %l0, [ %sp ]
    102c:	e4 3b a0 08 	std  %l2, [ %sp + 8 ]
    1030:	e8 3b a0 10 	std  %l4, [ %sp + 0x10 ]
    1034:	ec 3b a0 18 	std  %l6, [ %sp + 0x18 ]
    1038:	f0 3b a0 20 	std  %i0, [ %sp + 0x20 ]
    103c:	f4 3b a0 28 	std  %i2, [ %sp + 0x28 ]
    1040:	f8 3b a0 30 	std  %i4, [ %sp + 0x30 ]
    1044:	fc 3b a0 38 	std  %fp, [ %sp + 0x38 ]
    1048:	81 e8 00 00 	restore 
    104c:	81 90 00 13 	mov  %l3, %wim
    1050:	01 00 00 00 	nop 
    1054:	01 00 00 00 	nop 
    1058:	01 00 00 00 	nop 
    105c:	81 c4 40 00 	jmp  %l1
    1060:	81 cc 80 00 	rett  %l2

00001064 <window_underflow_trap_handler>:
    1064:	a7 50 00 00 	rd  %wim, %l3
    1068:	a9 34 e0 07 	srl  %l3, 7, %l4
    106c:	a7 2c e0 01 	sll  %l3, 1, %l3
    1070:	a6 14 c0 14 	or  %l3, %l4, %l3
    1074:	a6 0c e0 ff 	and  %l3, 0xff, %l3
    1078:	81 90 00 00 	mov  %g0, %wim
    107c:	01 00 00 00 	nop 
    1080:	01 00 00 00 	nop 
    1084:	01 00 00 00 	nop 
    1088:	81 e8 00 00 	restore 
    108c:	81 e8 00 00 	restore 
    1090:	e0 1b a0 00 	ldd  [ %sp ], %l0
    1094:	e4 1b a0 08 	ldd  [ %sp + 8 ], %l2
    1098:	e8 1b a0 10 	ldd  [ %sp + 0x10 ], %l4
    109c:	ec 1b a0 18 	ldd  [ %sp + 0x18 ], %l6
    10a0:	f0 1b a0 20 	ldd  [ %sp + 0x20 ], %i0
    10a4:	f4 1b a0 28 	ldd  [ %sp + 0x28 ], %i2
    10a8:	f8 1b a0 30 	ldd  [ %sp + 0x30 ], %i4
    10ac:	fc 1b a0 38 	ldd  [ %sp + 0x38 ], %fp
    10b0:	81 e0 00 00 	save 
    10b4:	81 e0 00 00 	save 
    10b8:	81 90 00 13 	mov  %l3, %wim
    10bc:	01 00 00 00 	nop 
    10c0:	01 00 00 00 	nop 
    10c4:	01 00 00 00 	nop 
    10c8:	81 c4 40 00 	jmp  %l1
    10cc:	81 cc 80 00 	rett  %l2
    10d0:	01 00 00 00 	nop 
    10d4:	01 00 00 00 	nop 
    10d8:	01 00 00 00 	nop 
    10dc:	01 00 00 00 	nop 
    10e0:	01 00 00 00 	nop 
    10e4:	01 00 00 00 	nop 
    10e8:	01 00 00 00 	nop 
    10ec:	01 00 00 00 	nop 
    10f0:	01 00 00 00 	nop 
    10f4:	01 00 00 00 	nop 
    10f8:	01 00 00 00 	nop 
    10fc:	01 00 00 00 	nop 
    1100:	01 00 00 00 	nop 
    1104:	01 00 00 00 	nop 
    1108:	01 00 00 00 	nop 
    110c:	01 00 00 00 	nop 
    1110:	01 00 00 00 	nop 
    1114:	01 00 00 00 	nop 
    1118:	01 00 00 00 	nop 
    111c:	01 00 00 00 	nop 
    1120:	01 00 00 00 	nop 
    1124:	01 00 00 00 	nop 
    1128:	01 00 00 00 	nop 
    112c:	01 00 00 00 	nop 
    1130:	01 00 00 00 	nop 
    1134:	01 00 00 00 	nop 
    1138:	01 00 00 00 	nop 
    113c:	01 00 00 00 	nop 
    1140:	01 00 00 00 	nop 
    1144:	01 00 00 00 	nop 
    1148:	01 00 00 00 	nop 
    114c:	01 00 00 00 	nop 
    1150:	01 00 00 00 	nop 
    1154:	01 00 00 00 	nop 
    1158:	01 00 00 00 	nop 
    115c:	01 00 00 00 	nop 
    1160:	01 00 00 00 	nop 
    1164:	01 00 00 00 	nop 
    1168:	01 00 00 00 	nop 
    116c:	01 00 00 00 	nop 
    1170:	01 00 00 00 	nop 
    1174:	01 00 00 00 	nop 
    1178:	01 00 00 00 	nop 
    117c:	01 00 00 00 	nop 
    1180:	01 00 00 00 	nop 
    1184:	01 00 00 00 	nop 
    1188:	01 00 00 00 	nop 
    118c:	01 00 00 00 	nop 
    1190:	01 00 00 00 	nop 
    1194:	01 00 00 00 	nop 
    1198:	01 00 00 00 	nop 
    119c:	01 00 00 00 	nop 
    11a0:	01 00 00 00 	nop 
    11a4:	01 00 00 00 	nop 
    11a8:	01 00 00 00 	nop 
    11ac:	01 00 00 00 	nop 
    11b0:	01 00 00 00 	nop 
    11b4:	01 00 00 00 	nop 
    11b8:	01 00 00 00 	nop 
    11bc:	01 00 00 00 	nop 
    11c0:	01 00 00 00 	nop 
    11c4:	01 00 00 00 	nop 
    11c8:	01 00 00 00 	nop 
    11cc:	01 00 00 00 	nop 
    11d0:	01 00 00 00 	nop 
    11d4:	01 00 00 00 	nop 
    11d8:	01 00 00 00 	nop 
    11dc:	01 00 00 00 	nop 
    11e0:	01 00 00 00 	nop 
    11e4:	01 00 00 00 	nop 
    11e8:	01 00 00 00 	nop 
    11ec:	01 00 00 00 	nop 
    11f0:	01 00 00 00 	nop 
    11f4:	01 00 00 00 	nop 
    11f8:	01 00 00 00 	nop 
    11fc:	01 00 00 00 	nop 
    1200:	01 00 00 00 	nop 
    1204:	01 00 00 00 	nop 
    1208:	01 00 00 00 	nop 
    120c:	01 00 00 00 	nop 
    1210:	01 00 00 00 	nop 
    1214:	01 00 00 00 	nop 
    1218:	01 00 00 00 	nop 
    121c:	01 00 00 00 	nop 
    1220:	01 00 00 00 	nop 
    1224:	01 00 00 00 	nop 
    1228:	01 00 00 00 	nop 
    122c:	01 00 00 00 	nop 
    1230:	01 00 00 00 	nop 
    1234:	01 00 00 00 	nop 
    1238:	01 00 00 00 	nop 
    123c:	01 00 00 00 	nop 
    1240:	01 00 00 00 	nop 
    1244:	01 00 00 00 	nop 
    1248:	01 00 00 00 	nop 
    124c:	01 00 00 00 	nop 
    1250:	01 00 00 00 	nop 
    1254:	01 00 00 00 	nop 
    1258:	01 00 00 00 	nop 
    125c:	01 00 00 00 	nop 
    1260:	01 00 00 00 	nop 
    1264:	01 00 00 00 	nop 
    1268:	01 00 00 00 	nop 
    126c:	01 00 00 00 	nop 
    1270:	01 00 00 00 	nop 
    1274:	01 00 00 00 	nop 
    1278:	01 00 00 00 	nop 
    127c:	01 00 00 00 	nop 
    1280:	01 00 00 00 	nop 
    1284:	01 00 00 00 	nop 
    1288:	01 00 00 00 	nop 
    128c:	01 00 00 00 	nop 
    1290:	01 00 00 00 	nop 
    1294:	01 00 00 00 	nop 
    1298:	01 00 00 00 	nop 
    129c:	01 00 00 00 	nop 
    12a0:	01 00 00 00 	nop 
    12a4:	01 00 00 00 	nop 
    12a8:	01 00 00 00 	nop 
    12ac:	01 00 00 00 	nop 
    12b0:	01 00 00 00 	nop 
    12b4:	01 00 00 00 	nop 
    12b8:	01 00 00 00 	nop 
    12bc:	01 00 00 00 	nop 
    12c0:	01 00 00 00 	nop 
    12c4:	01 00 00 00 	nop 
    12c8:	01 00 00 00 	nop 
    12cc:	01 00 00 00 	nop 
    12d0:	01 00 00 00 	nop 
    12d4:	01 00 00 00 	nop 
    12d8:	01 00 00 00 	nop 
    12dc:	01 00 00 00 	nop 
    12e0:	01 00 00 00 	nop 
    12e4:	01 00 00 00 	nop 
    12e8:	01 00 00 00 	nop 
    12ec:	01 00 00 00 	nop 
    12f0:	01 00 00 00 	nop 
    12f4:	01 00 00 00 	nop 
    12f8:	01 00 00 00 	nop 
    12fc:	01 00 00 00 	nop 
    1300:	01 00 00 00 	nop 
    1304:	01 00 00 00 	nop 
    1308:	01 00 00 00 	nop 
    130c:	01 00 00 00 	nop 
    1310:	01 00 00 00 	nop 
    1314:	01 00 00 00 	nop 
    1318:	01 00 00 00 	nop 
    131c:	01 00 00 00 	nop 
    1320:	01 00 00 00 	nop 
    1324:	01 00 00 00 	nop 
    1328:	01 00 00 00 	nop 
    132c:	01 00 00 00 	nop 
    1330:	01 00 00 00 	nop 
    1334:	01 00 00 00 	nop 
    1338:	01 00 00 00 	nop 
    133c:	01 00 00 00 	nop 
    1340:	01 00 00 00 	nop 
    1344:	01 00 00 00 	nop 
    1348:	01 00 00 00 	nop 
    134c:	01 00 00 00 	nop 
    1350:	01 00 00 00 	nop 
    1354:	01 00 00 00 	nop 
    1358:	01 00 00 00 	nop 
    135c:	01 00 00 00 	nop 
    1360:	01 00 00 00 	nop 
    1364:	01 00 00 00 	nop 
    1368:	01 00 00 00 	nop 
    136c:	01 00 00 00 	nop 
    1370:	01 00 00 00 	nop 
    1374:	01 00 00 00 	nop 
    1378:	01 00 00 00 	nop 
    137c:	01 00 00 00 	nop 
    1380:	01 00 00 00 	nop 
    1384:	01 00 00 00 	nop 
    1388:	01 00 00 00 	nop 
    138c:	01 00 00 00 	nop 
    1390:	01 00 00 00 	nop 
    1394:	01 00 00 00 	nop 
    1398:	01 00 00 00 	nop 
    139c:	01 00 00 00 	nop 
    13a0:	01 00 00 00 	nop 
    13a4:	01 00 00 00 	nop 
    13a8:	01 00 00 00 	nop 
    13ac:	01 00 00 00 	nop 
    13b0:	01 00 00 00 	nop 
    13b4:	01 00 00 00 	nop 
    13b8:	01 00 00 00 	nop 
    13bc:	01 00 00 00 	nop 
    13c0:	01 00 00 00 	nop 
    13c4:	01 00 00 00 	nop 
    13c8:	01 00 00 00 	nop 
    13cc:	01 00 00 00 	nop 
    13d0:	01 00 00 00 	nop 
    13d4:	01 00 00 00 	nop 
    13d8:	01 00 00 00 	nop 
    13dc:	01 00 00 00 	nop 
    13e0:	01 00 00 00 	nop 
    13e4:	01 00 00 00 	nop 
    13e8:	01 00 00 00 	nop 
    13ec:	01 00 00 00 	nop 
    13f0:	01 00 00 00 	nop 
    13f4:	01 00 00 00 	nop 
    13f8:	01 00 00 00 	nop 
    13fc:	01 00 00 00 	nop 
    1400:	01 00 00 00 	nop 
    1404:	01 00 00 00 	nop 
    1408:	01 00 00 00 	nop 
    140c:	01 00 00 00 	nop 
    1410:	01 00 00 00 	nop 
    1414:	01 00 00 00 	nop 
    1418:	01 00 00 00 	nop 
    141c:	01 00 00 00 	nop 
    1420:	01 00 00 00 	nop 
    1424:	01 00 00 00 	nop 
    1428:	01 00 00 00 	nop 
    142c:	01 00 00 00 	nop 
    1430:	01 00 00 00 	nop 
    1434:	01 00 00 00 	nop 
    1438:	01 00 00 00 	nop 
    143c:	01 00 00 00 	nop 
    1440:	01 00 00 00 	nop 
    1444:	01 00 00 00 	nop 
    1448:	01 00 00 00 	nop 
    144c:	01 00 00 00 	nop 
    1450:	01 00 00 00 	nop 
    1454:	01 00 00 00 	nop 
    1458:	01 00 00 00 	nop 
    145c:	01 00 00 00 	nop 
    1460:	01 00 00 00 	nop 
    1464:	01 00 00 00 	nop 
    1468:	01 00 00 00 	nop 
    146c:	01 00 00 00 	nop 
    1470:	01 00 00 00 	nop 
    1474:	01 00 00 00 	nop 
    1478:	01 00 00 00 	nop 
    147c:	01 00 00 00 	nop 
    1480:	01 00 00 00 	nop 
    1484:	01 00 00 00 	nop 
    1488:	01 00 00 00 	nop 
    148c:	01 00 00 00 	nop 
    1490:	01 00 00 00 	nop 
    1494:	01 00 00 00 	nop 
    1498:	01 00 00 00 	nop 
    149c:	01 00 00 00 	nop 
    14a0:	01 00 00 00 	nop 
    14a4:	01 00 00 00 	nop 
    14a8:	01 00 00 00 	nop 
    14ac:	01 00 00 00 	nop 
    14b0:	01 00 00 00 	nop 
    14b4:	01 00 00 00 	nop 
    14b8:	01 00 00 00 	nop 
    14bc:	01 00 00 00 	nop 
    14c0:	01 00 00 00 	nop 
    14c4:	01 00 00 00 	nop 
    14c8:	01 00 00 00 	nop 
    14cc:	01 00 00 00 	nop 
    14d0:	01 00 00 00 	nop 
    14d4:	01 00 00 00 	nop 
    14d8:	01 00 00 00 	nop 
    14dc:	01 00 00 00 	nop 
    14e0:	01 00 00 00 	nop 
    14e4:	01 00 00 00 	nop 
    14e8:	01 00 00 00 	nop 
    14ec:	01 00 00 00 	nop 
    14f0:	01 00 00 00 	nop 
    14f4:	01 00 00 00 	nop 
    14f8:	01 00 00 00 	nop 
    14fc:	01 00 00 00 	nop 
    1500:	01 00 00 00 	nop 
    1504:	01 00 00 00 	nop 
    1508:	01 00 00 00 	nop 
    150c:	01 00 00 00 	nop 
    1510:	01 00 00 00 	nop 
    1514:	01 00 00 00 	nop 
    1518:	01 00 00 00 	nop 
    151c:	01 00 00 00 	nop 
    1520:	01 00 00 00 	nop 
    1524:	01 00 00 00 	nop 
    1528:	01 00 00 00 	nop 
    152c:	01 00 00 00 	nop 
    1530:	01 00 00 00 	nop 
    1534:	01 00 00 00 	nop 
    1538:	01 00 00 00 	nop 
    153c:	01 00 00 00 	nop 
    1540:	01 00 00 00 	nop 
    1544:	01 00 00 00 	nop 
    1548:	01 00 00 00 	nop 
    154c:	01 00 00 00 	nop 
    1550:	01 00 00 00 	nop 
    1554:	01 00 00 00 	nop 
    1558:	01 00 00 00 	nop 
    155c:	01 00 00 00 	nop 
    1560:	01 00 00 00 	nop 
    1564:	01 00 00 00 	nop 
    1568:	01 00 00 00 	nop 
    156c:	01 00 00 00 	nop 
    1570:	01 00 00 00 	nop 
    1574:	01 00 00 00 	nop 
    1578:	01 00 00 00 	nop 
    157c:	01 00 00 00 	nop 
    1580:	01 00 00 00 	nop 
    1584:	01 00 00 00 	nop 
    1588:	01 00 00 00 	nop 
    158c:	01 00 00 00 	nop 
    1590:	01 00 00 00 	nop 
    1594:	01 00 00 00 	nop 
    1598:	01 00 00 00 	nop 
    159c:	01 00 00 00 	nop 
    15a0:	01 00 00 00 	nop 
    15a4:	01 00 00 00 	nop 
    15a8:	01 00 00 00 	nop 
    15ac:	01 00 00 00 	nop 
    15b0:	01 00 00 00 	nop 
    15b4:	01 00 00 00 	nop 
    15b8:	01 00 00 00 	nop 
    15bc:	01 00 00 00 	nop 
    15c0:	01 00 00 00 	nop 
    15c4:	01 00 00 00 	nop 
    15c8:	01 00 00 00 	nop 
    15cc:	01 00 00 00 	nop 
    15d0:	01 00 00 00 	nop 
    15d4:	01 00 00 00 	nop 
    15d8:	01 00 00 00 	nop 
    15dc:	01 00 00 00 	nop 
    15e0:	01 00 00 00 	nop 
    15e4:	01 00 00 00 	nop 
    15e8:	01 00 00 00 	nop 
    15ec:	01 00 00 00 	nop 
    15f0:	01 00 00 00 	nop 
    15f4:	01 00 00 00 	nop 
    15f8:	01 00 00 00 	nop 
    15fc:	01 00 00 00 	nop 
    1600:	01 00 00 00 	nop 
    1604:	01 00 00 00 	nop 
    1608:	01 00 00 00 	nop 
    160c:	01 00 00 00 	nop 
    1610:	01 00 00 00 	nop 
    1614:	01 00 00 00 	nop 
    1618:	01 00 00 00 	nop 
    161c:	01 00 00 00 	nop 
    1620:	01 00 00 00 	nop 
    1624:	01 00 00 00 	nop 
    1628:	01 00 00 00 	nop 
    162c:	01 00 00 00 	nop 
    1630:	01 00 00 00 	nop 
    1634:	01 00 00 00 	nop 
    1638:	01 00 00 00 	nop 
    163c:	01 00 00 00 	nop 
    1640:	01 00 00 00 	nop 
    1644:	01 00 00 00 	nop 
    1648:	01 00 00 00 	nop 
    164c:	01 00 00 00 	nop 
    1650:	01 00 00 00 	nop 
    1654:	01 00 00 00 	nop 
    1658:	01 00 00 00 	nop 
    165c:	01 00 00 00 	nop 
    1660:	01 00 00 00 	nop 
    1664:	01 00 00 00 	nop 
    1668:	01 00 00 00 	nop 
    166c:	01 00 00 00 	nop 
    1670:	01 00 00 00 	nop 
    1674:	01 00 00 00 	nop 
    1678:	01 00 00 00 	nop 
    167c:	01 00 00 00 	nop 
    1680:	01 00 00 00 	nop 
    1684:	01 00 00 00 	nop 
    1688:	01 00 00 00 	nop 
    168c:	01 00 00 00 	nop 
    1690:	01 00 00 00 	nop 
    1694:	01 00 00 00 	nop 
    1698:	01 00 00 00 	nop 
    169c:	01 00 00 00 	nop 
    16a0:	01 00 00 00 	nop 
    16a4:	01 00 00 00 	nop 
    16a8:	01 00 00 00 	nop 
    16ac:	01 00 00 00 	nop 
    16b0:	01 00 00 00 	nop 
    16b4:	01 00 00 00 	nop 
    16b8:	01 00 00 00 	nop 
    16bc:	01 00 00 00 	nop 
    16c0:	01 00 00 00 	nop 
    16c4:	01 00 00 00 	nop 
    16c8:	01 00 00 00 	nop 
    16cc:	01 00 00 00 	nop 
    16d0:	01 00 00 00 	nop 
    16d4:	01 00 00 00 	nop 
    16d8:	01 00 00 00 	nop 
    16dc:	01 00 00 00 	nop 
    16e0:	01 00 00 00 	nop 
    16e4:	01 00 00 00 	nop 
    16e8:	01 00 00 00 	nop 
    16ec:	01 00 00 00 	nop 
    16f0:	01 00 00 00 	nop 
    16f4:	01 00 00 00 	nop 
    16f8:	01 00 00 00 	nop 
    16fc:	01 00 00 00 	nop 
    1700:	01 00 00 00 	nop 
    1704:	01 00 00 00 	nop 
    1708:	01 00 00 00 	nop 
    170c:	01 00 00 00 	nop 
    1710:	01 00 00 00 	nop 
    1714:	01 00 00 00 	nop 
    1718:	01 00 00 00 	nop 
    171c:	01 00 00 00 	nop 
    1720:	01 00 00 00 	nop 
    1724:	01 00 00 00 	nop 
    1728:	01 00 00 00 	nop 
    172c:	01 00 00 00 	nop 
    1730:	01 00 00 00 	nop 
    1734:	01 00 00 00 	nop 
    1738:	01 00 00 00 	nop 
    173c:	01 00 00 00 	nop 
    1740:	01 00 00 00 	nop 
    1744:	01 00 00 00 	nop 
    1748:	01 00 00 00 	nop 
    174c:	01 00 00 00 	nop 
    1750:	01 00 00 00 	nop 
    1754:	01 00 00 00 	nop 
    1758:	01 00 00 00 	nop 
    175c:	01 00 00 00 	nop 
    1760:	01 00 00 00 	nop 
    1764:	01 00 00 00 	nop 
    1768:	01 00 00 00 	nop 
    176c:	01 00 00 00 	nop 
    1770:	01 00 00 00 	nop 
    1774:	01 00 00 00 	nop 
    1778:	01 00 00 00 	nop 
    177c:	01 00 00 00 	nop 
    1780:	01 00 00 00 	nop 
    1784:	01 00 00 00 	nop 
    1788:	01 00 00 00 	nop 
    178c:	01 00 00 00 	nop 
    1790:	01 00 00 00 	nop 
    1794:	01 00 00 00 	nop 
    1798:	01 00 00 00 	nop 
    179c:	01 00 00 00 	nop 
    17a0:	01 00 00 00 	nop 
    17a4:	01 00 00 00 	nop 
    17a8:	01 00 00 00 	nop 
    17ac:	01 00 00 00 	nop 
    17b0:	01 00 00 00 	nop 
    17b4:	01 00 00 00 	nop 
    17b8:	01 00 00 00 	nop 
    17bc:	01 00 00 00 	nop 
    17c0:	01 00 00 00 	nop 
    17c4:	01 00 00 00 	nop 
    17c8:	01 00 00 00 	nop 
    17cc:	01 00 00 00 	nop 
    17d0:	01 00 00 00 	nop 
    17d4:	01 00 00 00 	nop 
    17d8:	01 00 00 00 	nop 
    17dc:	01 00 00 00 	nop 
    17e0:	01 00 00 00 	nop 
    17e4:	01 00 00 00 	nop 
    17e8:	01 00 00 00 	nop 
    17ec:	01 00 00 00 	nop 
    17f0:	01 00 00 00 	nop 
    17f4:	01 00 00 00 	nop 
    17f8:	01 00 00 00 	nop 
    17fc:	01 00 00 00 	nop 
    1800:	01 00 00 00 	nop 
    1804:	01 00 00 00 	nop 
    1808:	01 00 00 00 	nop 
    180c:	01 00 00 00 	nop 
    1810:	01 00 00 00 	nop 
    1814:	01 00 00 00 	nop 
    1818:	01 00 00 00 	nop 
    181c:	01 00 00 00 	nop 
    1820:	01 00 00 00 	nop 
    1824:	01 00 00 00 	nop 
    1828:	01 00 00 00 	nop 
    182c:	01 00 00 00 	nop 
    1830:	01 00 00 00 	nop 
    1834:	01 00 00 00 	nop 
    1838:	01 00 00 00 	nop 
    183c:	01 00 00 00 	nop 
    1840:	01 00 00 00 	nop 
    1844:	01 00 00 00 	nop 
    1848:	01 00 00 00 	nop 
    184c:	01 00 00 00 	nop 
    1850:	01 00 00 00 	nop 
    1854:	01 00 00 00 	nop 
    1858:	01 00 00 00 	nop 
    185c:	01 00 00 00 	nop 
    1860:	01 00 00 00 	nop 
    1864:	01 00 00 00 	nop 
    1868:	01 00 00 00 	nop 
    186c:	01 00 00 00 	nop 
    1870:	01 00 00 00 	nop 
    1874:	01 00 00 00 	nop 
    1878:	01 00 00 00 	nop 
    187c:	01 00 00 00 	nop 
    1880:	01 00 00 00 	nop 
    1884:	01 00 00 00 	nop 
    1888:	01 00 00 00 	nop 
    188c:	01 00 00 00 	nop 
    1890:	01 00 00 00 	nop 
    1894:	01 00 00 00 	nop 
    1898:	01 00 00 00 	nop 
    189c:	01 00 00 00 	nop 
    18a0:	01 00 00 00 	nop 
    18a4:	01 00 00 00 	nop 
    18a8:	01 00 00 00 	nop 
    18ac:	01 00 00 00 	nop 
    18b0:	01 00 00 00 	nop 
    18b4:	01 00 00 00 	nop 
    18b8:	01 00 00 00 	nop 
    18bc:	01 00 00 00 	nop 
    18c0:	01 00 00 00 	nop 
    18c4:	01 00 00 00 	nop 
    18c8:	01 00 00 00 	nop 
    18cc:	01 00 00 00 	nop 
    18d0:	01 00 00 00 	nop 
    18d4:	01 00 00 00 	nop 
    18d8:	01 00 00 00 	nop 
    18dc:	01 00 00 00 	nop 
    18e0:	01 00 00 00 	nop 
    18e4:	01 00 00 00 	nop 
    18e8:	01 00 00 00 	nop 
    18ec:	01 00 00 00 	nop 
    18f0:	01 00 00 00 	nop 
    18f4:	01 00 00 00 	nop 
    18f8:	01 00 00 00 	nop 
    18fc:	01 00 00 00 	nop 
    1900:	01 00 00 00 	nop 
    1904:	01 00 00 00 	nop 
    1908:	01 00 00 00 	nop 
    190c:	01 00 00 00 	nop 
    1910:	01 00 00 00 	nop 
    1914:	01 00 00 00 	nop 
    1918:	01 00 00 00 	nop 
    191c:	01 00 00 00 	nop 
    1920:	01 00 00 00 	nop 
    1924:	01 00 00 00 	nop 
    1928:	01 00 00 00 	nop 
    192c:	01 00 00 00 	nop 
    1930:	01 00 00 00 	nop 
    1934:	01 00 00 00 	nop 
    1938:	01 00 00 00 	nop 
    193c:	01 00 00 00 	nop 
    1940:	01 00 00 00 	nop 
    1944:	01 00 00 00 	nop 
    1948:	01 00 00 00 	nop 
    194c:	01 00 00 00 	nop 
    1950:	01 00 00 00 	nop 
    1954:	01 00 00 00 	nop 
    1958:	01 00 00 00 	nop 
    195c:	01 00 00 00 	nop 
    1960:	01 00 00 00 	nop 
    1964:	01 00 00 00 	nop 
    1968:	01 00 00 00 	nop 
    196c:	01 00 00 00 	nop 
    1970:	01 00 00 00 	nop 
    1974:	01 00 00 00 	nop 
    1978:	01 00 00 00 	nop 
    197c:	01 00 00 00 	nop 
    1980:	01 00 00 00 	nop 
    1984:	01 00 00 00 	nop 
    1988:	01 00 00 00 	nop 
    198c:	01 00 00 00 	nop 
    1990:	01 00 00 00 	nop 
    1994:	01 00 00 00 	nop 
    1998:	01 00 00 00 	nop 
    199c:	01 00 00 00 	nop 
    19a0:	01 00 00 00 	nop 
    19a4:	01 00 00 00 	nop 
    19a8:	01 00 00 00 	nop 
    19ac:	01 00 00 00 	nop 
    19b0:	01 00 00 00 	nop 
    19b4:	01 00 00 00 	nop 
    19b8:	01 00 00 00 	nop 
    19bc:	01 00 00 00 	nop 
    19c0:	01 00 00 00 	nop 
    19c4:	01 00 00 00 	nop 
    19c8:	01 00 00 00 	nop 
    19cc:	01 00 00 00 	nop 
    19d0:	01 00 00 00 	nop 
    19d4:	01 00 00 00 	nop 
    19d8:	01 00 00 00 	nop 
    19dc:	01 00 00 00 	nop 
    19e0:	01 00 00 00 	nop 
    19e4:	01 00 00 00 	nop 
    19e8:	01 00 00 00 	nop 
    19ec:	01 00 00 00 	nop 
    19f0:	01 00 00 00 	nop 
    19f4:	01 00 00 00 	nop 
    19f8:	01 00 00 00 	nop 
    19fc:	01 00 00 00 	nop 
    1a00:	01 00 00 00 	nop 
    1a04:	01 00 00 00 	nop 
    1a08:	01 00 00 00 	nop 
    1a0c:	01 00 00 00 	nop 
    1a10:	01 00 00 00 	nop 
    1a14:	01 00 00 00 	nop 
    1a18:	01 00 00 00 	nop 
    1a1c:	01 00 00 00 	nop 
    1a20:	01 00 00 00 	nop 
    1a24:	01 00 00 00 	nop 
    1a28:	01 00 00 00 	nop 
    1a2c:	01 00 00 00 	nop 
    1a30:	01 00 00 00 	nop 
    1a34:	01 00 00 00 	nop 
    1a38:	01 00 00 00 	nop 
    1a3c:	01 00 00 00 	nop 
    1a40:	01 00 00 00 	nop 
    1a44:	01 00 00 00 	nop 
    1a48:	01 00 00 00 	nop 
    1a4c:	01 00 00 00 	nop 
    1a50:	01 00 00 00 	nop 
    1a54:	01 00 00 00 	nop 
    1a58:	01 00 00 00 	nop 
    1a5c:	01 00 00 00 	nop 
    1a60:	01 00 00 00 	nop 
    1a64:	01 00 00 00 	nop 
    1a68:	01 00 00 00 	nop 
    1a6c:	01 00 00 00 	nop 
    1a70:	01 00 00 00 	nop 
    1a74:	01 00 00 00 	nop 
    1a78:	01 00 00 00 	nop 
    1a7c:	01 00 00 00 	nop 
    1a80:	01 00 00 00 	nop 
    1a84:	01 00 00 00 	nop 
    1a88:	01 00 00 00 	nop 
    1a8c:	01 00 00 00 	nop 
    1a90:	01 00 00 00 	nop 
    1a94:	01 00 00 00 	nop 
    1a98:	01 00 00 00 	nop 
    1a9c:	01 00 00 00 	nop 
    1aa0:	01 00 00 00 	nop 
    1aa4:	01 00 00 00 	nop 
    1aa8:	01 00 00 00 	nop 
    1aac:	01 00 00 00 	nop 
    1ab0:	01 00 00 00 	nop 
    1ab4:	01 00 00 00 	nop 
    1ab8:	01 00 00 00 	nop 
    1abc:	01 00 00 00 	nop 
    1ac0:	01 00 00 00 	nop 
    1ac4:	01 00 00 00 	nop 
    1ac8:	01 00 00 00 	nop 
    1acc:	01 00 00 00 	nop 
    1ad0:	01 00 00 00 	nop 
    1ad4:	01 00 00 00 	nop 
    1ad8:	01 00 00 00 	nop 
    1adc:	01 00 00 00 	nop 
    1ae0:	01 00 00 00 	nop 
    1ae4:	01 00 00 00 	nop 
    1ae8:	01 00 00 00 	nop 
    1aec:	01 00 00 00 	nop 
    1af0:	01 00 00 00 	nop 
    1af4:	01 00 00 00 	nop 
    1af8:	01 00 00 00 	nop 
    1afc:	01 00 00 00 	nop 
    1b00:	01 00 00 00 	nop 
    1b04:	01 00 00 00 	nop 
    1b08:	01 00 00 00 	nop 
    1b0c:	01 00 00 00 	nop 
    1b10:	01 00 00 00 	nop 
    1b14:	01 00 00 00 	nop 
    1b18:	01 00 00 00 	nop 
    1b1c:	01 00 00 00 	nop 
    1b20:	01 00 00 00 	nop 
    1b24:	01 00 00 00 	nop 
    1b28:	01 00 00 00 	nop 
    1b2c:	01 00 00 00 	nop 
    1b30:	01 00 00 00 	nop 
    1b34:	01 00 00 00 	nop 
    1b38:	01 00 00 00 	nop 
    1b3c:	01 00 00 00 	nop 
    1b40:	01 00 00 00 	nop 
    1b44:	01 00 00 00 	nop 
    1b48:	01 00 00 00 	nop 
    1b4c:	01 00 00 00 	nop 
    1b50:	01 00 00 00 	nop 
    1b54:	01 00 00 00 	nop 
    1b58:	01 00 00 00 	nop 
    1b5c:	01 00 00 00 	nop 
    1b60:	01 00 00 00 	nop 
    1b64:	01 00 00 00 	nop 
    1b68:	01 00 00 00 	nop 
    1b6c:	01 00 00 00 	nop 
    1b70:	01 00 00 00 	nop 
    1b74:	01 00 00 00 	nop 
    1b78:	01 00 00 00 	nop 
    1b7c:	01 00 00 00 	nop 
    1b80:	01 00 00 00 	nop 
    1b84:	01 00 00 00 	nop 
    1b88:	01 00 00 00 	nop 
    1b8c:	01 00 00 00 	nop 
    1b90:	01 00 00 00 	nop 
    1b94:	01 00 00 00 	nop 
    1b98:	01 00 00 00 	nop 
    1b9c:	01 00 00 00 	nop 
    1ba0:	01 00 00 00 	nop 
    1ba4:	01 00 00 00 	nop 
    1ba8:	01 00 00 00 	nop 
    1bac:	01 00 00 00 	nop 
    1bb0:	01 00 00 00 	nop 
    1bb4:	01 00 00 00 	nop 
    1bb8:	01 00 00 00 	nop 
    1bbc:	01 00 00 00 	nop 
    1bc0:	01 00 00 00 	nop 
    1bc4:	01 00 00 00 	nop 
    1bc8:	01 00 00 00 	nop 
    1bcc:	01 00 00 00 	nop 
    1bd0:	01 00 00 00 	nop 
    1bd4:	01 00 00 00 	nop 
    1bd8:	01 00 00 00 	nop 
    1bdc:	01 00 00 00 	nop 
    1be0:	01 00 00 00 	nop 
    1be4:	01 00 00 00 	nop 
    1be8:	01 00 00 00 	nop 
    1bec:	01 00 00 00 	nop 
    1bf0:	01 00 00 00 	nop 
    1bf4:	01 00 00 00 	nop 
    1bf8:	01 00 00 00 	nop 
    1bfc:	01 00 00 00 	nop 
    1c00:	01 00 00 00 	nop 
    1c04:	01 00 00 00 	nop 
    1c08:	01 00 00 00 	nop 
    1c0c:	01 00 00 00 	nop 
    1c10:	01 00 00 00 	nop 
    1c14:	01 00 00 00 	nop 
    1c18:	01 00 00 00 	nop 
    1c1c:	01 00 00 00 	nop 
    1c20:	01 00 00 00 	nop 
    1c24:	01 00 00 00 	nop 
    1c28:	01 00 00 00 	nop 
    1c2c:	01 00 00 00 	nop 
    1c30:	01 00 00 00 	nop 
    1c34:	01 00 00 00 	nop 
    1c38:	01 00 00 00 	nop 
    1c3c:	01 00 00 00 	nop 
    1c40:	01 00 00 00 	nop 
    1c44:	01 00 00 00 	nop 
    1c48:	01 00 00 00 	nop 
    1c4c:	01 00 00 00 	nop 
    1c50:	01 00 00 00 	nop 
    1c54:	01 00 00 00 	nop 
    1c58:	01 00 00 00 	nop 
    1c5c:	01 00 00 00 	nop 
    1c60:	01 00 00 00 	nop 
    1c64:	01 00 00 00 	nop 
    1c68:	01 00 00 00 	nop 
    1c6c:	01 00 00 00 	nop 
    1c70:	01 00 00 00 	nop 
    1c74:	01 00 00 00 	nop 
    1c78:	01 00 00 00 	nop 
    1c7c:	01 00 00 00 	nop 
    1c80:	01 00 00 00 	nop 
    1c84:	01 00 00 00 	nop 
    1c88:	01 00 00 00 	nop 
    1c8c:	01 00 00 00 	nop 
    1c90:	01 00 00 00 	nop 
    1c94:	01 00 00 00 	nop 
    1c98:	01 00 00 00 	nop 
    1c9c:	01 00 00 00 	nop 
    1ca0:	01 00 00 00 	nop 
    1ca4:	01 00 00 00 	nop 
    1ca8:	01 00 00 00 	nop 
    1cac:	01 00 00 00 	nop 
    1cb0:	01 00 00 00 	nop 
    1cb4:	01 00 00 00 	nop 
    1cb8:	01 00 00 00 	nop 
    1cbc:	01 00 00 00 	nop 
    1cc0:	01 00 00 00 	nop 
    1cc4:	01 00 00 00 	nop 
    1cc8:	01 00 00 00 	nop 
    1ccc:	01 00 00 00 	nop 
    1cd0:	01 00 00 00 	nop 
    1cd4:	01 00 00 00 	nop 
    1cd8:	01 00 00 00 	nop 
    1cdc:	01 00 00 00 	nop 
    1ce0:	01 00 00 00 	nop 
    1ce4:	01 00 00 00 	nop 
    1ce8:	01 00 00 00 	nop 
    1cec:	01 00 00 00 	nop 
    1cf0:	01 00 00 00 	nop 
    1cf4:	01 00 00 00 	nop 
    1cf8:	01 00 00 00 	nop 
    1cfc:	01 00 00 00 	nop 
    1d00:	01 00 00 00 	nop 
    1d04:	01 00 00 00 	nop 
    1d08:	01 00 00 00 	nop 
    1d0c:	01 00 00 00 	nop 
    1d10:	01 00 00 00 	nop 
    1d14:	01 00 00 00 	nop 
    1d18:	01 00 00 00 	nop 
    1d1c:	01 00 00 00 	nop 
    1d20:	01 00 00 00 	nop 
    1d24:	01 00 00 00 	nop 
    1d28:	01 00 00 00 	nop 
    1d2c:	01 00 00 00 	nop 
    1d30:	01 00 00 00 	nop 
    1d34:	01 00 00 00 	nop 
    1d38:	01 00 00 00 	nop 
    1d3c:	01 00 00 00 	nop 
    1d40:	01 00 00 00 	nop 
    1d44:	01 00 00 00 	nop 
    1d48:	01 00 00 00 	nop 
    1d4c:	01 00 00 00 	nop 
    1d50:	01 00 00 00 	nop 
    1d54:	01 00 00 00 	nop 
    1d58:	01 00 00 00 	nop 
    1d5c:	01 00 00 00 	nop 
    1d60:	01 00 00 00 	nop 
    1d64:	01 00 00 00 	nop 
    1d68:	01 00 00 00 	nop 
    1d6c:	01 00 00 00 	nop 
    1d70:	01 00 00 00 	nop 
    1d74:	01 00 00 00 	nop 
    1d78:	01 00 00 00 	nop 
    1d7c:	01 00 00 00 	nop 
    1d80:	01 00 00 00 	nop 
    1d84:	01 00 00 00 	nop 
    1d88:	01 00 00 00 	nop 
    1d8c:	01 00 00 00 	nop 
    1d90:	01 00 00 00 	nop 
    1d94:	01 00 00 00 	nop 
    1d98:	01 00 00 00 	nop 
    1d9c:	01 00 00 00 	nop 
    1da0:	01 00 00 00 	nop 
    1da4:	01 00 00 00 	nop 
    1da8:	01 00 00 00 	nop 
    1dac:	01 00 00 00 	nop 
    1db0:	01 00 00 00 	nop 
    1db4:	01 00 00 00 	nop 
    1db8:	01 00 00 00 	nop 
    1dbc:	01 00 00 00 	nop 
    1dc0:	01 00 00 00 	nop 
    1dc4:	01 00 00 00 	nop 
    1dc8:	01 00 00 00 	nop 
    1dcc:	01 00 00 00 	nop 
    1dd0:	01 00 00 00 	nop 
    1dd4:	01 00 00 00 	nop 
    1dd8:	01 00 00 00 	nop 
    1ddc:	01 00 00 00 	nop 
    1de0:	01 00 00 00 	nop 
    1de4:	01 00 00 00 	nop 
    1de8:	01 00 00 00 	nop 
    1dec:	01 00 00 00 	nop 
    1df0:	01 00 00 00 	nop 
    1df4:	01 00 00 00 	nop 
    1df8:	01 00 00 00 	nop 
    1dfc:	01 00 00 00 	nop 
    1e00:	01 00 00 00 	nop 
    1e04:	01 00 00 00 	nop 
    1e08:	01 00 00 00 	nop 
    1e0c:	01 00 00 00 	nop 
    1e10:	01 00 00 00 	nop 
    1e14:	01 00 00 00 	nop 
    1e18:	01 00 00 00 	nop 
    1e1c:	01 00 00 00 	nop 
    1e20:	01 00 00 00 	nop 
    1e24:	01 00 00 00 	nop 
    1e28:	01 00 00 00 	nop 
    1e2c:	01 00 00 00 	nop 
    1e30:	01 00 00 00 	nop 
    1e34:	01 00 00 00 	nop 
    1e38:	01 00 00 00 	nop 
    1e3c:	01 00 00 00 	nop 
    1e40:	01 00 00 00 	nop 
    1e44:	01 00 00 00 	nop 
    1e48:	01 00 00 00 	nop 
    1e4c:	01 00 00 00 	nop 
    1e50:	01 00 00 00 	nop 
    1e54:	01 00 00 00 	nop 
    1e58:	01 00 00 00 	nop 
    1e5c:	01 00 00 00 	nop 
    1e60:	01 00 00 00 	nop 
    1e64:	01 00 00 00 	nop 
    1e68:	01 00 00 00 	nop 
    1e6c:	01 00 00 00 	nop 
    1e70:	01 00 00 00 	nop 
    1e74:	01 00 00 00 	nop 
    1e78:	01 00 00 00 	nop 
    1e7c:	01 00 00 00 	nop 
    1e80:	01 00 00 00 	nop 
    1e84:	01 00 00 00 	nop 
    1e88:	01 00 00 00 	nop 
    1e8c:	01 00 00 00 	nop 
    1e90:	01 00 00 00 	nop 
    1e94:	01 00 00 00 	nop 
    1e98:	01 00 00 00 	nop 
    1e9c:	01 00 00 00 	nop 
    1ea0:	01 00 00 00 	nop 
    1ea4:	01 00 00 00 	nop 
    1ea8:	01 00 00 00 	nop 
    1eac:	01 00 00 00 	nop 
    1eb0:	01 00 00 00 	nop 
    1eb4:	01 00 00 00 	nop 
    1eb8:	01 00 00 00 	nop 
    1ebc:	01 00 00 00 	nop 
    1ec0:	01 00 00 00 	nop 
    1ec4:	01 00 00 00 	nop 
    1ec8:	01 00 00 00 	nop 
    1ecc:	01 00 00 00 	nop 
    1ed0:	01 00 00 00 	nop 
    1ed4:	01 00 00 00 	nop 
    1ed8:	01 00 00 00 	nop 
    1edc:	01 00 00 00 	nop 
    1ee0:	01 00 00 00 	nop 
    1ee4:	01 00 00 00 	nop 
    1ee8:	01 00 00 00 	nop 
    1eec:	01 00 00 00 	nop 
    1ef0:	01 00 00 00 	nop 
    1ef4:	01 00 00 00 	nop 
    1ef8:	01 00 00 00 	nop 
    1efc:	01 00 00 00 	nop 
    1f00:	01 00 00 00 	nop 
    1f04:	01 00 00 00 	nop 
    1f08:	01 00 00 00 	nop 
    1f0c:	01 00 00 00 	nop 
    1f10:	01 00 00 00 	nop 
    1f14:	01 00 00 00 	nop 
    1f18:	01 00 00 00 	nop 
    1f1c:	01 00 00 00 	nop 
    1f20:	01 00 00 00 	nop 
    1f24:	01 00 00 00 	nop 
    1f28:	01 00 00 00 	nop 
    1f2c:	01 00 00 00 	nop 
    1f30:	01 00 00 00 	nop 
    1f34:	01 00 00 00 	nop 
    1f38:	01 00 00 00 	nop 
    1f3c:	01 00 00 00 	nop 
    1f40:	01 00 00 00 	nop 
    1f44:	01 00 00 00 	nop 
    1f48:	01 00 00 00 	nop 
    1f4c:	01 00 00 00 	nop 
    1f50:	01 00 00 00 	nop 
    1f54:	01 00 00 00 	nop 
    1f58:	01 00 00 00 	nop 
    1f5c:	01 00 00 00 	nop 
    1f60:	01 00 00 00 	nop 
    1f64:	01 00 00 00 	nop 
    1f68:	01 00 00 00 	nop 
    1f6c:	01 00 00 00 	nop 
    1f70:	01 00 00 00 	nop 
    1f74:	01 00 00 00 	nop 
    1f78:	01 00 00 00 	nop 
    1f7c:	01 00 00 00 	nop 
    1f80:	01 00 00 00 	nop 
    1f84:	01 00 00 00 	nop 
    1f88:	01 00 00 00 	nop 
    1f8c:	01 00 00 00 	nop 
    1f90:	01 00 00 00 	nop 
    1f94:	01 00 00 00 	nop 
    1f98:	01 00 00 00 	nop 
    1f9c:	01 00 00 00 	nop 
    1fa0:	01 00 00 00 	nop 
    1fa4:	01 00 00 00 	nop 
    1fa8:	01 00 00 00 	nop 
    1fac:	01 00 00 00 	nop 
    1fb0:	01 00 00 00 	nop 
    1fb4:	01 00 00 00 	nop 
    1fb8:	01 00 00 00 	nop 
    1fbc:	01 00 00 00 	nop 
    1fc0:	01 00 00 00 	nop 
    1fc4:	01 00 00 00 	nop 
    1fc8:	01 00 00 00 	nop 
    1fcc:	01 00 00 00 	nop 
    1fd0:	01 00 00 00 	nop 
    1fd4:	01 00 00 00 	nop 
    1fd8:	01 00 00 00 	nop 
    1fdc:	01 00 00 00 	nop 
    1fe0:	01 00 00 00 	nop 
    1fe4:	01 00 00 00 	nop 
    1fe8:	01 00 00 00 	nop 
    1fec:	01 00 00 00 	nop 
    1ff0:	01 00 00 00 	nop 
    1ff4:	01 00 00 00 	nop 
    1ff8:	01 00 00 00 	nop 
    1ffc:	01 00 00 00 	nop 

00002000 <trap_table_base>:
    2000:	91 d0 20 00 	ta  0
    2004:	01 00 00 00 	nop 
    2008:	01 00 00 00 	nop 
    200c:	01 00 00 00 	nop 

00002010 <HW_trap_0x01>:
    2010:	91 d0 20 00 	ta  0
    2014:	01 00 00 00 	nop 
    2018:	01 00 00 00 	nop 
    201c:	01 00 00 00 	nop 

00002020 <HW_trap_0x02>:
    2020:	91 d0 20 00 	ta  0
    2024:	01 00 00 00 	nop 
    2028:	01 00 00 00 	nop 
    202c:	01 00 00 00 	nop 

00002030 <HW_trap_0x03>:
    2030:	91 d0 20 00 	ta  0
    2034:	01 00 00 00 	nop 
    2038:	01 00 00 00 	nop 
    203c:	01 00 00 00 	nop 

00002040 <HW_trap_0x04>:
    2040:	91 d0 20 00 	ta  0
    2044:	01 00 00 00 	nop 
    2048:	01 00 00 00 	nop 
    204c:	01 00 00 00 	nop 

00002050 <HW_trap_0x05>:
    2050:	10 bf fb ec 	b  1000 <window_overflow_trap_handler>
    2054:	01 00 00 00 	nop 
    2058:	01 00 00 00 	nop 
    205c:	01 00 00 00 	nop 

00002060 <HW_trap_0x06>:
    2060:	10 bf fc 01 	b  1064 <window_underflow_trap_handler>
    2064:	01 00 00 00 	nop 
    2068:	01 00 00 00 	nop 
    206c:	01 00 00 00 	nop 

00002070 <HW_trap_0x07>:
    2070:	91 d0 20 00 	ta  0
    2074:	01 00 00 00 	nop 
    2078:	01 00 00 00 	nop 
    207c:	01 00 00 00 	nop 

00002080 <HW_trap_0x08>:
    2080:	91 d0 20 00 	ta  0
    2084:	01 00 00 00 	nop 
    2088:	01 00 00 00 	nop 
    208c:	01 00 00 00 	nop 

00002090 <HW_trap_0x09>:
    2090:	91 d0 20 00 	ta  0
    2094:	01 00 00 00 	nop 
    2098:	01 00 00 00 	nop 
    209c:	01 00 00 00 	nop 

000020a0 <HW_trap_0x0a>:
    20a0:	91 d0 20 00 	ta  0
    20a4:	01 00 00 00 	nop 
    20a8:	01 00 00 00 	nop 
    20ac:	01 00 00 00 	nop 

000020b0 <HW_trap_0x0b>:
    20b0:	91 d0 20 00 	ta  0
    20b4:	01 00 00 00 	nop 
    20b8:	01 00 00 00 	nop 
    20bc:	01 00 00 00 	nop 

000020c0 <HW_trap_0x0c>:
    20c0:	91 d0 20 00 	ta  0
    20c4:	01 00 00 00 	nop 
    20c8:	01 00 00 00 	nop 
    20cc:	01 00 00 00 	nop 

000020d0 <HW_trap_0x0d>:
    20d0:	91 d0 20 00 	ta  0
    20d4:	01 00 00 00 	nop 
    20d8:	01 00 00 00 	nop 
    20dc:	01 00 00 00 	nop 

000020e0 <HW_trap_0x0e>:
    20e0:	91 d0 20 00 	ta  0
    20e4:	01 00 00 00 	nop 
    20e8:	01 00 00 00 	nop 
    20ec:	01 00 00 00 	nop 

000020f0 <HW_trap_0x0f>:
    20f0:	91 d0 20 00 	ta  0
    20f4:	01 00 00 00 	nop 
    20f8:	01 00 00 00 	nop 
    20fc:	01 00 00 00 	nop 

00002100 <HW_trap_0x10>:
    2100:	91 d0 20 00 	ta  0
    2104:	01 00 00 00 	nop 
    2108:	01 00 00 00 	nop 
    210c:	01 00 00 00 	nop 

00002110 <HW_trap_0x11>:
    2110:	91 d0 20 00 	ta  0
    2114:	01 00 00 00 	nop 
    2118:	01 00 00 00 	nop 
    211c:	01 00 00 00 	nop 

00002120 <HW_trap_0x12>:
    2120:	91 d0 20 00 	ta  0
    2124:	01 00 00 00 	nop 
    2128:	01 00 00 00 	nop 
    212c:	01 00 00 00 	nop 

00002130 <HW_trap_0x13>:
    2130:	91 d0 20 00 	ta  0
    2134:	01 00 00 00 	nop 
    2138:	01 00 00 00 	nop 
    213c:	01 00 00 00 	nop 

00002140 <HW_trap_0x14>:
    2140:	91 d0 20 00 	ta  0
    2144:	01 00 00 00 	nop 
    2148:	01 00 00 00 	nop 
    214c:	01 00 00 00 	nop 

00002150 <HW_trap_0x15>:
    2150:	91 d0 20 00 	ta  0
    2154:	01 00 00 00 	nop 
    2158:	01 00 00 00 	nop 
    215c:	01 00 00 00 	nop 

00002160 <HW_trap_0x16>:
    2160:	91 d0 20 00 	ta  0
    2164:	01 00 00 00 	nop 
    2168:	01 00 00 00 	nop 
    216c:	01 00 00 00 	nop 

00002170 <HW_trap_0x17>:
    2170:	91 d0 20 00 	ta  0
    2174:	01 00 00 00 	nop 
    2178:	01 00 00 00 	nop 
    217c:	01 00 00 00 	nop 

00002180 <HW_trap_0x18>:
    2180:	91 d0 20 00 	ta  0
    2184:	01 00 00 00 	nop 
    2188:	01 00 00 00 	nop 
    218c:	01 00 00 00 	nop 

00002190 <HW_trap_0x19>:
    2190:	91 d0 20 00 	ta  0
    2194:	01 00 00 00 	nop 
    2198:	01 00 00 00 	nop 
    219c:	01 00 00 00 	nop 

000021a0 <HW_trap_0x1a>:
    21a0:	91 d0 20 00 	ta  0
    21a4:	01 00 00 00 	nop 
    21a8:	01 00 00 00 	nop 
    21ac:	01 00 00 00 	nop 

000021b0 <HW_trap_0x1b>:
    21b0:	91 d0 20 00 	ta  0
    21b4:	01 00 00 00 	nop 
    21b8:	01 00 00 00 	nop 
    21bc:	01 00 00 00 	nop 

000021c0 <HW_trap_0x1c>:
    21c0:	91 d0 20 00 	ta  0
    21c4:	01 00 00 00 	nop 
    21c8:	01 00 00 00 	nop 
    21cc:	01 00 00 00 	nop 

000021d0 <HW_trap_0x1d>:
    21d0:	91 d0 20 00 	ta  0
    21d4:	01 00 00 00 	nop 
    21d8:	01 00 00 00 	nop 
    21dc:	01 00 00 00 	nop 

000021e0 <HW_trap_0x1e>:
    21e0:	91 d0 20 00 	ta  0
    21e4:	01 00 00 00 	nop 
    21e8:	01 00 00 00 	nop 
    21ec:	01 00 00 00 	nop 

000021f0 <HW_trap_0x1f>:
    21f0:	91 d0 20 00 	ta  0
    21f4:	01 00 00 00 	nop 
    21f8:	01 00 00 00 	nop 
    21fc:	01 00 00 00 	nop 

00002200 <HW_trap_0x20>:
    2200:	91 d0 20 00 	ta  0
    2204:	01 00 00 00 	nop 
    2208:	01 00 00 00 	nop 
    220c:	01 00 00 00 	nop 

00002210 <HW_trap_0x21>:
    2210:	91 d0 20 00 	ta  0
    2214:	01 00 00 00 	nop 
    2218:	01 00 00 00 	nop 
    221c:	01 00 00 00 	nop 

00002220 <HW_trap_0x22>:
    2220:	91 d0 20 00 	ta  0
    2224:	01 00 00 00 	nop 
    2228:	01 00 00 00 	nop 
    222c:	01 00 00 00 	nop 

00002230 <HW_trap_0x23>:
    2230:	91 d0 20 00 	ta  0
    2234:	01 00 00 00 	nop 
    2238:	01 00 00 00 	nop 
    223c:	01 00 00 00 	nop 

00002240 <HW_trap_0x24>:
    2240:	91 d0 20 00 	ta  0
    2244:	01 00 00 00 	nop 
    2248:	01 00 00 00 	nop 
    224c:	01 00 00 00 	nop 

00002250 <HW_trap_0x25>:
    2250:	91 d0 20 00 	ta  0
    2254:	01 00 00 00 	nop 
    2258:	01 00 00 00 	nop 
    225c:	01 00 00 00 	nop 

00002260 <HW_trap_0x26>:
    2260:	91 d0 20 00 	ta  0
    2264:	01 00 00 00 	nop 
    2268:	01 00 00 00 	nop 
    226c:	01 00 00 00 	nop 

00002270 <HW_trap_0x27>:
    2270:	91 d0 20 00 	ta  0
    2274:	01 00 00 00 	nop 
    2278:	01 00 00 00 	nop 
    227c:	01 00 00 00 	nop 

00002280 <HW_trap_0x28>:
    2280:	91 d0 20 00 	ta  0
    2284:	01 00 00 00 	nop 
    2288:	01 00 00 00 	nop 
    228c:	01 00 00 00 	nop 

00002290 <HW_trap_0x29>:
    2290:	91 d0 20 00 	ta  0
    2294:	01 00 00 00 	nop 
    2298:	01 00 00 00 	nop 
    229c:	01 00 00 00 	nop 

000022a0 <HW_trap_0x2a>:
    22a0:	91 d0 20 00 	ta  0
    22a4:	01 00 00 00 	nop 
    22a8:	01 00 00 00 	nop 
    22ac:	01 00 00 00 	nop 

000022b0 <HW_trap_0x2b>:
    22b0:	91 d0 20 00 	ta  0
    22b4:	01 00 00 00 	nop 
    22b8:	01 00 00 00 	nop 
    22bc:	01 00 00 00 	nop 

000022c0 <HW_trap_0x2c>:
    22c0:	91 d0 20 00 	ta  0
    22c4:	01 00 00 00 	nop 
    22c8:	01 00 00 00 	nop 
    22cc:	01 00 00 00 	nop 

000022d0 <HW_trap_0x2d>:
    22d0:	91 d0 20 00 	ta  0
    22d4:	01 00 00 00 	nop 
    22d8:	01 00 00 00 	nop 
    22dc:	01 00 00 00 	nop 

000022e0 <HW_trap_0x2e>:
    22e0:	91 d0 20 00 	ta  0
    22e4:	01 00 00 00 	nop 
    22e8:	01 00 00 00 	nop 
    22ec:	01 00 00 00 	nop 

000022f0 <HW_trap_0x2f>:
    22f0:	91 d0 20 00 	ta  0
    22f4:	01 00 00 00 	nop 
    22f8:	01 00 00 00 	nop 
    22fc:	01 00 00 00 	nop 

00002300 <HW_trap_0x30>:
    2300:	91 d0 20 00 	ta  0
    2304:	01 00 00 00 	nop 
    2308:	01 00 00 00 	nop 
    230c:	01 00 00 00 	nop 

00002310 <HW_trap_0x31>:
    2310:	91 d0 20 00 	ta  0
    2314:	01 00 00 00 	nop 
    2318:	01 00 00 00 	nop 
    231c:	01 00 00 00 	nop 

00002320 <HW_trap_0x32>:
    2320:	91 d0 20 00 	ta  0
    2324:	01 00 00 00 	nop 
    2328:	01 00 00 00 	nop 
    232c:	01 00 00 00 	nop 

00002330 <HW_trap_0x33>:
    2330:	91 d0 20 00 	ta  0
    2334:	01 00 00 00 	nop 
    2338:	01 00 00 00 	nop 
    233c:	01 00 00 00 	nop 

00002340 <HW_trap_0x34>:
    2340:	91 d0 20 00 	ta  0
    2344:	01 00 00 00 	nop 
    2348:	01 00 00 00 	nop 
    234c:	01 00 00 00 	nop 

00002350 <HW_trap_0x35>:
    2350:	91 d0 20 00 	ta  0
    2354:	01 00 00 00 	nop 
    2358:	01 00 00 00 	nop 
    235c:	01 00 00 00 	nop 

00002360 <HW_trap_0x36>:
    2360:	91 d0 20 00 	ta  0
    2364:	01 00 00 00 	nop 
    2368:	01 00 00 00 	nop 
    236c:	01 00 00 00 	nop 

00002370 <HW_trap_0x37>:
    2370:	91 d0 20 00 	ta  0
    2374:	01 00 00 00 	nop 
    2378:	01 00 00 00 	nop 
    237c:	01 00 00 00 	nop 

00002380 <HW_trap_0x38>:
    2380:	91 d0 20 00 	ta  0
    2384:	01 00 00 00 	nop 
    2388:	01 00 00 00 	nop 
    238c:	01 00 00 00 	nop 

00002390 <HW_trap_0x39>:
    2390:	91 d0 20 00 	ta  0
    2394:	01 00 00 00 	nop 
    2398:	01 00 00 00 	nop 
    239c:	01 00 00 00 	nop 

000023a0 <HW_trap_0x3a>:
    23a0:	91 d0 20 00 	ta  0
    23a4:	01 00 00 00 	nop 
    23a8:	01 00 00 00 	nop 
    23ac:	01 00 00 00 	nop 

000023b0 <HW_trap_0x3b>:
    23b0:	91 d0 20 00 	ta  0
    23b4:	01 00 00 00 	nop 
    23b8:	01 00 00 00 	nop 
    23bc:	01 00 00 00 	nop 

000023c0 <HW_trap_0x3c>:
    23c0:	91 d0 20 00 	ta  0
    23c4:	01 00 00 00 	nop 
    23c8:	01 00 00 00 	nop 
    23cc:	01 00 00 00 	nop 

000023d0 <HW_trap_0x3d>:
    23d0:	91 d0 20 00 	ta  0
    23d4:	01 00 00 00 	nop 
    23d8:	01 00 00 00 	nop 
    23dc:	01 00 00 00 	nop 

000023e0 <HW_trap_0x3e>:
    23e0:	91 d0 20 00 	ta  0
    23e4:	01 00 00 00 	nop 
    23e8:	01 00 00 00 	nop 
    23ec:	01 00 00 00 	nop 

000023f0 <HW_trap_0x3f>:
    23f0:	91 d0 20 00 	ta  0
    23f4:	01 00 00 00 	nop 
    23f8:	01 00 00 00 	nop 
    23fc:	01 00 00 00 	nop 

00002400 <HW_trap_0x40>:
    2400:	91 d0 20 00 	ta  0
    2404:	01 00 00 00 	nop 
    2408:	01 00 00 00 	nop 
    240c:	01 00 00 00 	nop 

00002410 <HW_trap_0x41>:
    2410:	91 d0 20 00 	ta  0
    2414:	01 00 00 00 	nop 
    2418:	01 00 00 00 	nop 
    241c:	01 00 00 00 	nop 

00002420 <HW_trap_0x42>:
    2420:	91 d0 20 00 	ta  0
    2424:	01 00 00 00 	nop 
    2428:	01 00 00 00 	nop 
    242c:	01 00 00 00 	nop 

00002430 <HW_trap_0x43>:
    2430:	91 d0 20 00 	ta  0
    2434:	01 00 00 00 	nop 
    2438:	01 00 00 00 	nop 
    243c:	01 00 00 00 	nop 

00002440 <HW_trap_0x44>:
    2440:	91 d0 20 00 	ta  0
    2444:	01 00 00 00 	nop 
    2448:	01 00 00 00 	nop 
    244c:	01 00 00 00 	nop 

00002450 <HW_trap_0x45>:
    2450:	91 d0 20 00 	ta  0
    2454:	01 00 00 00 	nop 
    2458:	01 00 00 00 	nop 
    245c:	01 00 00 00 	nop 

00002460 <HW_trap_0x46>:
    2460:	91 d0 20 00 	ta  0
    2464:	01 00 00 00 	nop 
    2468:	01 00 00 00 	nop 
    246c:	01 00 00 00 	nop 

00002470 <HW_trap_0x47>:
    2470:	91 d0 20 00 	ta  0
    2474:	01 00 00 00 	nop 
    2478:	01 00 00 00 	nop 
    247c:	01 00 00 00 	nop 

00002480 <HW_trap_0x48>:
    2480:	91 d0 20 00 	ta  0
    2484:	01 00 00 00 	nop 
    2488:	01 00 00 00 	nop 
    248c:	01 00 00 00 	nop 

00002490 <HW_trap_0x49>:
    2490:	91 d0 20 00 	ta  0
    2494:	01 00 00 00 	nop 
    2498:	01 00 00 00 	nop 
    249c:	01 00 00 00 	nop 

000024a0 <HW_trap_0x4a>:
    24a0:	91 d0 20 00 	ta  0
    24a4:	01 00 00 00 	nop 
    24a8:	01 00 00 00 	nop 
    24ac:	01 00 00 00 	nop 

000024b0 <HW_trap_0x4b>:
    24b0:	91 d0 20 00 	ta  0
    24b4:	01 00 00 00 	nop 
    24b8:	01 00 00 00 	nop 
    24bc:	01 00 00 00 	nop 

000024c0 <HW_trap_0x4c>:
    24c0:	91 d0 20 00 	ta  0
    24c4:	01 00 00 00 	nop 
    24c8:	01 00 00 00 	nop 
    24cc:	01 00 00 00 	nop 

000024d0 <HW_trap_0x4d>:
    24d0:	91 d0 20 00 	ta  0
    24d4:	01 00 00 00 	nop 
    24d8:	01 00 00 00 	nop 
    24dc:	01 00 00 00 	nop 

000024e0 <HW_trap_0x4e>:
    24e0:	91 d0 20 00 	ta  0
    24e4:	01 00 00 00 	nop 
    24e8:	01 00 00 00 	nop 
    24ec:	01 00 00 00 	nop 

000024f0 <HW_trap_0x4f>:
    24f0:	91 d0 20 00 	ta  0
    24f4:	01 00 00 00 	nop 
    24f8:	01 00 00 00 	nop 
    24fc:	01 00 00 00 	nop 

00002500 <HW_trap_0x50>:
    2500:	91 d0 20 00 	ta  0
    2504:	01 00 00 00 	nop 
    2508:	01 00 00 00 	nop 
    250c:	01 00 00 00 	nop 

00002510 <HW_trap_0x51>:
    2510:	91 d0 20 00 	ta  0
    2514:	01 00 00 00 	nop 
    2518:	01 00 00 00 	nop 
    251c:	01 00 00 00 	nop 

00002520 <HW_trap_0x52>:
    2520:	91 d0 20 00 	ta  0
    2524:	01 00 00 00 	nop 
    2528:	01 00 00 00 	nop 
    252c:	01 00 00 00 	nop 

00002530 <HW_trap_0x53>:
    2530:	91 d0 20 00 	ta  0
    2534:	01 00 00 00 	nop 
    2538:	01 00 00 00 	nop 
    253c:	01 00 00 00 	nop 

00002540 <HW_trap_0x54>:
    2540:	91 d0 20 00 	ta  0
    2544:	01 00 00 00 	nop 
    2548:	01 00 00 00 	nop 
    254c:	01 00 00 00 	nop 

00002550 <HW_trap_0x55>:
    2550:	91 d0 20 00 	ta  0
    2554:	01 00 00 00 	nop 
    2558:	01 00 00 00 	nop 
    255c:	01 00 00 00 	nop 

00002560 <HW_trap_0x56>:
    2560:	91 d0 20 00 	ta  0
    2564:	01 00 00 00 	nop 
    2568:	01 00 00 00 	nop 
    256c:	01 00 00 00 	nop 

00002570 <HW_trap_0x57>:
    2570:	91 d0 20 00 	ta  0
    2574:	01 00 00 00 	nop 
    2578:	01 00 00 00 	nop 
    257c:	01 00 00 00 	nop 

00002580 <HW_trap_0x58>:
    2580:	91 d0 20 00 	ta  0
    2584:	01 00 00 00 	nop 
    2588:	01 00 00 00 	nop 
    258c:	01 00 00 00 	nop 

00002590 <HW_trap_0x59>:
    2590:	91 d0 20 00 	ta  0
    2594:	01 00 00 00 	nop 
    2598:	01 00 00 00 	nop 
    259c:	01 00 00 00 	nop 

000025a0 <HW_trap_0x5a>:
    25a0:	91 d0 20 00 	ta  0
    25a4:	01 00 00 00 	nop 
    25a8:	01 00 00 00 	nop 
    25ac:	01 00 00 00 	nop 

000025b0 <HW_trap_0x5b>:
    25b0:	91 d0 20 00 	ta  0
    25b4:	01 00 00 00 	nop 
    25b8:	01 00 00 00 	nop 
    25bc:	01 00 00 00 	nop 

000025c0 <HW_trap_0x5c>:
    25c0:	91 d0 20 00 	ta  0
    25c4:	01 00 00 00 	nop 
    25c8:	01 00 00 00 	nop 
    25cc:	01 00 00 00 	nop 

000025d0 <HW_trap_0x5d>:
    25d0:	91 d0 20 00 	ta  0
    25d4:	01 00 00 00 	nop 
    25d8:	01 00 00 00 	nop 
    25dc:	01 00 00 00 	nop 

000025e0 <HW_trap_0x5e>:
    25e0:	91 d0 20 00 	ta  0
    25e4:	01 00 00 00 	nop 
    25e8:	01 00 00 00 	nop 
    25ec:	01 00 00 00 	nop 

000025f0 <HW_trap_0x5f>:
    25f0:	91 d0 20 00 	ta  0
    25f4:	01 00 00 00 	nop 
    25f8:	01 00 00 00 	nop 
    25fc:	01 00 00 00 	nop 

00002600 <HW_trap_0x60>:
    2600:	91 d0 20 00 	ta  0
    2604:	01 00 00 00 	nop 
    2608:	01 00 00 00 	nop 
    260c:	01 00 00 00 	nop 

00002610 <HW_trap_0x61>:
    2610:	91 d0 20 00 	ta  0
    2614:	01 00 00 00 	nop 
    2618:	01 00 00 00 	nop 
    261c:	01 00 00 00 	nop 

00002620 <HW_trap_0x62>:
    2620:	91 d0 20 00 	ta  0
    2624:	01 00 00 00 	nop 
    2628:	01 00 00 00 	nop 
    262c:	01 00 00 00 	nop 

00002630 <HW_trap_0x63>:
    2630:	91 d0 20 00 	ta  0
    2634:	01 00 00 00 	nop 
    2638:	01 00 00 00 	nop 
    263c:	01 00 00 00 	nop 

00002640 <HW_trap_0x64>:
    2640:	91 d0 20 00 	ta  0
    2644:	01 00 00 00 	nop 
    2648:	01 00 00 00 	nop 
    264c:	01 00 00 00 	nop 

00002650 <HW_trap_0x65>:
    2650:	91 d0 20 00 	ta  0
    2654:	01 00 00 00 	nop 
    2658:	01 00 00 00 	nop 
    265c:	01 00 00 00 	nop 

00002660 <HW_trap_0x66>:
    2660:	91 d0 20 00 	ta  0
    2664:	01 00 00 00 	nop 
    2668:	01 00 00 00 	nop 
    266c:	01 00 00 00 	nop 

00002670 <HW_trap_0x67>:
    2670:	91 d0 20 00 	ta  0
    2674:	01 00 00 00 	nop 
    2678:	01 00 00 00 	nop 
    267c:	01 00 00 00 	nop 

00002680 <HW_trap_0x68>:
    2680:	91 d0 20 00 	ta  0
    2684:	01 00 00 00 	nop 
    2688:	01 00 00 00 	nop 
    268c:	01 00 00 00 	nop 

00002690 <HW_trap_0x69>:
    2690:	91 d0 20 00 	ta  0
    2694:	01 00 00 00 	nop 
    2698:	01 00 00 00 	nop 
    269c:	01 00 00 00 	nop 

000026a0 <HW_trap_0x6a>:
    26a0:	91 d0 20 00 	ta  0
    26a4:	01 00 00 00 	nop 
    26a8:	01 00 00 00 	nop 
    26ac:	01 00 00 00 	nop 

000026b0 <HW_trap_0x6b>:
    26b0:	91 d0 20 00 	ta  0
    26b4:	01 00 00 00 	nop 
    26b8:	01 00 00 00 	nop 
    26bc:	01 00 00 00 	nop 

000026c0 <HW_trap_0x6c>:
    26c0:	91 d0 20 00 	ta  0
    26c4:	01 00 00 00 	nop 
    26c8:	01 00 00 00 	nop 
    26cc:	01 00 00 00 	nop 

000026d0 <HW_trap_0x6d>:
    26d0:	91 d0 20 00 	ta  0
    26d4:	01 00 00 00 	nop 
    26d8:	01 00 00 00 	nop 
    26dc:	01 00 00 00 	nop 

000026e0 <HW_trap_0x6e>:
    26e0:	91 d0 20 00 	ta  0
    26e4:	01 00 00 00 	nop 
    26e8:	01 00 00 00 	nop 
    26ec:	01 00 00 00 	nop 

000026f0 <HW_trap_0x6f>:
    26f0:	91 d0 20 00 	ta  0
    26f4:	01 00 00 00 	nop 
    26f8:	01 00 00 00 	nop 
    26fc:	01 00 00 00 	nop 

00002700 <HW_trap_0x70>:
    2700:	91 d0 20 00 	ta  0
    2704:	01 00 00 00 	nop 
    2708:	01 00 00 00 	nop 
    270c:	01 00 00 00 	nop 

00002710 <HW_trap_0x71>:
    2710:	91 d0 20 00 	ta  0
    2714:	01 00 00 00 	nop 
    2718:	01 00 00 00 	nop 
    271c:	01 00 00 00 	nop 

00002720 <HW_trap_0x72>:
    2720:	91 d0 20 00 	ta  0
    2724:	01 00 00 00 	nop 
    2728:	01 00 00 00 	nop 
    272c:	01 00 00 00 	nop 

00002730 <HW_trap_0x73>:
    2730:	91 d0 20 00 	ta  0
    2734:	01 00 00 00 	nop 
    2738:	01 00 00 00 	nop 
    273c:	01 00 00 00 	nop 

00002740 <HW_trap_0x74>:
    2740:	91 d0 20 00 	ta  0
    2744:	01 00 00 00 	nop 
    2748:	01 00 00 00 	nop 
    274c:	01 00 00 00 	nop 

00002750 <HW_trap_0x75>:
    2750:	91 d0 20 00 	ta  0
    2754:	01 00 00 00 	nop 
    2758:	01 00 00 00 	nop 
    275c:	01 00 00 00 	nop 

00002760 <HW_trap_0x76>:
    2760:	91 d0 20 00 	ta  0
    2764:	01 00 00 00 	nop 
    2768:	01 00 00 00 	nop 
    276c:	01 00 00 00 	nop 

00002770 <HW_trap_0x77>:
    2770:	91 d0 20 00 	ta  0
    2774:	01 00 00 00 	nop 
    2778:	01 00 00 00 	nop 
    277c:	01 00 00 00 	nop 

00002780 <HW_trap_0x78>:
    2780:	91 d0 20 00 	ta  0
    2784:	01 00 00 00 	nop 
    2788:	01 00 00 00 	nop 
    278c:	01 00 00 00 	nop 

00002790 <HW_trap_0x79>:
    2790:	91 d0 20 00 	ta  0
    2794:	01 00 00 00 	nop 
    2798:	01 00 00 00 	nop 
    279c:	01 00 00 00 	nop 

000027a0 <HW_trap_0x7a>:
    27a0:	91 d0 20 00 	ta  0
    27a4:	01 00 00 00 	nop 
    27a8:	01 00 00 00 	nop 
    27ac:	01 00 00 00 	nop 

000027b0 <HW_trap_0x7b>:
    27b0:	91 d0 20 00 	ta  0
    27b4:	01 00 00 00 	nop 
    27b8:	01 00 00 00 	nop 
    27bc:	01 00 00 00 	nop 

000027c0 <HW_trap_0x7c>:
    27c0:	91 d0 20 00 	ta  0
    27c4:	01 00 00 00 	nop 
    27c8:	01 00 00 00 	nop 
    27cc:	01 00 00 00 	nop 

000027d0 <HW_trap_0x7d>:
    27d0:	91 d0 20 00 	ta  0
    27d4:	01 00 00 00 	nop 
    27d8:	01 00 00 00 	nop 
    27dc:	01 00 00 00 	nop 

000027e0 <HW_trap_0x7e>:
    27e0:	91 d0 20 00 	ta  0
    27e4:	01 00 00 00 	nop 
    27e8:	01 00 00 00 	nop 
    27ec:	01 00 00 00 	nop 

000027f0 <HW_trap_0x7f>:
    27f0:	91 d0 20 00 	ta  0
    27f4:	01 00 00 00 	nop 
    27f8:	01 00 00 00 	nop 
    27fc:	01 00 00 00 	nop 

00002800 <SW_trap_0x80>:
    2800:	91 d0 20 00 	ta  0
    2804:	01 00 00 00 	nop 
    2808:	01 00 00 00 	nop 
    280c:	01 00 00 00 	nop 

00002810 <SW_trap_0x81>:
    2810:	91 d0 20 00 	ta  0
    2814:	01 00 00 00 	nop 
    2818:	01 00 00 00 	nop 
    281c:	01 00 00 00 	nop 

00002820 <SW_trap_0x82>:
    2820:	91 d0 20 00 	ta  0
    2824:	01 00 00 00 	nop 
    2828:	01 00 00 00 	nop 
    282c:	01 00 00 00 	nop 

00002830 <SW_trap_0x83>:
    2830:	91 d0 20 00 	ta  0
    2834:	01 00 00 00 	nop 
    2838:	01 00 00 00 	nop 
    283c:	01 00 00 00 	nop 

00002840 <SW_trap_0x84>:
    2840:	91 d0 20 00 	ta  0
    2844:	01 00 00 00 	nop 
    2848:	01 00 00 00 	nop 
    284c:	01 00 00 00 	nop 

00002850 <SW_trap_0x85>:
    2850:	91 d0 20 00 	ta  0
    2854:	01 00 00 00 	nop 
    2858:	01 00 00 00 	nop 
    285c:	01 00 00 00 	nop 

00002860 <SW_trap_0x86>:
    2860:	91 d0 20 00 	ta  0
    2864:	01 00 00 00 	nop 
    2868:	01 00 00 00 	nop 
    286c:	01 00 00 00 	nop 

00002870 <SW_trap_0x87>:
    2870:	91 d0 20 00 	ta  0
    2874:	01 00 00 00 	nop 
    2878:	01 00 00 00 	nop 
    287c:	01 00 00 00 	nop 

00002880 <SW_trap_0x88>:
    2880:	91 d0 20 00 	ta  0
    2884:	01 00 00 00 	nop 
    2888:	01 00 00 00 	nop 
    288c:	01 00 00 00 	nop 

00002890 <SW_trap_0x89>:
    2890:	91 d0 20 00 	ta  0
    2894:	01 00 00 00 	nop 
    2898:	01 00 00 00 	nop 
    289c:	01 00 00 00 	nop 

000028a0 <SW_trap_0x8a>:
    28a0:	91 d0 20 00 	ta  0
    28a4:	01 00 00 00 	nop 
    28a8:	01 00 00 00 	nop 
    28ac:	01 00 00 00 	nop 

000028b0 <SW_trap_0x8b>:
    28b0:	91 d0 20 00 	ta  0
    28b4:	01 00 00 00 	nop 
    28b8:	01 00 00 00 	nop 
    28bc:	01 00 00 00 	nop 

000028c0 <SW_trap_0x8c>:
    28c0:	91 d0 20 00 	ta  0
    28c4:	01 00 00 00 	nop 
    28c8:	01 00 00 00 	nop 
    28cc:	01 00 00 00 	nop 

000028d0 <SW_trap_0x8d>:
    28d0:	91 d0 20 00 	ta  0
    28d4:	01 00 00 00 	nop 
    28d8:	01 00 00 00 	nop 
    28dc:	01 00 00 00 	nop 

000028e0 <SW_trap_0x8e>:
    28e0:	91 d0 20 00 	ta  0
    28e4:	01 00 00 00 	nop 
    28e8:	01 00 00 00 	nop 
    28ec:	01 00 00 00 	nop 

000028f0 <SW_trap_0x8f>:
    28f0:	91 d0 20 00 	ta  0
    28f4:	01 00 00 00 	nop 
    28f8:	01 00 00 00 	nop 
    28fc:	01 00 00 00 	nop 

00002900 <SW_trap_0x90>:
    2900:	91 d0 20 00 	ta  0
    2904:	01 00 00 00 	nop 
    2908:	01 00 00 00 	nop 
    290c:	01 00 00 00 	nop 

00002910 <SW_trap_0x91>:
    2910:	91 d0 20 00 	ta  0
    2914:	01 00 00 00 	nop 
    2918:	01 00 00 00 	nop 
    291c:	01 00 00 00 	nop 

00002920 <SW_trap_0x92>:
    2920:	91 d0 20 00 	ta  0
    2924:	01 00 00 00 	nop 
    2928:	01 00 00 00 	nop 
    292c:	01 00 00 00 	nop 

00002930 <SW_trap_0x93>:
    2930:	91 d0 20 00 	ta  0
    2934:	01 00 00 00 	nop 
    2938:	01 00 00 00 	nop 
    293c:	01 00 00 00 	nop 

00002940 <SW_trap_0x94>:
    2940:	91 d0 20 00 	ta  0
    2944:	01 00 00 00 	nop 
    2948:	01 00 00 00 	nop 
    294c:	01 00 00 00 	nop 

00002950 <SW_trap_0x95>:
    2950:	91 d0 20 00 	ta  0
    2954:	01 00 00 00 	nop 
    2958:	01 00 00 00 	nop 
    295c:	01 00 00 00 	nop 

00002960 <SW_trap_0x96>:
    2960:	91 d0 20 00 	ta  0
    2964:	01 00 00 00 	nop 
    2968:	01 00 00 00 	nop 
    296c:	01 00 00 00 	nop 

00002970 <SW_trap_0x97>:
    2970:	91 d0 20 00 	ta  0
    2974:	01 00 00 00 	nop 
    2978:	01 00 00 00 	nop 
    297c:	01 00 00 00 	nop 

00002980 <SW_trap_0x98>:
    2980:	91 d0 20 00 	ta  0
    2984:	01 00 00 00 	nop 
    2988:	01 00 00 00 	nop 
    298c:	01 00 00 00 	nop 

00002990 <SW_trap_0x99>:
    2990:	91 d0 20 00 	ta  0
    2994:	01 00 00 00 	nop 
    2998:	01 00 00 00 	nop 
    299c:	01 00 00 00 	nop 

000029a0 <SW_trap_0x9a>:
    29a0:	91 d0 20 00 	ta  0
    29a4:	01 00 00 00 	nop 
    29a8:	01 00 00 00 	nop 
    29ac:	01 00 00 00 	nop 

000029b0 <SW_trap_0x9b>:
    29b0:	91 d0 20 00 	ta  0
    29b4:	01 00 00 00 	nop 
    29b8:	01 00 00 00 	nop 
    29bc:	01 00 00 00 	nop 

000029c0 <SW_trap_0x9c>:
    29c0:	91 d0 20 00 	ta  0
    29c4:	01 00 00 00 	nop 
    29c8:	01 00 00 00 	nop 
    29cc:	01 00 00 00 	nop 

000029d0 <SW_trap_0x9d>:
    29d0:	91 d0 20 00 	ta  0
    29d4:	01 00 00 00 	nop 
    29d8:	01 00 00 00 	nop 
    29dc:	01 00 00 00 	nop 

000029e0 <SW_trap_0x9e>:
    29e0:	91 d0 20 00 	ta  0
    29e4:	01 00 00 00 	nop 
    29e8:	01 00 00 00 	nop 
    29ec:	01 00 00 00 	nop 

000029f0 <SW_trap_0x9f>:
    29f0:	91 d0 20 00 	ta  0
    29f4:	01 00 00 00 	nop 
    29f8:	01 00 00 00 	nop 
    29fc:	01 00 00 00 	nop 

00002a00 <SW_trap_0xa0>:
    2a00:	91 d0 20 00 	ta  0
    2a04:	01 00 00 00 	nop 
    2a08:	01 00 00 00 	nop 
    2a0c:	01 00 00 00 	nop 

00002a10 <SW_trap_0xa1>:
    2a10:	91 d0 20 00 	ta  0
    2a14:	01 00 00 00 	nop 
    2a18:	01 00 00 00 	nop 
    2a1c:	01 00 00 00 	nop 

00002a20 <SW_trap_0xa2>:
    2a20:	91 d0 20 00 	ta  0
    2a24:	01 00 00 00 	nop 
    2a28:	01 00 00 00 	nop 
    2a2c:	01 00 00 00 	nop 

00002a30 <SW_trap_0xa3>:
    2a30:	91 d0 20 00 	ta  0
    2a34:	01 00 00 00 	nop 
    2a38:	01 00 00 00 	nop 
    2a3c:	01 00 00 00 	nop 

00002a40 <SW_trap_0xa4>:
    2a40:	91 d0 20 00 	ta  0
    2a44:	01 00 00 00 	nop 
    2a48:	01 00 00 00 	nop 
    2a4c:	01 00 00 00 	nop 

00002a50 <SW_trap_0xa5>:
    2a50:	91 d0 20 00 	ta  0
    2a54:	01 00 00 00 	nop 
    2a58:	01 00 00 00 	nop 
    2a5c:	01 00 00 00 	nop 

00002a60 <SW_trap_0xa6>:
    2a60:	91 d0 20 00 	ta  0
    2a64:	01 00 00 00 	nop 
    2a68:	01 00 00 00 	nop 
    2a6c:	01 00 00 00 	nop 

00002a70 <SW_trap_0xa7>:
    2a70:	91 d0 20 00 	ta  0
    2a74:	01 00 00 00 	nop 
    2a78:	01 00 00 00 	nop 
    2a7c:	01 00 00 00 	nop 

00002a80 <SW_trap_0xa8>:
    2a80:	91 d0 20 00 	ta  0
    2a84:	01 00 00 00 	nop 
    2a88:	01 00 00 00 	nop 
    2a8c:	01 00 00 00 	nop 

00002a90 <SW_trap_0xa9>:
    2a90:	91 d0 20 00 	ta  0
    2a94:	01 00 00 00 	nop 
    2a98:	01 00 00 00 	nop 
    2a9c:	01 00 00 00 	nop 

00002aa0 <SW_trap_0xaa>:
    2aa0:	91 d0 20 00 	ta  0
    2aa4:	01 00 00 00 	nop 
    2aa8:	01 00 00 00 	nop 
    2aac:	01 00 00 00 	nop 

00002ab0 <SW_trap_0xab>:
    2ab0:	91 d0 20 00 	ta  0
    2ab4:	01 00 00 00 	nop 
    2ab8:	01 00 00 00 	nop 
    2abc:	01 00 00 00 	nop 

00002ac0 <SW_trap_0xac>:
    2ac0:	91 d0 20 00 	ta  0
    2ac4:	01 00 00 00 	nop 
    2ac8:	01 00 00 00 	nop 
    2acc:	01 00 00 00 	nop 

00002ad0 <SW_trap_0xad>:
    2ad0:	91 d0 20 00 	ta  0
    2ad4:	01 00 00 00 	nop 
    2ad8:	01 00 00 00 	nop 
    2adc:	01 00 00 00 	nop 

00002ae0 <SW_trap_0xae>:
    2ae0:	91 d0 20 00 	ta  0
    2ae4:	01 00 00 00 	nop 
    2ae8:	01 00 00 00 	nop 
    2aec:	01 00 00 00 	nop 

00002af0 <SW_trap_0xaf>:
    2af0:	91 d0 20 00 	ta  0
    2af4:	01 00 00 00 	nop 
    2af8:	01 00 00 00 	nop 
    2afc:	01 00 00 00 	nop 

00002b00 <SW_trap_0xb0>:
    2b00:	91 d0 20 00 	ta  0
    2b04:	01 00 00 00 	nop 
    2b08:	01 00 00 00 	nop 
    2b0c:	01 00 00 00 	nop 

00002b10 <SW_trap_0xb1>:
    2b10:	91 d0 20 00 	ta  0
    2b14:	01 00 00 00 	nop 
    2b18:	01 00 00 00 	nop 
    2b1c:	01 00 00 00 	nop 

00002b20 <SW_trap_0xb2>:
    2b20:	91 d0 20 00 	ta  0
    2b24:	01 00 00 00 	nop 
    2b28:	01 00 00 00 	nop 
    2b2c:	01 00 00 00 	nop 

00002b30 <SW_trap_0xb3>:
    2b30:	91 d0 20 00 	ta  0
    2b34:	01 00 00 00 	nop 
    2b38:	01 00 00 00 	nop 
    2b3c:	01 00 00 00 	nop 

00002b40 <SW_trap_0xb4>:
    2b40:	91 d0 20 00 	ta  0
    2b44:	01 00 00 00 	nop 
    2b48:	01 00 00 00 	nop 
    2b4c:	01 00 00 00 	nop 

00002b50 <SW_trap_0xb5>:
    2b50:	91 d0 20 00 	ta  0
    2b54:	01 00 00 00 	nop 
    2b58:	01 00 00 00 	nop 
    2b5c:	01 00 00 00 	nop 

00002b60 <SW_trap_0xb6>:
    2b60:	91 d0 20 00 	ta  0
    2b64:	01 00 00 00 	nop 
    2b68:	01 00 00 00 	nop 
    2b6c:	01 00 00 00 	nop 

00002b70 <SW_trap_0xb7>:
    2b70:	91 d0 20 00 	ta  0
    2b74:	01 00 00 00 	nop 
    2b78:	01 00 00 00 	nop 
    2b7c:	01 00 00 00 	nop 

00002b80 <SW_trap_0xb8>:
    2b80:	91 d0 20 00 	ta  0
    2b84:	01 00 00 00 	nop 
    2b88:	01 00 00 00 	nop 
    2b8c:	01 00 00 00 	nop 

00002b90 <SW_trap_0xb9>:
    2b90:	91 d0 20 00 	ta  0
    2b94:	01 00 00 00 	nop 
    2b98:	01 00 00 00 	nop 
    2b9c:	01 00 00 00 	nop 

00002ba0 <SW_trap_0xba>:
    2ba0:	91 d0 20 00 	ta  0
    2ba4:	01 00 00 00 	nop 
    2ba8:	01 00 00 00 	nop 
    2bac:	01 00 00 00 	nop 

00002bb0 <SW_trap_0xbb>:
    2bb0:	91 d0 20 00 	ta  0
    2bb4:	01 00 00 00 	nop 
    2bb8:	01 00 00 00 	nop 
    2bbc:	01 00 00 00 	nop 

00002bc0 <SW_trap_0xbc>:
    2bc0:	91 d0 20 00 	ta  0
    2bc4:	01 00 00 00 	nop 
    2bc8:	01 00 00 00 	nop 
    2bcc:	01 00 00 00 	nop 

00002bd0 <SW_trap_0xbd>:
    2bd0:	91 d0 20 00 	ta  0
    2bd4:	01 00 00 00 	nop 
    2bd8:	01 00 00 00 	nop 
    2bdc:	01 00 00 00 	nop 

00002be0 <SW_trap_0xbe>:
    2be0:	91 d0 20 00 	ta  0
    2be4:	01 00 00 00 	nop 
    2be8:	01 00 00 00 	nop 
    2bec:	01 00 00 00 	nop 

00002bf0 <SW_trap_0xbf>:
    2bf0:	91 d0 20 00 	ta  0
    2bf4:	01 00 00 00 	nop 
    2bf8:	01 00 00 00 	nop 
    2bfc:	01 00 00 00 	nop 

00002c00 <SW_trap_0xc0>:
    2c00:	91 d0 20 00 	ta  0
    2c04:	01 00 00 00 	nop 
    2c08:	01 00 00 00 	nop 
    2c0c:	01 00 00 00 	nop 

00002c10 <SW_trap_0xc1>:
    2c10:	91 d0 20 00 	ta  0
    2c14:	01 00 00 00 	nop 
    2c18:	01 00 00 00 	nop 
    2c1c:	01 00 00 00 	nop 

00002c20 <SW_trap_0xc2>:
    2c20:	91 d0 20 00 	ta  0
    2c24:	01 00 00 00 	nop 
    2c28:	01 00 00 00 	nop 
    2c2c:	01 00 00 00 	nop 

00002c30 <SW_trap_0xc3>:
    2c30:	91 d0 20 00 	ta  0
    2c34:	01 00 00 00 	nop 
    2c38:	01 00 00 00 	nop 
    2c3c:	01 00 00 00 	nop 

00002c40 <SW_trap_0xc4>:
    2c40:	91 d0 20 00 	ta  0
    2c44:	01 00 00 00 	nop 
    2c48:	01 00 00 00 	nop 
    2c4c:	01 00 00 00 	nop 

00002c50 <SW_trap_0xc5>:
    2c50:	91 d0 20 00 	ta  0
    2c54:	01 00 00 00 	nop 
    2c58:	01 00 00 00 	nop 
    2c5c:	01 00 00 00 	nop 

00002c60 <SW_trap_0xc6>:
    2c60:	91 d0 20 00 	ta  0
    2c64:	01 00 00 00 	nop 
    2c68:	01 00 00 00 	nop 
    2c6c:	01 00 00 00 	nop 

00002c70 <SW_trap_0xc7>:
    2c70:	91 d0 20 00 	ta  0
    2c74:	01 00 00 00 	nop 
    2c78:	01 00 00 00 	nop 
    2c7c:	01 00 00 00 	nop 

00002c80 <SW_trap_0xc8>:
    2c80:	91 d0 20 00 	ta  0
    2c84:	01 00 00 00 	nop 
    2c88:	01 00 00 00 	nop 
    2c8c:	01 00 00 00 	nop 

00002c90 <SW_trap_0xc9>:
    2c90:	91 d0 20 00 	ta  0
    2c94:	01 00 00 00 	nop 
    2c98:	01 00 00 00 	nop 
    2c9c:	01 00 00 00 	nop 

00002ca0 <SW_trap_0xca>:
    2ca0:	91 d0 20 00 	ta  0
    2ca4:	01 00 00 00 	nop 
    2ca8:	01 00 00 00 	nop 
    2cac:	01 00 00 00 	nop 

00002cb0 <SW_trap_0xcb>:
    2cb0:	91 d0 20 00 	ta  0
    2cb4:	01 00 00 00 	nop 
    2cb8:	01 00 00 00 	nop 
    2cbc:	01 00 00 00 	nop 

00002cc0 <SW_trap_0xcc>:
    2cc0:	91 d0 20 00 	ta  0
    2cc4:	01 00 00 00 	nop 
    2cc8:	01 00 00 00 	nop 
    2ccc:	01 00 00 00 	nop 

00002cd0 <SW_trap_0xcd>:
    2cd0:	91 d0 20 00 	ta  0
    2cd4:	01 00 00 00 	nop 
    2cd8:	01 00 00 00 	nop 
    2cdc:	01 00 00 00 	nop 

00002ce0 <SW_trap_0xce>:
    2ce0:	91 d0 20 00 	ta  0
    2ce4:	01 00 00 00 	nop 
    2ce8:	01 00 00 00 	nop 
    2cec:	01 00 00 00 	nop 

00002cf0 <SW_trap_0xcf>:
    2cf0:	91 d0 20 00 	ta  0
    2cf4:	01 00 00 00 	nop 
    2cf8:	01 00 00 00 	nop 
    2cfc:	01 00 00 00 	nop 

00002d00 <SW_trap_0xd0>:
    2d00:	91 d0 20 00 	ta  0
    2d04:	01 00 00 00 	nop 
    2d08:	01 00 00 00 	nop 
    2d0c:	01 00 00 00 	nop 

00002d10 <SW_trap_0xd1>:
    2d10:	91 d0 20 00 	ta  0
    2d14:	01 00 00 00 	nop 
    2d18:	01 00 00 00 	nop 
    2d1c:	01 00 00 00 	nop 

00002d20 <SW_trap_0xd2>:
    2d20:	91 d0 20 00 	ta  0
    2d24:	01 00 00 00 	nop 
    2d28:	01 00 00 00 	nop 
    2d2c:	01 00 00 00 	nop 

00002d30 <SW_trap_0xd3>:
    2d30:	91 d0 20 00 	ta  0
    2d34:	01 00 00 00 	nop 
    2d38:	01 00 00 00 	nop 
    2d3c:	01 00 00 00 	nop 

00002d40 <SW_trap_0xd4>:
    2d40:	91 d0 20 00 	ta  0
    2d44:	01 00 00 00 	nop 
    2d48:	01 00 00 00 	nop 
    2d4c:	01 00 00 00 	nop 

00002d50 <SW_trap_0xd5>:
    2d50:	91 d0 20 00 	ta  0
    2d54:	01 00 00 00 	nop 
    2d58:	01 00 00 00 	nop 
    2d5c:	01 00 00 00 	nop 

00002d60 <SW_trap_0xd6>:
    2d60:	91 d0 20 00 	ta  0
    2d64:	01 00 00 00 	nop 
    2d68:	01 00 00 00 	nop 
    2d6c:	01 00 00 00 	nop 

00002d70 <SW_trap_0xd7>:
    2d70:	91 d0 20 00 	ta  0
    2d74:	01 00 00 00 	nop 
    2d78:	01 00 00 00 	nop 
    2d7c:	01 00 00 00 	nop 

00002d80 <SW_trap_0xd8>:
    2d80:	91 d0 20 00 	ta  0
    2d84:	01 00 00 00 	nop 
    2d88:	01 00 00 00 	nop 
    2d8c:	01 00 00 00 	nop 

00002d90 <SW_trap_0xd9>:
    2d90:	91 d0 20 00 	ta  0
    2d94:	01 00 00 00 	nop 
    2d98:	01 00 00 00 	nop 
    2d9c:	01 00 00 00 	nop 

00002da0 <SW_trap_0xda>:
    2da0:	91 d0 20 00 	ta  0
    2da4:	01 00 00 00 	nop 
    2da8:	01 00 00 00 	nop 
    2dac:	01 00 00 00 	nop 

00002db0 <SW_trap_0xdb>:
    2db0:	91 d0 20 00 	ta  0
    2db4:	01 00 00 00 	nop 
    2db8:	01 00 00 00 	nop 
    2dbc:	01 00 00 00 	nop 

00002dc0 <SW_trap_0xdc>:
    2dc0:	91 d0 20 00 	ta  0
    2dc4:	01 00 00 00 	nop 
    2dc8:	01 00 00 00 	nop 
    2dcc:	01 00 00 00 	nop 

00002dd0 <SW_trap_0xdd>:
    2dd0:	91 d0 20 00 	ta  0
    2dd4:	01 00 00 00 	nop 
    2dd8:	01 00 00 00 	nop 
    2ddc:	01 00 00 00 	nop 

00002de0 <SW_trap_0xde>:
    2de0:	91 d0 20 00 	ta  0
    2de4:	01 00 00 00 	nop 
    2de8:	01 00 00 00 	nop 
    2dec:	01 00 00 00 	nop 

00002df0 <SW_trap_0xdf>:
    2df0:	91 d0 20 00 	ta  0
    2df4:	01 00 00 00 	nop 
    2df8:	01 00 00 00 	nop 
    2dfc:	01 00 00 00 	nop 

00002e00 <SW_trap_0xe0>:
    2e00:	91 d0 20 00 	ta  0
    2e04:	01 00 00 00 	nop 
    2e08:	01 00 00 00 	nop 
    2e0c:	01 00 00 00 	nop 

00002e10 <SW_trap_0xe1>:
    2e10:	91 d0 20 00 	ta  0
    2e14:	01 00 00 00 	nop 
    2e18:	01 00 00 00 	nop 
    2e1c:	01 00 00 00 	nop 

00002e20 <SW_trap_0xe2>:
    2e20:	91 d0 20 00 	ta  0
    2e24:	01 00 00 00 	nop 
    2e28:	01 00 00 00 	nop 
    2e2c:	01 00 00 00 	nop 

00002e30 <SW_trap_0xe3>:
    2e30:	91 d0 20 00 	ta  0
    2e34:	01 00 00 00 	nop 
    2e38:	01 00 00 00 	nop 
    2e3c:	01 00 00 00 	nop 

00002e40 <SW_trap_0xe4>:
    2e40:	91 d0 20 00 	ta  0
    2e44:	01 00 00 00 	nop 
    2e48:	01 00 00 00 	nop 
    2e4c:	01 00 00 00 	nop 

00002e50 <SW_trap_0xe5>:
    2e50:	91 d0 20 00 	ta  0
    2e54:	01 00 00 00 	nop 
    2e58:	01 00 00 00 	nop 
    2e5c:	01 00 00 00 	nop 

00002e60 <SW_trap_0xe6>:
    2e60:	91 d0 20 00 	ta  0
    2e64:	01 00 00 00 	nop 
    2e68:	01 00 00 00 	nop 
    2e6c:	01 00 00 00 	nop 

00002e70 <SW_trap_0xe7>:
    2e70:	91 d0 20 00 	ta  0
    2e74:	01 00 00 00 	nop 
    2e78:	01 00 00 00 	nop 
    2e7c:	01 00 00 00 	nop 

00002e80 <SW_trap_0xe8>:
    2e80:	91 d0 20 00 	ta  0
    2e84:	01 00 00 00 	nop 
    2e88:	01 00 00 00 	nop 
    2e8c:	01 00 00 00 	nop 

00002e90 <SW_trap_0xe9>:
    2e90:	91 d0 20 00 	ta  0
    2e94:	01 00 00 00 	nop 
    2e98:	01 00 00 00 	nop 
    2e9c:	01 00 00 00 	nop 

00002ea0 <SW_trap_0xea>:
    2ea0:	91 d0 20 00 	ta  0
    2ea4:	01 00 00 00 	nop 
    2ea8:	01 00 00 00 	nop 
    2eac:	01 00 00 00 	nop 

00002eb0 <SW_trap_0xeb>:
    2eb0:	91 d0 20 00 	ta  0
    2eb4:	01 00 00 00 	nop 
    2eb8:	01 00 00 00 	nop 
    2ebc:	01 00 00 00 	nop 

00002ec0 <SW_trap_0xec>:
    2ec0:	91 d0 20 00 	ta  0
    2ec4:	01 00 00 00 	nop 
    2ec8:	01 00 00 00 	nop 
    2ecc:	01 00 00 00 	nop 

00002ed0 <SW_trap_0xed>:
    2ed0:	91 d0 20 00 	ta  0
    2ed4:	01 00 00 00 	nop 
    2ed8:	01 00 00 00 	nop 
    2edc:	01 00 00 00 	nop 

00002ee0 <SW_trap_0xee>:
    2ee0:	91 d0 20 00 	ta  0
    2ee4:	01 00 00 00 	nop 
    2ee8:	01 00 00 00 	nop 
    2eec:	01 00 00 00 	nop 

00002ef0 <SW_trap_0xef>:
    2ef0:	91 d0 20 00 	ta  0
    2ef4:	01 00 00 00 	nop 
    2ef8:	01 00 00 00 	nop 
    2efc:	01 00 00 00 	nop 

00002f00 <SW_trap_0xf0>:
    2f00:	91 d0 20 00 	ta  0
    2f04:	01 00 00 00 	nop 
    2f08:	01 00 00 00 	nop 
    2f0c:	01 00 00 00 	nop 

00002f10 <SW_trap_0xf1>:
    2f10:	91 d0 20 00 	ta  0
    2f14:	01 00 00 00 	nop 
    2f18:	01 00 00 00 	nop 
    2f1c:	01 00 00 00 	nop 

00002f20 <SW_trap_0xf2>:
    2f20:	91 d0 20 00 	ta  0
    2f24:	01 00 00 00 	nop 
    2f28:	01 00 00 00 	nop 
    2f2c:	01 00 00 00 	nop 

00002f30 <SW_trap_0xf3>:
    2f30:	91 d0 20 00 	ta  0
    2f34:	01 00 00 00 	nop 
    2f38:	01 00 00 00 	nop 
    2f3c:	01 00 00 00 	nop 

00002f40 <SW_trap_0xf4>:
    2f40:	91 d0 20 00 	ta  0
    2f44:	01 00 00 00 	nop 
    2f48:	01 00 00 00 	nop 
    2f4c:	01 00 00 00 	nop 

00002f50 <SW_trap_0xf5>:
    2f50:	91 d0 20 00 	ta  0
    2f54:	01 00 00 00 	nop 
    2f58:	01 00 00 00 	nop 
    2f5c:	01 00 00 00 	nop 

00002f60 <SW_trap_0xf6>:
    2f60:	91 d0 20 00 	ta  0
    2f64:	01 00 00 00 	nop 
    2f68:	01 00 00 00 	nop 
    2f6c:	01 00 00 00 	nop 

00002f70 <SW_trap_0xf7>:
    2f70:	91 d0 20 00 	ta  0
    2f74:	01 00 00 00 	nop 
    2f78:	01 00 00 00 	nop 
    2f7c:	01 00 00 00 	nop 

00002f80 <SW_trap_0xf8>:
    2f80:	91 d0 20 00 	ta  0
    2f84:	01 00 00 00 	nop 
    2f88:	01 00 00 00 	nop 
    2f8c:	01 00 00 00 	nop 

00002f90 <SW_trap_0xf9>:
    2f90:	91 d0 20 00 	ta  0
    2f94:	01 00 00 00 	nop 
    2f98:	01 00 00 00 	nop 
    2f9c:	01 00 00 00 	nop 

00002fa0 <SW_trap_0xfa>:
    2fa0:	91 d0 20 00 	ta  0
    2fa4:	01 00 00 00 	nop 
    2fa8:	01 00 00 00 	nop 
    2fac:	01 00 00 00 	nop 

00002fb0 <SW_trap_0xfb>:
    2fb0:	91 d0 20 00 	ta  0
    2fb4:	01 00 00 00 	nop 
    2fb8:	01 00 00 00 	nop 
    2fbc:	01 00 00 00 	nop 

00002fc0 <SW_trap_0xfc>:
    2fc0:	91 d0 20 00 	ta  0
    2fc4:	01 00 00 00 	nop 
    2fc8:	01 00 00 00 	nop 
    2fcc:	01 00 00 00 	nop 

00002fd0 <SW_trap_0xfd>:
    2fd0:	91 d0 20 00 	ta  0
    2fd4:	01 00 00 00 	nop 
    2fd8:	01 00 00 00 	nop 
    2fdc:	01 00 00 00 	nop 

00002fe0 <SW_trap_0xfe>:
    2fe0:	91 d0 20 00 	ta  0
    2fe4:	01 00 00 00 	nop 
    2fe8:	01 00 00 00 	nop 
    2fec:	01 00 00 00 	nop 
    2ff0:	01 00 00 00 	nop 
    2ff4:	01 00 00 00 	nop 
    2ff8:	01 00 00 00 	nop 
    2ffc:	01 00 00 00 	nop 

00003000 <cmp_idx>:
    3000:	80 a2 a0 00 	cmp  %o2, 0
    3004:	22 80 00 06 	be,a   301c <cmp_idx+0x1c>
    3008:	c2 12 00 00 	lduh  [ %o0 ], %g1
    300c:	d0 52 20 02 	ldsh  [ %o0 + 2 ], %o0
    3010:	c2 52 60 02 	ldsh  [ %o1 + 2 ], %g1
    3014:	81 c3 e0 08 	retl 
    3018:	90 22 00 01 	sub  %o0, %g1, %o0
    301c:	85 28 60 10 	sll  %g1, 0x10, %g2
    3020:	82 08 7f 00 	and  %g1, -256, %g1
    3024:	87 30 a0 18 	srl  %g2, 0x18, %g3
    3028:	82 10 c0 01 	or  %g3, %g1, %g1
    302c:	c2 32 00 00 	sth  %g1, [ %o0 ]
    3030:	c2 12 40 00 	lduh  [ %o1 ], %g1
    3034:	89 28 60 10 	sll  %g1, 0x10, %g4
    3038:	82 08 7f 00 	and  %g1, -256, %g1
    303c:	95 31 20 18 	srl  %g4, 0x18, %o2
    3040:	82 12 80 01 	or  %o2, %g1, %g1
    3044:	d0 52 20 02 	ldsh  [ %o0 + 2 ], %o0
    3048:	c2 32 40 00 	sth  %g1, [ %o1 ]
    304c:	c2 52 60 02 	ldsh  [ %o1 + 2 ], %g1
    3050:	81 c3 e0 08 	retl 
    3054:	90 22 00 01 	sub  %o0, %g1, %o0

00003058 <core_list_mergesort.constprop.1>:
    3058:	9d e3 bf a0 	save  %sp, -96, %sp
    305c:	80 a6 20 00 	cmp  %i0, 0
    3060:	02 80 00 2f 	be  311c <core_list_mergesort.constprop.1+0xc4>
    3064:	86 10 20 01 	mov  1, %g3
    3068:	9a 10 20 00 	clr  %o5
    306c:	88 10 20 00 	clr  %g4
    3070:	b6 10 20 00 	clr  %i3
    3074:	b6 06 e0 01 	inc  %i3
    3078:	84 10 00 18 	mov  %i0, %g2
    307c:	82 10 20 00 	clr  %g1
    3080:	c4 00 80 00 	ld  [ %g2 ], %g2
    3084:	80 a0 a0 00 	cmp  %g2, 0
    3088:	02 80 00 05 	be  309c <core_list_mergesort.constprop.1+0x44>
    308c:	82 00 60 01 	inc  %g1
    3090:	80 a0 40 03 	cmp  %g1, %g3
    3094:	26 bf ff fc 	bl,a   3084 <core_list_mergesort.constprop.1+0x2c>
    3098:	c4 00 80 00 	ld  [ %g2 ], %g2
    309c:	b8 10 00 18 	mov  %i0, %i4
    30a0:	ba 10 00 03 	mov  %g3, %i5
    30a4:	80 a0 60 00 	cmp  %g1, 0
    30a8:	02 80 00 10 	be  30e8 <core_list_mergesort.constprop.1+0x90>
    30ac:	b0 10 00 02 	mov  %g2, %i0
    30b0:	80 a6 20 00 	cmp  %i0, 0
    30b4:	12 80 00 1f 	bne  3130 <core_list_mergesort.constprop.1+0xd8>
    30b8:	80 a7 60 00 	cmp  %i5, 0
    30bc:	b4 10 00 1c 	mov  %i4, %i2
    30c0:	82 00 7f ff 	add  %g1, -1, %g1
    30c4:	f8 07 00 00 	ld  [ %i4 ], %i4
    30c8:	80 a1 20 00 	cmp  %g4, 0
    30cc:	22 80 00 17 	be,a   3128 <core_list_mergesort.constprop.1+0xd0>
    30d0:	9a 10 00 1a 	mov  %i2, %o5
    30d4:	f4 21 00 00 	st  %i2, [ %g4 ]
    30d8:	88 10 00 1a 	mov  %i2, %g4
    30dc:	80 a0 60 00 	cmp  %g1, 0
    30e0:	12 bf ff f5 	bne  30b4 <core_list_mergesort.constprop.1+0x5c>
    30e4:	80 a6 20 00 	cmp  %i0, 0
    30e8:	80 a6 20 00 	cmp  %i0, 0
    30ec:	12 80 00 2a 	bne  3194 <core_list_mergesort.constprop.1+0x13c>
    30f0:	80 a7 60 00 	cmp  %i5, 0
    30f4:	80 a6 20 00 	cmp  %i0, 0
    30f8:	32 bf ff e0 	bne,a   3078 <core_list_mergesort.constprop.1+0x20>
    30fc:	b6 06 e0 01 	inc  %i3
    3100:	80 a6 e0 01 	cmp  %i3, 1
    3104:	02 80 00 28 	be  31a4 <core_list_mergesort.constprop.1+0x14c>
    3108:	c0 21 00 00 	clr  [ %g4 ]
    310c:	b0 10 00 0d 	mov  %o5, %i0
    3110:	80 a6 20 00 	cmp  %i0, 0
    3114:	12 bf ff d5 	bne  3068 <core_list_mergesort.constprop.1+0x10>
    3118:	86 00 c0 03 	add  %g3, %g3, %g3
    311c:	c0 20 20 00 	clr  [ %g0 ]
    3120:	81 c7 e0 08 	ret 
    3124:	81 e8 00 00 	restore 
    3128:	10 bf ff ed 	b  30dc <core_list_mergesort.constprop.1+0x84>
    312c:	88 10 00 1a 	mov  %i2, %g4
    3130:	02 bf ff e4 	be  30c0 <core_list_mergesort.constprop.1+0x68>
    3134:	b4 10 00 1c 	mov  %i4, %i2
    3138:	f4 07 20 04 	ld  [ %i4 + 4 ], %i2
    313c:	c4 06 20 04 	ld  [ %i0 + 4 ], %g2
    3140:	f2 16 80 00 	lduh  [ %i2 ], %i1
    3144:	9f 2e 60 10 	sll  %i1, 0x10, %o7
    3148:	b2 0e 7f 00 	and  %i1, -256, %i1
    314c:	9f 33 e0 18 	srl  %o7, 0x18, %o7
    3150:	b2 13 c0 19 	or  %o7, %i1, %i1
    3154:	f2 36 80 00 	sth  %i1, [ %i2 ]
    3158:	f2 10 80 00 	lduh  [ %g2 ], %i1
    315c:	9f 2e 60 10 	sll  %i1, 0x10, %o7
    3160:	b2 0e 7f 00 	and  %i1, -256, %i1
    3164:	9f 33 e0 18 	srl  %o7, 0x18, %o7
    3168:	b2 13 c0 19 	or  %o7, %i1, %i1
    316c:	f2 30 80 00 	sth  %i1, [ %g2 ]
    3170:	f4 56 a0 02 	ldsh  [ %i2 + 2 ], %i2
    3174:	c4 50 a0 02 	ldsh  [ %g2 + 2 ], %g2
    3178:	b2 26 80 02 	sub  %i2, %g2, %i1
    317c:	80 a6 60 00 	cmp  %i1, 0
    3180:	04 bf ff cf 	ble  30bc <core_list_mergesort.constprop.1+0x64>
    3184:	b4 10 00 18 	mov  %i0, %i2
    3188:	ba 07 7f ff 	add  %i5, -1, %i5
    318c:	10 bf ff cf 	b  30c8 <core_list_mergesort.constprop.1+0x70>
    3190:	f0 06 00 00 	ld  [ %i0 ], %i0
    3194:	04 bf ff d9 	ble  30f8 <core_list_mergesort.constprop.1+0xa0>
    3198:	80 a6 20 00 	cmp  %i0, 0
    319c:	10 bf ff fb 	b  3188 <core_list_mergesort.constprop.1+0x130>
    31a0:	b4 10 00 18 	mov  %i0, %i2
    31a4:	81 c7 e0 08 	ret 
    31a8:	91 e8 00 0d 	restore  %g0, %o5, %o0

000031ac <calc_func>:
    31ac:	9d e3 bf a0 	save  %sp, -96, %sp
    31b0:	fa 16 00 00 	lduh  [ %i0 ], %i5
    31b4:	80 8f 60 80 	btst  0x80, %i5
    31b8:	12 80 00 2e 	bne  3270 <calc_func+0xc4>
    31bc:	83 2f 60 10 	sll  %i5, 0x10, %g1
    31c0:	83 38 60 13 	sra  %g1, 0x13, %g1
    31c4:	84 8f 60 07 	andcc  %i5, 7, %g2
    31c8:	82 08 60 0f 	and  %g1, 0xf, %g1
    31cc:	93 28 60 04 	sll  %g1, 4, %o1
    31d0:	92 12 40 01 	or  %o1, %g1, %o1
    31d4:	02 80 00 17 	be  3230 <calc_func+0x84>
    31d8:	98 10 00 09 	mov  %o1, %o4
    31dc:	80 a0 a0 01 	cmp  %g2, 1
    31e0:	02 80 00 28 	be  3280 <calc_func+0xd4>
    31e4:	b8 10 00 1d 	mov  %i5, %i4
    31e8:	d2 16 60 38 	lduh  [ %i1 + 0x38 ], %o1
    31ec:	40 00 08 1f 	call  5268 <crcu8>
    31f0:	90 0f 20 ff 	and  %i4, 0xff, %o0
    31f4:	83 2f 20 10 	sll  %i4, 0x10, %g1
    31f8:	87 2a 20 10 	sll  %o0, 0x10, %g3
    31fc:	91 30 60 18 	srl  %g1, 0x18, %o0
    3200:	40 00 08 1a 	call  5268 <crcu8>
    3204:	93 30 e0 10 	srl  %g3, 0x10, %o1
    3208:	d0 36 60 38 	sth  %o0, [ %i1 + 0x38 ]
    320c:	88 0f 20 7f 	and  %i4, 0x7f, %g4
    3210:	90 0f 7f 00 	and  %i5, -256, %o0
    3214:	82 10 00 04 	mov  %g4, %g1
    3218:	94 12 20 80 	or  %o0, 0x80, %o2
    321c:	96 12 80 04 	or  %o2, %g4, %o3
    3220:	d6 36 00 00 	sth  %o3, [ %i0 ]
    3224:	b0 08 60 7f 	and  %g1, 0x7f, %i0
    3228:	81 c7 e0 08 	ret 
    322c:	81 e8 00 00 	restore 
    3230:	80 a2 60 21 	cmp  %o1, 0x21
    3234:	24 80 00 02 	ble,a   323c <calc_func+0x90>
    3238:	98 10 20 22 	mov  0x22, %o4
    323c:	d0 06 60 18 	ld  [ %i1 + 0x18 ], %o0
    3240:	d2 06 60 14 	ld  [ %i1 + 0x14 ], %o1
    3244:	d4 56 40 00 	ldsh  [ %i1 ], %o2
    3248:	d6 56 60 02 	ldsh  [ %i1 + 2 ], %o3
    324c:	98 0b 20 ff 	and  %o4, 0xff, %o4
    3250:	40 00 07 86 	call  5068 <core_bench_state>
    3254:	da 16 60 38 	lduh  [ %i1 + 0x38 ], %o5
    3258:	c2 16 60 3e 	lduh  [ %i1 + 0x3e ], %g1
    325c:	80 a0 60 00 	cmp  %g1, 0
    3260:	12 bf ff e2 	bne  31e8 <calc_func+0x3c>
    3264:	b8 10 00 08 	mov  %o0, %i4
    3268:	10 bf ff e0 	b  31e8 <calc_func+0x3c>
    326c:	d0 36 60 3e 	sth  %o0, [ %i1 + 0x3e ]
    3270:	82 0f 60 7f 	and  %i5, 0x7f, %g1
    3274:	b0 08 60 7f 	and  %g1, 0x7f, %i0
    3278:	81 c7 e0 08 	ret 
    327c:	81 e8 00 00 	restore 
    3280:	90 06 60 28 	add  %i1, 0x28, %o0
    3284:	40 00 06 24 	call  4b14 <core_bench_matrix>
    3288:	d4 16 60 38 	lduh  [ %i1 + 0x38 ], %o2
    328c:	c2 16 60 3c 	lduh  [ %i1 + 0x3c ], %g1
    3290:	80 a0 60 00 	cmp  %g1, 0
    3294:	12 bf ff d5 	bne  31e8 <calc_func+0x3c>
    3298:	b8 10 00 08 	mov  %o0, %i4
    329c:	10 bf ff d3 	b  31e8 <calc_func+0x3c>
    32a0:	d0 36 60 3c 	sth  %o0, [ %i1 + 0x3c ]

000032a4 <cmp_complex>:
    32a4:	9d e3 bf a0 	save  %sp, -96, %sp
    32a8:	92 10 00 1a 	mov  %i2, %o1
    32ac:	7f ff ff c0 	call  31ac <calc_func>
    32b0:	90 10 00 18 	mov  %i0, %o0
    32b4:	92 10 00 1a 	mov  %i2, %o1
    32b8:	ba 10 00 08 	mov  %o0, %i5
    32bc:	7f ff ff bc 	call  31ac <calc_func>
    32c0:	90 10 00 19 	mov  %i1, %o0
    32c4:	83 2f 60 10 	sll  %i5, 0x10, %g1
    32c8:	91 2a 20 10 	sll  %o0, 0x10, %o0
    32cc:	85 38 60 10 	sra  %g1, 0x10, %g2
    32d0:	b1 3a 20 10 	sra  %o0, 0x10, %i0
    32d4:	b0 20 80 18 	sub  %g2, %i0, %i0
    32d8:	81 c7 e0 08 	ret 
    32dc:	81 e8 00 00 	restore 

000032e0 <copy_info>:
    32e0:	c4 12 40 00 	lduh  [ %o1 ], %g2
    32e4:	c2 12 60 02 	lduh  [ %o1 + 2 ], %g1
    32e8:	c4 32 00 00 	sth  %g2, [ %o0 ]
    32ec:	81 c3 e0 08 	retl 
    32f0:	c2 32 20 02 	sth  %g1, [ %o0 + 2 ]

000032f4 <core_list_init>:
    32f4:	9d e3 bf a0 	save  %sp, -96, %sp
    32f8:	81 80 20 00 	mov  %g0, %y
    32fc:	01 00 00 00 	nop 
    3300:	01 00 00 00 	nop 
    3304:	01 00 00 00 	nop 
    3308:	b0 76 20 14 	udiv  %i0, 0x14, %i0
    330c:	c0 26 40 00 	clr  [ %i1 ]
    3310:	b6 06 3f fe 	add  %i0, -2, %i3
    3314:	83 2e e0 03 	sll  %i3, 3, %g1
    3318:	ba 06 40 01 	add  %i1, %g1, %i5
    331c:	fa 26 60 04 	st  %i5, [ %i1 + 4 ]
    3320:	05 3f ff e0 	sethi  %hi(0xffff8000), %g2
    3324:	c0 37 60 02 	clrh  [ %i5 + 2 ]
    3328:	86 10 a0 80 	or  %g2, 0x80, %g3
    332c:	c6 36 40 01 	sth  %g3, [ %i1 + %g1 ]
    3330:	89 2e e0 02 	sll  %i3, 2, %g4
    3334:	82 06 60 10 	add  %i1, 0x10, %g1
    3338:	b0 07 40 04 	add  %i5, %g4, %i0
    333c:	86 06 60 08 	add  %i1, 8, %g3
    3340:	b8 07 60 04 	add  %i5, 4, %i4
    3344:	80 a7 40 01 	cmp  %i5, %g1
    3348:	08 80 00 06 	bleu  3360 <core_list_init+0x6c>
    334c:	84 10 20 00 	clr  %g2
    3350:	88 07 60 08 	add  %i5, 8, %g4
    3354:	80 a6 00 04 	cmp  %i0, %g4
    3358:	38 80 00 41 	bgu,a   345c <core_list_init+0x168>
    335c:	c6 26 40 00 	st  %g3, [ %i1 ]
    3360:	80 a6 e0 00 	cmp  %i3, 0
    3364:	02 80 00 21 	be  33e8 <core_list_init+0xf4>
    3368:	01 00 00 00 	nop 
    336c:	17 00 00 1f 	sethi  %hi(0x7c00), %o3
    3370:	94 10 00 1a 	mov  %i2, %o2
    3374:	82 10 20 00 	clr  %g1
    3378:	96 12 e3 ff 	or  %o3, 0x3ff, %o3
    337c:	88 00 e0 08 	add  %g3, 8, %g4
    3380:	80 a7 40 04 	cmp  %i5, %g4
    3384:	28 80 00 16 	bleu,a   33dc <core_list_init+0xe8>
    3388:	82 00 60 01 	inc  %g1
    338c:	9e 07 20 04 	add  %i4, 4, %o7
    3390:	80 a6 00 0f 	cmp  %i0, %o7
    3394:	28 80 00 12 	bleu,a   33dc <core_list_init+0xe8>
    3398:	82 00 60 01 	inc  %g1
    339c:	c4 20 c0 00 	st  %g2, [ %g3 ]
    33a0:	f8 20 e0 04 	st  %i4, [ %g3 + 4 ]
    33a4:	c6 26 40 00 	st  %g3, [ %i1 ]
    33a8:	9a 08 60 07 	and  %g1, 7, %o5
    33ac:	98 18 40 0a 	xor  %g1, %o2, %o4
    33b0:	d6 37 20 02 	sth  %o3, [ %i4 + 2 ]
    33b4:	98 0b 20 0f 	and  %o4, 0xf, %o4
    33b8:	84 10 00 03 	mov  %g3, %g2
    33bc:	99 2b 20 03 	sll  %o4, 3, %o4
    33c0:	86 10 00 04 	mov  %g4, %g3
    33c4:	88 13 00 0d 	or  %o4, %o5, %g4
    33c8:	9b 29 20 08 	sll  %g4, 8, %o5
    33cc:	88 13 40 04 	or  %o5, %g4, %g4
    33d0:	c8 37 00 00 	sth  %g4, [ %i4 ]
    33d4:	b8 10 00 0f 	mov  %o7, %i4
    33d8:	82 00 60 01 	inc  %g1
    33dc:	80 a6 c0 01 	cmp  %i3, %g1
    33e0:	32 bf ff e8 	bne,a   3380 <core_list_init+0x8c>
    33e4:	88 00 e0 08 	add  %g3, 8, %g4
    33e8:	81 80 20 00 	mov  %g0, %y
    33ec:	01 00 00 00 	nop 
    33f0:	01 00 00 00 	nop 
    33f4:	01 00 00 00 	nop 
    33f8:	ba 76 e0 05 	udiv  %i3, 5, %i5
    33fc:	82 10 20 01 	mov  1, %g1
    3400:	37 00 00 0f 	sethi  %hi(0x3c00), %i3
    3404:	88 10 20 02 	mov  2, %g4
    3408:	10 80 00 06 	b  3420 <core_list_init+0x12c>
    340c:	b0 16 e3 ff 	or  %i3, 0x3ff, %i0
    3410:	c2 30 a0 02 	sth  %g1, [ %g2 + 2 ]
    3414:	88 01 20 01 	inc  %g4
    3418:	82 00 60 01 	inc  %g1
    341c:	84 10 00 03 	mov  %g3, %g2
    3420:	c6 00 80 00 	ld  [ %g2 ], %g3
    3424:	80 a0 e0 00 	cmp  %g3, 0
    3428:	02 80 00 0b 	be  3454 <core_list_init+0x160>
    342c:	80 a7 40 01 	cmp  %i5, %g1
    3430:	18 bf ff f8 	bgu  3410 <core_list_init+0x11c>
    3434:	c4 00 a0 04 	ld  [ %g2 + 4 ], %g2
    3438:	b8 09 20 07 	and  %g4, 7, %i4
    343c:	b9 2f 20 08 	sll  %i4, 8, %i4
    3440:	b6 18 40 1a 	xor  %g1, %i2, %i3
    3444:	b6 17 00 1b 	or  %i4, %i3, %i3
    3448:	b8 0e c0 18 	and  %i3, %i0, %i4
    344c:	10 bf ff f2 	b  3414 <core_list_init+0x120>
    3450:	f8 30 a0 02 	sth  %i4, [ %g2 + 2 ]
    3454:	7f ff ff 01 	call  3058 <core_list_mergesort.constprop.1>
    3458:	91 e8 00 19 	restore  %g0, %i1, %o0
    345c:	f8 26 60 0c 	st  %i4, [ %i1 + 0xc ]
    3460:	c0 26 60 08 	clr  [ %i1 + 8 ]
    3464:	b8 10 3f ff 	mov  -1, %i4
    3468:	84 10 00 03 	mov  %g3, %g2
    346c:	f8 37 60 04 	sth  %i4, [ %i5 + 4 ]
    3470:	07 00 00 1f 	sethi  %hi(0x7c00), %g3
    3474:	b8 10 e3 ff 	or  %g3, 0x3ff, %i4	! 7fff <__ajit_write_irc_control_register__+0x3>
    3478:	86 10 00 01 	mov  %g1, %g3
    347c:	f8 37 60 06 	sth  %i4, [ %i5 + 6 ]
    3480:	10 bf ff b8 	b  3360 <core_list_init+0x6c>
    3484:	b8 10 00 04 	mov  %g4, %i4

00003488 <core_list_insert_new>:
    3488:	c2 02 80 00 	ld  [ %o2 ], %g1
    348c:	84 00 60 08 	add  %g1, 8, %g2
    3490:	80 a0 80 0c 	cmp  %g2, %o4
    3494:	3a 80 00 17 	bcc,a   34f0 <core_list_insert_new+0x68>
    3498:	82 10 20 00 	clr  %g1
    349c:	c6 02 c0 00 	ld  [ %o3 ], %g3
    34a0:	88 00 e0 04 	add  %g3, 4, %g4
    34a4:	80 a3 40 04 	cmp  %o5, %g4
    34a8:	28 80 00 12 	bleu,a   34f0 <core_list_insert_new+0x68>
    34ac:	82 10 20 00 	clr  %g1
    34b0:	c4 22 80 00 	st  %g2, [ %o2 ]
    34b4:	d4 02 00 00 	ld  [ %o0 ], %o2
    34b8:	d4 20 40 00 	st  %o2, [ %g1 ]
    34bc:	c2 22 00 00 	st  %g1, [ %o0 ]
    34c0:	d0 02 c0 00 	ld  [ %o3 ], %o0
    34c4:	d0 20 60 04 	st  %o0, [ %g1 + 4 ]
    34c8:	d8 02 c0 00 	ld  [ %o3 ], %o4
    34cc:	9a 03 20 04 	add  %o4, 4, %o5
    34d0:	da 22 c0 00 	st  %o5, [ %o3 ]
    34d4:	90 10 00 01 	mov  %g1, %o0
    34d8:	d6 12 40 00 	lduh  [ %o1 ], %o3
    34dc:	c4 00 60 04 	ld  [ %g1 + 4 ], %g2
    34e0:	d2 12 60 02 	lduh  [ %o1 + 2 ], %o1
    34e4:	d6 30 80 00 	sth  %o3, [ %g2 ]
    34e8:	81 c3 e0 08 	retl 
    34ec:	d2 30 a0 02 	sth  %o1, [ %g2 + 2 ]
    34f0:	81 c3 e0 08 	retl 
    34f4:	90 10 00 01 	mov  %g1, %o0

000034f8 <core_list_remove>:
    34f8:	c2 02 00 00 	ld  [ %o0 ], %g1
    34fc:	c4 02 20 04 	ld  [ %o0 + 4 ], %g2
    3500:	c8 00 60 04 	ld  [ %g1 + 4 ], %g4
    3504:	c6 00 40 00 	ld  [ %g1 ], %g3
    3508:	c8 22 20 04 	st  %g4, [ %o0 + 4 ]
    350c:	c6 22 00 00 	st  %g3, [ %o0 ]
    3510:	c4 20 60 04 	st  %g2, [ %g1 + 4 ]
    3514:	c0 20 40 00 	clr  [ %g1 ]
    3518:	81 c3 e0 08 	retl 
    351c:	90 10 00 01 	mov  %g1, %o0

00003520 <core_list_undo_remove>:
    3520:	c4 02 20 04 	ld  [ %o0 + 4 ], %g2
    3524:	c8 02 60 04 	ld  [ %o1 + 4 ], %g4
    3528:	c6 02 40 00 	ld  [ %o1 ], %g3
    352c:	c8 22 20 04 	st  %g4, [ %o0 + 4 ]
    3530:	c6 22 00 00 	st  %g3, [ %o0 ]
    3534:	c4 22 60 04 	st  %g2, [ %o1 + 4 ]
    3538:	81 c3 e0 08 	retl 
    353c:	d0 22 40 00 	st  %o0, [ %o1 ]

00003540 <core_list_find>:
    3540:	c4 52 60 02 	ldsh  [ %o1 + 2 ], %g2
    3544:	80 a0 a0 00 	cmp  %g2, 0
    3548:	06 80 00 14 	bl  3598 <core_list_find+0x58>
    354c:	80 a2 20 00 	cmp  %o0, 0
    3550:	02 80 00 23 	be  35dc <core_list_find+0x9c>
    3554:	01 00 00 00 	nop 
    3558:	c2 02 20 04 	ld  [ %o0 + 4 ], %g1
    355c:	c2 50 60 02 	ldsh  [ %g1 + 2 ], %g1
    3560:	80 a0 80 01 	cmp  %g2, %g1
    3564:	32 80 00 08 	bne,a   3584 <core_list_find+0x44>
    3568:	d0 02 00 00 	ld  [ %o0 ], %o0
    356c:	30 80 00 1c 	b,a   35dc <core_list_find+0x9c>
    3570:	c2 50 60 02 	ldsh  [ %g1 + 2 ], %g1
    3574:	80 a0 80 01 	cmp  %g2, %g1
    3578:	02 80 00 19 	be  35dc <core_list_find+0x9c>
    357c:	01 00 00 00 	nop 
    3580:	d0 02 00 00 	ld  [ %o0 ], %o0
    3584:	80 a2 20 00 	cmp  %o0, 0
    3588:	32 bf ff fa 	bne,a   3570 <core_list_find+0x30>
    358c:	c2 02 20 04 	ld  [ %o0 + 4 ], %g1
    3590:	81 c3 e0 08 	retl 
    3594:	01 00 00 00 	nop 
    3598:	02 80 00 11 	be  35dc <core_list_find+0x9c>
    359c:	01 00 00 00 	nop 
    35a0:	c6 52 40 00 	ldsh  [ %o1 ], %g3
    35a4:	c2 02 20 04 	ld  [ %o0 + 4 ], %g1
    35a8:	c2 08 60 01 	ldub  [ %g1 + 1 ], %g1
    35ac:	80 a0 40 03 	cmp  %g1, %g3
    35b0:	32 80 00 08 	bne,a   35d0 <core_list_find+0x90>
    35b4:	d0 02 00 00 	ld  [ %o0 ], %o0
    35b8:	30 80 00 09 	b,a   35dc <core_list_find+0x9c>
    35bc:	c2 08 60 01 	ldub  [ %g1 + 1 ], %g1
    35c0:	80 a0 40 03 	cmp  %g1, %g3
    35c4:	02 80 00 06 	be  35dc <core_list_find+0x9c>
    35c8:	01 00 00 00 	nop 
    35cc:	d0 02 00 00 	ld  [ %o0 ], %o0
    35d0:	80 a2 20 00 	cmp  %o0, 0
    35d4:	32 bf ff fa 	bne,a   35bc <core_list_find+0x7c>
    35d8:	c2 02 20 04 	ld  [ %o0 + 4 ], %g1
    35dc:	81 c3 e0 08 	retl 
    35e0:	01 00 00 00 	nop 

000035e4 <core_list_reverse>:
    35e4:	80 a2 20 00 	cmp  %o0, 0
    35e8:	02 80 00 0c 	be  3618 <core_list_reverse+0x34>
    35ec:	84 10 20 00 	clr  %g2
    35f0:	10 80 00 04 	b  3600 <core_list_reverse+0x1c>
    35f4:	c2 02 00 00 	ld  [ %o0 ], %g1
    35f8:	90 10 00 01 	mov  %g1, %o0
    35fc:	c2 02 00 00 	ld  [ %o0 ], %g1
    3600:	c4 22 00 00 	st  %g2, [ %o0 ]
    3604:	80 a0 60 00 	cmp  %g1, 0
    3608:	12 bf ff fc 	bne  35f8 <core_list_reverse+0x14>
    360c:	84 10 00 08 	mov  %o0, %g2
    3610:	81 c3 e0 08 	retl 
    3614:	01 00 00 00 	nop 
    3618:	81 c3 e0 08 	retl 
    361c:	90 10 20 00 	clr  %o0	! 0 <_start>

00003620 <core_list_mergesort>:
    3620:	9d e3 bf a0 	save  %sp, -96, %sp
    3624:	80 a6 20 00 	cmp  %i0, 0
    3628:	02 80 00 2d 	be  36dc <core_list_mergesort+0xbc>
    362c:	b6 10 20 01 	mov  1, %i3
    3630:	a2 10 00 18 	mov  %i0, %l1
    3634:	a6 10 20 00 	clr  %l3
    3638:	a0 10 20 00 	clr  %l0
    363c:	b0 10 20 00 	clr  %i0
    3640:	a6 04 e0 01 	inc  %l3
    3644:	ba 10 00 11 	mov  %l1, %i5
    3648:	b8 10 20 00 	clr  %i4
    364c:	fa 07 40 00 	ld  [ %i5 ], %i5
    3650:	80 a7 60 00 	cmp  %i5, 0
    3654:	02 80 00 05 	be  3668 <core_list_mergesort+0x48>
    3658:	b8 07 20 01 	inc  %i4
    365c:	80 a6 c0 1c 	cmp  %i3, %i4
    3660:	34 bf ff fc 	bg,a   3650 <core_list_mergesort+0x30>
    3664:	fa 07 40 00 	ld  [ %i5 ], %i5
    3668:	80 a7 20 00 	cmp  %i4, 0
    366c:	02 80 00 10 	be  36ac <core_list_mergesort+0x8c>
    3670:	a4 10 00 1b 	mov  %i3, %l2
    3674:	80 a7 60 00 	cmp  %i5, 0
    3678:	12 80 00 1e 	bne  36f0 <core_list_mergesort+0xd0>
    367c:	80 a4 a0 00 	cmp  %l2, 0
    3680:	82 10 00 11 	mov  %l1, %g1
    3684:	b8 07 3f ff 	add  %i4, -1, %i4
    3688:	e2 04 40 00 	ld  [ %l1 ], %l1
    368c:	80 a4 20 00 	cmp  %l0, 0
    3690:	22 80 00 16 	be,a   36e8 <core_list_mergesort+0xc8>
    3694:	b0 10 00 01 	mov  %g1, %i0
    3698:	c2 24 00 00 	st  %g1, [ %l0 ]
    369c:	a0 10 00 01 	mov  %g1, %l0
    36a0:	80 a7 20 00 	cmp  %i4, 0
    36a4:	12 bf ff f5 	bne  3678 <core_list_mergesort+0x58>
    36a8:	80 a7 60 00 	cmp  %i5, 0
    36ac:	80 a7 60 00 	cmp  %i5, 0
    36b0:	12 80 00 1c 	bne  3720 <core_list_mergesort+0x100>
    36b4:	80 a4 a0 00 	cmp  %l2, 0
    36b8:	a2 97 60 00 	orcc  %i5, 0, %l1
    36bc:	32 bf ff e2 	bne,a   3644 <core_list_mergesort+0x24>
    36c0:	a6 04 e0 01 	inc  %l3
    36c4:	80 a4 e0 01 	cmp  %l3, 1
    36c8:	02 80 00 06 	be  36e0 <core_list_mergesort+0xc0>
    36cc:	c0 24 00 00 	clr  [ %l0 ]
    36d0:	80 a6 20 00 	cmp  %i0, 0
    36d4:	12 bf ff d7 	bne  3630 <core_list_mergesort+0x10>
    36d8:	b6 06 c0 1b 	add  %i3, %i3, %i3
    36dc:	c0 20 20 00 	clr  [ %g0 ]
    36e0:	81 c7 e0 08 	ret 
    36e4:	81 e8 00 00 	restore 
    36e8:	10 bf ff ee 	b  36a0 <core_list_mergesort+0x80>
    36ec:	a0 10 00 01 	mov  %g1, %l0
    36f0:	02 bf ff e5 	be  3684 <core_list_mergesort+0x64>
    36f4:	82 10 00 11 	mov  %l1, %g1
    36f8:	d0 04 60 04 	ld  [ %l1 + 4 ], %o0
    36fc:	d2 07 60 04 	ld  [ %i5 + 4 ], %o1
    3700:	9f c6 40 00 	call  %i1
    3704:	94 10 00 1a 	mov  %i2, %o2
    3708:	80 a2 20 00 	cmp  %o0, 0
    370c:	04 bf ff dd 	ble  3680 <core_list_mergesort+0x60>
    3710:	82 10 00 1d 	mov  %i5, %g1
    3714:	a4 04 bf ff 	add  %l2, -1, %l2
    3718:	10 bf ff dd 	b  368c <core_list_mergesort+0x6c>
    371c:	fa 07 40 00 	ld  [ %i5 ], %i5
    3720:	24 bf ff e7 	ble,a   36bc <core_list_mergesort+0x9c>
    3724:	a2 97 60 00 	orcc  %i5, 0, %l1
    3728:	10 bf ff fb 	b  3714 <core_list_mergesort+0xf4>
    372c:	82 10 00 1d 	mov  %i5, %g1

00003730 <core_bench_list>:
    3730:	9d e3 bf a0 	save  %sp, -96, %sp
    3734:	da 56 20 04 	ldsh  [ %i0 + 4 ], %o5
    3738:	80 a3 60 00 	cmp  %o5, 0
    373c:	04 80 00 c6 	ble  3a54 <core_bench_list+0x324>
    3740:	fa 06 20 24 	ld  [ %i0 + 0x24 ], %i5
    3744:	b4 10 00 19 	mov  %i1, %i2
    3748:	88 10 20 00 	clr  %g4
    374c:	98 10 20 00 	clr  %o4
    3750:	9e 10 20 00 	clr  %o7
    3754:	b8 10 20 00 	clr  %i4
    3758:	b7 2e a0 10 	sll  %i2, 0x10, %i3
    375c:	82 09 20 ff 	and  %g4, 0xff, %g1
    3760:	87 3e e0 10 	sra  %i3, 0x10, %g3
    3764:	80 a0 e0 00 	cmp  %g3, 0
    3768:	06 80 00 84 	bl  3978 <core_bench_list+0x248>
    376c:	a0 10 00 01 	mov  %g1, %l0
    3770:	80 a7 60 00 	cmp  %i5, 0
    3774:	22 80 00 96 	be,a   39cc <core_bench_list+0x29c>
    3778:	c2 07 40 00 	ld  [ %i5 ], %g1
    377c:	c2 07 60 04 	ld  [ %i5 + 4 ], %g1
    3780:	d4 50 60 02 	ldsh  [ %g1 + 2 ], %o2
    3784:	80 a0 c0 0a 	cmp  %g3, %o2
    3788:	12 80 00 08 	bne  37a8 <core_bench_list+0x78>
    378c:	82 10 00 1d 	mov  %i5, %g1
    3790:	10 80 00 0e 	b  37c8 <core_bench_list+0x98>
    3794:	86 10 20 00 	clr  %g3
    3798:	d0 52 e0 02 	ldsh  [ %o3 + 2 ], %o0
    379c:	80 a0 c0 08 	cmp  %g3, %o0
    37a0:	22 80 00 0a 	be,a   37c8 <core_bench_list+0x98>
    37a4:	86 10 20 00 	clr  %g3
    37a8:	c2 00 40 00 	ld  [ %g1 ], %g1
    37ac:	80 a0 60 00 	cmp  %g1, 0
    37b0:	32 bf ff fa 	bne,a   3798 <core_bench_list+0x68>
    37b4:	d6 00 60 04 	ld  [ %g1 + 4 ], %o3
    37b8:	82 10 20 00 	clr  %g1
    37bc:	10 80 00 03 	b  37c8 <core_bench_list+0x98>
    37c0:	86 10 20 00 	clr  %g3
    37c4:	ba 10 00 02 	mov  %g2, %i5
    37c8:	c4 07 40 00 	ld  [ %i5 ], %g2
    37cc:	c6 27 40 00 	st  %g3, [ %i5 ]
    37d0:	80 a0 a0 00 	cmp  %g2, 0
    37d4:	12 bf ff fc 	bne  37c4 <core_bench_list+0x94>
    37d8:	86 10 00 1d 	mov  %i5, %g3
    37dc:	80 a0 60 00 	cmp  %g1, 0
    37e0:	22 80 00 7b 	be,a   39cc <core_bench_list+0x29c>
    37e4:	c2 07 40 00 	ld  [ %i5 ], %g1
    37e8:	d2 00 60 04 	ld  [ %g1 + 4 ], %o1
    37ec:	d4 12 40 00 	lduh  [ %o1 ], %o2
    37f0:	80 8a a0 01 	btst  1, %o2
    37f4:	02 80 00 05 	be  3808 <core_bench_list+0xd8>
    37f8:	9e 03 e0 01 	inc  %o7
    37fc:	97 32 a0 09 	srl  %o2, 9, %o3
    3800:	90 0a e0 01 	and  %o3, 1, %o0
    3804:	b8 02 00 1c 	add  %o0, %i4, %i4
    3808:	c4 00 40 00 	ld  [ %g1 ], %g2
    380c:	80 a0 a0 00 	cmp  %g2, 0
    3810:	02 80 00 08 	be  3830 <core_bench_list+0x100>
    3814:	80 a6 e0 00 	cmp  %i3, 0
    3818:	c6 00 80 00 	ld  [ %g2 ], %g3
    381c:	c6 20 40 00 	st  %g3, [ %g1 ]
    3820:	c2 07 40 00 	ld  [ %i5 ], %g1
    3824:	c2 20 80 00 	st  %g1, [ %g2 ]
    3828:	c4 27 40 00 	st  %g2, [ %i5 ]
    382c:	80 a6 e0 00 	cmp  %i3, 0
    3830:	06 80 00 04 	bl  3840 <core_bench_list+0x110>
    3834:	88 01 20 01 	inc  %g4
    3838:	b4 06 a0 01 	inc  %i2
    383c:	b7 2e a0 10 	sll  %i2, 0x10, %i3
    3840:	83 29 20 10 	sll  %g4, 0x10, %g1
    3844:	83 38 60 10 	sra  %g1, 0x10, %g1
    3848:	80 a0 40 0d 	cmp  %g1, %o5
    384c:	12 bf ff c5 	bne  3760 <core_bench_list+0x30>
    3850:	82 09 20 ff 	and  %g4, 0xff, %g1
    3854:	9b 2b e0 02 	sll  %o7, 2, %o5
    3858:	98 23 40 0c 	sub  %o5, %o4, %o4
    385c:	b8 03 00 1c 	add  %o4, %i4, %i4
    3860:	80 a6 60 00 	cmp  %i1, 0
    3864:	04 80 00 07 	ble  3880 <core_bench_list+0x150>
    3868:	90 10 00 1d 	mov  %i5, %o0
    386c:	94 10 00 18 	mov  %i0, %o2
    3870:	31 00 00 0c 	sethi  %hi(0x3000), %i0
    3874:	7f ff ff 6b 	call  3620 <core_list_mergesort>
    3878:	92 16 22 a4 	or  %i0, 0x2a4, %o1	! 32a4 <cmp_complex>
    387c:	ba 10 00 08 	mov  %o0, %i5
    3880:	c2 07 40 00 	ld  [ %i5 ], %g1
    3884:	f4 00 40 00 	ld  [ %g1 ], %i2
    3888:	d0 00 60 04 	ld  [ %g1 + 4 ], %o0
    388c:	f2 06 a0 04 	ld  [ %i2 + 4 ], %i1
    3890:	d2 06 80 00 	ld  [ %i2 ], %o1
    3894:	f2 20 60 04 	st  %i1, [ %g1 + 4 ]
    3898:	d2 20 40 00 	st  %o1, [ %g1 ]
    389c:	d0 26 a0 04 	st  %o0, [ %i2 + 4 ]
    38a0:	c0 26 80 00 	clr  [ %i2 ]
    38a4:	b7 3e e0 10 	sra  %i3, 0x10, %i3
    38a8:	80 a6 e0 00 	cmp  %i3, 0
    38ac:	06 80 00 59 	bl  3a10 <core_bench_list+0x2e0>
    38b0:	82 10 00 1d 	mov  %i5, %g1
    38b4:	de 00 60 04 	ld  [ %g1 + 4 ], %o7
    38b8:	d4 53 e0 02 	ldsh  [ %o7 + 2 ], %o2
    38bc:	80 a6 c0 0a 	cmp  %i3, %o2
    38c0:	22 80 00 49 	be,a   39e4 <core_bench_list+0x2b4>
    38c4:	b0 10 00 01 	mov  %g1, %i0
    38c8:	c2 00 40 00 	ld  [ %g1 ], %g1
    38cc:	80 a0 60 00 	cmp  %g1, 0
    38d0:	32 bf ff fa 	bne,a   38b8 <core_bench_list+0x188>
    38d4:	de 00 60 04 	ld  [ %g1 + 4 ], %o7
    38d8:	c2 07 40 00 	ld  [ %i5 ], %g1
    38dc:	b0 90 60 00 	orcc  %g1, 0, %i0
    38e0:	22 80 00 0e 	be,a   3918 <core_bench_list+0x1e8>
    38e4:	c6 00 60 04 	ld  [ %g1 + 4 ], %g3
    38e8:	97 2f 20 10 	sll  %i4, 0x10, %o3
    38ec:	c2 07 60 04 	ld  [ %i5 + 4 ], %g1
    38f0:	93 32 e0 10 	srl  %o3, 0x10, %o1
    38f4:	40 00 06 af 	call  53b0 <crc16>
    38f8:	d0 50 40 00 	ldsh  [ %g1 ], %o0
    38fc:	f0 06 00 00 	ld  [ %i0 ], %i0
    3900:	80 a6 20 00 	cmp  %i0, 0
    3904:	12 80 00 38 	bne  39e4 <core_bench_list+0x2b4>
    3908:	b8 10 00 08 	mov  %o0, %i4
    390c:	d0 06 a0 04 	ld  [ %i2 + 4 ], %o0
    3910:	c2 07 40 00 	ld  [ %i5 ], %g1
    3914:	c6 00 60 04 	ld  [ %g1 + 4 ], %g3
    3918:	c4 00 40 00 	ld  [ %g1 ], %g2
    391c:	c6 26 a0 04 	st  %g3, [ %i2 + 4 ]
    3920:	c4 26 80 00 	st  %g2, [ %i2 ]
    3924:	d0 20 60 04 	st  %o0, [ %g1 + 4 ]
    3928:	f4 20 40 00 	st  %i2, [ %g1 ]
    392c:	7f ff fd cb 	call  3058 <core_list_mergesort.constprop.1>
    3930:	90 10 00 1d 	mov  %i5, %o0
    3934:	e0 02 00 00 	ld  [ %o0 ], %l0
    3938:	80 a4 20 00 	cmp  %l0, 0
    393c:	02 80 00 0b 	be  3968 <core_bench_list+0x238>
    3940:	b2 10 00 08 	mov  %o0, %i1
    3944:	c2 06 60 04 	ld  [ %i1 + 4 ], %g1
    3948:	b9 2f 20 10 	sll  %i4, 0x10, %i4
    394c:	d0 50 40 00 	ldsh  [ %g1 ], %o0
    3950:	40 00 06 98 	call  53b0 <crc16>
    3954:	93 37 20 10 	srl  %i4, 0x10, %o1
    3958:	e0 04 00 00 	ld  [ %l0 ], %l0
    395c:	80 a4 20 00 	cmp  %l0, 0
    3960:	12 bf ff f9 	bne  3944 <core_bench_list+0x214>
    3964:	b8 10 00 08 	mov  %o0, %i4
    3968:	89 2f 20 10 	sll  %i4, 0x10, %g4
    396c:	b1 31 20 10 	srl  %g4, 0x10, %i0
    3970:	81 c7 e0 08 	ret 
    3974:	81 e8 00 00 	restore 
    3978:	80 a7 60 00 	cmp  %i5, 0
    397c:	02 80 00 13 	be  39c8 <core_bench_list+0x298>
    3980:	90 10 00 01 	mov  %g1, %o0
    3984:	c2 07 60 04 	ld  [ %i5 + 4 ], %g1
    3988:	c2 08 60 01 	ldub  [ %g1 + 1 ], %g1
    398c:	80 a0 40 08 	cmp  %g1, %o0
    3990:	12 80 00 08 	bne  39b0 <core_bench_list+0x280>
    3994:	82 10 00 1d 	mov  %i5, %g1
    3998:	10 bf ff 8c 	b  37c8 <core_bench_list+0x98>
    399c:	86 10 20 00 	clr  %g3
    39a0:	d2 08 a0 01 	ldub  [ %g2 + 1 ], %o1
    39a4:	80 a2 40 08 	cmp  %o1, %o0
    39a8:	02 bf ff 88 	be  37c8 <core_bench_list+0x98>
    39ac:	86 10 20 00 	clr  %g3
    39b0:	c2 00 40 00 	ld  [ %g1 ], %g1
    39b4:	80 a0 60 00 	cmp  %g1, 0
    39b8:	32 bf ff fa 	bne,a   39a0 <core_bench_list+0x270>
    39bc:	c4 00 60 04 	ld  [ %g1 + 4 ], %g2
    39c0:	10 bf ff 82 	b  37c8 <core_bench_list+0x98>
    39c4:	86 10 20 00 	clr  %g3
    39c8:	c2 07 40 00 	ld  [ %i5 ], %g1
    39cc:	98 03 20 01 	inc  %o4
    39d0:	c2 00 60 04 	ld  [ %g1 + 4 ], %g1
    39d4:	c2 48 40 00 	ldsb  [ %g1 ], %g1
    39d8:	82 08 60 01 	and  %g1, 1, %g1
    39dc:	10 bf ff 94 	b  382c <core_bench_list+0xfc>
    39e0:	b8 00 40 1c 	add  %g1, %i4, %i4
    39e4:	97 2f 20 10 	sll  %i4, 0x10, %o3
    39e8:	c2 07 60 04 	ld  [ %i5 + 4 ], %g1
    39ec:	93 32 e0 10 	srl  %o3, 0x10, %o1
    39f0:	40 00 06 70 	call  53b0 <crc16>
    39f4:	d0 50 40 00 	ldsh  [ %g1 ], %o0
    39f8:	f0 06 00 00 	ld  [ %i0 ], %i0
    39fc:	80 a6 20 00 	cmp  %i0, 0
    3a00:	12 bf ff f9 	bne  39e4 <core_bench_list+0x2b4>
    3a04:	b8 10 00 08 	mov  %o0, %i4
    3a08:	10 bf ff c2 	b  3910 <core_bench_list+0x1e0>
    3a0c:	d0 06 a0 04 	ld  [ %i2 + 4 ], %o0
    3a10:	a0 0c 20 ff 	and  %l0, 0xff, %l0
    3a14:	b0 10 00 1d 	mov  %i5, %i0
    3a18:	c2 06 20 04 	ld  [ %i0 + 4 ], %g1
    3a1c:	c2 08 60 01 	ldub  [ %g1 + 1 ], %g1
    3a20:	80 a0 40 10 	cmp  %g1, %l0
    3a24:	02 bf ff f1 	be  39e8 <core_bench_list+0x2b8>
    3a28:	97 2f 20 10 	sll  %i4, 0x10, %o3
    3a2c:	f0 06 00 00 	ld  [ %i0 ], %i0
    3a30:	80 a6 20 00 	cmp  %i0, 0
    3a34:	32 bf ff fa 	bne,a   3a1c <core_bench_list+0x2ec>
    3a38:	c2 06 20 04 	ld  [ %i0 + 4 ], %g1
    3a3c:	c2 07 40 00 	ld  [ %i5 ], %g1
    3a40:	b0 90 60 00 	orcc  %g1, 0, %i0
    3a44:	32 bf ff ab 	bne,a   38f0 <core_bench_list+0x1c0>
    3a48:	c2 07 60 04 	ld  [ %i5 + 4 ], %g1
    3a4c:	10 bf ff b3 	b  3918 <core_bench_list+0x1e8>
    3a50:	c6 00 60 04 	ld  [ %g1 + 4 ], %g3
    3a54:	b8 10 20 00 	clr  %i4
    3a58:	a0 10 20 00 	clr  %l0
    3a5c:	10 bf ff 81 	b  3860 <core_bench_list+0x130>
    3a60:	b7 2e 60 10 	sll  %i1, 0x10, %i3

00003a64 <iterate>:
    3a64:	9d e3 bf a0 	save  %sp, -96, %sp
    3a68:	11 00 00 80 	sethi  %hi(0x20000), %o0
    3a6c:	f8 06 20 1c 	ld  [ %i0 + 0x1c ], %i4
    3a70:	c0 36 20 38 	clrh  [ %i0 + 0x38 ]
    3a74:	c0 36 20 3a 	clrh  [ %i0 + 0x3a ]
    3a78:	c0 36 20 3c 	clrh  [ %i0 + 0x3c ]
    3a7c:	c0 36 20 3e 	clrh  [ %i0 + 0x3e ]
    3a80:	90 12 20 20 	or  %o0, 0x20, %o0
    3a84:	40 00 09 57 	call  5fe0 <ee_printf>
    3a88:	92 10 00 1c 	mov  %i4, %o1
    3a8c:	80 a7 20 00 	cmp  %i4, 0
    3a90:	02 80 00 19 	be  3af4 <iterate+0x90>
    3a94:	ba 10 20 00 	clr  %i5
    3a98:	92 10 20 01 	mov  1, %o1
    3a9c:	7f ff ff 25 	call  3730 <core_bench_list>
    3aa0:	90 10 00 18 	mov  %i0, %o0
    3aa4:	83 2a 20 10 	sll  %o0, 0x10, %g1
    3aa8:	d2 16 20 38 	lduh  [ %i0 + 0x38 ], %o1
    3aac:	40 00 06 0b 	call  52d8 <crcu16>
    3ab0:	91 30 60 10 	srl  %g1, 0x10, %o0
    3ab4:	92 10 3f ff 	mov  -1, %o1
    3ab8:	d0 36 20 38 	sth  %o0, [ %i0 + 0x38 ]
    3abc:	7f ff ff 1d 	call  3730 <core_bench_list>
    3ac0:	90 10 00 18 	mov  %i0, %o0
    3ac4:	85 2a 20 10 	sll  %o0, 0x10, %g2
    3ac8:	d2 16 20 38 	lduh  [ %i0 + 0x38 ], %o1
    3acc:	40 00 06 03 	call  52d8 <crcu16>
    3ad0:	91 30 a0 10 	srl  %g2, 0x10, %o0
    3ad4:	80 a7 60 00 	cmp  %i5, 0
    3ad8:	12 80 00 03 	bne  3ae4 <iterate+0x80>
    3adc:	d0 36 20 38 	sth  %o0, [ %i0 + 0x38 ]
    3ae0:	d0 36 20 3a 	sth  %o0, [ %i0 + 0x3a ]
    3ae4:	ba 07 60 01 	inc  %i5
    3ae8:	80 a7 40 1c 	cmp  %i5, %i4
    3aec:	12 bf ff ec 	bne  3a9c <iterate+0x38>
    3af0:	92 10 20 01 	mov  1, %o1
    3af4:	81 c7 e0 08 	ret 
    3af8:	91 e8 20 00 	restore  %g0, 0, %o0

00003afc <ajit_main>:
    3afc:	9d e3 bf 38 	save  %sp, -200, %sp
    3b00:	40 00 04 42 	call  4c08 <portable_init>
    3b04:	90 07 bf fa 	add  %fp, -6, %o0
    3b08:	40 00 05 ba 	call  51f0 <get_seed_32>
    3b0c:	90 10 20 01 	mov  1, %o0
    3b10:	d0 37 bf b8 	sth  %o0, [ %fp + -72 ]
    3b14:	40 00 05 b7 	call  51f0 <get_seed_32>
    3b18:	90 10 20 02 	mov  2, %o0
    3b1c:	d0 37 bf ba 	sth  %o0, [ %fp + -70 ]
    3b20:	40 00 05 b4 	call  51f0 <get_seed_32>
    3b24:	90 10 20 03 	mov  3, %o0
    3b28:	d0 37 bf bc 	sth  %o0, [ %fp + -68 ]
    3b2c:	40 00 05 b1 	call  51f0 <get_seed_32>
    3b30:	90 10 20 04 	mov  4, %o0
    3b34:	d0 27 bf d4 	st  %o0, [ %fp + -44 ]
    3b38:	40 00 05 ae 	call  51f0 <get_seed_32>
    3b3c:	90 10 20 05 	mov  5, %o0
    3b40:	82 92 20 00 	orcc  %o0, 0, %g1
    3b44:	22 80 01 8a 	be,a   416c <ajit_main+0x670>
    3b48:	82 10 20 07 	mov  7, %g1
    3b4c:	ba 08 60 01 	and  %g1, 1, %i5
    3b50:	c2 27 bf d8 	st  %g1, [ %fp + -40 ]
    3b54:	88 10 00 1d 	mov  %i5, %g4
    3b58:	d0 07 bf b8 	ld  [ %fp + -72 ], %o0
    3b5c:	80 a2 20 00 	cmp  %o0, 0
    3b60:	12 80 01 75 	bne  4134 <ajit_main+0x638>
    3b64:	13 00 00 40 	sethi  %hi(0x10000), %o1
    3b68:	c4 57 bf bc 	ldsh  [ %fp + -68 ], %g2
    3b6c:	80 a0 a0 00 	cmp  %g2, 0
    3b70:	22 80 01 6c 	be,a   4120 <ajit_main+0x624>
    3b74:	c0 37 bf b8 	clrh  [ %fp + -72 ]
    3b78:	1f 00 00 81 	sethi  %hi(0x20400), %o7
    3b7c:	c0 37 bf f8 	clrh  [ %fp + -8 ]
    3b80:	a0 13 e3 10 	or  %o7, 0x310, %l0
    3b84:	84 88 60 02 	andcc  %g1, 2, %g2
    3b88:	e0 27 bf c0 	st  %l0, [ %fp + -64 ]
    3b8c:	02 80 00 03 	be  3b98 <ajit_main+0x9c>
    3b90:	a2 10 00 1d 	mov  %i5, %l1
    3b94:	a2 07 60 01 	add  %i5, 1, %l1
    3b98:	80 88 60 04 	btst  4, %g1
    3b9c:	32 80 00 02 	bne,a   3ba4 <ajit_main+0xa8>
    3ba0:	a2 04 60 01 	inc  %l1
    3ba4:	a5 2c 60 10 	sll  %l1, 0x10, %l2
    3ba8:	b8 10 27 d0 	mov  0x7d0, %i4
    3bac:	ba 07 bf c4 	add  %fp, -60, %i5
    3bb0:	a7 34 a0 10 	srl  %l2, 0x10, %l3
    3bb4:	81 80 20 00 	mov  %g0, %y
    3bb8:	01 00 00 00 	nop 
    3bbc:	01 00 00 00 	nop 
    3bc0:	01 00 00 00 	nop 
    3bc4:	90 77 00 13 	udiv  %i4, %l3, %o0
    3bc8:	86 10 20 00 	clr  %g3
    3bcc:	b6 10 20 00 	clr  %i3
    3bd0:	d0 27 bf d0 	st  %o0, [ %fp + -48 ]
    3bd4:	b4 10 20 01 	mov  1, %i2
    3bd8:	a9 2e 80 03 	sll  %i2, %g3, %l4
    3bdc:	80 8d 00 01 	btst  %l4, %g1
    3be0:	02 80 00 09 	be  3c04 <ajit_main+0x108>
    3be4:	86 00 e0 01 	inc  %g3
    3be8:	ab 2e e0 10 	sll  %i3, 0x10, %l5
    3bec:	f2 07 bf c0 	ld  [ %fp + -64 ], %i1
    3bf0:	b6 06 e0 01 	inc  %i3
    3bf4:	ad 35 60 10 	srl  %l5, 0x10, %l6
    3bf8:	ae 5d 80 08 	smul  %l6, %o0, %l7
    3bfc:	b0 06 40 17 	add  %i1, %l7, %i0
    3c00:	f0 27 40 00 	st  %i0, [ %i5 ]
    3c04:	80 a0 e0 03 	cmp  %g3, 3
    3c08:	12 bf ff f4 	bne  3bd8 <ajit_main+0xdc>
    3c0c:	ba 07 60 04 	add  %i5, 4, %i5
    3c10:	80 a1 20 00 	cmp  %g4, 0
    3c14:	12 80 01 3d 	bne  4108 <ajit_main+0x60c>
    3c18:	d2 07 bf c4 	ld  [ %fp + -60 ], %o1
    3c1c:	80 a0 a0 00 	cmp  %g2, 0
    3c20:	32 80 01 31 	bne,a   40e4 <ajit_main+0x5e8>
    3c24:	c2 57 bf b8 	ldsh  [ %fp + -72 ], %g1
    3c28:	80 88 60 04 	btst  4, %g1
    3c2c:	32 80 01 29 	bne,a   40d0 <ajit_main+0x5d4>
    3c30:	d0 07 bf d0 	ld  [ %fp + -48 ], %o0
    3c34:	c2 07 bf d4 	ld  [ %fp + -44 ], %g1
    3c38:	80 a0 60 00 	cmp  %g1, 0
    3c3c:	22 80 00 f7 	be,a   4018 <ajit_main+0x51c>
    3c40:	11 00 00 81 	sethi  %hi(0x20400), %o0
    3c44:	40 00 03 ca 	call  4b6c <start_time>
    3c48:	35 00 00 1e 	sethi  %hi(0x7800), %i2
    3c4c:	40 00 05 69 	call  51f0 <get_seed_32>
    3c50:	90 10 20 04 	mov  4, %o0
    3c54:	d0 27 bf d4 	st  %o0, [ %fp + -44 ]
    3c58:	7f ff ff 83 	call  3a64 <iterate>
    3c5c:	90 07 bf b8 	add  %fp, -72, %o0
    3c60:	40 00 03 ca 	call  4b88 <stop_time>
    3c64:	a8 16 a3 05 	or  %i2, 0x305, %l4
    3c68:	40 00 03 cf 	call  4ba4 <get_time>
    3c6c:	01 00 00 00 	nop 
    3c70:	92 10 20 00 	clr  %o1	! 0 <_start>
    3c74:	b2 10 00 08 	mov  %o0, %i1
    3c78:	40 00 05 ce 	call  53b0 <crc16>
    3c7c:	d0 57 bf b8 	ldsh  [ %fp + -72 ], %o0
    3c80:	a5 2a 20 10 	sll  %o0, 0x10, %l2
    3c84:	d0 57 bf ba 	ldsh  [ %fp + -70 ], %o0
    3c88:	40 00 05 ca 	call  53b0 <crc16>
    3c8c:	93 34 a0 10 	srl  %l2, 0x10, %o1
    3c90:	a7 2a 20 10 	sll  %o0, 0x10, %l3
    3c94:	d0 57 bf bc 	ldsh  [ %fp + -68 ], %o0
    3c98:	40 00 05 c6 	call  53b0 <crc16>
    3c9c:	93 34 e0 10 	srl  %l3, 0x10, %o1
    3ca0:	b9 2a 20 10 	sll  %o0, 0x10, %i4
    3ca4:	d0 57 bf d2 	ldsh  [ %fp + -46 ], %o0
    3ca8:	40 00 05 c2 	call  53b0 <crc16>
    3cac:	93 37 20 10 	srl  %i4, 0x10, %o1
    3cb0:	a7 2a 20 10 	sll  %o0, 0x10, %l3
    3cb4:	83 34 e0 10 	srl  %l3, 0x10, %g1
    3cb8:	80 a0 40 14 	cmp  %g1, %l4
    3cbc:	22 80 01 e2 	be,a   4444 <ajit_main+0x948>
    3cc0:	82 10 20 01 	mov  1, %g1
    3cc4:	08 80 01 2e 	bleu  417c <ajit_main+0x680>
    3cc8:	2b 00 00 06 	sethi  %hi(0x1800), %l5
    3ccc:	05 00 00 22 	sethi  %hi(0x8800), %g2
    3cd0:	88 10 a2 02 	or  %g2, 0x202, %g4	! 8a02 <__ajit_ta_0__+0x95e>
    3cd4:	80 a0 40 04 	cmp  %g1, %g4
    3cd8:	02 80 01 d5 	be  442c <ajit_main+0x930>
    3cdc:	15 00 00 3a 	sethi  %hi(0xe800), %o2
    3ce0:	90 12 a1 f5 	or  %o2, 0x1f5, %o0	! e9f5 <__ajit_ta_0__+0x6951>
    3ce4:	80 a0 40 08 	cmp  %g1, %o0
    3ce8:	02 80 01 92 	be  4330 <ajit_main+0x834>
    3cec:	92 10 20 03 	mov  3, %o1
    3cf0:	a0 10 3f ff 	mov  -1, %l0
    3cf4:	a2 10 3f ff 	mov  -1, %l1
    3cf8:	e0 37 bf b6 	sth  %l0, [ %fp + -74 ]
    3cfc:	31 00 00 81 	sethi  %hi(0x20400), %i0
    3d00:	40 00 05 eb 	call  54ac <check_data_types>
    3d04:	35 00 00 80 	sethi  %hi(0x20000), %i2
    3d08:	d2 07 bf d0 	ld  [ %fp + -48 ], %o1
    3d0c:	ba 0a 20 ff 	and  %o0, 0xff, %i5
    3d10:	40 00 08 b4 	call  5fe0 <ee_printf>
    3d14:	90 16 a1 e8 	or  %i2, 0x1e8, %o0
    3d18:	92 10 00 19 	mov  %i1, %o1
    3d1c:	21 00 00 80 	sethi  %hi(0x20000), %l0
    3d20:	40 00 08 b0 	call  5fe0 <ee_printf>
    3d24:	90 14 22 00 	or  %l0, 0x200, %o0	! 20200 <state_known_crc+0x1ec>
    3d28:	40 00 03 a5 	call  4bbc <time_in_secs>
    3d2c:	90 10 00 19 	mov  %i1, %o0
    3d30:	17 00 00 80 	sethi  %hi(0x20000), %o3
    3d34:	c4 1f bf 98 	ldd  [ %fp + -104 ], %g2
    3d38:	c1 3f bf 98 	std  %f0, [ %fp + -104 ]
    3d3c:	90 12 e2 18 	or  %o3, 0x218, %o0
    3d40:	92 10 00 02 	mov  %g2, %o1
    3d44:	40 00 08 a7 	call  5fe0 <ee_printf>
    3d48:	94 10 00 03 	mov  %g3, %o2
    3d4c:	40 00 03 9c 	call  4bbc <time_in_secs>
    3d50:	90 10 00 19 	mov  %i1, %o0
    3d54:	03 00 00 81 	sethi  %hi(0x20400), %g1
    3d58:	a2 07 40 11 	add  %i5, %l1, %l1
    3d5c:	cd 18 62 88 	ldd  [ %g1 + 0x288 ], %f6
    3d60:	81 a8 0a c6 	fcmped  %f0, %f6
    3d64:	01 00 00 00 	nop 
    3d68:	1d 80 00 16 	fbule  3dc0 <ajit_main+0x2c4>
    3d6c:	b6 10 00 11 	mov  %l1, %i3
    3d70:	d2 06 22 bc 	ld  [ %i0 + 0x2bc ], %o1
    3d74:	c2 07 bf d4 	ld  [ %fp + -44 ], %g1
    3d78:	c3 07 bf a4 	ld  [ %fp + -92 ], %f1
    3d7c:	82 5a 40 01 	smul  %o1, %g1, %g1
    3d80:	c2 27 bf a4 	st  %g1, [ %fp + -92 ]
    3d84:	80 a0 60 00 	cmp  %g1, 0
    3d88:	06 80 01 bc 	bl  4478 <ajit_main+0x97c>
    3d8c:	91 a0 19 01 	fitod  %f1, %f8
    3d90:	90 10 00 19 	mov  %i1, %o0
    3d94:	40 00 03 8a 	call  4bbc <time_in_secs>
    3d98:	d1 3f bf a8 	std  %f8, [ %fp + -88 ]
    3d9c:	c4 1f bf 98 	ldd  [ %fp + -104 ], %g2
    3da0:	d1 1f bf a8 	ldd  [ %fp + -88 ], %f8
    3da4:	19 00 00 80 	sethi  %hi(0x20000), %o4
    3da8:	92 10 00 02 	mov  %g2, %o1
    3dac:	9d a2 09 c0 	fdivd  %f8, %f0, %f14
    3db0:	90 13 22 30 	or  %o4, 0x230, %o0
    3db4:	dd 3f bf 98 	std  %f14, [ %fp + -104 ]
    3db8:	40 00 08 8a 	call  5fe0 <ee_printf>
    3dbc:	94 10 00 03 	mov  %g3, %o2
    3dc0:	40 00 03 7f 	call  4bbc <time_in_secs>
    3dc4:	90 10 00 19 	mov  %i1, %o0
    3dc8:	03 00 00 81 	sethi  %hi(0x20400), %g1
    3dcc:	e1 18 62 98 	ldd  [ %g1 + 0x298 ], %f16	! 20698 <state_known_crc+0x684>
    3dd0:	81 a8 0a d0 	fcmped  %f0, %f16
    3dd4:	01 00 00 00 	nop 
    3dd8:	09 80 01 89 	fbl  43fc <ajit_main+0x900>
    3ddc:	1b 00 00 80 	sethi  %hi(0x20000), %o5
    3de0:	c2 07 bf d4 	ld  [ %fp + -44 ], %g1
    3de4:	de 06 22 bc 	ld  [ %i0 + 0x2bc ], %o7
    3de8:	2d 00 00 80 	sethi  %hi(0x20000), %l6
    3dec:	92 5b c0 01 	smul  %o7, %g1, %o1
    3df0:	40 00 08 7c 	call  5fe0 <ee_printf>
    3df4:	90 15 a2 88 	or  %l6, 0x288, %o0
    3df8:	2b 00 00 80 	sethi  %hi(0x20000), %l5
    3dfc:	29 00 00 80 	sethi  %hi(0x20000), %l4
    3e00:	92 15 62 b8 	or  %l5, 0x2b8, %o1
    3e04:	40 00 08 77 	call  5fe0 <ee_printf>
    3e08:	90 15 22 a0 	or  %l4, 0x2a0, %o0
    3e0c:	07 00 00 80 	sethi  %hi(0x20000), %g3
    3e10:	2f 00 00 80 	sethi  %hi(0x20000), %l7
    3e14:	90 10 e2 d0 	or  %g3, 0x2d0, %o0
    3e18:	40 00 08 72 	call  5fe0 <ee_printf>
    3e1c:	92 15 e2 e8 	or  %l7, 0x2e8, %o1
    3e20:	05 00 00 80 	sethi  %hi(0x20000), %g2
    3e24:	23 00 00 80 	sethi  %hi(0x20000), %l1
    3e28:	90 10 a3 50 	or  %g2, 0x350, %o0
    3e2c:	40 00 08 6d 	call  5fe0 <ee_printf>
    3e30:	92 14 63 68 	or  %l1, 0x368, %o1
    3e34:	93 34 e0 10 	srl  %l3, 0x10, %o1
    3e38:	27 00 00 80 	sethi  %hi(0x20000), %l3
    3e3c:	40 00 08 69 	call  5fe0 <ee_printf>
    3e40:	90 14 e3 70 	or  %l3, 0x370, %o0	! 20370 <state_known_crc+0x35c>
    3e44:	c8 07 bf d8 	ld  [ %fp + -40 ], %g4
    3e48:	80 89 20 01 	btst  1, %g4
    3e4c:	02 80 00 1a 	be  3eb4 <ajit_main+0x3b8>
    3e50:	c2 06 22 bc 	ld  [ %i0 + 0x2bc ], %g1
    3e54:	80 a0 60 00 	cmp  %g1, 0
    3e58:	02 80 01 90 	be  4498 <ajit_main+0x99c>
    3e5c:	15 00 00 80 	sethi  %hi(0x20000), %o2
    3e60:	09 00 00 81 	sethi  %hi(0x20400), %g4
    3e64:	b8 10 20 00 	clr  %i4
    3e68:	ba 12 a3 90 	or  %o2, 0x390, %i5
    3e6c:	a4 11 22 bc 	or  %g4, 0x2bc, %l2
    3e70:	b5 2f 20 10 	sll  %i4, 0x10, %i2
    3e74:	93 36 a0 10 	srl  %i2, 0x10, %o1
    3e78:	90 10 00 1d 	mov  %i5, %o0
    3e7c:	a1 2a 60 02 	sll  %o1, 2, %l0
    3e80:	83 2a 60 06 	sll  %o1, 6, %g1
    3e84:	82 04 00 01 	add  %l0, %g1, %g1
    3e88:	82 07 80 01 	add  %fp, %g1, %g1
    3e8c:	40 00 08 55 	call  5fe0 <ee_printf>
    3e90:	d4 10 7f f2 	lduh  [ %g1 + -14 ], %o2
    3e94:	b8 07 20 01 	inc  %i4
    3e98:	c2 04 80 00 	ld  [ %l2 ], %g1
    3e9c:	91 2f 20 10 	sll  %i4, 0x10, %o0
    3ea0:	97 32 20 10 	srl  %o0, 0x10, %o3
    3ea4:	80 a2 c0 01 	cmp  %o3, %g1
    3ea8:	0a bf ff f3 	bcs  3e74 <ajit_main+0x378>
    3eac:	b5 2f 20 10 	sll  %i4, 0x10, %i2
    3eb0:	c8 07 bf d8 	ld  [ %fp + -40 ], %g4
    3eb4:	80 89 20 02 	btst  2, %g4
    3eb8:	02 80 00 1b 	be  3f24 <ajit_main+0x428>
    3ebc:	80 89 20 04 	btst  4, %g4
    3ec0:	80 a0 60 00 	cmp  %g1, 0
    3ec4:	02 80 00 48 	be  3fe4 <ajit_main+0x4e8>
    3ec8:	13 00 00 81 	sethi  %hi(0x20400), %o1
    3ecc:	19 00 00 80 	sethi  %hi(0x20000), %o4
    3ed0:	a6 10 20 00 	clr  %l3
    3ed4:	ac 12 62 bc 	or  %o1, 0x2bc, %l6
    3ed8:	a8 13 23 b0 	or  %o4, 0x3b0, %l4
    3edc:	9b 2c e0 10 	sll  %l3, 0x10, %o5
    3ee0:	93 33 60 10 	srl  %o5, 0x10, %o1
    3ee4:	90 10 00 14 	mov  %l4, %o0
    3ee8:	9f 2a 60 02 	sll  %o1, 2, %o7
    3eec:	83 2a 60 06 	sll  %o1, 6, %g1
    3ef0:	82 03 c0 01 	add  %o7, %g1, %g1
    3ef4:	82 07 80 01 	add  %fp, %g1, %g1
    3ef8:	40 00 08 3a 	call  5fe0 <ee_printf>
    3efc:	d4 10 7f f4 	lduh  [ %g1 + -12 ], %o2
    3f00:	a6 04 e0 01 	inc  %l3
    3f04:	c2 05 80 00 	ld  [ %l6 ], %g1
    3f08:	87 2c e0 10 	sll  %l3, 0x10, %g3
    3f0c:	85 30 e0 10 	srl  %g3, 0x10, %g2
    3f10:	80 a0 80 01 	cmp  %g2, %g1
    3f14:	0a bf ff f3 	bcs  3ee0 <ajit_main+0x3e4>
    3f18:	9b 2c e0 10 	sll  %l3, 0x10, %o5
    3f1c:	c8 07 bf d8 	ld  [ %fp + -40 ], %g4
    3f20:	80 89 20 04 	btst  4, %g4
    3f24:	02 80 00 1a 	be  3f8c <ajit_main+0x490>
    3f28:	80 a0 60 00 	cmp  %g1, 0
    3f2c:	22 80 00 2f 	be,a   3fe8 <ajit_main+0x4ec>
    3f30:	b7 2e e0 10 	sll  %i3, 0x10, %i3
    3f34:	15 00 00 80 	sethi  %hi(0x20000), %o2
    3f38:	b8 10 20 00 	clr  %i4
    3f3c:	25 00 00 81 	sethi  %hi(0x20400), %l2
    3f40:	b4 12 a3 d0 	or  %o2, 0x3d0, %i2
    3f44:	a1 2f 20 10 	sll  %i4, 0x10, %l0
    3f48:	ba 14 a2 bc 	or  %l2, 0x2bc, %i5
    3f4c:	93 34 20 10 	srl  %l0, 0x10, %o1
    3f50:	90 10 00 1a 	mov  %i2, %o0
    3f54:	97 2a 60 02 	sll  %o1, 2, %o3
    3f58:	83 2a 60 06 	sll  %o1, 6, %g1
    3f5c:	82 02 c0 01 	add  %o3, %g1, %g1
    3f60:	82 07 80 01 	add  %fp, %g1, %g1
    3f64:	40 00 08 1f 	call  5fe0 <ee_printf>
    3f68:	d4 10 7f f6 	lduh  [ %g1 + -10 ], %o2
    3f6c:	b8 07 20 01 	inc  %i4
    3f70:	c2 07 40 00 	ld  [ %i5 ], %g1
    3f74:	91 2f 20 10 	sll  %i4, 0x10, %o0
    3f78:	93 32 20 10 	srl  %o0, 0x10, %o1
    3f7c:	80 a2 40 01 	cmp  %o1, %g1
    3f80:	0a bf ff f3 	bcs  3f4c <ajit_main+0x450>
    3f84:	a1 2f 20 10 	sll  %i4, 0x10, %l0
    3f88:	80 a0 60 00 	cmp  %g1, 0
    3f8c:	02 80 00 16 	be  3fe4 <ajit_main+0x4e8>
    3f90:	2d 00 00 81 	sethi  %hi(0x20400), %l6
    3f94:	19 00 00 80 	sethi  %hi(0x20000), %o4
    3f98:	a4 10 20 00 	clr  %l2
    3f9c:	a8 15 a2 bc 	or  %l6, 0x2bc, %l4
    3fa0:	a6 13 23 f0 	or  %o4, 0x3f0, %l3
    3fa4:	9b 2c a0 10 	sll  %l2, 0x10, %o5
    3fa8:	93 33 60 10 	srl  %o5, 0x10, %o1
    3fac:	90 10 00 13 	mov  %l3, %o0
    3fb0:	83 2a 60 06 	sll  %o1, 6, %g1
    3fb4:	9f 2a 60 02 	sll  %o1, 2, %o7
    3fb8:	82 03 c0 01 	add  %o7, %g1, %g1
    3fbc:	82 07 80 01 	add  %fp, %g1, %g1
    3fc0:	40 00 08 08 	call  5fe0 <ee_printf>
    3fc4:	d4 10 7f f0 	lduh  [ %g1 + -16 ], %o2
    3fc8:	a4 04 a0 01 	inc  %l2
    3fcc:	c2 05 00 00 	ld  [ %l4 ], %g1
    3fd0:	87 2c a0 10 	sll  %l2, 0x10, %g3
    3fd4:	85 30 e0 10 	srl  %g3, 0x10, %g2
    3fd8:	80 a0 80 01 	cmp  %g2, %g1
    3fdc:	0a bf ff f3 	bcs  3fa8 <ajit_main+0x4ac>
    3fe0:	9b 2c a0 10 	sll  %l2, 0x10, %o5
    3fe4:	b7 2e e0 10 	sll  %i3, 0x10, %i3
    3fe8:	89 3e e0 10 	sra  %i3, 0x10, %g4
    3fec:	80 a1 20 00 	cmp  %g4, 0
    3ff0:	22 80 00 de 	be,a   4368 <ajit_main+0x86c>
    3ff4:	3b 00 00 81 	sethi  %hi(0x20400), %i5
    3ff8:	04 80 01 06 	ble  4410 <ajit_main+0x914>
    3ffc:	31 00 00 81 	sethi  %hi(0x20400), %i0
    4000:	40 00 07 f8 	call  5fe0 <ee_printf>
    4004:	90 16 20 88 	or  %i0, 0x88, %o0	! 20488 <state_known_crc+0x474>
    4008:	40 00 03 19 	call  4c6c <portable_fini>
    400c:	90 07 bf fa 	add  %fp, -6, %o0
    4010:	81 c7 e0 08 	ret 
    4014:	81 e8 00 00 	restore 
    4018:	82 10 20 01 	mov  1, %g1
    401c:	a0 12 22 78 	or  %o0, 0x278, %l0
    4020:	92 00 40 01 	add  %g1, %g1, %o1
    4024:	83 28 60 03 	sll  %g1, 3, %g1
    4028:	82 02 40 01 	add  %o1, %g1, %g1
    402c:	40 00 02 d0 	call  4b6c <start_time>
    4030:	c2 27 bf d4 	st  %g1, [ %fp + -44 ]
    4034:	7f ff fe 8c 	call  3a64 <iterate>
    4038:	90 07 bf b8 	add  %fp, -72, %o0
    403c:	40 00 02 d3 	call  4b88 <stop_time>
    4040:	01 00 00 00 	nop 
    4044:	40 00 02 d8 	call  4ba4 <get_time>
    4048:	01 00 00 00 	nop 
    404c:	40 00 02 dc 	call  4bbc <time_in_secs>
    4050:	01 00 00 00 	nop 
    4054:	d1 1c 00 00 	ldd  [ %l0 ], %f8
    4058:	81 a8 0a c8 	fcmped  %f0, %f8
    405c:	01 00 00 00 	nop 
    4060:	09 bf ff f0 	fbl  4020 <ajit_main+0x524>
    4064:	c2 07 bf d4 	ld  [ %fp + -44 ], %g1
    4068:	03 00 00 81 	sethi  %hi(0x20400), %g1
    406c:	c5 18 62 80 	ldd  [ %g1 + 0x280 ], %f2	! 20680 <state_known_crc+0x66c>
    4070:	81 a8 0a c2 	fcmped  %f0, %f2
    4074:	01 00 00 00 	nop 
    4078:	37 80 00 a8 	fbge,a   4318 <ajit_main+0x81c>
    407c:	89 a0 08 c2 	fsubd  %f0, %f2, %f4
    4080:	81 a0 1a 40 	fdtoi  %f0, %f0
    4084:	c2 07 bf a4 	ld  [ %fp + -92 ], %g1
    4088:	c1 27 bf a4 	st  %f0, [ %fp + -92 ]
    408c:	80 a0 60 00 	cmp  %g1, 0
    4090:	22 80 00 02 	be,a   4098 <ajit_main+0x59c>
    4094:	82 10 20 01 	mov  1, %g1
    4098:	98 10 20 0a 	mov  0xa, %o4
    409c:	1f 00 00 80 	sethi  %hi(0x20000), %o7
    40a0:	81 80 20 00 	mov  %g0, %y
    40a4:	01 00 00 00 	nop 
    40a8:	01 00 00 00 	nop 
    40ac:	01 00 00 00 	nop 
    40b0:	9a 73 00 01 	udiv  %o4, %g1, %o5
    40b4:	c2 07 bf d4 	ld  [ %fp + -44 ], %g1
    40b8:	90 13 e0 38 	or  %o7, 0x38, %o0
    40bc:	a2 03 60 01 	add  %o5, 1, %l1
    40c0:	92 5c 40 01 	smul  %l1, %g1, %o1
    40c4:	40 00 07 c7 	call  5fe0 <ee_printf>
    40c8:	d2 27 bf d4 	st  %o1, [ %fp + -44 ]
    40cc:	30 bf fe de 	b,a   3c44 <ajit_main+0x148>
    40d0:	d2 57 bf b8 	ldsh  [ %fp + -72 ], %o1
    40d4:	40 00 02 fb 	call  4cc0 <core_init_state>
    40d8:	d4 07 bf cc 	ld  [ %fp + -52 ], %o2
    40dc:	10 bf fe d7 	b  3c38 <ajit_main+0x13c>
    40e0:	c2 07 bf d4 	ld  [ %fp + -44 ], %g1
    40e4:	c8 57 bf ba 	ldsh  [ %fp + -70 ], %g4
    40e8:	d0 07 bf d0 	ld  [ %fp + -48 ], %o0
    40ec:	d2 07 bf c8 	ld  [ %fp + -56 ], %o1
    40f0:	95 29 20 10 	sll  %g4, 0x10, %o2
    40f4:	94 12 80 01 	or  %o2, %g1, %o2
    40f8:	40 00 00 ed 	call  44ac <core_init_matrix>
    40fc:	96 07 bf e0 	add  %fp, -32, %o3
    4100:	10 bf fe ca 	b  3c28 <ajit_main+0x12c>
    4104:	c2 07 bf d8 	ld  [ %fp + -40 ], %g1
    4108:	7f ff fc 7b 	call  32f4 <core_list_init>
    410c:	d4 57 bf b8 	ldsh  [ %fp + -72 ], %o2
    4110:	c2 07 bf d8 	ld  [ %fp + -40 ], %g1
    4114:	d0 27 bf dc 	st  %o0, [ %fp + -36 ]
    4118:	10 bf fe c1 	b  3c1c <ajit_main+0x120>
    411c:	84 08 60 02 	and  %g1, 2, %g2
    4120:	86 10 20 66 	mov  0x66, %g3
    4124:	d0 07 bf b8 	ld  [ %fp + -72 ], %o0
    4128:	13 00 00 40 	sethi  %hi(0x10000), %o1
    412c:	c6 37 bf bc 	sth  %g3, [ %fp + -68 ]
    4130:	c0 37 bf ba 	clrh  [ %fp + -70 ]
    4134:	80 a2 00 09 	cmp  %o0, %o1
    4138:	12 bf fe 91 	bne  3b7c <ajit_main+0x80>
    413c:	1f 00 00 81 	sethi  %hi(0x20400), %o7
    4140:	d4 57 bf bc 	ldsh  [ %fp + -68 ], %o2
    4144:	80 a2 a0 00 	cmp  %o2, 0
    4148:	32 bf fe 8e 	bne,a   3b80 <ajit_main+0x84>
    414c:	c0 37 bf f8 	clrh  [ %fp + -8 ]
    4150:	17 00 00 0d 	sethi  %hi(0x3400), %o3
    4154:	9a 10 20 66 	mov  0x66, %o5
    4158:	98 12 e0 15 	or  %o3, 0x15, %o4
    415c:	da 37 bf bc 	sth  %o5, [ %fp + -68 ]
    4160:	d8 37 bf b8 	sth  %o4, [ %fp + -72 ]
    4164:	10 bf fe 86 	b  3b7c <ajit_main+0x80>
    4168:	d8 37 bf ba 	sth  %o4, [ %fp + -70 ]
    416c:	88 10 20 01 	mov  1, %g4
    4170:	c2 27 bf d8 	st  %g1, [ %fp + -40 ]
    4174:	10 bf fe 79 	b  3b58 <ajit_main+0x5c>
    4178:	ba 10 20 01 	mov  1, %i5
    417c:	ac 15 60 f2 	or  %l5, 0xf2, %l6
    4180:	80 a0 40 16 	cmp  %g1, %l6
    4184:	02 80 00 b6 	be  445c <ajit_main+0x960>
    4188:	37 00 00 13 	sethi  %hi(0x4c00), %i3
    418c:	ae 16 e2 af 	or  %i3, 0x2af, %l7	! 4eaf <core_state_transition+0xa7>
    4190:	80 a0 40 17 	cmp  %g1, %l7
    4194:	12 bf fe d8 	bne  3cf4 <ajit_main+0x1f8>
    4198:	a0 10 3f ff 	mov  -1, %l0
    419c:	07 00 00 80 	sethi  %hi(0x20000), %g3
    41a0:	b0 10 20 02 	mov  2, %i0
    41a4:	90 10 e0 b8 	or  %g3, 0xb8, %o0
    41a8:	40 00 07 8e 	call  5fe0 <ee_printf>
    41ac:	f0 37 bf b6 	sth  %i0, [ %fp + -74 ]
    41b0:	31 00 00 81 	sethi  %hi(0x20400), %i0
    41b4:	c2 06 22 bc 	ld  [ %i0 + 0x2bc ], %g1	! 206bc <default_num_contexts>
    41b8:	80 a0 60 00 	cmp  %g1, 0
    41bc:	02 bf fe d1 	be  3d00 <ajit_main+0x204>
    41c0:	a2 10 20 00 	clr  %l1
    41c4:	de 17 bf b6 	lduh  [ %fp + -74 ], %o7
    41c8:	a4 10 20 00 	clr  %l2
    41cc:	ae 10 20 00 	clr  %l7
    41d0:	b9 2b e0 10 	sll  %o7, 0x10, %i4
    41d4:	ba 16 22 bc 	or  %i0, 0x2bc, %i5
    41d8:	23 00 00 80 	sethi  %hi(0x20000), %l1
    41dc:	b5 3f 20 10 	sra  %i4, 0x10, %i2
    41e0:	10 80 00 0c 	b  4210 <ajit_main+0x714>
    41e4:	21 00 00 80 	sethi  %hi(0x20000), %l0
    41e8:	ac 07 80 1b 	add  %fp, %i3, %l6
    41ec:	c2 15 bf f8 	lduh  [ %l6 + -8 ], %g1
    41f0:	ae 05 e0 01 	inc  %l7
    41f4:	d0 07 40 00 	ld  [ %i5 ], %o0
    41f8:	82 00 40 12 	add  %g1, %l2, %g1
    41fc:	a5 2d e0 10 	sll  %l7, 0x10, %l2
    4200:	b9 34 a0 10 	srl  %l2, 0x10, %i4
    4204:	80 a7 00 08 	cmp  %i4, %o0
    4208:	1a 80 00 42 	bcc  4310 <ajit_main+0x814>
    420c:	a4 10 00 01 	mov  %g1, %l2
    4210:	a9 2d e0 10 	sll  %l7, 0x10, %l4
    4214:	b7 35 20 10 	srl  %l4, 0x10, %i3
    4218:	ad 2e e0 02 	sll  %i3, 2, %l6
    421c:	ab 2e e0 06 	sll  %i3, 6, %l5
    4220:	a8 05 80 15 	add  %l6, %l5, %l4
    4224:	b8 07 80 14 	add  %fp, %l4, %i4
    4228:	c2 07 3f d8 	ld  [ %i4 + -40 ], %g1
    422c:	c0 37 3f f8 	clrh  [ %i4 + -8 ]
    4230:	80 88 60 01 	btst  1, %g1
    4234:	02 80 00 11 	be  4278 <ajit_main+0x77c>
    4238:	80 88 60 02 	btst  2, %g1
    423c:	84 06 80 1a 	add  %i2, %i2, %g2
    4240:	d4 17 3f f2 	lduh  [ %i4 + -14 ], %o2
    4244:	86 14 60 00 	mov  %l1, %g3
    4248:	d6 10 c0 02 	lduh  [ %g3 + %g2 ], %o3
    424c:	80 a2 80 0b 	cmp  %o2, %o3
    4250:	02 80 00 09 	be  4274 <ajit_main+0x778>
    4254:	09 00 00 80 	sethi  %hi(0x20000), %g4
    4258:	92 10 00 1b 	mov  %i3, %o1
    425c:	40 00 07 61 	call  5fe0 <ee_printf>
    4260:	90 11 21 50 	or  %g4, 0x150, %o0
    4264:	d4 17 3f f8 	lduh  [ %i4 + -8 ], %o2
    4268:	c2 07 3f d8 	ld  [ %i4 + -40 ], %g1
    426c:	90 02 a0 01 	add  %o2, 1, %o0
    4270:	d0 37 3f f8 	sth  %o0, [ %i4 + -8 ]
    4274:	80 88 60 02 	btst  2, %g1
    4278:	02 80 00 12 	be  42c0 <ajit_main+0x7c4>
    427c:	80 88 60 04 	btst  4, %g1
    4280:	b8 07 80 14 	add  %fp, %l4, %i4
    4284:	92 14 20 0a 	or  %l0, 0xa, %o1
    4288:	96 06 80 1a 	add  %i2, %i2, %o3
    428c:	d4 17 3f f4 	lduh  [ %i4 + -12 ], %o2
    4290:	d6 12 40 0b 	lduh  [ %o1 + %o3 ], %o3
    4294:	80 a2 80 0b 	cmp  %o2, %o3
    4298:	02 80 00 09 	be  42bc <ajit_main+0x7c0>
    429c:	19 00 00 80 	sethi  %hi(0x20000), %o4
    42a0:	92 10 00 1b 	mov  %i3, %o1
    42a4:	40 00 07 4f 	call  5fe0 <ee_printf>
    42a8:	90 13 21 80 	or  %o4, 0x180, %o0
    42ac:	da 17 3f f8 	lduh  [ %i4 + -8 ], %o5
    42b0:	c2 07 3f d8 	ld  [ %i4 + -40 ], %g1
    42b4:	9e 03 60 01 	add  %o5, 1, %o7
    42b8:	de 37 3f f8 	sth  %o7, [ %i4 + -8 ]
    42bc:	80 88 60 04 	btst  4, %g1
    42c0:	22 bf ff ca 	be,a   41e8 <ajit_main+0x6ec>
    42c4:	b6 05 80 15 	add  %l6, %l5, %i3
    42c8:	aa 07 80 14 	add  %fp, %l4, %l5
    42cc:	29 00 00 80 	sethi  %hi(0x20000), %l4
    42d0:	82 06 80 1a 	add  %i2, %i2, %g1
    42d4:	d4 15 7f f6 	lduh  [ %l5 + -10 ], %o2
    42d8:	86 15 20 14 	or  %l4, 0x14, %g3
    42dc:	d6 10 c0 01 	lduh  [ %g3 + %g1 ], %o3
    42e0:	80 a2 80 0b 	cmp  %o2, %o3
    42e4:	12 80 00 19 	bne  4348 <ajit_main+0x84c>
    42e8:	05 00 00 80 	sethi  %hi(0x20000), %g2
    42ec:	d0 07 40 00 	ld  [ %i5 ], %o0
    42f0:	c2 15 7f f8 	lduh  [ %l5 + -8 ], %g1
    42f4:	ae 05 e0 01 	inc  %l7
    42f8:	82 00 40 12 	add  %g1, %l2, %g1
    42fc:	a5 2d e0 10 	sll  %l7, 0x10, %l2
    4300:	b9 34 a0 10 	srl  %l2, 0x10, %i4
    4304:	80 a7 00 08 	cmp  %i4, %o0
    4308:	0a bf ff c2 	bcs  4210 <ajit_main+0x714>
    430c:	a4 10 00 01 	mov  %g1, %l2
    4310:	10 bf fe 7c 	b  3d00 <ajit_main+0x204>
    4314:	a2 10 00 01 	mov  %g1, %l1
    4318:	95 a0 1a 44 	fdtoi  %f4, %f10
    431c:	17 20 00 00 	sethi  %hi(0x80000000), %o3
    4320:	c2 07 bf a4 	ld  [ %fp + -92 ], %g1
    4324:	d5 27 bf a4 	st  %f10, [ %fp + -92 ]
    4328:	10 bf ff 59 	b  408c <ajit_main+0x590>
    432c:	82 18 40 0b 	xor  %g1, %o3, %g1
    4330:	17 00 00 80 	sethi  %hi(0x20000), %o3
    4334:	d2 37 bf b6 	sth  %o1, [ %fp + -74 ]
    4338:	40 00 07 2a 	call  5fe0 <ee_printf>
    433c:	90 12 e0 f0 	or  %o3, 0xf0, %o0
    4340:	10 bf ff 9d 	b  41b4 <ajit_main+0x6b8>
    4344:	31 00 00 81 	sethi  %hi(0x20400), %i0
    4348:	92 10 00 1b 	mov  %i3, %o1
    434c:	40 00 07 25 	call  5fe0 <ee_printf>
    4350:	90 10 a1 b8 	or  %g2, 0x1b8, %o0
    4354:	c8 15 7f f8 	lduh  [ %l5 + -8 ], %g4
    4358:	94 01 20 01 	add  %g4, 1, %o2
    435c:	82 10 00 0a 	mov  %o2, %g1
    4360:	10 bf ff a4 	b  41f0 <ajit_main+0x6f4>
    4364:	d4 35 7f f8 	sth  %o2, [ %l5 + -8 ]
    4368:	40 00 07 1e 	call  5fe0 <ee_printf>
    436c:	90 17 60 10 	or  %i5, 0x10, %o0
    4370:	d4 17 bf b6 	lduh  [ %fp + -74 ], %o2
    4374:	b5 2a a0 10 	sll  %o2, 0x10, %i2
    4378:	a1 3e a0 10 	sra  %i2, 0x10, %l0
    437c:	80 a4 20 03 	cmp  %l0, 3
    4380:	12 bf ff 22 	bne  4008 <ajit_main+0x50c>
    4384:	d6 06 22 bc 	ld  [ %i0 + 0x2bc ], %o3
    4388:	c2 07 bf d4 	ld  [ %fp + -44 ], %g1
    438c:	c7 07 bf a4 	ld  [ %fp + -92 ], %f3
    4390:	82 5a c0 01 	smul  %o3, %g1, %g1
    4394:	c2 27 bf a4 	st  %g1, [ %fp + -92 ]
    4398:	80 a0 60 00 	cmp  %g1, 0
    439c:	06 80 00 3b 	bl  4488 <ajit_main+0x98c>
    43a0:	91 a0 19 03 	fitod  %f3, %f8
    43a4:	90 10 00 19 	mov  %i1, %o0
    43a8:	40 00 02 05 	call  4bbc <time_in_secs>
    43ac:	d1 3f bf a8 	std  %f8, [ %fp + -88 ]
    43b0:	c4 1f bf 98 	ldd  [ %fp + -104 ], %g2
    43b4:	d1 1f bf a8 	ldd  [ %fp + -88 ], %f8
    43b8:	96 15 62 b8 	or  %l5, 0x2b8, %o3
    43bc:	2b 00 00 81 	sethi  %hi(0x20400), %l5
    43c0:	a9 a2 09 c0 	fdivd  %f8, %f0, %f20
    43c4:	98 15 e2 e8 	or  %l7, 0x2e8, %o4
    43c8:	92 10 00 02 	mov  %g2, %o1
    43cc:	e9 3f bf 98 	std  %f20, [ %fp + -104 ]
    43d0:	94 10 00 03 	mov  %g3, %o2
    43d4:	40 00 07 03 	call  5fe0 <ee_printf>
    43d8:	90 15 60 60 	or  %l5, 0x60, %o0
    43dc:	92 14 63 68 	or  %l1, 0x368, %o1
    43e0:	2f 00 00 81 	sethi  %hi(0x20400), %l7
    43e4:	40 00 06 ff 	call  5fe0 <ee_printf>
    43e8:	90 15 e0 80 	or  %l7, 0x80, %o0	! 20480 <state_known_crc+0x46c>
    43ec:	23 00 00 81 	sethi  %hi(0x20400), %l1
    43f0:	40 00 06 fc 	call  5fe0 <ee_printf>
    43f4:	90 14 60 58 	or  %l1, 0x58, %o0	! 20458 <state_known_crc+0x444>
    43f8:	30 bf ff 04 	b,a   4008 <ajit_main+0x50c>
    43fc:	b6 04 60 01 	add  %l1, 1, %i3
    4400:	40 00 06 f8 	call  5fe0 <ee_printf>
    4404:	90 13 62 48 	or  %o5, 0x248, %o0
    4408:	10 bf fe 77 	b  3de4 <ajit_main+0x2e8>
    440c:	c2 07 bf d4 	ld  [ %fp + -44 ], %g1
    4410:	33 00 00 81 	sethi  %hi(0x20400), %i1
    4414:	40 00 06 f3 	call  5fe0 <ee_printf>
    4418:	90 16 60 a0 	or  %i1, 0xa0, %o0	! 204a0 <state_known_crc+0x48c>
    441c:	40 00 02 14 	call  4c6c <portable_fini>
    4420:	90 07 bf fa 	add  %fp, -6, %o0
    4424:	81 c7 e0 08 	ret 
    4428:	81 e8 00 00 	restore 
    442c:	19 00 00 80 	sethi  %hi(0x20000), %o4
    4430:	c0 37 bf b6 	clrh  [ %fp + -74 ]
    4434:	40 00 06 eb 	call  5fe0 <ee_printf>
    4438:	90 13 20 58 	or  %o4, 0x58, %o0
    443c:	10 bf ff 5e 	b  41b4 <ajit_main+0x6b8>
    4440:	31 00 00 81 	sethi  %hi(0x20400), %i0
    4444:	c2 37 bf b6 	sth  %g1, [ %fp + -74 ]
    4448:	1b 00 00 80 	sethi  %hi(0x20000), %o5
    444c:	40 00 06 e5 	call  5fe0 <ee_printf>
    4450:	90 13 60 88 	or  %o5, 0x88, %o0	! 20088 <state_known_crc+0x74>
    4454:	10 bf ff 58 	b  41b4 <ajit_main+0x6b8>
    4458:	31 00 00 81 	sethi  %hi(0x20400), %i0
    445c:	82 10 20 04 	mov  4, %g1
    4460:	3b 00 00 80 	sethi  %hi(0x20000), %i5
    4464:	c2 37 bf b6 	sth  %g1, [ %fp + -74 ]
    4468:	40 00 06 de 	call  5fe0 <ee_printf>
    446c:	90 17 61 20 	or  %i5, 0x120, %o0
    4470:	10 bf ff 51 	b  41b4 <ajit_main+0x6b8>
    4474:	31 00 00 81 	sethi  %hi(0x20400), %i0
    4478:	03 00 00 81 	sethi  %hi(0x20400), %g1
    447c:	d9 18 62 90 	ldd  [ %g1 + 0x290 ], %f12	! 20690 <state_known_crc+0x67c>
    4480:	10 bf fe 44 	b  3d90 <ajit_main+0x294>
    4484:	91 a2 08 4c 	faddd  %f8, %f12, %f8
    4488:	03 00 00 81 	sethi  %hi(0x20400), %g1
    448c:	e5 18 62 90 	ldd  [ %g1 + 0x290 ], %f18	! 20690 <state_known_crc+0x67c>
    4490:	10 bf ff c5 	b  43a4 <ajit_main+0x8a8>
    4494:	91 a2 08 52 	faddd  %f8, %f18, %f8
    4498:	80 89 20 02 	btst  2, %g4
    449c:	02 bf fe a1 	be  3f20 <ajit_main+0x424>
    44a0:	82 10 20 00 	clr  %g1
    44a4:	10 bf fe d1 	b  3fe8 <ajit_main+0x4ec>
    44a8:	b7 2e e0 10 	sll  %i3, 0x10, %i3

000044ac <core_init_matrix>:
    44ac:	9d e3 bf a0 	save  %sp, -96, %sp
    44b0:	80 a6 a0 00 	cmp  %i2, 0
    44b4:	22 80 00 02 	be,a   44bc <core_init_matrix+0x10>
    44b8:	b4 10 20 01 	mov  1, %i2
    44bc:	80 a6 20 00 	cmp  %i0, 0
    44c0:	22 80 00 3a 	be,a   45a8 <core_init_matrix+0xfc>
    44c4:	b2 06 7f ff 	add  %i1, -1, %i1
    44c8:	84 10 20 00 	clr  %g2
    44cc:	82 00 a0 01 	add  %g2, 1, %g1
    44d0:	86 58 40 01 	smul  %g1, %g1, %g3
    44d4:	89 28 e0 03 	sll  %g3, 3, %g4
    44d8:	80 a6 00 04 	cmp  %i0, %g4
    44dc:	38 bf ff fc 	bgu,a   44cc <core_init_matrix+0x20>
    44e0:	84 10 00 01 	mov  %g1, %g2
    44e4:	b0 06 7f ff 	add  %i1, -1, %i0
    44e8:	b8 58 80 02 	smul  %g2, %g2, %i4
    44ec:	80 a0 a0 00 	cmp  %g2, 0
    44f0:	ba 0e 3f fc 	and  %i0, -4, %i5
    44f4:	96 07 00 1c 	add  %i4, %i4, %o3
    44f8:	b0 10 00 02 	mov  %g2, %i0
    44fc:	9a 07 60 04 	add  %i5, 4, %o5
    4500:	02 80 00 20 	be  4580 <core_init_matrix+0xd4>
    4504:	98 03 40 0b 	add  %o5, %o3, %o4
    4508:	05 00 00 3f 	sethi  %hi(0xfc00), %g2
    450c:	9e 10 20 00 	clr  %o7
    4510:	88 10 20 01 	mov  1, %g4
    4514:	b2 10 a3 ff 	or  %g2, 0x3ff, %i1
    4518:	86 5b c0 18 	smul  %o7, %i0, %g3
    451c:	82 10 00 04 	mov  %g4, %g1
    4520:	84 10 20 00 	clr  %g2
    4524:	ba 00 c0 03 	add  %g3, %g3, %i5
    4528:	b8 03 00 1d 	add  %o4, %i5, %i4
    452c:	ba 03 40 1d 	add  %o5, %i5, %i5
    4530:	b4 58 40 1a 	smul  %g1, %i2, %i2
    4534:	87 3e a0 1f 	sra  %i2, 0x1f, %g3
    4538:	87 30 e0 10 	srl  %g3, 0x10, %g3
    453c:	b4 06 80 03 	add  %i2, %g3, %i2
    4540:	b4 0e 80 19 	and  %i2, %i1, %i2
    4544:	b4 26 80 03 	sub  %i2, %g3, %i2
    4548:	86 06 80 01 	add  %i2, %g1, %g3
    454c:	c6 37 00 02 	sth  %g3, [ %i4 + %g2 ]
    4550:	86 00 c0 01 	add  %g3, %g1, %g3
    4554:	82 00 60 01 	inc  %g1
    4558:	86 08 e0 ff 	and  %g3, 0xff, %g3
    455c:	c6 37 40 02 	sth  %g3, [ %i5 + %g2 ]
    4560:	86 20 40 04 	sub  %g1, %g4, %g3
    4564:	80 a0 c0 18 	cmp  %g3, %i0
    4568:	0a bf ff f2 	bcs  4530 <core_init_matrix+0x84>
    456c:	84 00 a0 02 	add  %g2, 2, %g2
    4570:	9e 03 e0 01 	inc  %o7
    4574:	80 a3 c0 18 	cmp  %o7, %i0
    4578:	0a bf ff e8 	bcs  4518 <core_init_matrix+0x6c>
    457c:	88 10 00 01 	mov  %g1, %g4
    4580:	82 03 00 0b 	add  %o4, %o3, %g1
    4584:	da 26 e0 04 	st  %o5, [ %i3 + 4 ]
    4588:	d8 26 e0 08 	st  %o4, [ %i3 + 8 ]
    458c:	82 00 7f ff 	add  %g1, -1, %g1
    4590:	f0 26 c0 00 	st  %i0, [ %i3 ]
    4594:	82 08 7f fc 	and  %g1, -4, %g1
    4598:	82 00 60 04 	add  %g1, 4, %g1
    459c:	c2 26 e0 0c 	st  %g1, [ %i3 + 0xc ]
    45a0:	81 c7 e0 08 	ret 
    45a4:	81 e8 00 00 	restore 
    45a8:	98 0e 7f fc 	and  %i1, -4, %o4
    45ac:	96 10 20 02 	mov  2, %o3
    45b0:	b0 10 3f ff 	mov  -1, %i0
    45b4:	9a 03 20 04 	add  %o4, 4, %o5
    45b8:	10 bf ff d4 	b  4508 <core_init_matrix+0x5c>
    45bc:	98 03 20 06 	add  %o4, 6, %o4

000045c0 <matrix_sum>:
    45c0:	9d e3 bf a0 	save  %sp, -96, %sp
    45c4:	80 a6 20 00 	cmp  %i0, 0
    45c8:	02 80 00 23 	be  4654 <matrix_sum+0x94>
    45cc:	b7 2e 20 02 	sll  %i0, 2, %i3
    45d0:	ba 10 20 00 	clr  %i5
    45d4:	84 10 20 00 	clr  %g2
    45d8:	9e 10 20 00 	clr  %o7
    45dc:	88 10 20 00 	clr  %g4
    45e0:	10 80 00 07 	b  45fc <matrix_sum+0x3c>
    45e4:	82 10 20 00 	clr  %g1
    45e8:	88 01 20 0a 	add  %g4, 0xa, %g4
    45ec:	84 10 20 00 	clr  %g2
    45f0:	80 a6 c0 01 	cmp  %i3, %g1
    45f4:	02 80 00 10 	be  4634 <matrix_sum+0x74>
    45f8:	ba 10 00 03 	mov  %g3, %i5
    45fc:	c6 06 40 01 	ld  [ %i1 + %g1 ], %g3
    4600:	84 00 80 03 	add  %g2, %g3, %g2
    4604:	80 a0 80 1a 	cmp  %g2, %i2
    4608:	34 bf ff f8 	bg,a   45e8 <matrix_sum+0x28>
    460c:	82 00 60 04 	add  %g1, 4, %g1
    4610:	80 a0 c0 1d 	cmp  %g3, %i5
    4614:	14 80 00 03 	bg  4620 <matrix_sum+0x60>
    4618:	b8 10 20 01 	mov  1, %i4
    461c:	b8 10 20 00 	clr  %i4
    4620:	82 00 60 04 	add  %g1, 4, %g1
    4624:	88 07 00 04 	add  %i4, %g4, %g4
    4628:	80 a6 c0 01 	cmp  %i3, %g1
    462c:	12 bf ff f4 	bne  45fc <matrix_sum+0x3c>
    4630:	ba 10 00 03 	mov  %g3, %i5
    4634:	9e 03 e0 01 	inc  %o7
    4638:	80 a3 c0 18 	cmp  %o7, %i0
    463c:	12 bf ff e9 	bne  45e0 <matrix_sum+0x20>
    4640:	b2 06 40 1b 	add  %i1, %i3, %i1
    4644:	b1 29 20 10 	sll  %g4, 0x10, %i0
    4648:	b1 3e 20 10 	sra  %i0, 0x10, %i0
    464c:	81 c7 e0 08 	ret 
    4650:	81 e8 00 00 	restore 
    4654:	88 10 20 00 	clr  %g4
    4658:	b1 29 20 10 	sll  %g4, 0x10, %i0
    465c:	b1 3e 20 10 	sra  %i0, 0x10, %i0
    4660:	81 c7 e0 08 	ret 
    4664:	81 e8 00 00 	restore 

00004668 <matrix_mul_const>:
    4668:	80 a2 20 00 	cmp  %o0, 0
    466c:	02 80 00 11 	be  46b0 <matrix_mul_const+0x48>
    4670:	88 02 00 08 	add  %o0, %o0, %g4
    4674:	99 2a 20 02 	sll  %o0, 2, %o4
    4678:	9a 10 20 00 	clr  %o5
    467c:	82 10 20 00 	clr  %g1
    4680:	c6 52 80 01 	ldsh  [ %o2 + %g1 ], %g3
    4684:	84 00 40 01 	add  %g1, %g1, %g2
    4688:	82 00 60 02 	add  %g1, 2, %g1
    468c:	86 58 c0 0b 	smul  %g3, %o3, %g3
    4690:	80 a1 00 01 	cmp  %g4, %g1
    4694:	12 bf ff fb 	bne  4680 <matrix_mul_const+0x18>
    4698:	c6 22 40 02 	st  %g3, [ %o1 + %g2 ]
    469c:	9a 03 60 01 	inc  %o5
    46a0:	94 02 80 04 	add  %o2, %g4, %o2
    46a4:	80 a3 40 08 	cmp  %o5, %o0
    46a8:	12 bf ff f5 	bne  467c <matrix_mul_const+0x14>
    46ac:	92 02 40 0c 	add  %o1, %o4, %o1
    46b0:	81 c3 e0 08 	retl 
    46b4:	01 00 00 00 	nop 

000046b8 <matrix_add_const>:
    46b8:	80 a2 20 00 	cmp  %o0, 0
    46bc:	02 80 00 0f 	be  46f8 <matrix_add_const+0x40>
    46c0:	88 02 00 08 	add  %o0, %o0, %g4
    46c4:	86 10 20 00 	clr  %g3
    46c8:	84 01 00 09 	add  %g4, %o1, %g2
    46cc:	c2 12 40 00 	lduh  [ %o1 ], %g1
    46d0:	82 00 40 0a 	add  %g1, %o2, %g1
    46d4:	c2 32 40 00 	sth  %g1, [ %o1 ]
    46d8:	92 02 60 02 	add  %o1, 2, %o1
    46dc:	80 a2 40 02 	cmp  %o1, %g2
    46e0:	32 bf ff fc 	bne,a   46d0 <matrix_add_const+0x18>
    46e4:	c2 12 40 00 	lduh  [ %o1 ], %g1
    46e8:	86 00 e0 01 	inc  %g3
    46ec:	80 a0 c0 08 	cmp  %g3, %o0
    46f0:	12 bf ff f7 	bne  46cc <matrix_add_const+0x14>
    46f4:	84 01 00 09 	add  %g4, %o1, %g2
    46f8:	81 c3 e0 08 	retl 
    46fc:	01 00 00 00 	nop 

00004700 <matrix_mul_vect>:
    4700:	80 a2 20 00 	cmp  %o0, 0
    4704:	02 80 00 13 	be  4750 <matrix_mul_vect+0x50>
    4708:	9a 02 00 08 	add  %o0, %o0, %o5
    470c:	98 10 20 00 	clr  %o4
    4710:	91 2a 20 02 	sll  %o0, 2, %o0
    4714:	82 10 20 00 	clr  %g1
    4718:	84 10 20 00 	clr  %g2
    471c:	c0 22 40 0c 	clr  [ %o1 + %o4 ]
    4720:	c8 52 80 01 	ldsh  [ %o2 + %g1 ], %g4
    4724:	c6 52 c0 01 	ldsh  [ %o3 + %g1 ], %g3
    4728:	82 00 60 02 	add  %g1, 2, %g1
    472c:	88 59 00 03 	smul  %g4, %g3, %g4
    4730:	80 a0 40 0d 	cmp  %g1, %o5
    4734:	12 bf ff fb 	bne  4720 <matrix_mul_vect+0x20>
    4738:	84 00 80 04 	add  %g2, %g4, %g2
    473c:	c4 22 40 0c 	st  %g2, [ %o1 + %o4 ]
    4740:	98 03 20 04 	add  %o4, 4, %o4
    4744:	80 a3 00 08 	cmp  %o4, %o0
    4748:	12 bf ff f3 	bne  4714 <matrix_mul_vect+0x14>
    474c:	94 02 80 0d 	add  %o2, %o5, %o2
    4750:	81 c3 e0 08 	retl 
    4754:	01 00 00 00 	nop 

00004758 <matrix_mul_matrix>:
    4758:	9d e3 bf a0 	save  %sp, -96, %sp
    475c:	80 a6 20 00 	cmp  %i0, 0
    4760:	02 80 00 1d 	be  47d4 <matrix_mul_matrix+0x7c>
    4764:	88 06 00 18 	add  %i0, %i0, %g4
    4768:	97 2e 20 02 	sll  %i0, 2, %o3
    476c:	98 10 00 19 	mov  %i1, %o4
    4770:	9a 10 20 00 	clr  %o5
    4774:	b2 10 20 00 	clr  %i1
    4778:	9e 10 00 0c 	mov  %o4, %o7
    477c:	c0 23 c0 00 	clr  [ %o7 ]
    4780:	84 06 c0 19 	add  %i3, %i1, %g2
    4784:	82 10 20 00 	clr  %g1
    4788:	86 10 20 00 	clr  %g3
    478c:	f8 56 80 01 	ldsh  [ %i2 + %g1 ], %i4
    4790:	fa 50 80 00 	ldsh  [ %g2 ], %i5
    4794:	82 00 60 02 	add  %g1, 2, %g1
    4798:	84 00 80 04 	add  %g2, %g4, %g2
    479c:	b8 5f 00 1d 	smul  %i4, %i5, %i4
    47a0:	80 a1 00 01 	cmp  %g4, %g1
    47a4:	12 bf ff fa 	bne  478c <matrix_mul_matrix+0x34>
    47a8:	86 00 c0 1c 	add  %g3, %i4, %g3
    47ac:	b2 06 60 02 	add  %i1, 2, %i1
    47b0:	c6 23 c0 00 	st  %g3, [ %o7 ]
    47b4:	80 a1 00 19 	cmp  %g4, %i1
    47b8:	12 bf ff f1 	bne  477c <matrix_mul_matrix+0x24>
    47bc:	9e 03 e0 04 	add  %o7, 4, %o7
    47c0:	9a 03 60 01 	inc  %o5
    47c4:	b4 06 80 04 	add  %i2, %g4, %i2
    47c8:	80 a3 40 18 	cmp  %o5, %i0
    47cc:	12 bf ff ea 	bne  4774 <matrix_mul_matrix+0x1c>
    47d0:	98 03 00 0b 	add  %o4, %o3, %o4
    47d4:	81 c7 e0 08 	ret 
    47d8:	81 e8 00 00 	restore 

000047dc <matrix_mul_matrix_bitextract>:
    47dc:	9d e3 bf a0 	save  %sp, -96, %sp
    47e0:	80 a6 20 00 	cmp  %i0, 0
    47e4:	02 80 00 22 	be  486c <matrix_mul_matrix_bitextract+0x90>
    47e8:	ba 06 00 18 	add  %i0, %i0, %i5
    47ec:	97 2e 20 02 	sll  %i0, 2, %o3
    47f0:	98 10 00 19 	mov  %i1, %o4
    47f4:	9a 10 20 00 	clr  %o5
    47f8:	9e 10 00 0c 	mov  %o4, %o7
    47fc:	b2 10 20 00 	clr  %i1
    4800:	84 06 c0 19 	add  %i3, %i1, %g2
    4804:	82 10 20 00 	clr  %g1
    4808:	88 10 20 00 	clr  %g4
    480c:	c0 23 c0 00 	clr  [ %o7 ]
    4810:	f8 56 80 01 	ldsh  [ %i2 + %g1 ], %i4
    4814:	c6 50 80 00 	ldsh  [ %g2 ], %g3
    4818:	82 00 60 02 	add  %g1, 2, %g1
    481c:	84 00 80 1d 	add  %g2, %i5, %g2
    4820:	86 5f 00 03 	smul  %i4, %g3, %g3
    4824:	80 a7 40 01 	cmp  %i5, %g1
    4828:	b9 38 e0 05 	sra  %g3, 5, %i4
    482c:	87 38 e0 02 	sra  %g3, 2, %g3
    4830:	b8 0f 20 7f 	and  %i4, 0x7f, %i4
    4834:	86 08 e0 0f 	and  %g3, 0xf, %g3
    4838:	b8 5f 00 03 	smul  %i4, %g3, %i4
    483c:	12 bf ff f5 	bne  4810 <matrix_mul_matrix_bitextract+0x34>
    4840:	88 07 00 04 	add  %i4, %g4, %g4
    4844:	b2 06 60 02 	add  %i1, 2, %i1
    4848:	c8 23 c0 00 	st  %g4, [ %o7 ]
    484c:	80 a7 40 19 	cmp  %i5, %i1
    4850:	12 bf ff ec 	bne  4800 <matrix_mul_matrix_bitextract+0x24>
    4854:	9e 03 e0 04 	add  %o7, 4, %o7
    4858:	9a 03 60 01 	inc  %o5
    485c:	b4 06 80 1d 	add  %i2, %i5, %i2
    4860:	80 a3 40 18 	cmp  %o5, %i0
    4864:	12 bf ff e5 	bne  47f8 <matrix_mul_matrix_bitextract+0x1c>
    4868:	98 03 00 0b 	add  %o4, %o3, %o4
    486c:	81 c7 e0 08 	ret 
    4870:	81 e8 00 00 	restore 

00004874 <matrix_test>:
    4874:	9d e3 bf a0 	save  %sp, -96, %sp
    4878:	80 a6 20 00 	cmp  %i0, 0
    487c:	02 80 00 6c 	be  4a2c <matrix_test+0x1b8>
    4880:	96 17 30 00 	or  %i4, -4096, %o3
    4884:	a0 06 00 18 	add  %i0, %i0, %l0
    4888:	a4 10 00 1a 	mov  %i2, %l2
    488c:	82 10 20 00 	clr  %g1
    4890:	ba 10 00 1c 	mov  %i4, %i5
    4894:	98 04 00 12 	add  %l0, %l2, %o4
    4898:	a2 10 00 1a 	mov  %i2, %l1
    489c:	da 14 80 00 	lduh  [ %l2 ], %o5
    48a0:	9e 03 40 1d 	add  %o5, %i5, %o7
    48a4:	de 34 80 00 	sth  %o7, [ %l2 ]
    48a8:	a4 04 a0 02 	add  %l2, 2, %l2
    48ac:	80 a4 80 0c 	cmp  %l2, %o4
    48b0:	32 bf ff fc 	bne,a   48a0 <matrix_test+0x2c>
    48b4:	da 14 80 00 	lduh  [ %l2 ], %o5
    48b8:	82 00 60 01 	inc  %g1
    48bc:	80 a0 40 18 	cmp  %g1, %i0
    48c0:	12 bf ff f7 	bne  489c <matrix_test+0x28>
    48c4:	98 04 00 12 	add  %l0, %l2, %o4
    48c8:	91 2e 20 02 	sll  %i0, 2, %o0
    48cc:	98 10 00 19 	mov  %i1, %o4
    48d0:	88 10 00 1a 	mov  %i2, %g4
    48d4:	94 10 20 00 	clr  %o2
    48d8:	82 10 20 00 	clr  %g1
    48dc:	d2 51 00 01 	ldsh  [ %g4 + %g1 ], %o1
    48e0:	84 00 40 01 	add  %g1, %g1, %g2
    48e4:	82 00 60 02 	add  %g1, 2, %g1
    48e8:	86 5a 40 1c 	smul  %o1, %i4, %g3
    48ec:	80 a4 00 01 	cmp  %l0, %g1
    48f0:	12 bf ff fb 	bne  48dc <matrix_test+0x68>
    48f4:	c6 23 00 02 	st  %g3, [ %o4 + %g2 ]
    48f8:	94 02 a0 01 	inc  %o2
    48fc:	88 01 00 10 	add  %g4, %l0, %g4
    4900:	80 a2 80 18 	cmp  %o2, %i0
    4904:	12 bf ff f5 	bne  48d8 <matrix_test+0x64>
    4908:	98 03 00 08 	add  %o4, %o0, %o4
    490c:	94 10 00 0b 	mov  %o3, %o2
    4910:	92 10 00 19 	mov  %i1, %o1
    4914:	b8 10 00 0b 	mov  %o3, %i4
    4918:	7f ff ff 2a 	call  45c0 <matrix_sum>
    491c:	90 10 00 18 	mov  %i0, %o0
    4920:	9b 2a 20 10 	sll  %o0, 0x10, %o5
    4924:	92 10 20 00 	clr  %o1
    4928:	40 00 02 a2 	call  53b0 <crc16>
    492c:	91 3b 60 10 	sra  %o5, 0x10, %o0
    4930:	96 10 00 1b 	mov  %i3, %o3
    4934:	a4 10 00 08 	mov  %o0, %l2
    4938:	92 10 00 19 	mov  %i1, %o1
    493c:	94 10 00 1a 	mov  %i2, %o2
    4940:	7f ff ff 70 	call  4700 <matrix_mul_vect>
    4944:	90 10 00 18 	mov  %i0, %o0
    4948:	92 10 00 19 	mov  %i1, %o1
    494c:	94 10 00 1c 	mov  %i4, %o2
    4950:	7f ff ff 1c 	call  45c0 <matrix_sum>
    4954:	90 10 00 18 	mov  %i0, %o0
    4958:	83 2c a0 10 	sll  %l2, 0x10, %g1
    495c:	97 2a 20 10 	sll  %o0, 0x10, %o3
    4960:	93 30 60 10 	srl  %g1, 0x10, %o1
    4964:	40 00 02 93 	call  53b0 <crc16>
    4968:	91 3a e0 10 	sra  %o3, 0x10, %o0
    496c:	94 10 00 1a 	mov  %i2, %o2
    4970:	96 10 00 1b 	mov  %i3, %o3
    4974:	a4 10 00 08 	mov  %o0, %l2
    4978:	92 10 00 19 	mov  %i1, %o1
    497c:	7f ff ff 77 	call  4758 <matrix_mul_matrix>
    4980:	90 10 00 18 	mov  %i0, %o0
    4984:	92 10 00 19 	mov  %i1, %o1
    4988:	94 10 00 1c 	mov  %i4, %o2
    498c:	7f ff ff 0d 	call  45c0 <matrix_sum>
    4990:	90 10 00 18 	mov  %i0, %o0
    4994:	93 2c a0 10 	sll  %l2, 0x10, %o1
    4998:	91 2a 20 10 	sll  %o0, 0x10, %o0
    499c:	93 32 60 10 	srl  %o1, 0x10, %o1
    49a0:	40 00 02 84 	call  53b0 <crc16>
    49a4:	91 3a 20 10 	sra  %o0, 0x10, %o0
    49a8:	94 10 00 1a 	mov  %i2, %o2
    49ac:	a4 10 00 08 	mov  %o0, %l2
    49b0:	96 10 00 1b 	mov  %i3, %o3
    49b4:	92 10 00 19 	mov  %i1, %o1
    49b8:	7f ff ff 89 	call  47dc <matrix_mul_matrix_bitextract>
    49bc:	90 10 00 18 	mov  %i0, %o0
    49c0:	92 10 00 19 	mov  %i1, %o1
    49c4:	94 10 00 1c 	mov  %i4, %o2
    49c8:	7f ff fe fe 	call  45c0 <matrix_sum>
    49cc:	90 10 00 18 	mov  %i0, %o0
    49d0:	b3 2c a0 10 	sll  %l2, 0x10, %i1
    49d4:	b5 2a 20 10 	sll  %o0, 0x10, %i2
    49d8:	93 36 60 10 	srl  %i1, 0x10, %o1
    49dc:	91 3e a0 10 	sra  %i2, 0x10, %o0
    49e0:	40 00 02 74 	call  53b0 <crc16>
    49e4:	b6 10 20 00 	clr  %i3
    49e8:	82 10 00 11 	mov  %l1, %g1
    49ec:	9e 04 00 11 	add  %l0, %l1, %o7
    49f0:	e2 10 40 00 	lduh  [ %g1 ], %l1
    49f4:	84 24 40 1d 	sub  %l1, %i5, %g2
    49f8:	c4 30 40 00 	sth  %g2, [ %g1 ]
    49fc:	82 00 60 02 	add  %g1, 2, %g1
    4a00:	80 a0 40 0f 	cmp  %g1, %o7
    4a04:	32 bf ff fc 	bne,a   49f4 <matrix_test+0x180>
    4a08:	e2 10 40 00 	lduh  [ %g1 ], %l1
    4a0c:	b6 06 e0 01 	inc  %i3
    4a10:	80 a6 c0 18 	cmp  %i3, %i0
    4a14:	12 bf ff f5 	bne  49e8 <matrix_test+0x174>
    4a18:	a2 10 00 01 	mov  %g1, %l1
    4a1c:	b1 2a 20 10 	sll  %o0, 0x10, %i0
    4a20:	b1 3e 20 10 	sra  %i0, 0x10, %i0
    4a24:	81 c7 e0 08 	ret 
    4a28:	81 e8 00 00 	restore 
    4a2c:	ba 10 00 0b 	mov  %o3, %i5
    4a30:	94 10 00 0b 	mov  %o3, %o2
    4a34:	92 10 00 19 	mov  %i1, %o1
    4a38:	7f ff fe e2 	call  45c0 <matrix_sum>
    4a3c:	90 10 20 00 	clr  %o0
    4a40:	92 10 20 00 	clr  %o1
    4a44:	91 2a 20 10 	sll  %o0, 0x10, %o0
    4a48:	40 00 02 5a 	call  53b0 <crc16>
    4a4c:	91 3a 20 10 	sra  %o0, 0x10, %o0
    4a50:	96 10 00 1b 	mov  %i3, %o3
    4a54:	b8 10 00 08 	mov  %o0, %i4
    4a58:	92 10 00 19 	mov  %i1, %o1
    4a5c:	94 10 00 1a 	mov  %i2, %o2
    4a60:	7f ff ff 28 	call  4700 <matrix_mul_vect>
    4a64:	90 10 20 00 	clr  %o0
    4a68:	94 10 00 1d 	mov  %i5, %o2
    4a6c:	92 10 00 19 	mov  %i1, %o1
    4a70:	7f ff fe d4 	call  45c0 <matrix_sum>
    4a74:	90 10 20 00 	clr  %o0
    4a78:	83 2a 20 10 	sll  %o0, 0x10, %g1
    4a7c:	93 2f 20 10 	sll  %i4, 0x10, %o1
    4a80:	91 38 60 10 	sra  %g1, 0x10, %o0
    4a84:	40 00 02 4b 	call  53b0 <crc16>
    4a88:	93 32 60 10 	srl  %o1, 0x10, %o1
    4a8c:	96 10 00 1b 	mov  %i3, %o3
    4a90:	a0 10 00 08 	mov  %o0, %l0
    4a94:	92 10 00 19 	mov  %i1, %o1
    4a98:	94 10 00 1a 	mov  %i2, %o2
    4a9c:	7f ff ff 2f 	call  4758 <matrix_mul_matrix>
    4aa0:	90 10 20 00 	clr  %o0
    4aa4:	94 10 00 1d 	mov  %i5, %o2
    4aa8:	92 10 00 19 	mov  %i1, %o1
    4aac:	7f ff fe c5 	call  45c0 <matrix_sum>
    4ab0:	90 10 20 00 	clr  %o0
    4ab4:	85 2c 20 10 	sll  %l0, 0x10, %g2
    4ab8:	87 2a 20 10 	sll  %o0, 0x10, %g3
    4abc:	93 30 a0 10 	srl  %g2, 0x10, %o1
    4ac0:	40 00 02 3c 	call  53b0 <crc16>
    4ac4:	91 38 e0 10 	sra  %g3, 0x10, %o0
    4ac8:	96 10 00 1b 	mov  %i3, %o3
    4acc:	a2 10 00 08 	mov  %o0, %l1
    4ad0:	92 10 00 19 	mov  %i1, %o1
    4ad4:	94 10 00 1a 	mov  %i2, %o2
    4ad8:	7f ff ff 41 	call  47dc <matrix_mul_matrix_bitextract>
    4adc:	90 10 20 00 	clr  %o0
    4ae0:	92 10 00 19 	mov  %i1, %o1
    4ae4:	94 10 00 1d 	mov  %i5, %o2
    4ae8:	7f ff fe b6 	call  45c0 <matrix_sum>
    4aec:	90 10 20 00 	clr  %o0
    4af0:	89 2c 60 10 	sll  %l1, 0x10, %g4
    4af4:	95 2a 20 10 	sll  %o0, 0x10, %o2
    4af8:	93 31 20 10 	srl  %g4, 0x10, %o1
    4afc:	40 00 02 2d 	call  53b0 <crc16>
    4b00:	91 3a a0 10 	sra  %o2, 0x10, %o0
    4b04:	b1 2a 20 10 	sll  %o0, 0x10, %i0
    4b08:	b1 3e 20 10 	sra  %i0, 0x10, %i0
    4b0c:	81 c7 e0 08 	ret 
    4b10:	81 e8 00 00 	restore 

00004b14 <core_bench_matrix>:
    4b14:	9d e3 bf a0 	save  %sp, -96, %sp
    4b18:	d4 06 20 04 	ld  [ %i0 + 4 ], %o2
    4b1c:	d6 06 20 08 	ld  [ %i0 + 8 ], %o3
    4b20:	98 10 00 19 	mov  %i1, %o4
    4b24:	d0 06 00 00 	ld  [ %i0 ], %o0
    4b28:	d2 06 20 0c 	ld  [ %i0 + 0xc ], %o1
    4b2c:	7f ff ff 52 	call  4874 <matrix_test>
    4b30:	b2 10 00 1a 	mov  %i2, %i1
    4b34:	b1 2a 20 10 	sll  %o0, 0x10, %i0
    4b38:	b1 3e 20 10 	sra  %i0, 0x10, %i0
    4b3c:	40 00 02 1d 	call  53b0 <crc16>
    4b40:	81 e8 00 00 	restore 

00004b44 <barebones_clock>:
    4b44:	9d e3 bf a0 	save  %sp, -96, %sp
    4b48:	40 00 0c 52 	call  7c90 <__ajit_read_cycle_count_register_high__>
    4b4c:	01 00 00 00 	nop 
    4b50:	40 00 0c 53 	call  7c9c <__ajit_read_cycle_count_register_low__>
    4b54:	b0 10 00 08 	mov  %o0, %i0
    4b58:	83 2e 20 18 	sll  %i0, 0x18, %g1
    4b5c:	91 32 20 08 	srl  %o0, 8, %o0
    4b60:	b0 12 00 01 	or  %o0, %g1, %i0
    4b64:	81 c7 e0 08 	ret 
    4b68:	81 e8 00 00 	restore 

00004b6c <start_time>:
    4b6c:	9d e3 bf a0 	save  %sp, -96, %sp
    4b70:	7f ff ff f5 	call  4b44 <barebones_clock>
    4b74:	01 00 00 00 	nop 
    4b78:	03 00 00 83 	sethi  %hi(0x20c00), %g1
    4b7c:	d0 20 62 e8 	st  %o0, [ %g1 + 0x2e8 ]	! 20ee8 <start_time_val>
    4b80:	81 c7 e0 08 	ret 
    4b84:	81 e8 00 00 	restore 

00004b88 <stop_time>:
    4b88:	9d e3 bf a0 	save  %sp, -96, %sp
    4b8c:	7f ff ff ee 	call  4b44 <barebones_clock>
    4b90:	01 00 00 00 	nop 
    4b94:	03 00 00 83 	sethi  %hi(0x20c00), %g1
    4b98:	d0 20 62 ec 	st  %o0, [ %g1 + 0x2ec ]	! 20eec <stop_time_val>
    4b9c:	81 c7 e0 08 	ret 
    4ba0:	81 e8 00 00 	restore 

00004ba4 <get_time>:
    4ba4:	03 00 00 83 	sethi  %hi(0x20c00), %g1
    4ba8:	d0 00 62 ec 	ld  [ %g1 + 0x2ec ], %o0	! 20eec <stop_time_val>
    4bac:	03 00 00 83 	sethi  %hi(0x20c00), %g1
    4bb0:	c2 00 62 e8 	ld  [ %g1 + 0x2e8 ], %g1	! 20ee8 <start_time_val>
    4bb4:	81 c3 e0 08 	retl 
    4bb8:	90 22 00 01 	sub  %o0, %g1, %o0

00004bbc <time_in_secs>:
    4bbc:	9c 03 bf b0 	add  %sp, -80, %sp
    4bc0:	80 a2 20 00 	cmp  %o0, 0
    4bc4:	d5 03 a0 4c 	ld  [ %sp + 0x4c ], %f10
    4bc8:	d0 23 a0 4c 	st  %o0, [ %sp + 0x4c ]
    4bcc:	06 80 00 07 	bl  4be8 <time_in_secs+0x2c>
    4bd0:	91 a0 19 0a 	fitod  %f10, %f8
    4bd4:	03 00 00 81 	sethi  %hi(0x20400), %g1
    4bd8:	9c 23 bf b0 	sub  %sp, -80, %sp
    4bdc:	c5 18 62 a0 	ldd  [ %g1 + 0x2a0 ], %f2
    4be0:	81 c3 e0 08 	retl 
    4be4:	81 a2 09 c2 	fdivd  %f8, %f2, %f0
    4be8:	03 00 00 81 	sethi  %hi(0x20400), %g1
    4bec:	9c 23 bf b0 	sub  %sp, -80, %sp
    4bf0:	c1 18 62 90 	ldd  [ %g1 + 0x290 ], %f0
    4bf4:	03 00 00 81 	sethi  %hi(0x20400), %g1
    4bf8:	91 a2 08 40 	faddd  %f8, %f0, %f8
    4bfc:	c5 18 62 a0 	ldd  [ %g1 + 0x2a0 ], %f2
    4c00:	81 c3 e0 08 	retl 
    4c04:	81 a2 09 c2 	fdivd  %f8, %f2, %f0

00004c08 <portable_init>:
    4c08:	9d e3 bf a0 	save  %sp, -96, %sp
    4c0c:	90 10 20 01 	mov  1, %o0
    4c10:	92 10 20 00 	clr  %o1
    4c14:	40 00 0c 89 	call  7e38 <__ajit_serial_configure__>
    4c18:	94 10 20 00 	clr  %o2
    4c1c:	92 10 20 0d 	mov  0xd, %o1
    4c20:	11 00 00 81 	sethi  %hi(0x20400), %o0
    4c24:	40 00 0c c5 	call  7f38 <__ajit_serial_puts__>
    4c28:	90 12 21 20 	or  %o0, 0x120, %o0	! 20520 <state_known_crc+0x50c>
    4c2c:	03 00 00 83 	sethi  %hi(0x20c00), %g1
    4c30:	84 10 20 66 	mov  0x66, %g2
    4c34:	86 10 27 d0 	mov  0x7d0, %g3
    4c38:	c0 20 62 e4 	clr  [ %g1 + 0x2e4 ]
    4c3c:	03 00 00 83 	sethi  %hi(0x20c00), %g1
    4c40:	c0 20 62 e0 	clr  [ %g1 + 0x2e0 ]	! 20ee0 <seed2_volatile>
    4c44:	03 00 00 81 	sethi  %hi(0x20400), %g1
    4c48:	c4 20 62 c8 	st  %g2, [ %g1 + 0x2c8 ]	! 206c8 <seed3_volatile>
    4c4c:	03 00 00 81 	sethi  %hi(0x20400), %g1
    4c50:	c6 20 62 c4 	st  %g3, [ %g1 + 0x2c4 ]	! 206c4 <seed4_volatile>
    4c54:	03 00 00 81 	sethi  %hi(0x20400), %g1
    4c58:	c0 20 62 c0 	clr  [ %g1 + 0x2c0 ]	! 206c0 <seed5_volatile>
    4c5c:	82 10 20 01 	mov  1, %g1
    4c60:	c2 2e 00 00 	stb  %g1, [ %i0 ]
    4c64:	81 c7 e0 08 	ret 
    4c68:	81 e8 00 00 	restore 

00004c6c <portable_fini>:
    4c6c:	9d e3 bf a0 	save  %sp, -96, %sp
    4c70:	92 10 20 0e 	mov  0xe, %o1
    4c74:	11 00 00 81 	sethi  %hi(0x20400), %o0
    4c78:	40 00 0c b0 	call  7f38 <__ajit_serial_puts__>
    4c7c:	90 12 21 30 	or  %o0, 0x130, %o0	! 20530 <state_known_crc+0x51c>
    4c80:	c0 2e 00 00 	clrb  [ %i0 ]
    4c84:	81 c7 e0 08 	ret 
    4c88:	81 e8 00 00 	restore 
    4c8c:	00 00 4d c0 	unimp  0x4dc0
    4c90:	00 00 4d c0 	unimp  0x4dc0
    4c94:	00 00 4d d8 	unimp  0x4dd8
    4c98:	00 00 4d d8 	unimp  0x4dd8
    4c9c:	00 00 4d f0 	unimp  0x4df0
    4ca0:	00 00 4e 48 	unimp  0x4e48
    4ca4:	00 00 4e 9c 	unimp  0x4e9c
    4ca8:	00 00 4f 70 	unimp  0x4f70
    4cac:	00 00 4f 98 	unimp  0x4f98
    4cb0:	00 00 4f 44 	unimp  0x4f44
    4cb4:	00 00 4f 20 	unimp  0x4f20
    4cb8:	00 00 4e fc 	unimp  0x4efc
    4cbc:	00 00 4e d4 	unimp  0x4ed4

00004cc0 <core_init_state>:
    4cc0:	9d e3 bf a0 	save  %sp, -96, %sp
    4cc4:	88 10 20 00 	clr  %g4
    4cc8:	9e 06 3f ff 	add  %i0, -1, %o7
    4ccc:	86 10 20 00 	clr  %g3
    4cd0:	ba 10 20 00 	clr  %i5
    4cd4:	98 10 20 2c 	mov  0x2c, %o4
    4cd8:	11 00 00 81 	sethi  %hi(0x20400), %o0
    4cdc:	13 00 00 81 	sethi  %hi(0x20400), %o1
    4ce0:	15 00 00 81 	sethi  %hi(0x20400), %o2
    4ce4:	17 00 00 81 	sethi  %hi(0x20400), %o3
    4ce8:	1b 00 00 13 	sethi  %hi(0x4c00), %o5
    4cec:	b6 07 40 03 	add  %i5, %g3, %i3
    4cf0:	b8 06 e0 01 	add  %i3, 1, %i4
    4cf4:	80 a3 c0 1c 	cmp  %o7, %i4
    4cf8:	08 80 00 24 	bleu  4d88 <core_init_state+0xc8>
    4cfc:	82 06 80 1d 	add  %i2, %i5, %g1
    4d00:	80 a0 e0 00 	cmp  %g3, 0
    4d04:	22 80 00 0d 	be,a   4d38 <core_init_state+0x78>
    4d08:	b2 06 60 01 	inc  %i1
    4d0c:	82 10 20 00 	clr  %g1
    4d10:	ba 06 80 1d 	add  %i2, %i5, %i5
    4d14:	c4 09 00 01 	ldub  [ %g4 + %g1 ], %g2
    4d18:	c4 2f 40 01 	stb  %g2, [ %i5 + %g1 ]
    4d1c:	82 00 60 01 	inc  %g1
    4d20:	80 a0 40 03 	cmp  %g1, %g3
    4d24:	32 bf ff fd 	bne,a   4d18 <core_init_state+0x58>
    4d28:	c4 09 00 01 	ldub  [ %g4 + %g1 ], %g2
    4d2c:	d8 2e 80 1b 	stb  %o4, [ %i2 + %i3 ]
    4d30:	ba 10 00 1c 	mov  %i4, %i5
    4d34:	b2 06 60 01 	inc  %i1
    4d38:	87 2e 60 10 	sll  %i1, 0x10, %g3
    4d3c:	b3 38 e0 10 	sra  %g3, 0x10, %i1
    4d40:	82 0e 60 07 	and  %i1, 7, %g1
    4d44:	82 00 7f fd 	add  %g1, -3, %g1
    4d48:	83 28 60 10 	sll  %g1, 0x10, %g1
    4d4c:	83 30 60 10 	srl  %g1, 0x10, %g1
    4d50:	80 a0 60 04 	cmp  %g1, 4
    4d54:	08 80 00 17 	bleu  4db0 <core_init_state+0xf0>
    4d58:	88 13 60 8c 	or  %o5, 0x8c, %g4
    4d5c:	82 12 22 fc 	or  %o0, 0x2fc, %g1
    4d60:	b7 30 e0 11 	srl  %g3, 0x11, %i3
    4d64:	86 10 20 04 	mov  4, %g3
    4d68:	b8 0e e0 0c 	and  %i3, 0xc, %i4
    4d6c:	b6 07 40 03 	add  %i5, %g3, %i3
    4d70:	c8 00 40 1c 	ld  [ %g1 + %i4 ], %g4
    4d74:	b8 06 e0 01 	add  %i3, 1, %i4
    4d78:	80 a3 c0 1c 	cmp  %o7, %i4
    4d7c:	18 bf ff e2 	bgu  4d04 <core_init_state+0x44>
    4d80:	80 a0 e0 00 	cmp  %g3, 0
    4d84:	82 06 80 1d 	add  %i2, %i5, %g1
    4d88:	80 a6 00 1d 	cmp  %i0, %i5
    4d8c:	08 80 00 07 	bleu  4da8 <core_init_state+0xe8>
    4d90:	b4 06 80 18 	add  %i2, %i0, %i2
    4d94:	c0 28 40 00 	clrb  [ %g1 ]
    4d98:	82 00 60 01 	inc  %g1
    4d9c:	80 a0 40 1a 	cmp  %g1, %i2
    4da0:	32 bf ff fe 	bne,a   4d98 <core_init_state+0xd8>
    4da4:	c0 28 40 00 	clrb  [ %g1 ]
    4da8:	81 c7 e0 08 	ret 
    4dac:	81 e8 00 00 	restore 
    4db0:	83 28 60 02 	sll  %g1, 2, %g1
    4db4:	c2 01 00 01 	ld  [ %g4 + %g1 ], %g1
    4db8:	81 c0 40 00 	jmp  %g1
    4dbc:	01 00 00 00 	nop 
    4dc0:	83 36 60 01 	srl  %i1, 1, %g1
    4dc4:	86 10 20 08 	mov  8, %g3
    4dc8:	b6 12 e2 ec 	or  %o3, 0x2ec, %i3
    4dcc:	82 08 60 0c 	and  %g1, 0xc, %g1
    4dd0:	10 bf ff c7 	b  4cec <core_init_state+0x2c>
    4dd4:	c8 06 c0 01 	ld  [ %i3 + %g1 ], %g4
    4dd8:	83 36 60 01 	srl  %i1, 1, %g1
    4ddc:	b8 12 a2 dc 	or  %o2, 0x2dc, %i4
    4de0:	86 10 20 08 	mov  8, %g3
    4de4:	82 08 60 0c 	and  %g1, 0xc, %g1
    4de8:	10 bf ff c1 	b  4cec <core_init_state+0x2c>
    4dec:	c8 07 00 01 	ld  [ %i4 + %g1 ], %g4
    4df0:	83 36 60 01 	srl  %i1, 1, %g1
    4df4:	86 10 20 08 	mov  8, %g3
    4df8:	84 12 62 cc 	or  %o1, 0x2cc, %g2
    4dfc:	82 08 60 0c 	and  %g1, 0xc, %g1
    4e00:	10 bf ff bb 	b  4cec <core_init_state+0x2c>
    4e04:	c8 00 80 01 	ld  [ %g2 + %g1 ], %g4

00004e08 <core_state_transition>:
    4e08:	da 02 00 00 	ld  [ %o0 ], %o5
    4e0c:	c2 0b 40 00 	ldub  [ %o5 ], %g1
    4e10:	88 88 60 ff 	andcc  %g1, 0xff, %g4
    4e14:	02 80 00 90 	be  5054 <core_state_transition+0x24c>
    4e18:	94 10 00 08 	mov  %o0, %o2
    4e1c:	80 a1 20 2c 	cmp  %g4, 0x2c
    4e20:	02 80 00 8f 	be  505c <core_state_transition+0x254>
    4e24:	84 03 60 01 	add  %o5, 1, %g2
    4e28:	90 10 20 00 	clr  %o0
    4e2c:	17 00 00 13 	sethi  %hi(0x4c00), %o3
    4e30:	86 10 00 0d 	mov  %o5, %g3
    4e34:	98 12 e0 a0 	or  %o3, 0xa0, %o4
    4e38:	9b 2a 20 02 	sll  %o0, 2, %o5
    4e3c:	d8 03 00 0d 	ld  [ %o4 + %o5 ], %o4
    4e40:	81 c3 00 00 	jmp  %o4
    4e44:	01 00 00 00 	nop 
    4e48:	82 00 7f d0 	add  %g1, -48, %g1
    4e4c:	82 08 60 ff 	and  %g1, 0xff, %g1
    4e50:	80 a0 60 09 	cmp  %g1, 9
    4e54:	08 80 00 0f 	bleu  4e90 <core_state_transition+0x88>
    4e58:	90 10 20 04 	mov  4, %o0
    4e5c:	80 a1 20 2d 	cmp  %g4, 0x2d
    4e60:	22 80 00 70 	be,a   5020 <core_state_transition+0x218>
    4e64:	c2 02 40 00 	ld  [ %o1 ], %g1
    4e68:	80 a1 20 2b 	cmp  %g4, 0x2b
    4e6c:	22 80 00 6d 	be,a   5020 <core_state_transition+0x218>
    4e70:	c2 02 40 00 	ld  [ %o1 ], %g1
    4e74:	80 a1 20 2e 	cmp  %g4, 0x2e
    4e78:	02 80 00 06 	be  4e90 <core_state_transition+0x88>
    4e7c:	90 10 20 05 	mov  5, %o0
    4e80:	c2 02 60 04 	ld  [ %o1 + 4 ], %g1
    4e84:	90 10 20 01 	mov  1, %o0
    4e88:	82 00 60 01 	inc  %g1
    4e8c:	c2 22 60 04 	st  %g1, [ %o1 + 4 ]
    4e90:	c2 02 40 00 	ld  [ %o1 ], %g1
    4e94:	82 00 60 01 	inc  %g1
    4e98:	c2 22 40 00 	st  %g1, [ %o1 ]
    4e9c:	c2 08 e0 01 	ldub  [ %g3 + 1 ], %g1
    4ea0:	88 88 60 ff 	andcc  %g1, 0xff, %g4
    4ea4:	02 80 00 0a 	be  4ecc <core_state_transition+0xc4>
    4ea8:	9a 10 00 02 	mov  %g2, %o5
    4eac:	80 a2 20 01 	cmp  %o0, 1
    4eb0:	22 80 00 43 	be,a   4fbc <core_state_transition+0x1b4>
    4eb4:	90 10 20 01 	mov  1, %o0
    4eb8:	84 00 a0 01 	inc  %g2
    4ebc:	80 a1 20 2c 	cmp  %g4, 0x2c
    4ec0:	12 bf ff dd 	bne  4e34 <core_state_transition+0x2c>
    4ec4:	86 00 e0 01 	inc  %g3
    4ec8:	9a 03 60 01 	inc  %o5
    4ecc:	81 c3 e0 08 	retl 
    4ed0:	da 22 80 00 	st  %o5, [ %o2 ]
    4ed4:	82 00 7f d0 	add  %g1, -48, %g1
    4ed8:	82 08 60 ff 	and  %g1, 0xff, %g1
    4edc:	80 a0 60 09 	cmp  %g1, 9
    4ee0:	38 80 00 4a 	bgu,a   5008 <core_state_transition+0x200>
    4ee4:	c2 02 60 04 	ld  [ %o1 + 4 ], %g1
    4ee8:	c2 08 e0 01 	ldub  [ %g3 + 1 ], %g1
    4eec:	88 88 60 ff 	andcc  %g1, 0xff, %g4
    4ef0:	12 bf ff f2 	bne  4eb8 <core_state_transition+0xb0>
    4ef4:	9a 10 00 02 	mov  %g2, %o5
    4ef8:	30 bf ff f5 	b,a   4ecc <core_state_transition+0xc4>
    4efc:	82 00 7f d0 	add  %g1, -48, %g1
    4f00:	82 08 60 ff 	and  %g1, 0xff, %g1
    4f04:	80 a0 60 09 	cmp  %g1, 9
    4f08:	18 80 00 43 	bgu  5014 <core_state_transition+0x20c>
    4f0c:	c2 02 60 18 	ld  [ %o1 + 0x18 ], %g1
    4f10:	90 10 20 07 	mov  7, %o0
    4f14:	82 00 60 01 	inc  %g1
    4f18:	10 bf ff f4 	b  4ee8 <core_state_transition+0xe0>
    4f1c:	c2 22 60 18 	st  %g1, [ %o1 + 0x18 ]
    4f20:	88 08 60 df 	and  %g1, 0xdf, %g4
    4f24:	80 a1 20 45 	cmp  %g4, 0x45
    4f28:	12 80 00 2b 	bne  4fd4 <core_state_transition+0x1cc>
    4f2c:	82 00 7f d0 	add  %g1, -48, %g1
    4f30:	c2 02 60 14 	ld  [ %o1 + 0x14 ], %g1
    4f34:	90 10 20 03 	mov  3, %o0
    4f38:	82 00 60 01 	inc  %g1
    4f3c:	10 bf ff eb 	b  4ee8 <core_state_transition+0xe0>
    4f40:	c2 22 60 14 	st  %g1, [ %o1 + 0x14 ]
    4f44:	80 a1 20 2e 	cmp  %g4, 0x2e
    4f48:	02 80 00 3a 	be  5030 <core_state_transition+0x228>
    4f4c:	82 00 7f d0 	add  %g1, -48, %g1
    4f50:	82 08 60 ff 	and  %g1, 0xff, %g1
    4f54:	80 a0 60 09 	cmp  %g1, 9
    4f58:	28 bf ff e5 	bleu,a   4eec <core_state_transition+0xe4>
    4f5c:	c2 08 e0 01 	ldub  [ %g3 + 1 ], %g1
    4f60:	c2 02 60 10 	ld  [ %o1 + 0x10 ], %g1
    4f64:	82 00 60 01 	inc  %g1
    4f68:	10 80 00 13 	b  4fb4 <core_state_transition+0x1ac>
    4f6c:	c2 22 60 10 	st  %g1, [ %o1 + 0x10 ]
    4f70:	82 00 7f d0 	add  %g1, -48, %g1
    4f74:	82 08 60 ff 	and  %g1, 0xff, %g1
    4f78:	80 a0 60 09 	cmp  %g1, 9
    4f7c:	18 80 00 1e 	bgu  4ff4 <core_state_transition+0x1ec>
    4f80:	80 a1 20 2e 	cmp  %g4, 0x2e
    4f84:	c2 02 60 08 	ld  [ %o1 + 8 ], %g1
    4f88:	90 10 20 04 	mov  4, %o0
    4f8c:	82 00 60 01 	inc  %g1
    4f90:	10 bf ff d6 	b  4ee8 <core_state_transition+0xe0>
    4f94:	c2 22 60 08 	st  %g1, [ %o1 + 8 ]
    4f98:	80 a1 20 2d 	cmp  %g4, 0x2d
    4f9c:	02 80 00 0a 	be  4fc4 <core_state_transition+0x1bc>
    4fa0:	c2 02 60 0c 	ld  [ %o1 + 0xc ], %g1
    4fa4:	80 a1 20 2b 	cmp  %g4, 0x2b
    4fa8:	02 80 00 08 	be  4fc8 <core_state_transition+0x1c0>
    4fac:	82 00 60 01 	inc  %g1
    4fb0:	c2 22 60 0c 	st  %g1, [ %o1 + 0xc ]
    4fb4:	9a 10 00 02 	mov  %g2, %o5
    4fb8:	90 10 20 01 	mov  1, %o0
    4fbc:	81 c3 e0 08 	retl 
    4fc0:	da 22 80 00 	st  %o5, [ %o2 ]
    4fc4:	82 00 60 01 	inc  %g1
    4fc8:	90 10 20 06 	mov  6, %o0
    4fcc:	10 bf ff c7 	b  4ee8 <core_state_transition+0xe0>
    4fd0:	c2 22 60 0c 	st  %g1, [ %o1 + 0xc ]
    4fd4:	82 08 60 ff 	and  %g1, 0xff, %g1
    4fd8:	80 a0 60 09 	cmp  %g1, 9
    4fdc:	28 bf ff c4 	bleu,a   4eec <core_state_transition+0xe4>
    4fe0:	c2 08 e0 01 	ldub  [ %g3 + 1 ], %g1
    4fe4:	c2 02 60 14 	ld  [ %o1 + 0x14 ], %g1
    4fe8:	82 00 60 01 	inc  %g1
    4fec:	10 bf ff f2 	b  4fb4 <core_state_transition+0x1ac>
    4ff0:	c2 22 60 14 	st  %g1, [ %o1 + 0x14 ]
    4ff4:	02 80 00 14 	be  5044 <core_state_transition+0x23c>
    4ff8:	c2 02 60 08 	ld  [ %o1 + 8 ], %g1
    4ffc:	82 00 60 01 	inc  %g1
    5000:	10 bf ff ed 	b  4fb4 <core_state_transition+0x1ac>
    5004:	c2 22 60 08 	st  %g1, [ %o1 + 8 ]
    5008:	82 00 60 01 	inc  %g1
    500c:	10 bf ff ea 	b  4fb4 <core_state_transition+0x1ac>
    5010:	c2 22 60 04 	st  %g1, [ %o1 + 4 ]
    5014:	82 00 60 01 	inc  %g1
    5018:	10 bf ff e7 	b  4fb4 <core_state_transition+0x1ac>
    501c:	c2 22 60 18 	st  %g1, [ %o1 + 0x18 ]
    5020:	90 10 20 02 	mov  2, %o0
    5024:	82 00 60 01 	inc  %g1
    5028:	10 bf ff 9d 	b  4e9c <core_state_transition+0x94>
    502c:	c2 22 40 00 	st  %g1, [ %o1 ]
    5030:	c2 02 60 10 	ld  [ %o1 + 0x10 ], %g1
    5034:	90 10 20 05 	mov  5, %o0
    5038:	82 00 60 01 	inc  %g1
    503c:	10 bf ff ab 	b  4ee8 <core_state_transition+0xe0>
    5040:	c2 22 60 10 	st  %g1, [ %o1 + 0x10 ]
    5044:	82 00 60 01 	inc  %g1
    5048:	90 10 20 05 	mov  5, %o0
    504c:	10 bf ff a7 	b  4ee8 <core_state_transition+0xe0>
    5050:	c2 22 60 08 	st  %g1, [ %o1 + 8 ]
    5054:	10 bf ff 9e 	b  4ecc <core_state_transition+0xc4>
    5058:	90 10 20 00 	clr  %o0
    505c:	90 10 20 00 	clr  %o0
    5060:	10 bf ff 9b 	b  4ecc <core_state_transition+0xc4>
    5064:	9a 03 60 01 	inc  %o5

00005068 <core_bench_state>:
    5068:	9d e3 bf 58 	save  %sp, -168, %sp
    506c:	82 10 20 00 	clr  %g1
    5070:	a0 07 bf e0 	add  %fp, -32, %l0
    5074:	f2 27 bf bc 	st  %i1, [ %fp + -68 ]
    5078:	a2 07 bf c0 	add  %fp, -64, %l1
    507c:	c0 24 00 01 	clr  [ %l0 + %g1 ]
    5080:	c0 24 40 01 	clr  [ %l1 + %g1 ]
    5084:	82 00 60 04 	add  %g1, 4, %g1
    5088:	80 a0 60 20 	cmp  %g1, 0x20
    508c:	32 bf ff fd 	bne,a   5080 <core_bench_state+0x18>
    5090:	c0 24 00 01 	clr  [ %l0 + %g1 ]
    5094:	c2 0e 40 00 	ldub  [ %i1 ], %g1
    5098:	80 a0 60 00 	cmp  %g1, 0
    509c:	02 80 00 11 	be  50e0 <core_bench_state+0x78>
    50a0:	96 10 20 00 	clr  %o3
    50a4:	a4 07 bf bc 	add  %fp, -68, %l2
    50a8:	90 10 00 12 	mov  %l2, %o0
    50ac:	7f ff ff 57 	call  4e08 <core_state_transition>
    50b0:	92 10 00 10 	mov  %l0, %o1
    50b4:	91 2a 20 02 	sll  %o0, 2, %o0
    50b8:	82 07 80 08 	add  %fp, %o0, %g1
    50bc:	c4 00 7f c0 	ld  [ %g1 + -64 ], %g2
    50c0:	86 00 a0 01 	add  %g2, 1, %g3
    50c4:	c6 20 7f c0 	st  %g3, [ %g1 + -64 ]
    50c8:	c2 07 bf bc 	ld  [ %fp + -68 ], %g1
    50cc:	c2 08 40 00 	ldub  [ %g1 ], %g1
    50d0:	80 a0 60 00 	cmp  %g1, 0
    50d4:	12 bf ff f6 	bne  50ac <core_bench_state+0x44>
    50d8:	90 10 00 12 	mov  %l2, %o0
    50dc:	d6 0e 40 00 	ldub  [ %i1 ], %o3
    50e0:	b0 06 40 18 	add  %i1, %i0, %i0
    50e4:	80 a6 40 18 	cmp  %i1, %i0
    50e8:	1a 80 00 10 	bcc  5128 <core_bench_state+0xc0>
    50ec:	f2 27 bf bc 	st  %i1, [ %fp + -68 ]
    50f0:	10 80 00 03 	b  50fc <core_bench_state+0x94>
    50f4:	82 10 00 19 	mov  %i1, %g1
    50f8:	d6 0a 80 1c 	ldub  [ %o2 + %i4 ], %o3
    50fc:	88 0a e0 ff 	and  %o3, 0xff, %g4
    5100:	80 a1 20 2c 	cmp  %g4, 0x2c
    5104:	02 80 00 03 	be  5110 <core_bench_state+0xa8>
    5108:	92 1a c0 1a 	xor  %o3, %i2, %o1
    510c:	d2 28 40 00 	stb  %o1, [ %g1 ]
    5110:	d4 07 bf bc 	ld  [ %fp + -68 ], %o2
    5114:	82 02 80 1c 	add  %o2, %i4, %g1
    5118:	80 a0 40 18 	cmp  %g1, %i0
    511c:	0a bf ff f7 	bcs  50f8 <core_bench_state+0x90>
    5120:	c2 27 bf bc 	st  %g1, [ %fp + -68 ]
    5124:	d6 0e 40 00 	ldub  [ %i1 ], %o3
    5128:	f2 27 bf bc 	st  %i1, [ %fp + -68 ]
    512c:	80 8a e0 ff 	btst  0xff, %o3
    5130:	02 80 00 0f 	be  516c <core_bench_state+0x104>
    5134:	b4 07 bf bc 	add  %fp, -68, %i2
    5138:	90 10 00 1a 	mov  %i2, %o0
    513c:	7f ff ff 33 	call  4e08 <core_state_transition>
    5140:	92 10 00 10 	mov  %l0, %o1
    5144:	99 2a 20 02 	sll  %o0, 2, %o4
    5148:	82 07 80 0c 	add  %fp, %o4, %g1
    514c:	da 00 7f c0 	ld  [ %g1 + -64 ], %o5
    5150:	a4 03 60 01 	add  %o5, 1, %l2
    5154:	e4 20 7f c0 	st  %l2, [ %g1 + -64 ]
    5158:	c2 07 bf bc 	ld  [ %fp + -68 ], %g1
    515c:	c2 08 40 00 	ldub  [ %g1 ], %g1
    5160:	80 a0 60 00 	cmp  %g1, 0
    5164:	12 bf ff f6 	bne  513c <core_bench_state+0xd4>
    5168:	90 10 00 1a 	mov  %i2, %o0
    516c:	80 a6 40 18 	cmp  %i1, %i0
    5170:	1a 80 00 0d 	bcc  51a4 <core_bench_state+0x13c>
    5174:	f2 27 bf bc 	st  %i1, [ %fp + -68 ]
    5178:	c2 0e 40 00 	ldub  [ %i1 ], %g1
    517c:	9e 08 60 ff 	and  %g1, 0xff, %o7
    5180:	80 a3 e0 2c 	cmp  %o7, 0x2c
    5184:	02 80 00 03 	be  5190 <core_bench_state+0x128>
    5188:	82 18 40 1b 	xor  %g1, %i3, %g1
    518c:	c2 2e 40 00 	stb  %g1, [ %i1 ]
    5190:	f2 07 bf bc 	ld  [ %fp + -68 ], %i1
    5194:	b2 06 40 1c 	add  %i1, %i4, %i1
    5198:	80 a6 40 18 	cmp  %i1, %i0
    519c:	0a bf ff f7 	bcs  5178 <core_bench_state+0x110>
    51a0:	f2 27 bf bc 	st  %i1, [ %fp + -68 ]
    51a4:	b8 10 20 00 	clr  %i4
    51a8:	92 10 00 1d 	mov  %i5, %o1
    51ac:	40 00 00 b8 	call  548c <crcu32>
    51b0:	d0 04 40 1c 	ld  [ %l1 + %i4 ], %o0
    51b4:	92 10 00 08 	mov  %o0, %o1
    51b8:	40 00 00 b5 	call  548c <crcu32>
    51bc:	d0 04 00 1c 	ld  [ %l0 + %i4 ], %o0
    51c0:	b8 07 20 04 	add  %i4, 4, %i4
    51c4:	80 a7 20 20 	cmp  %i4, 0x20
    51c8:	12 bf ff f8 	bne  51a8 <core_bench_state+0x140>
    51cc:	ba 10 00 08 	mov  %o0, %i5
    51d0:	81 c7 e0 08 	ret 
    51d4:	91 e8 00 08 	restore  %g0, %o0, %o0
    51d8:	00 00 51 fc 	unimp  0x51fc
    51dc:	00 00 52 28 	unimp  0x5228
    51e0:	00 00 52 38 	unimp  0x5238
    51e4:	00 00 52 48 	unimp  0x5248
    51e8:	00 00 52 58 	unimp  0x5258
    51ec:	00 00 52 18 	unimp  0x5218

000051f0 <get_seed_32>:
    51f0:	80 a2 20 05 	cmp  %o0, 5
    51f4:	28 80 00 04 	bleu,a   5204 <get_seed_32+0x14>
    51f8:	91 2a 20 02 	sll  %o0, 2, %o0
    51fc:	81 c3 e0 08 	retl 
    5200:	90 10 20 00 	clr  %o0
    5204:	03 00 00 14 	sethi  %hi(0x5000), %g1
    5208:	82 10 61 d8 	or  %g1, 0x1d8, %g1	! 51d8 <core_bench_state+0x170>
    520c:	c2 00 40 08 	ld  [ %g1 + %o0 ], %g1
    5210:	81 c0 40 00 	jmp  %g1
    5214:	01 00 00 00 	nop 
    5218:	03 00 00 81 	sethi  %hi(0x20400), %g1
    521c:	d0 00 62 c0 	ld  [ %g1 + 0x2c0 ], %o0	! 206c0 <seed5_volatile>
    5220:	81 c3 e0 08 	retl 
    5224:	01 00 00 00 	nop 
    5228:	03 00 00 83 	sethi  %hi(0x20c00), %g1
    522c:	d0 00 62 e4 	ld  [ %g1 + 0x2e4 ], %o0	! 20ee4 <seed1_volatile>
    5230:	81 c3 e0 08 	retl 
    5234:	01 00 00 00 	nop 
    5238:	03 00 00 83 	sethi  %hi(0x20c00), %g1
    523c:	d0 00 62 e0 	ld  [ %g1 + 0x2e0 ], %o0	! 20ee0 <seed2_volatile>
    5240:	81 c3 e0 08 	retl 
    5244:	01 00 00 00 	nop 
    5248:	03 00 00 81 	sethi  %hi(0x20400), %g1
    524c:	d0 00 62 c8 	ld  [ %g1 + 0x2c8 ], %o0	! 206c8 <seed3_volatile>
    5250:	81 c3 e0 08 	retl 
    5254:	01 00 00 00 	nop 
    5258:	03 00 00 81 	sethi  %hi(0x20400), %g1
    525c:	d0 00 62 c4 	ld  [ %g1 + 0x2c4 ], %o0	! 206c4 <seed4_volatile>
    5260:	81 c3 e0 08 	retl 
    5264:	01 00 00 00 	nop 

00005268 <crcu8>:
    5268:	09 00 00 1f 	sethi  %hi(0x7c00), %g4
    526c:	19 00 00 10 	sethi  %hi(0x4000), %o4
    5270:	84 10 20 08 	mov  8, %g2
    5274:	1b 3f ff e0 	sethi  %hi(0xffff8000), %o5
    5278:	82 10 00 08 	mov  %o0, %g1
    527c:	90 10 00 09 	mov  %o1, %o0
    5280:	92 11 23 ff 	or  %g4, 0x3ff, %o1
    5284:	10 80 00 07 	b  52a0 <crcu8+0x38>
    5288:	88 13 20 02 	or  %o4, 2, %g4
    528c:	84 00 bf ff 	add  %g2, -1, %g2
    5290:	91 32 20 01 	srl  %o0, 1, %o0
    5294:	80 88 a0 ff 	btst  0xff, %g2
    5298:	02 80 00 0e 	be  52d0 <crcu8+0x68>
    529c:	90 0a 00 09 	and  %o0, %o1, %o0
    52a0:	86 18 40 08 	xor  %g1, %o0, %g3
    52a4:	80 88 e0 01 	btst  1, %g3
    52a8:	02 bf ff f9 	be  528c <crcu8+0x24>
    52ac:	83 30 60 01 	srl  %g1, 1, %g1
    52b0:	98 1a 00 04 	xor  %o0, %g4, %o4
    52b4:	84 00 bf ff 	add  %g2, -1, %g2
    52b8:	87 33 20 01 	srl  %o4, 1, %g3
    52bc:	80 88 a0 ff 	btst  0xff, %g2
    52c0:	90 10 c0 0d 	or  %g3, %o5, %o0
    52c4:	99 2a 20 10 	sll  %o0, 0x10, %o4
    52c8:	12 bf ff f6 	bne  52a0 <crcu8+0x38>
    52cc:	91 33 20 10 	srl  %o4, 0x10, %o0
    52d0:	81 c3 e0 08 	retl 
    52d4:	01 00 00 00 	nop 

000052d8 <crcu16>:
    52d8:	09 00 00 1f 	sethi  %hi(0x7c00), %g4
    52dc:	19 00 00 10 	sethi  %hi(0x4000), %o4
    52e0:	84 10 00 08 	mov  %o0, %g2
    52e4:	82 10 20 08 	mov  8, %g1
    52e8:	88 11 23 ff 	or  %g4, 0x3ff, %g4
    52ec:	98 13 20 02 	or  %o4, 2, %o4
    52f0:	10 80 00 07 	b  530c <crcu16+0x34>
    52f4:	1b 3f ff e0 	sethi  %hi(0xffff8000), %o5
    52f8:	82 00 7f ff 	add  %g1, -1, %g1
    52fc:	93 32 60 01 	srl  %o1, 1, %o1
    5300:	80 88 60 ff 	btst  0xff, %g1
    5304:	02 80 00 0f 	be  5340 <crcu16+0x68>
    5308:	92 0a 40 04 	and  %o1, %g4, %o1
    530c:	86 1a 40 02 	xor  %o1, %g2, %g3
    5310:	84 08 a0 ff 	and  %g2, 0xff, %g2
    5314:	80 88 e0 01 	btst  1, %g3
    5318:	02 bf ff f8 	be  52f8 <crcu16+0x20>
    531c:	85 30 a0 01 	srl  %g2, 1, %g2
    5320:	86 1a 40 0c 	xor  %o1, %o4, %g3
    5324:	82 00 7f ff 	add  %g1, -1, %g1
    5328:	93 30 e0 01 	srl  %g3, 1, %o1
    532c:	80 88 60 ff 	btst  0xff, %g1
    5330:	86 12 40 0d 	or  %o1, %o5, %g3
    5334:	93 28 e0 10 	sll  %g3, 0x10, %o1
    5338:	12 bf ff f5 	bne  530c <crcu16+0x34>
    533c:	93 32 60 10 	srl  %o1, 0x10, %o1
    5340:	09 00 00 1f 	sethi  %hi(0x7c00), %g4
    5344:	1b 00 00 10 	sethi  %hi(0x4000), %o5
    5348:	91 32 20 08 	srl  %o0, 8, %o0
    534c:	98 11 23 ff 	or  %g4, 0x3ff, %o4
    5350:	86 13 60 02 	or  %o5, 2, %g3
    5354:	82 10 20 08 	mov  8, %g1
    5358:	10 80 00 07 	b  5374 <crcu16+0x9c>
    535c:	09 3f ff e0 	sethi  %hi(0xffff8000), %g4
    5360:	82 00 7f ff 	add  %g1, -1, %g1
    5364:	93 32 60 01 	srl  %o1, 1, %o1
    5368:	80 88 60 ff 	btst  0xff, %g1
    536c:	02 80 00 0f 	be  53a8 <crcu16+0xd0>
    5370:	92 0a 40 0c 	and  %o1, %o4, %o1
    5374:	84 1a 40 08 	xor  %o1, %o0, %g2
    5378:	90 0a 20 ff 	and  %o0, 0xff, %o0
    537c:	80 88 a0 01 	btst  1, %g2
    5380:	02 bf ff f8 	be  5360 <crcu16+0x88>
    5384:	91 32 20 01 	srl  %o0, 1, %o0
    5388:	82 00 7f ff 	add  %g1, -1, %g1
    538c:	9a 1a 40 03 	xor  %o1, %g3, %o5
    5390:	80 88 60 ff 	btst  0xff, %g1
    5394:	85 33 60 01 	srl  %o5, 1, %g2
    5398:	92 10 80 04 	or  %g2, %g4, %o1
    539c:	9b 2a 60 10 	sll  %o1, 0x10, %o5
    53a0:	12 bf ff f5 	bne  5374 <crcu16+0x9c>
    53a4:	93 33 60 10 	srl  %o5, 0x10, %o1
    53a8:	81 c3 e0 08 	retl 
    53ac:	90 10 00 09 	mov  %o1, %o0

000053b0 <crc16>:
    53b0:	09 00 00 1f 	sethi  %hi(0x7c00), %g4
    53b4:	19 00 00 10 	sethi  %hi(0x4000), %o4
    53b8:	84 10 00 08 	mov  %o0, %g2
    53bc:	82 10 20 08 	mov  8, %g1
    53c0:	88 11 23 ff 	or  %g4, 0x3ff, %g4
    53c4:	98 13 20 02 	or  %o4, 2, %o4
    53c8:	10 80 00 07 	b  53e4 <crc16+0x34>
    53cc:	1b 3f ff e0 	sethi  %hi(0xffff8000), %o5
    53d0:	82 00 7f ff 	add  %g1, -1, %g1
    53d4:	93 32 60 01 	srl  %o1, 1, %o1
    53d8:	80 88 60 ff 	btst  0xff, %g1
    53dc:	02 80 00 0f 	be  5418 <crc16+0x68>
    53e0:	92 0a 40 04 	and  %o1, %g4, %o1
    53e4:	86 1a 40 02 	xor  %o1, %g2, %g3
    53e8:	84 08 a0 ff 	and  %g2, 0xff, %g2
    53ec:	80 88 e0 01 	btst  1, %g3
    53f0:	02 bf ff f8 	be  53d0 <crc16+0x20>
    53f4:	85 30 a0 01 	srl  %g2, 1, %g2
    53f8:	86 1a 40 0c 	xor  %o1, %o4, %g3
    53fc:	82 00 7f ff 	add  %g1, -1, %g1
    5400:	93 30 e0 01 	srl  %g3, 1, %o1
    5404:	80 88 60 ff 	btst  0xff, %g1
    5408:	86 12 40 0d 	or  %o1, %o5, %g3
    540c:	93 28 e0 10 	sll  %g3, 0x10, %o1
    5410:	12 bf ff f5 	bne  53e4 <crc16+0x34>
    5414:	93 32 60 10 	srl  %o1, 0x10, %o1
    5418:	09 00 00 1f 	sethi  %hi(0x7c00), %g4
    541c:	91 2a 20 10 	sll  %o0, 0x10, %o0
    5420:	1b 00 00 10 	sethi  %hi(0x4000), %o5
    5424:	98 11 23 ff 	or  %g4, 0x3ff, %o4
    5428:	91 32 20 18 	srl  %o0, 0x18, %o0
    542c:	82 10 20 08 	mov  8, %g1
    5430:	86 13 60 02 	or  %o5, 2, %g3
    5434:	10 80 00 07 	b  5450 <crc16+0xa0>
    5438:	09 3f ff e0 	sethi  %hi(0xffff8000), %g4
    543c:	82 00 7f ff 	add  %g1, -1, %g1
    5440:	93 32 60 01 	srl  %o1, 1, %o1
    5444:	80 88 60 ff 	btst  0xff, %g1
    5448:	02 80 00 0f 	be  5484 <crc16+0xd4>
    544c:	92 0a 40 0c 	and  %o1, %o4, %o1
    5450:	84 1a 40 08 	xor  %o1, %o0, %g2
    5454:	90 0a 20 ff 	and  %o0, 0xff, %o0
    5458:	80 88 a0 01 	btst  1, %g2
    545c:	02 bf ff f8 	be  543c <crc16+0x8c>
    5460:	91 32 20 01 	srl  %o0, 1, %o0
    5464:	82 00 7f ff 	add  %g1, -1, %g1
    5468:	9a 1a 40 03 	xor  %o1, %g3, %o5
    546c:	80 88 60 ff 	btst  0xff, %g1
    5470:	85 33 60 01 	srl  %o5, 1, %g2
    5474:	92 10 80 04 	or  %g2, %g4, %o1
    5478:	9b 2a 60 10 	sll  %o1, 0x10, %o5
    547c:	12 bf ff f5 	bne  5450 <crc16+0xa0>
    5480:	93 33 60 10 	srl  %o5, 0x10, %o1
    5484:	81 c3 e0 08 	retl 
    5488:	90 10 00 09 	mov  %o1, %o0

0000548c <crcu32>:
    548c:	9d e3 bf a0 	save  %sp, -96, %sp
    5490:	92 10 00 19 	mov  %i1, %o1
    5494:	91 2e 20 10 	sll  %i0, 0x10, %o0
    5498:	b1 3e 20 10 	sra  %i0, 0x10, %i0
    549c:	7f ff ff c5 	call  53b0 <crc16>
    54a0:	91 3a 20 10 	sra  %o0, 0x10, %o0
    54a4:	7f ff ff c3 	call  53b0 <crc16>
    54a8:	93 e8 00 08 	restore  %g0, %o0, %o1

000054ac <check_data_types>:
    54ac:	81 c3 e0 08 	retl 
    54b0:	90 10 20 00 	clr  %o0

000054b4 <cvt>:
    54b4:	9d e3 bf 90 	save  %sp, -112, %sp
    54b8:	f0 3f bf f8 	std  %i0, [ %fp + -8 ]
    54bc:	de 07 a0 5c 	ld  [ %fp + 0x5c ], %o7
    54c0:	d5 1f bf f8 	ldd  [ %fp + -8 ], %f10
    54c4:	80 a6 a0 00 	cmp  %i2, 0
    54c8:	06 80 00 05 	bl  54dc <cvt+0x28>
    54cc:	84 10 20 00 	clr  %g2
    54d0:	80 a6 a0 4e 	cmp  %i2, 0x4e
    54d4:	04 80 00 a5 	ble  5768 <cvt+0x2b4>
    54d8:	84 10 20 4e 	mov  0x4e, %g2
    54dc:	03 00 00 81 	sethi  %hi(0x20400), %g1
    54e0:	d1 18 62 88 	ldd  [ %g1 + 0x288 ], %f8	! 20688 <state_known_crc+0x674>
    54e4:	81 aa 8a c8 	fcmped  %f10, %f8
    54e8:	01 00 00 00 	nop 
    54ec:	09 80 00 99 	fbl  5750 <cvt+0x29c>
    54f0:	86 10 20 01 	mov  1, %g3	! 1 <_start+0x1>
    54f4:	c0 27 00 00 	clr  [ %i4 ]
    54f8:	81 a0 1a 4a 	fdtoi  %f10, %f0
    54fc:	d9 18 62 88 	ldd  [ %g1 + 0x288 ], %f12
    5500:	a9 a0 19 00 	fitod  %f0, %f20
    5504:	81 ad 0a 4c 	fcmpd  %f20, %f12
    5508:	01 00 00 00 	nop 
    550c:	13 80 00 65 	fbe  56a0 <cvt+0x1ec>
    5510:	95 a2 88 d4 	fsubd  %f10, %f20, %f10
    5514:	03 00 00 81 	sethi  %hi(0x20400), %g1
    5518:	9a 07 60 50 	add  %i5, 0x50, %o5
    551c:	09 00 00 81 	sethi  %hi(0x20400), %g4
    5520:	e5 18 62 a8 	ldd  [ %g1 + 0x2a8 ], %f18
    5524:	03 00 00 81 	sethi  %hi(0x20400), %g1
    5528:	b8 10 00 0d 	mov  %o5, %i4
    552c:	86 10 20 00 	clr  %g3
    5530:	c9 18 62 88 	ldd  [ %g1 + 0x288 ], %f4
    5534:	dd 19 22 98 	ldd  [ %g4 + 0x298 ], %f14
    5538:	8d a5 09 ce 	fdivd  %f20, %f14, %f6
    553c:	b8 07 3f ff 	add  %i4, -1, %i4
    5540:	c2 07 bf f4 	ld  [ %fp + -12 ], %g1
    5544:	83 a0 1a 46 	fdtoi  %f6, %f1
    5548:	b0 00 60 30 	add  %g1, 0x30, %i0
    554c:	a9 a0 19 01 	fitod  %f1, %f20
    5550:	f0 2f 00 00 	stb  %i0, [ %i4 ]
    5554:	ad a1 88 d4 	fsubd  %f6, %f20, %f22
    5558:	81 ad 0a 44 	fcmpd  %f20, %f4
    555c:	b1 a5 88 52 	faddd  %f22, %f18, %f24
    5560:	99 a6 09 4e 	fmuld  %f24, %f14, %f12
    5564:	87 a0 1a 4c 	fdtoi  %f12, %f3
    5568:	c7 27 bf f4 	st  %f3, [ %fp + -12 ]
    556c:	01 00 00 00 	nop 
    5570:	03 bf ff f2 	fbne  5538 <cvt+0x84>
    5574:	86 00 e0 01 	inc  %g3
    5578:	80 a3 40 1c 	cmp  %o5, %i4
    557c:	08 80 00 0e 	bleu  55b4 <cvt+0x100>
    5580:	82 10 00 1d 	mov  %i5, %g1
    5584:	82 07 60 4f 	add  %i5, 0x4f, %g1
    5588:	b2 10 00 1c 	mov  %i4, %i1
    558c:	10 80 00 04 	b  559c <cvt+0xe8>
    5590:	b4 10 00 1d 	mov  %i5, %i2
    5594:	f0 0e 60 01 	ldub  [ %i1 + 1 ], %i0
    5598:	b2 06 60 01 	inc  %i1
    559c:	f0 2e 80 00 	stb  %i0, [ %i2 ]
    55a0:	80 a6 40 01 	cmp  %i1, %g1
    55a4:	12 bf ff fc 	bne  5594 <cvt+0xe0>
    55a8:	b4 06 a0 01 	inc  %i2
    55ac:	82 23 40 1c 	sub  %o5, %i4, %g1
    55b0:	82 07 40 01 	add  %i5, %g1, %g1
    55b4:	80 a3 e0 00 	cmp  %o7, 0
    55b8:	12 80 00 03 	bne  55c4 <cvt+0x110>
    55bc:	84 07 40 02 	add  %i5, %g2, %g2
    55c0:	84 00 80 03 	add  %g2, %g3, %g2
    55c4:	80 a0 80 1d 	cmp  %g2, %i5
    55c8:	0a 80 00 5f 	bcs  5744 <cvt+0x290>
    55cc:	c6 26 c0 00 	st  %g3, [ %i3 ]
    55d0:	80 a0 40 02 	cmp  %g1, %g2
    55d4:	18 80 00 17 	bgu  5630 <cvt+0x17c>
    55d8:	b2 07 60 50 	add  %i5, 0x50, %i1
    55dc:	07 00 00 81 	sethi  %hi(0x20400), %g3
    55e0:	80 a0 40 19 	cmp  %g1, %i1
    55e4:	1a 80 00 13 	bcc  5630 <cvt+0x17c>
    55e8:	88 10 e2 98 	or  %g3, 0x298, %g4
    55ec:	10 80 00 05 	b  5600 <cvt+0x14c>
    55f0:	f5 19 00 00 	ldd  [ %g4 ], %f26
    55f4:	80 a0 40 19 	cmp  %g1, %i1
    55f8:	02 80 00 0f 	be  5634 <cvt+0x180>
    55fc:	80 a0 80 19 	cmp  %g2, %i1
    5600:	f8 07 bf f4 	ld  [ %fp + -12 ], %i4
    5604:	b9 a2 89 5a 	fmuld  %f10, %f26, %f28
    5608:	b0 07 20 30 	add  %i4, 0x30, %i0
    560c:	8b a0 1a 5c 	fdtoi  %f28, %f5
    5610:	f0 28 40 00 	stb  %i0, [ %g1 ]
    5614:	82 00 60 01 	inc  %g1
    5618:	bd a0 19 05 	fitod  %f5, %f30
    561c:	80 a0 80 01 	cmp  %g2, %g1
    5620:	8f a0 1a 5e 	fdtoi  %f30, %f7
    5624:	cf 27 bf f4 	st  %f7, [ %fp + -12 ]
    5628:	1a bf ff f3 	bcc  55f4 <cvt+0x140>
    562c:	95 a7 08 de 	fsubd  %f28, %f30, %f10
    5630:	80 a0 80 19 	cmp  %g2, %i1
    5634:	1a 80 00 4a 	bcc  575c <cvt+0x2a8>
    5638:	88 10 00 02 	mov  %g2, %g4
    563c:	f4 08 80 00 	ldub  [ %g2 ], %i2
    5640:	86 10 20 30 	mov  0x30, %g3
    5644:	b8 10 20 31 	mov  0x31, %i4
    5648:	b2 06 a0 05 	add  %i2, 5, %i1
    564c:	82 10 00 19 	mov  %i1, %g1
    5650:	f2 28 80 00 	stb  %i1, [ %g2 ]
    5654:	83 28 60 18 	sll  %g1, 0x18, %g1
    5658:	83 38 60 18 	sra  %g1, 0x18, %g1
    565c:	80 a0 60 39 	cmp  %g1, 0x39
    5660:	24 80 00 0e 	ble,a   5698 <cvt+0x1e4>
    5664:	c0 29 00 00 	clrb  [ %g4 ]
    5668:	80 a0 80 1d 	cmp  %g2, %i5
    566c:	08 80 00 2a 	bleu  5714 <cvt+0x260>
    5670:	c6 28 80 00 	stb  %g3, [ %g2 ]
    5674:	c2 08 bf ff 	ldub  [ %g2 + -1 ], %g1
    5678:	82 00 60 01 	inc  %g1
    567c:	c2 28 bf ff 	stb  %g1, [ %g2 + -1 ]
    5680:	83 28 60 18 	sll  %g1, 0x18, %g1
    5684:	83 38 60 18 	sra  %g1, 0x18, %g1
    5688:	80 a0 60 39 	cmp  %g1, 0x39
    568c:	14 bf ff f7 	bg  5668 <cvt+0x1b4>
    5690:	84 00 bf ff 	add  %g2, -1, %g2
    5694:	c0 29 00 00 	clrb  [ %g4 ]
    5698:	81 c7 e0 08 	ret 
    569c:	91 e8 00 1d 	restore  %g0, %i5, %o0
    56a0:	81 aa 8a cc 	fcmped  %f10, %f12
    56a4:	01 00 00 00 	nop 
    56a8:	1d 80 00 32 	fbule  5770 <cvt+0x2bc>
    56ac:	01 00 00 00 	nop 
    56b0:	35 00 00 81 	sethi  %hi(0x20400), %i2
    56b4:	03 00 00 81 	sethi  %hi(0x20400), %g1
    56b8:	86 10 20 00 	clr  %g3
    56bc:	c5 1e a2 98 	ldd  [ %i2 + 0x298 ], %f2
    56c0:	d1 18 62 78 	ldd  [ %g1 + 0x278 ], %f8
    56c4:	e1 1e a2 98 	ldd  [ %i2 + 0x298 ], %f16
    56c8:	99 a2 89 42 	fmuld  %f10, %f2, %f12
    56cc:	9d a0 00 28 	fmovs  %f8, %f14
    56d0:	81 ab 0a c8 	fcmped  %f12, %f8
    56d4:	01 00 00 00 	nop 
    56d8:	09 80 00 06 	fbl  56f0 <cvt+0x23c>
    56dc:	9f a0 00 29 	fmovs  %f9, %f15
    56e0:	10 bf ff b5 	b  55b4 <cvt+0x100>
    56e4:	82 10 00 1d 	mov  %i5, %g1
    56e8:	9b a0 00 29 	fmovs  %f9, %f13
    56ec:	99 a0 00 28 	fmovs  %f8, %f12
    56f0:	91 a3 09 50 	fmuld  %f12, %f16, %f8
    56f4:	81 aa 0a ce 	fcmped  %f8, %f14
    56f8:	01 00 00 00 	nop 
    56fc:	09 bf ff fb 	fbl  56e8 <cvt+0x234>
    5700:	86 00 ff ff 	add  %g3, -1, %g3
    5704:	82 10 00 1d 	mov  %i5, %g1
    5708:	95 a0 00 2c 	fmovs  %f12, %f10
    570c:	10 bf ff aa 	b  55b4 <cvt+0x100>
    5710:	97 a0 00 2d 	fmovs  %f13, %f11
    5714:	c2 06 c0 00 	ld  [ %i3 ], %g1
    5718:	80 a3 e0 00 	cmp  %o7, 0
    571c:	f8 28 80 00 	stb  %i4, [ %g2 ]
    5720:	82 00 60 01 	inc  %g1
    5724:	12 80 00 06 	bne  573c <cvt+0x288>
    5728:	c2 26 c0 00 	st  %g1, [ %i3 ]
    572c:	80 a1 00 1d 	cmp  %g4, %i5
    5730:	38 80 00 02 	bgu,a   5738 <cvt+0x284>
    5734:	c6 29 00 00 	stb  %g3, [ %g4 ]
    5738:	88 01 20 01 	inc  %g4
    573c:	10 bf ff c6 	b  5654 <cvt+0x1a0>
    5740:	c2 08 80 00 	ldub  [ %g2 ], %g1
    5744:	c0 2f 40 00 	clrb  [ %i5 ]
    5748:	81 c7 e0 08 	ret 
    574c:	91 e8 00 1d 	restore  %g0, %i5, %o0
    5750:	95 a0 00 aa 	fnegs  %f10, %f10
    5754:	10 bf ff 69 	b  54f8 <cvt+0x44>
    5758:	c6 27 00 00 	st  %g3, [ %i4 ]
    575c:	c0 2f 60 4f 	clrb  [ %i5 + 0x4f ]
    5760:	81 c7 e0 08 	ret 
    5764:	91 e8 00 1d 	restore  %g0, %i5, %o0
    5768:	10 bf ff 5d 	b  54dc <cvt+0x28>
    576c:	84 10 00 1a 	mov  %i2, %g2
    5770:	82 10 00 1d 	mov  %i5, %g1
    5774:	10 bf ff 90 	b  55b4 <cvt+0x100>
    5778:	86 10 20 00 	clr  %g3

0000577c <__modf>:
    577c:	9c 03 bf b0 	add  %sp, -80, %sp
    5780:	c1 1b a0 48 	ldd  [ %sp + 0x48 ], %f0
    5784:	d0 3b a0 48 	std  %o0, [ %sp + 0x48 ]
    5788:	9c 23 bf b0 	sub  %sp, -80, %sp
    578c:	91 a0 1a 40 	fdtoi  %f0, %f8
    5790:	85 a0 19 08 	fitod  %f8, %f2
    5794:	81 a0 08 c2 	fsubd  %f0, %f2, %f0
    5798:	81 c3 e0 08 	retl 
    579c:	c5 3a 80 00 	std  %f2, [ %o2 ]

000057a0 <ecvt>:
    57a0:	9d e3 bf 98 	save  %sp, -104, %sp
    57a4:	82 10 20 01 	mov  1, %g1
    57a8:	90 10 00 18 	mov  %i0, %o0
    57ac:	92 10 00 19 	mov  %i1, %o1
    57b0:	c2 23 a0 5c 	st  %g1, [ %sp + 0x5c ]
    57b4:	94 10 00 1a 	mov  %i2, %o2
    57b8:	96 10 00 1b 	mov  %i3, %o3
    57bc:	98 10 00 1c 	mov  %i4, %o4
    57c0:	1b 00 00 83 	sethi  %hi(0x20c00), %o5
    57c4:	7f ff ff 3c 	call  54b4 <cvt>
    57c8:	9a 13 62 f0 	or  %o5, 0x2f0, %o5	! 20ef0 <CVTBUF>
    57cc:	81 c7 e0 08 	ret 
    57d0:	91 e8 00 08 	restore  %g0, %o0, %o0

000057d4 <ecvtbuf>:
    57d4:	9d e3 bf 98 	save  %sp, -104, %sp
    57d8:	82 10 20 01 	mov  1, %g1
    57dc:	90 10 00 18 	mov  %i0, %o0
    57e0:	92 10 00 19 	mov  %i1, %o1
    57e4:	c2 23 a0 5c 	st  %g1, [ %sp + 0x5c ]
    57e8:	94 10 00 1a 	mov  %i2, %o2
    57ec:	96 10 00 1b 	mov  %i3, %o3
    57f0:	98 10 00 1c 	mov  %i4, %o4
    57f4:	7f ff ff 30 	call  54b4 <cvt>
    57f8:	9a 10 00 1d 	mov  %i5, %o5
    57fc:	81 c7 e0 08 	ret 
    5800:	91 e8 00 08 	restore  %g0, %o0, %o0

00005804 <fcvt>:
    5804:	9d e3 bf 98 	save  %sp, -104, %sp
    5808:	1b 00 00 83 	sethi  %hi(0x20c00), %o5
    580c:	c0 23 a0 5c 	clr  [ %sp + 0x5c ]
    5810:	90 10 00 18 	mov  %i0, %o0
    5814:	92 10 00 19 	mov  %i1, %o1
    5818:	94 10 00 1a 	mov  %i2, %o2
    581c:	96 10 00 1b 	mov  %i3, %o3
    5820:	98 10 00 1c 	mov  %i4, %o4
    5824:	7f ff ff 24 	call  54b4 <cvt>
    5828:	9a 13 62 f0 	or  %o5, 0x2f0, %o5
    582c:	81 c7 e0 08 	ret 
    5830:	91 e8 00 08 	restore  %g0, %o0, %o0

00005834 <fcvtbuf>:
    5834:	9d e3 bf 98 	save  %sp, -104, %sp
    5838:	92 10 00 19 	mov  %i1, %o1
    583c:	94 10 00 1a 	mov  %i2, %o2
    5840:	96 10 00 1b 	mov  %i3, %o3
    5844:	98 10 00 1c 	mov  %i4, %o4
    5848:	c0 23 a0 5c 	clr  [ %sp + 0x5c ]
    584c:	90 10 00 18 	mov  %i0, %o0
    5850:	7f ff ff 19 	call  54b4 <cvt>
    5854:	9a 10 00 1d 	mov  %i5, %o5
    5858:	81 c7 e0 08 	ret 
    585c:	91 e8 00 08 	restore  %g0, %o0, %o0
    5860:	00 00 62 b8 	unimp  0x62b8
    5864:	00 00 61 24 	unimp  0x6124
    5868:	00 00 61 24 	unimp  0x6124
    586c:	00 00 61 24 	unimp  0x6124
    5870:	00 00 61 24 	unimp  0x6124
    5874:	00 00 61 24 	unimp  0x6124
    5878:	00 00 61 24 	unimp  0x6124
    587c:	00 00 61 24 	unimp  0x6124
    5880:	00 00 61 24 	unimp  0x6124
    5884:	00 00 61 24 	unimp  0x6124
    5888:	00 00 61 24 	unimp  0x6124
    588c:	00 00 61 24 	unimp  0x6124
    5890:	00 00 61 24 	unimp  0x6124
    5894:	00 00 61 24 	unimp  0x6124
    5898:	00 00 61 24 	unimp  0x6124
    589c:	00 00 61 24 	unimp  0x6124
    58a0:	00 00 61 24 	unimp  0x6124
    58a4:	00 00 61 24 	unimp  0x6124
    58a8:	00 00 61 24 	unimp  0x6124
    58ac:	00 00 61 24 	unimp  0x6124
    58b0:	00 00 61 24 	unimp  0x6124
    58b4:	00 00 61 24 	unimp  0x6124
    58b8:	00 00 61 24 	unimp  0x6124
    58bc:	00 00 67 70 	unimp  0x6770
    58c0:	00 00 61 24 	unimp  0x6124
    58c4:	00 00 61 24 	unimp  0x6124
    58c8:	00 00 61 24 	unimp  0x6124
    58cc:	00 00 61 24 	unimp  0x6124
    58d0:	00 00 61 24 	unimp  0x6124
    58d4:	00 00 61 24 	unimp  0x6124
    58d8:	00 00 61 24 	unimp  0x6124
    58dc:	00 00 61 24 	unimp  0x6124
    58e0:	00 00 62 bc 	unimp  0x62bc
    58e4:	00 00 61 24 	unimp  0x6124
    58e8:	00 00 6f e8 	unimp  0x6fe8
    58ec:	00 00 6f dc 	unimp  0x6fdc
    58f0:	00 00 61 24 	unimp  0x6124
    58f4:	00 00 6a 9c 	unimp  0x6a9c
    58f8:	00 00 61 24 	unimp  0x6124
    58fc:	00 00 61 24 	unimp  0x6124
    5900:	00 00 6f dc 	unimp  0x6fdc
    5904:	00 00 61 24 	unimp  0x6124
    5908:	00 00 61 24 	unimp  0x6124
    590c:	00 00 61 24 	unimp  0x6124
    5910:	00 00 61 24 	unimp  0x6124
    5914:	00 00 61 24 	unimp  0x6124
    5918:	00 00 6a 94 	unimp  0x6a94
    591c:	00 00 6a 60 	unimp  0x6a60
    5920:	00 00 61 24 	unimp  0x6124
    5924:	00 00 61 24 	unimp  0x6124
    5928:	00 00 67 9c 	unimp  0x679c
    592c:	00 00 61 24 	unimp  0x6124
    5930:	00 00 6f d4 	unimp  0x6fd4
    5934:	00 00 61 24 	unimp  0x6124
    5938:	00 00 61 24 	unimp  0x6124
    593c:	00 00 6f cc 	unimp  0x6fcc
    5940:	00 00 62 00 	unimp  0x6200
    5944:	00 00 60 84 	unimp  0x6084
    5948:	00 00 60 84 	unimp  0x6084
    594c:	00 00 61 f4 	unimp  0x61f4
    5950:	00 00 60 84 	unimp  0x6084
    5954:	00 00 60 84 	unimp  0x6084
    5958:	00 00 60 84 	unimp  0x6084
    595c:	00 00 60 84 	unimp  0x6084
    5960:	00 00 60 84 	unimp  0x6084
    5964:	00 00 60 84 	unimp  0x6084
    5968:	00 00 60 84 	unimp  0x6084
    596c:	00 00 61 e8 	unimp  0x61e8
    5970:	00 00 60 84 	unimp  0x6084
    5974:	00 00 61 dc 	unimp  0x61dc
    5978:	00 00 60 84 	unimp  0x6084
    597c:	00 00 60 84 	unimp  0x6084
    5980:	00 00 61 d0 	unimp  0x61d0

00005984 <number>:
    5984:	9d e3 bf 58 	save  %sp, -168, %sp
    5988:	80 8f 60 40 	btst  0x40, %i5
    598c:	02 80 01 28 	be  5e2c <number+0x4a8>
    5990:	1f 00 00 81 	sethi  %hi(0x20400), %o7
    5994:	03 00 00 81 	sethi  %hi(0x20400), %g1
    5998:	9e 10 62 48 	or  %g1, 0x248, %o7	! 20648 <state_known_crc+0x634>
    599c:	80 8f 60 10 	btst  0x10, %i5
    59a0:	32 80 00 02 	bne,a   59a8 <number+0x24>
    59a4:	ba 0f 7f fe 	and  %i5, -2, %i5
    59a8:	82 06 bf fe 	add  %i2, -2, %g1
    59ac:	80 a0 60 22 	cmp  %g1, 0x22
    59b0:	18 80 01 32 	bgu  5e78 <number+0x4f4>
    59b4:	82 0f 60 01 	and  %i5, 1, %g1
    59b8:	80 a0 00 01 	cmp  %g0, %g1
    59bc:	9a 40 3f ff 	addx  %g0, -1, %o5
    59c0:	94 10 20 00 	clr  %o2
    59c4:	84 0b 60 f0 	and  %o5, 0xf0, %g2
    59c8:	80 8f 60 02 	btst  2, %i5
    59cc:	02 80 00 0c 	be  59fc <number+0x78>
    59d0:	9a 00 a0 30 	add  %g2, 0x30, %o5
    59d4:	80 a6 60 00 	cmp  %i1, 0
    59d8:	06 80 01 39 	bl  5ebc <number+0x538>
    59dc:	80 8f 60 04 	btst  4, %i5
    59e0:	32 80 01 29 	bne,a   5e84 <number+0x500>
    59e4:	b6 06 ff ff 	add  %i3, -1, %i3
    59e8:	80 8f 60 08 	btst  8, %i5
    59ec:	02 80 00 05 	be  5a00 <number+0x7c>
    59f0:	92 8f 60 20 	andcc  %i5, 0x20, %o1
    59f4:	b6 06 ff ff 	add  %i3, -1, %i3
    59f8:	94 10 20 20 	mov  0x20, %o2
    59fc:	92 8f 60 20 	andcc  %i5, 0x20, %o1
    5a00:	02 80 00 08 	be  5a20 <number+0x9c>
    5a04:	80 a6 60 00 	cmp  %i1, 0
    5a08:	80 a6 a0 10 	cmp  %i2, 0x10
    5a0c:	02 80 01 27 	be  5ea8 <number+0x524>
    5a10:	82 1e a0 08 	xor  %i2, 8, %g1
    5a14:	80 a0 00 01 	cmp  %g0, %g1
    5a18:	b6 46 ff ff 	addx  %i3, -1, %i3
    5a1c:	80 a6 60 00 	cmp  %i1, 0
    5a20:	12 80 01 06 	bne  5e38 <number+0x4b4>
    5a24:	82 10 20 00 	clr  %g1
    5a28:	82 10 20 30 	mov  0x30, %g1
    5a2c:	88 07 bf b8 	add  %fp, -72, %g4
    5a30:	c2 2f bf b8 	stb  %g1, [ %fp + -72 ]
    5a34:	82 10 20 01 	mov  1, %g1
    5a38:	80 a0 40 1c 	cmp  %g1, %i4
    5a3c:	16 80 00 03 	bge  5a48 <number+0xc4>
    5a40:	98 10 00 01 	mov  %g1, %o4
    5a44:	98 10 00 1c 	mov  %i4, %o4
    5a48:	80 8f 60 11 	btst  0x11, %i5
    5a4c:	12 80 00 39 	bne  5b30 <number+0x1ac>
    5a50:	b6 26 c0 0c 	sub  %i3, %o4, %i3
    5a54:	80 a6 e0 00 	cmp  %i3, 0
    5a58:	04 80 01 25 	ble  5eec <number+0x568>
    5a5c:	9e 06 ff ff 	add  %i3, -1, %o7
    5a60:	b8 20 00 18 	neg  %i0, %i4
    5a64:	a2 10 00 1b 	mov  %i3, %l1
    5a68:	84 0f 20 03 	and  %i4, 3, %g2
    5a6c:	80 a6 c0 02 	cmp  %i3, %g2
    5a70:	08 80 00 03 	bleu  5a7c <number+0xf8>
    5a74:	b8 10 00 1b 	mov  %i3, %i4
    5a78:	b8 10 00 02 	mov  %g2, %i4
    5a7c:	80 a6 e0 03 	cmp  %i3, 3
    5a80:	28 80 00 02 	bleu,a   5a88 <number+0x104>
    5a84:	b8 10 00 1b 	mov  %i3, %i4
    5a88:	80 a7 20 00 	cmp  %i4, 0
    5a8c:	02 80 00 0c 	be  5abc <number+0x138>
    5a90:	84 10 00 18 	mov  %i0, %g2
    5a94:	96 10 20 20 	mov  0x20, %o3
    5a98:	d6 28 80 00 	stb  %o3, [ %g2 ]
    5a9c:	84 00 a0 01 	inc  %g2
    5aa0:	86 20 80 18 	sub  %g2, %i0, %g3
    5aa4:	80 a7 00 03 	cmp  %i4, %g3
    5aa8:	18 bf ff fc 	bgu  5a98 <number+0x114>
    5aac:	9e 03 ff ff 	add  %o7, -1, %o7
    5ab0:	80 a6 c0 1c 	cmp  %i3, %i4
    5ab4:	22 80 00 1e 	be,a   5b2c <number+0x1a8>
    5ab8:	b6 10 3f ff 	mov  -1, %i3
    5abc:	b6 26 c0 1c 	sub  %i3, %i4, %i3
    5ac0:	97 36 e0 02 	srl  %i3, 2, %o3
    5ac4:	a1 2a e0 02 	sll  %o3, 2, %l0
    5ac8:	80 a4 20 00 	cmp  %l0, 0
    5acc:	02 80 00 0e 	be  5b04 <number+0x180>
    5ad0:	b8 06 00 1c 	add  %i0, %i4, %i4
    5ad4:	11 08 08 08 	sethi  %hi(0x20202000), %o0
    5ad8:	86 10 20 00 	clr  %g3
    5adc:	90 12 20 20 	or  %o0, 0x20, %o0
    5ae0:	d0 27 00 00 	st  %o0, [ %i4 ]
    5ae4:	86 00 e0 01 	inc  %g3
    5ae8:	80 a0 c0 0b 	cmp  %g3, %o3
    5aec:	0a bf ff fd 	bcs  5ae0 <number+0x15c>
    5af0:	b8 07 20 04 	add  %i4, 4, %i4
    5af4:	84 00 80 10 	add  %g2, %l0, %g2
    5af8:	80 a6 c0 10 	cmp  %i3, %l0
    5afc:	02 80 00 0b 	be  5b28 <number+0x1a4>
    5b00:	9e 23 c0 10 	sub  %o7, %l0, %o7
    5b04:	86 10 20 00 	clr  %g3
    5b08:	9e 03 e0 01 	inc  %o7
    5b0c:	b6 10 20 20 	mov  0x20, %i3
    5b10:	f6 28 80 03 	stb  %i3, [ %g2 + %g3 ]
    5b14:	86 00 e0 01 	inc  %g3
    5b18:	b8 23 c0 03 	sub  %o7, %g3, %i4
    5b1c:	80 a7 20 00 	cmp  %i4, 0
    5b20:	34 bf ff fd 	bg,a   5b14 <number+0x190>
    5b24:	f6 28 80 03 	stb  %i3, [ %g2 + %g3 ]
    5b28:	b6 10 3f ff 	mov  -1, %i3
    5b2c:	b0 06 00 11 	add  %i0, %l1, %i0
    5b30:	80 8a a0 ff 	btst  0xff, %o2
    5b34:	02 80 00 04 	be  5b44 <number+0x1c0>
    5b38:	80 a2 60 00 	cmp  %o1, 0
    5b3c:	d4 2e 00 00 	stb  %o2, [ %i0 ]
    5b40:	b0 06 20 01 	inc  %i0
    5b44:	02 80 00 08 	be  5b64 <number+0x1e0>
    5b48:	80 8f 60 10 	btst  0x10, %i5
    5b4c:	80 a6 a0 08 	cmp  %i2, 8
    5b50:	02 80 00 d2 	be  5e98 <number+0x514>
    5b54:	80 a6 a0 10 	cmp  %i2, 0x10
    5b58:	22 80 00 e0 	be,a   5ed8 <number+0x554>
    5b5c:	b4 10 20 30 	mov  0x30, %i2
    5b60:	80 8f 60 10 	btst  0x10, %i5
    5b64:	12 80 00 3b 	bne  5c50 <number+0x2cc>
    5b68:	80 a3 00 01 	cmp  %o4, %g1
    5b6c:	80 a6 e0 00 	cmp  %i3, 0
    5b70:	04 80 00 e1 	ble  5ef4 <number+0x570>
    5b74:	b8 06 ff ff 	add  %i3, -1, %i4
    5b78:	ba 20 00 18 	neg  %i0, %i5
    5b7c:	ba 0f 60 03 	and  %i5, 3, %i5
    5b80:	80 a7 40 1b 	cmp  %i5, %i3
    5b84:	38 80 00 02 	bgu,a   5b8c <number+0x208>
    5b88:	ba 10 00 1b 	mov  %i3, %i5
    5b8c:	80 a6 e0 03 	cmp  %i3, 3
    5b90:	28 80 00 02 	bleu,a   5b98 <number+0x214>
    5b94:	ba 10 00 1b 	mov  %i3, %i5
    5b98:	80 a7 60 00 	cmp  %i5, 0
    5b9c:	02 80 00 0b 	be  5bc8 <number+0x244>
    5ba0:	84 10 00 18 	mov  %i0, %g2
    5ba4:	da 28 80 00 	stb  %o5, [ %g2 ]
    5ba8:	84 00 a0 01 	inc  %g2
    5bac:	b4 20 80 18 	sub  %g2, %i0, %i2
    5bb0:	80 a7 40 1a 	cmp  %i5, %i2
    5bb4:	18 bf ff fc 	bgu  5ba4 <number+0x220>
    5bb8:	b8 07 3f ff 	add  %i4, -1, %i4
    5bbc:	80 a6 c0 1d 	cmp  %i3, %i5
    5bc0:	22 80 00 22 	be,a   5c48 <number+0x2c4>
    5bc4:	b0 06 00 1b 	add  %i0, %i3, %i0
    5bc8:	94 26 c0 1d 	sub  %i3, %i5, %o2
    5bcc:	b5 32 a0 02 	srl  %o2, 2, %i2
    5bd0:	97 2e a0 02 	sll  %i2, 2, %o3
    5bd4:	80 a2 e0 00 	cmp  %o3, 0
    5bd8:	02 80 00 13 	be  5c24 <number+0x2a0>
    5bdc:	ba 06 00 1d 	add  %i0, %i5, %i5
    5be0:	9e 0b 60 ff 	and  %o5, 0xff, %o7
    5be4:	87 2b e0 10 	sll  %o7, 0x10, %g3
    5be8:	91 2b e0 18 	sll  %o7, 0x18, %o0
    5bec:	93 2b e0 08 	sll  %o7, 8, %o1
    5bf0:	90 12 00 03 	or  %o0, %g3, %o0
    5bf4:	92 12 00 09 	or  %o0, %o1, %o1
    5bf8:	86 10 20 00 	clr  %g3
    5bfc:	9e 12 40 0f 	or  %o1, %o7, %o7
    5c00:	de 27 40 00 	st  %o7, [ %i5 ]
    5c04:	86 00 e0 01 	inc  %g3
    5c08:	80 a0 c0 1a 	cmp  %g3, %i2
    5c0c:	0a bf ff fd 	bcs  5c00 <number+0x27c>
    5c10:	ba 07 60 04 	add  %i5, 4, %i5
    5c14:	84 00 80 0b 	add  %g2, %o3, %g2
    5c18:	80 a2 80 0b 	cmp  %o2, %o3
    5c1c:	02 80 00 0a 	be  5c44 <number+0x2c0>
    5c20:	b8 27 00 0b 	sub  %i4, %o3, %i4
    5c24:	86 10 20 00 	clr  %g3
    5c28:	b4 07 20 01 	add  %i4, 1, %i2
    5c2c:	da 28 80 03 	stb  %o5, [ %g2 + %g3 ]
    5c30:	86 00 e0 01 	inc  %g3
    5c34:	ba 26 80 03 	sub  %i2, %g3, %i5
    5c38:	80 a7 60 00 	cmp  %i5, 0
    5c3c:	34 bf ff fd 	bg,a   5c30 <number+0x2ac>
    5c40:	da 28 80 03 	stb  %o5, [ %g2 + %g3 ]
    5c44:	b0 06 00 1b 	add  %i0, %i3, %i0
    5c48:	b6 10 3f ff 	mov  -1, %i3
    5c4c:	80 a3 00 01 	cmp  %o4, %g1
    5c50:	04 80 00 34 	ble  5d20 <number+0x39c>
    5c54:	b8 03 3f ff 	add  %o4, -1, %i4
    5c58:	9a 23 00 01 	sub  %o4, %g1, %o5
    5c5c:	84 20 00 18 	neg  %i0, %g2
    5c60:	ba 08 a0 03 	and  %g2, 3, %i5
    5c64:	80 a7 40 0d 	cmp  %i5, %o5
    5c68:	38 80 00 02 	bgu,a   5c70 <number+0x2ec>
    5c6c:	ba 10 00 0d 	mov  %o5, %i5
    5c70:	80 a3 60 03 	cmp  %o5, 3
    5c74:	28 80 00 02 	bleu,a   5c7c <number+0x2f8>
    5c78:	ba 10 00 0d 	mov  %o5, %i5
    5c7c:	80 a7 60 00 	cmp  %i5, 0
    5c80:	02 80 00 0c 	be  5cb0 <number+0x32c>
    5c84:	84 10 00 18 	mov  %i0, %g2
    5c88:	b4 10 20 30 	mov  0x30, %i2
    5c8c:	f4 28 80 00 	stb  %i2, [ %g2 ]
    5c90:	84 00 a0 01 	inc  %g2
    5c94:	86 20 80 18 	sub  %g2, %i0, %g3
    5c98:	80 a7 40 03 	cmp  %i5, %g3
    5c9c:	18 bf ff fc 	bgu  5c8c <number+0x308>
    5ca0:	b8 07 3f ff 	add  %i4, -1, %i4
    5ca4:	80 a3 40 1d 	cmp  %o5, %i5
    5ca8:	22 80 00 1e 	be,a   5d20 <number+0x39c>
    5cac:	b0 06 00 0d 	add  %i0, %o5, %i0
    5cb0:	96 23 40 1d 	sub  %o5, %i5, %o3
    5cb4:	b5 32 e0 02 	srl  %o3, 2, %i2
    5cb8:	99 2e a0 02 	sll  %i2, 2, %o4
    5cbc:	80 a3 20 00 	cmp  %o4, 0
    5cc0:	02 80 00 0e 	be  5cf8 <number+0x374>
    5cc4:	ba 06 00 1d 	add  %i0, %i5, %i5
    5cc8:	1f 0c 0c 0c 	sethi  %hi(0x30303000), %o7
    5ccc:	86 10 20 00 	clr  %g3
    5cd0:	9e 13 e0 30 	or  %o7, 0x30, %o7
    5cd4:	de 27 40 00 	st  %o7, [ %i5 ]
    5cd8:	86 00 e0 01 	inc  %g3
    5cdc:	80 a6 80 03 	cmp  %i2, %g3
    5ce0:	18 bf ff fd 	bgu  5cd4 <number+0x350>
    5ce4:	ba 07 60 04 	add  %i5, 4, %i5
    5ce8:	84 00 80 0c 	add  %g2, %o4, %g2
    5cec:	80 a2 c0 0c 	cmp  %o3, %o4
    5cf0:	02 80 00 0b 	be  5d1c <number+0x398>
    5cf4:	b8 27 00 0c 	sub  %i4, %o4, %i4
    5cf8:	86 10 20 00 	clr  %g3
    5cfc:	b8 07 20 01 	inc  %i4
    5d00:	b4 10 20 30 	mov  0x30, %i2
    5d04:	f4 28 80 03 	stb  %i2, [ %g2 + %g3 ]
    5d08:	86 00 e0 01 	inc  %g3
    5d0c:	ba 27 00 03 	sub  %i4, %g3, %i5
    5d10:	80 a0 40 1d 	cmp  %g1, %i5
    5d14:	26 bf ff fd 	bl,a   5d08 <number+0x384>
    5d18:	f4 28 80 03 	stb  %i2, [ %g2 + %g3 ]
    5d1c:	b0 06 00 0d 	add  %i0, %o5, %i0
    5d20:	82 10 00 19 	mov  %i1, %g1
    5d24:	84 10 00 18 	mov  %i0, %g2
    5d28:	f8 09 00 01 	ldub  [ %g4 + %g1 ], %i4
    5d2c:	f8 28 80 00 	stb  %i4, [ %g2 ]
    5d30:	82 00 7f ff 	add  %g1, -1, %g1
    5d34:	b4 00 60 01 	add  %g1, 1, %i2
    5d38:	80 a6 a0 00 	cmp  %i2, 0
    5d3c:	14 bf ff fb 	bg  5d28 <number+0x3a4>
    5d40:	84 00 a0 01 	inc  %g2
    5d44:	82 38 00 19 	xnor  %g0, %i1, %g1
    5d48:	88 06 ff ff 	add  %i3, -1, %g4
    5d4c:	83 38 60 1f 	sra  %g1, 0x1f, %g1
    5d50:	80 a6 e0 00 	cmp  %i3, 0
    5d54:	82 0e 40 01 	and  %i1, %g1, %g1
    5d58:	82 00 60 01 	inc  %g1
    5d5c:	04 80 00 48 	ble  5e7c <number+0x4f8>
    5d60:	b0 06 00 01 	add  %i0, %g1, %i0
    5d64:	b2 20 00 18 	neg  %i0, %i1
    5d68:	86 0e 60 03 	and  %i1, 3, %g3
    5d6c:	80 a0 c0 1b 	cmp  %g3, %i3
    5d70:	38 80 00 02 	bgu,a   5d78 <number+0x3f4>
    5d74:	86 10 00 1b 	mov  %i3, %g3
    5d78:	80 a6 e0 03 	cmp  %i3, 3
    5d7c:	28 80 00 02 	bleu,a   5d84 <number+0x400>
    5d80:	86 10 00 1b 	mov  %i3, %g3
    5d84:	80 a0 e0 00 	cmp  %g3, 0
    5d88:	02 80 00 0c 	be  5db8 <number+0x434>
    5d8c:	82 10 00 18 	mov  %i0, %g1
    5d90:	ba 10 20 20 	mov  0x20, %i5
    5d94:	fa 28 40 00 	stb  %i5, [ %g1 ]
    5d98:	82 00 60 01 	inc  %g1
    5d9c:	b8 20 40 18 	sub  %g1, %i0, %i4
    5da0:	80 a0 c0 1c 	cmp  %g3, %i4
    5da4:	18 bf ff fc 	bgu  5d94 <number+0x410>
    5da8:	88 01 3f ff 	add  %g4, -1, %g4
    5dac:	80 a6 c0 03 	cmp  %i3, %g3
    5db0:	02 80 00 1d 	be  5e24 <number+0x4a0>
    5db4:	01 00 00 00 	nop 
    5db8:	b2 26 c0 03 	sub  %i3, %g3, %i1
    5dbc:	bb 36 60 02 	srl  %i1, 2, %i5
    5dc0:	b5 2f 60 02 	sll  %i5, 2, %i2
    5dc4:	80 a6 a0 00 	cmp  %i2, 0
    5dc8:	02 80 00 0e 	be  5e00 <number+0x47c>
    5dcc:	39 08 08 08 	sethi  %hi(0x20202000), %i4
    5dd0:	86 06 00 03 	add  %i0, %g3, %g3
    5dd4:	84 10 20 00 	clr  %g2
    5dd8:	b8 17 20 20 	or  %i4, 0x20, %i4
    5ddc:	f8 20 c0 00 	st  %i4, [ %g3 ]
    5de0:	84 00 a0 01 	inc  %g2
    5de4:	80 a0 80 1d 	cmp  %g2, %i5
    5de8:	0a bf ff fd 	bcs  5ddc <number+0x458>
    5dec:	86 00 e0 04 	add  %g3, 4, %g3
    5df0:	82 00 40 1a 	add  %g1, %i2, %g1
    5df4:	80 a6 40 1a 	cmp  %i1, %i2
    5df8:	02 80 00 0b 	be  5e24 <number+0x4a0>
    5dfc:	88 21 00 1a 	sub  %g4, %i2, %g4
    5e00:	b4 10 20 00 	clr  %i2
    5e04:	b2 01 20 01 	add  %g4, 1, %i1
    5e08:	ba 10 20 20 	mov  0x20, %i5
    5e0c:	fa 28 40 1a 	stb  %i5, [ %g1 + %i2 ]
    5e10:	b4 06 a0 01 	inc  %i2
    5e14:	b8 26 40 1a 	sub  %i1, %i2, %i4
    5e18:	80 a7 20 00 	cmp  %i4, 0
    5e1c:	34 bf ff fd 	bg,a   5e10 <number+0x48c>
    5e20:	fa 28 40 1a 	stb  %i5, [ %g1 + %i2 ]
    5e24:	81 c7 e0 08 	ret 
    5e28:	91 ee 00 1b 	restore  %i0, %i3, %o0
    5e2c:	10 bf fe dc 	b  599c <number+0x18>
    5e30:	9e 13 e2 20 	or  %o7, 0x220, %o7
    5e34:	82 10 20 00 	clr  %g1
    5e38:	88 07 bf b8 	add  %fp, -72, %g4
    5e3c:	81 80 20 00 	mov  %g0, %y
    5e40:	01 00 00 00 	nop 
    5e44:	01 00 00 00 	nop 
    5e48:	01 00 00 00 	nop 
    5e4c:	84 76 40 1a 	udiv  %i1, %i2, %g2
    5e50:	86 58 80 1a 	smul  %g2, %i2, %g3
    5e54:	b2 26 40 03 	sub  %i1, %g3, %i1
    5e58:	c6 0b c0 19 	ldub  [ %o7 + %i1 ], %g3
    5e5c:	c6 29 00 01 	stb  %g3, [ %g4 + %g1 ]
    5e60:	b2 10 00 02 	mov  %g2, %i1
    5e64:	80 a0 a0 00 	cmp  %g2, 0
    5e68:	12 bf ff f5 	bne  5e3c <number+0x4b8>
    5e6c:	82 00 60 01 	inc  %g1
    5e70:	10 bf fe f2 	b  5a38 <number+0xb4>
    5e74:	b2 00 7f ff 	add  %g1, -1, %i1
    5e78:	b0 10 20 00 	clr  %i0
    5e7c:	81 c7 e0 08 	ret 
    5e80:	81 e8 00 00 	restore 
    5e84:	92 8f 60 20 	andcc  %i5, 0x20, %o1
    5e88:	02 bf fe e5 	be  5a1c <number+0x98>
    5e8c:	94 10 20 2b 	mov  0x2b, %o2
    5e90:	10 bf fe df 	b  5a0c <number+0x88>
    5e94:	80 a6 a0 10 	cmp  %i2, 0x10
    5e98:	86 10 20 30 	mov  0x30, %g3
    5e9c:	c6 2e 00 00 	stb  %g3, [ %i0 ]
    5ea0:	10 bf ff 30 	b  5b60 <number+0x1dc>
    5ea4:	b0 06 20 01 	inc  %i0
    5ea8:	80 a6 60 00 	cmp  %i1, 0
    5eac:	12 bf ff e2 	bne  5e34 <number+0x4b0>
    5eb0:	b6 06 ff fe 	add  %i3, -2, %i3
    5eb4:	10 bf fe de 	b  5a2c <number+0xa8>
    5eb8:	82 10 20 30 	mov  0x30, %g1
    5ebc:	b2 20 00 19 	neg  %i1
    5ec0:	b6 06 ff ff 	add  %i3, -1, %i3
    5ec4:	92 8f 60 20 	andcc  %i5, 0x20, %o1
    5ec8:	02 bf fe d5 	be  5a1c <number+0x98>
    5ecc:	94 10 20 2d 	mov  0x2d, %o2
    5ed0:	10 bf fe cf 	b  5a0c <number+0x88>
    5ed4:	80 a6 a0 10 	cmp  %i2, 0x10
    5ed8:	84 10 20 78 	mov  0x78, %g2
    5edc:	f4 2e 00 00 	stb  %i2, [ %i0 ]
    5ee0:	c4 2e 20 01 	stb  %g2, [ %i0 + 1 ]
    5ee4:	10 bf ff 1f 	b  5b60 <number+0x1dc>
    5ee8:	b0 06 20 02 	add  %i0, 2, %i0
    5eec:	10 bf ff 11 	b  5b30 <number+0x1ac>
    5ef0:	b6 10 00 0f 	mov  %o7, %i3
    5ef4:	10 bf ff 56 	b  5c4c <number+0x2c8>
    5ef8:	b6 10 00 1c 	mov  %i4, %i3

00005efc <memcpy>:
    5efc:	80 a2 a0 00 	cmp  %o2, 0
    5f00:	04 80 00 28 	ble  5fa0 <memcpy+0xa4>
    5f04:	82 02 60 04 	add  %o1, 4, %g1
    5f08:	80 a2 00 01 	cmp  %o0, %g1
    5f0c:	82 02 20 04 	add  %o0, 4, %g1
    5f10:	88 60 3f ff 	subx  %g0, -1, %g4
    5f14:	80 a2 40 01 	cmp  %o1, %g1
    5f18:	84 60 3f ff 	subx  %g0, -1, %g2
    5f1c:	9b 32 a0 02 	srl  %o2, 2, %o5
    5f20:	88 11 00 02 	or  %g4, %g2, %g4
    5f24:	83 2b 60 02 	sll  %o5, 2, %g1
    5f28:	80 a2 a0 03 	cmp  %o2, 3
    5f2c:	08 80 00 1f 	bleu  5fa8 <memcpy+0xac>
    5f30:	84 10 20 01 	mov  1, %g2
    5f34:	86 12 40 08 	or  %o1, %o0, %g3
    5f38:	86 08 e0 03 	and  %g3, 3, %g3
    5f3c:	80 a0 00 03 	cmp  %g0, %g3
    5f40:	88 09 00 02 	and  %g4, %g2, %g4
    5f44:	84 60 3f ff 	subx  %g0, -1, %g2
    5f48:	80 89 00 02 	btst  %g4, %g2
    5f4c:	02 80 00 1b 	be  5fb8 <memcpy+0xbc>
    5f50:	80 a0 60 00 	cmp  %g1, 0
    5f54:	22 80 00 0d 	be,a   5f88 <memcpy+0x8c>
    5f58:	82 10 20 00 	clr  %g1
    5f5c:	84 10 20 00 	clr  %g2
    5f60:	86 10 20 00 	clr  %g3
    5f64:	c8 02 40 02 	ld  [ %o1 + %g2 ], %g4
    5f68:	c8 22 00 02 	st  %g4, [ %o0 + %g2 ]
    5f6c:	86 00 e0 01 	inc  %g3
    5f70:	80 a3 40 03 	cmp  %o5, %g3
    5f74:	18 bf ff fc 	bgu  5f64 <memcpy+0x68>
    5f78:	84 00 a0 04 	add  %g2, 4, %g2
    5f7c:	80 a2 80 01 	cmp  %o2, %g1
    5f80:	02 80 00 0c 	be  5fb0 <memcpy+0xb4>
    5f84:	01 00 00 00 	nop 
    5f88:	da 0a 40 01 	ldub  [ %o1 + %g1 ], %o5
    5f8c:	da 2a 00 01 	stb  %o5, [ %o0 + %g1 ]
    5f90:	82 00 60 01 	inc  %g1
    5f94:	80 a2 80 01 	cmp  %o2, %g1
    5f98:	34 bf ff fd 	bg,a   5f8c <memcpy+0x90>
    5f9c:	da 0a 40 01 	ldub  [ %o1 + %g1 ], %o5
    5fa0:	81 c3 e0 08 	retl 
    5fa4:	01 00 00 00 	nop 
    5fa8:	10 bf ff e3 	b  5f34 <memcpy+0x38>
    5fac:	84 10 20 00 	clr  %g2	! 0 <_start>
    5fb0:	81 c3 e0 08 	retl 
    5fb4:	01 00 00 00 	nop 
    5fb8:	10 bf ff f4 	b  5f88 <memcpy+0x8c>
    5fbc:	82 10 20 00 	clr  %g1	! 0 <_start>

00005fc0 <uart_send_char>:
    5fc0:	9d e3 bf a0 	save  %sp, -96, %sp
    5fc4:	40 00 07 c5 	call  7ed8 <__ajit_serial_putchar__>
    5fc8:	90 10 00 18 	mov  %i0, %o0
    5fcc:	80 a2 20 00 	cmp  %o0, 0
    5fd0:	02 bf ff fd 	be  5fc4 <uart_send_char+0x4>
    5fd4:	01 00 00 00 	nop 
    5fd8:	81 c7 e0 08 	ret 
    5fdc:	81 e8 00 00 	restore 

00005fe0 <ee_printf>:
    5fe0:	9d e3 bd d8 	save  %sp, -552, %sp
    5fe4:	f6 27 a0 50 	st  %i3, [ %fp + 0x50 ]
    5fe8:	fa 27 a0 58 	st  %i5, [ %fp + 0x58 ]
    5fec:	a4 07 a0 48 	add  %fp, 0x48, %l2
    5ff0:	f2 27 a0 48 	st  %i1, [ %fp + 0x48 ]
    5ff4:	f4 27 a0 4c 	st  %i2, [ %fp + 0x4c ]
    5ff8:	f8 27 a0 54 	st  %i4, [ %fp + 0x54 ]
    5ffc:	e4 27 be 4c 	st  %l2, [ %fp + -436 ]
    6000:	d8 0e 00 00 	ldub  [ %i0 ], %o4
    6004:	b6 07 bf 00 	add  %fp, -256, %i3
    6008:	83 2b 20 18 	sll  %o4, 0x18, %g1
    600c:	80 a0 60 00 	cmp  %g1, 0
    6010:	02 80 00 58 	be  6170 <ee_printf+0x190>
    6014:	ba 10 00 1b 	mov  %i3, %i5
    6018:	23 08 08 08 	sethi  %hi(0x20202000), %l1
    601c:	21 3f c0 3f 	sethi  %hi(0xff00fc00), %l0
    6020:	33 3f ff c0 	sethi  %hi(0xffff0000), %i1
    6024:	35 0c 0c 0c 	sethi  %hi(0x30303000), %i2
    6028:	a2 14 60 20 	or  %l1, 0x20, %l1
    602c:	a0 14 23 ff 	or  %l0, 0x3ff, %l0
    6030:	b2 16 60 ff 	or  %i1, 0xff, %i1
    6034:	10 80 00 08 	b  6054 <ee_printf+0x74>
    6038:	b4 16 a0 30 	or  %i2, 0x30, %i2
    603c:	ba 07 60 01 	inc  %i5
    6040:	d8 0e 20 01 	ldub  [ %i0 + 1 ], %o4
    6044:	83 2b 20 18 	sll  %o4, 0x18, %g1
    6048:	80 a0 60 00 	cmp  %g1, 0
    604c:	02 80 00 49 	be  6170 <ee_printf+0x190>
    6050:	b0 06 20 01 	inc  %i0
    6054:	83 38 60 18 	sra  %g1, 0x18, %g1
    6058:	80 a0 60 25 	cmp  %g1, 0x25
    605c:	32 bf ff f8 	bne,a   603c <ee_printf+0x5c>
    6060:	d8 2f 40 00 	stb  %o4, [ %i5 ]
    6064:	9a 10 20 00 	clr  %o5
    6068:	39 00 00 16 	sethi  %hi(0x5800), %i4
    606c:	c2 0e 20 01 	ldub  [ %i0 + 1 ], %g1
    6070:	86 00 7f e0 	add  %g1, -32, %g3
    6074:	90 08 e0 ff 	and  %g3, 0xff, %o0
    6078:	80 a2 20 10 	cmp  %o0, 0x10
    607c:	08 80 00 50 	bleu  61bc <ee_printf+0x1dc>
    6080:	84 06 20 01 	add  %i0, 1, %g2
    6084:	96 00 7f d0 	add  %g1, -48, %o3
    6088:	98 0a e0 ff 	and  %o3, 0xff, %o4
    608c:	80 a3 20 09 	cmp  %o4, 9
    6090:	18 80 00 5f 	bgu  620c <ee_printf+0x22c>
    6094:	9f 28 60 18 	sll  %g1, 0x18, %o7
    6098:	b8 10 20 00 	clr  %i4
    609c:	83 28 60 18 	sll  %g1, 0x18, %g1
    60a0:	83 38 60 18 	sra  %g1, 0x18, %g1
    60a4:	a8 07 00 1c 	add  %i4, %i4, %l4
    60a8:	ab 2f 20 03 	sll  %i4, 3, %l5
    60ac:	84 00 a0 01 	inc  %g2
    60b0:	ac 05 00 15 	add  %l4, %l5, %l6
    60b4:	b0 05 80 01 	add  %l6, %g1, %i0
    60b8:	c2 08 80 00 	ldub  [ %g2 ], %g1
    60bc:	86 00 7f d0 	add  %g1, -48, %g3
    60c0:	90 08 e0 ff 	and  %g3, 0xff, %o0
    60c4:	80 a2 20 09 	cmp  %o0, 9
    60c8:	08 bf ff f5 	bleu  609c <ee_printf+0xbc>
    60cc:	b8 06 3f d0 	add  %i0, -48, %i4
    60d0:	9f 28 60 18 	sll  %g1, 0x18, %o7
    60d4:	b0 10 00 02 	mov  %g2, %i0
    60d8:	89 3b e0 18 	sra  %o7, 0x18, %g4
    60dc:	80 a1 20 2e 	cmp  %g4, 0x2e
    60e0:	02 80 00 54 	be  6230 <ee_printf+0x250>
    60e4:	a6 10 3f ff 	mov  -1, %l3
    60e8:	90 08 7f df 	and  %g1, -33, %o0
    60ec:	89 2a 20 18 	sll  %o0, 0x18, %g4
    60f0:	93 39 20 18 	sra  %g4, 0x18, %o1
    60f4:	80 a2 60 4c 	cmp  %o1, 0x4c
    60f8:	12 80 00 06 	bne  6110 <ee_printf+0x130>
    60fc:	96 10 3f ff 	mov  -1, %o3
    6100:	87 28 60 18 	sll  %g1, 0x18, %g3
    6104:	c2 0e 20 01 	ldub  [ %i0 + 1 ], %g1
    6108:	97 38 e0 18 	sra  %g3, 0x18, %o3
    610c:	b0 06 20 01 	inc  %i0
    6110:	94 00 7f bf 	add  %g1, -65, %o2
    6114:	98 0a a0 ff 	and  %o2, 0xff, %o4
    6118:	80 a3 20 37 	cmp  %o4, 0x37
    611c:	08 80 00 5b 	bleu  6288 <ee_printf+0x2a8>
    6120:	9f 2b 20 02 	sll  %o4, 2, %o7
    6124:	b9 28 60 18 	sll  %g1, 0x18, %i4
    6128:	85 3f 20 18 	sra  %i4, 0x18, %g2
    612c:	80 a0 a0 25 	cmp  %g2, 0x25
    6130:	22 80 00 0a 	be,a   6158 <ee_printf+0x178>
    6134:	c2 2f 40 00 	stb  %g1, [ %i5 ]
    6138:	82 10 20 25 	mov  0x25, %g1
    613c:	c2 2f 40 00 	stb  %g1, [ %i5 ]
    6140:	ba 07 60 01 	inc  %i5
    6144:	c8 4e 00 00 	ldsb  [ %i0 ], %g4
    6148:	80 a1 20 00 	cmp  %g4, 0
    614c:	02 80 00 09 	be  6170 <ee_printf+0x190>
    6150:	c2 0e 00 00 	ldub  [ %i0 ], %g1
    6154:	c2 2f 40 00 	stb  %g1, [ %i5 ]
    6158:	ba 07 60 01 	inc  %i5
    615c:	d8 0e 20 01 	ldub  [ %i0 + 1 ], %o4
    6160:	83 2b 20 18 	sll  %o4, 0x18, %g1
    6164:	80 a0 60 00 	cmp  %g1, 0
    6168:	12 bf ff bb 	bne  6054 <ee_printf+0x74>
    616c:	b0 06 20 01 	inc  %i0
    6170:	c0 2f 40 00 	clrb  [ %i5 ]
    6174:	f0 0f bf 00 	ldub  [ %fp + -256 ], %i0
    6178:	a3 2e 20 18 	sll  %i0, 0x18, %l1
    617c:	80 a4 60 00 	cmp  %l1, 0
    6180:	02 80 00 0d 	be  61b4 <ee_printf+0x1d4>
    6184:	b0 10 20 00 	clr  %i0
    6188:	40 00 07 54 	call  7ed8 <__ajit_serial_putchar__>
    618c:	91 3c 60 18 	sra  %l1, 0x18, %o0
    6190:	80 a2 20 00 	cmp  %o0, 0
    6194:	02 bf ff fd 	be  6188 <ee_printf+0x1a8>
    6198:	01 00 00 00 	nop 
    619c:	b0 06 20 01 	inc  %i0
    61a0:	e0 0e c0 18 	ldub  [ %i3 + %i0 ], %l0
    61a4:	a3 2c 20 18 	sll  %l0, 0x18, %l1
    61a8:	80 a4 60 00 	cmp  %l1, 0
    61ac:	12 bf ff f7 	bne  6188 <ee_printf+0x1a8>
    61b0:	01 00 00 00 	nop 
    61b4:	81 c7 e0 08 	ret 
    61b8:	81 e8 00 00 	restore 
    61bc:	88 17 21 40 	or  %i4, 0x140, %g4
    61c0:	93 2a 20 02 	sll  %o0, 2, %o1
    61c4:	d4 01 00 09 	ld  [ %g4 + %o1 ], %o2
    61c8:	81 c2 80 00 	jmp  %o2
    61cc:	01 00 00 00 	nop 
    61d0:	9a 13 60 01 	or  %o5, 1, %o5
    61d4:	10 bf ff a6 	b  606c <ee_printf+0x8c>
    61d8:	b0 10 00 02 	mov  %g2, %i0
    61dc:	9a 13 60 10 	or  %o5, 0x10, %o5
    61e0:	10 bf ff a3 	b  606c <ee_printf+0x8c>
    61e4:	b0 10 00 02 	mov  %g2, %i0
    61e8:	9a 13 60 04 	or  %o5, 4, %o5
    61ec:	10 bf ff a0 	b  606c <ee_printf+0x8c>
    61f0:	b0 10 00 02 	mov  %g2, %i0
    61f4:	9a 13 60 20 	or  %o5, 0x20, %o5
    61f8:	10 bf ff 9d 	b  606c <ee_printf+0x8c>
    61fc:	b0 10 00 02 	mov  %g2, %i0
    6200:	9a 13 60 08 	or  %o5, 8, %o5
    6204:	10 bf ff 9a 	b  606c <ee_printf+0x8c>
    6208:	b0 10 00 02 	mov  %g2, %i0
    620c:	a7 3b e0 18 	sra  %o7, 0x18, %l3
    6210:	80 a4 e0 2a 	cmp  %l3, 0x2a
    6214:	02 80 03 af 	be  70d0 <ee_printf+0x10f0>
    6218:	89 3b e0 18 	sra  %o7, 0x18, %g4
    621c:	b0 10 00 02 	mov  %g2, %i0
    6220:	b8 10 3f ff 	mov  -1, %i4
    6224:	80 a1 20 2e 	cmp  %g4, 0x2e
    6228:	12 bf ff b0 	bne  60e8 <ee_printf+0x108>
    622c:	a6 10 3f ff 	mov  -1, %l3
    6230:	c2 0e 20 01 	ldub  [ %i0 + 1 ], %g1
    6234:	92 00 7f d0 	add  %g1, -48, %o1
    6238:	94 0a 60 ff 	and  %o1, 0xff, %o2
    623c:	80 a2 a0 09 	cmp  %o2, 9
    6240:	18 80 00 17 	bgu  629c <ee_printf+0x2bc>
    6244:	9e 06 20 01 	add  %i0, 1, %o7
    6248:	a6 10 20 00 	clr  %l3
    624c:	84 04 c0 13 	add  %l3, %l3, %g2
    6250:	83 28 60 18 	sll  %g1, 0x18, %g1
    6254:	a7 2c e0 03 	sll  %l3, 3, %l3
    6258:	83 38 60 18 	sra  %g1, 0x18, %g1
    625c:	a8 00 80 13 	add  %g2, %l3, %l4
    6260:	9e 03 e0 01 	inc  %o7
    6264:	aa 05 00 01 	add  %l4, %g1, %l5
    6268:	c2 0b c0 00 	ldub  [ %o7 ], %g1
    626c:	ac 00 7f d0 	add  %g1, -48, %l6
    6270:	b0 0d a0 ff 	and  %l6, 0xff, %i0
    6274:	80 a6 20 09 	cmp  %i0, 9
    6278:	08 bf ff f5 	bleu  624c <ee_printf+0x26c>
    627c:	a6 05 7f d0 	add  %l5, -48, %l3
    6280:	10 bf ff 9a 	b  60e8 <ee_printf+0x108>
    6284:	b0 10 00 0f 	mov  %o7, %i0
    6288:	05 00 00 16 	sethi  %hi(0x5800), %g2
    628c:	a8 10 a0 60 	or  %g2, 0x60, %l4	! 5860 <fcvtbuf+0x2c>
    6290:	ea 05 00 0f 	ld  [ %l4 + %o7 ], %l5
    6294:	81 c5 40 00 	jmp  %l5
    6298:	01 00 00 00 	nop 
    629c:	97 28 60 18 	sll  %g1, 0x18, %o3
    62a0:	99 3a e0 18 	sra  %o3, 0x18, %o4
    62a4:	80 a3 20 2a 	cmp  %o4, 0x2a
    62a8:	02 80 04 b5 	be  757c <ee_printf+0x159c>
    62ac:	a6 10 20 00 	clr  %l3
    62b0:	10 bf ff 8e 	b  60e8 <ee_printf+0x108>
    62b4:	b0 10 00 0f 	mov  %o7, %i0
    62b8:	9a 13 60 40 	or  %o5, 0x40, %o5
    62bc:	80 a2 e0 6c 	cmp  %o3, 0x6c
    62c0:	02 80 03 ed 	be  7274 <ee_printf+0x1294>
    62c4:	c4 04 80 00 	ld  [ %l2 ], %g2
    62c8:	c6 08 80 00 	ldub  [ %g2 ], %g3
    62cc:	80 a0 e0 00 	cmp  %g3, 0
    62d0:	02 80 03 89 	be  70f4 <ee_printf+0x1114>
    62d4:	a4 04 a0 04 	add  %l2, 4, %l2
    62d8:	80 a0 e0 63 	cmp  %g3, 0x63
    62dc:	04 80 04 c0 	ble  75dc <ee_printf+0x15fc>
    62e0:	80 a0 e0 09 	cmp  %g3, 9
    62e4:	97 38 e0 1f 	sra  %g3, 0x1f, %o3
    62e8:	81 82 e0 00 	mov  %o3, %y
    62ec:	01 00 00 00 	nop 
    62f0:	01 00 00 00 	nop 
    62f4:	01 00 00 00 	nop 
    62f8:	94 78 e0 64 	sdiv  %g3, 0x64, %o2
    62fc:	9e 5a a0 64 	smul  %o2, 0x64, %o7
    6300:	86 20 c0 0f 	sub  %g3, %o7, %g3
    6304:	99 38 e0 1f 	sra  %g3, 0x1f, %o4
    6308:	81 83 20 00 	mov  %o4, %y
    630c:	01 00 00 00 	nop 
    6310:	01 00 00 00 	nop 
    6314:	01 00 00 00 	nop 
    6318:	ac 78 e0 0a 	sdiv  %g3, 0xa, %l6
    631c:	03 00 00 81 	sethi  %hi(0x20400), %g1
    6320:	90 05 80 16 	add  %l6, %l6, %o0
    6324:	82 10 62 20 	or  %g1, 0x220, %g1
    6328:	89 2d a0 03 	sll  %l6, 3, %g4
    632c:	d2 08 40 16 	ldub  [ %g1 + %l6 ], %o1
    6330:	ea 08 40 0a 	ldub  [ %g1 + %o2 ], %l5
    6334:	a6 02 00 04 	add  %o0, %g4, %l3
    6338:	ea 2f be b0 	stb  %l5, [ %fp + -336 ]
    633c:	d2 2f be b1 	stb  %o1, [ %fp + -335 ]
    6340:	ac 10 20 04 	mov  4, %l6
    6344:	86 20 c0 13 	sub  %g3, %l3, %g3
    6348:	9e 10 20 03 	mov  3, %o7
    634c:	98 10 20 02 	mov  2, %o4
    6350:	c2 08 40 03 	ldub  [ %g1 + %g3 ], %g1
    6354:	a8 07 80 0c 	add  %fp, %o4, %l4
    6358:	c2 2d 3e b0 	stb  %g1, [ %l4 + -336 ]
    635c:	aa 07 80 0f 	add  %fp, %o7, %l5
    6360:	82 10 20 2e 	mov  0x2e, %g1
    6364:	c2 2d 7e b0 	stb  %g1, [ %l5 + -336 ]
    6368:	c6 08 a0 01 	ldub  [ %g2 + 1 ], %g3
    636c:	80 a0 e0 00 	cmp  %g3, 0
    6370:	02 80 03 6c 	be  7120 <ee_printf+0x1140>
    6374:	82 07 80 16 	add  %fp, %l6, %g1
    6378:	80 a0 e0 63 	cmp  %g3, 0x63
    637c:	04 80 04 8e 	ble  75b4 <ee_printf+0x15d4>
    6380:	80 a0 e0 09 	cmp  %g3, 9
    6384:	83 38 e0 1f 	sra  %g3, 0x1f, %g1
    6388:	81 80 60 00 	mov  %g1, %y
    638c:	01 00 00 00 	nop 
    6390:	01 00 00 00 	nop 
    6394:	01 00 00 00 	nop 
    6398:	98 78 e0 64 	sdiv  %g3, 0x64, %o4
    639c:	88 07 80 16 	add  %fp, %l6, %g4
    63a0:	96 5b 20 64 	smul  %o4, 0x64, %o3
    63a4:	03 00 00 81 	sethi  %hi(0x20400), %g1
    63a8:	82 10 62 20 	or  %g1, 0x220, %g1	! 20620 <state_known_crc+0x60c>
    63ac:	e8 08 40 0c 	ldub  [ %g1 + %o4 ], %l4
    63b0:	e8 29 3e b0 	stb  %l4, [ %g4 + -336 ]
    63b4:	86 20 c0 0b 	sub  %g3, %o3, %g3
    63b8:	ac 03 e0 03 	add  %o7, 3, %l6
    63bc:	97 38 e0 1f 	sra  %g3, 0x1f, %o3
    63c0:	81 82 e0 00 	mov  %o3, %y
    63c4:	01 00 00 00 	nop 
    63c8:	01 00 00 00 	nop 
    63cc:	01 00 00 00 	nop 
    63d0:	9e 78 e0 0a 	sdiv  %g3, 0xa, %o7
    63d4:	d2 08 40 0f 	ldub  [ %g1 + %o7 ], %o1
    63d8:	94 03 c0 0f 	add  %o7, %o7, %o2
    63dc:	91 2b e0 03 	sll  %o7, 3, %o0
    63e0:	d2 2d 7e b2 	stb  %o1, [ %l5 + -334 ]
    63e4:	aa 02 80 08 	add  %o2, %o0, %l5
    63e8:	86 20 c0 15 	sub  %g3, %l5, %g3
    63ec:	c2 08 40 03 	ldub  [ %g1 + %g3 ], %g1
    63f0:	a6 07 80 16 	add  %fp, %l6, %l3
    63f4:	c2 2c fe b0 	stb  %g1, [ %l3 + -336 ]
    63f8:	88 05 a0 01 	add  %l6, 1, %g4
    63fc:	82 10 20 2e 	mov  0x2e, %g1
    6400:	a8 07 80 04 	add  %fp, %g4, %l4
    6404:	c2 2d 3e b0 	stb  %g1, [ %l4 + -336 ]
    6408:	c6 08 a0 02 	ldub  [ %g2 + 2 ], %g3
    640c:	80 a0 e0 00 	cmp  %g3, 0
    6410:	02 80 03 4e 	be  7148 <ee_printf+0x1168>
    6414:	ac 01 20 01 	add  %g4, 1, %l6
    6418:	80 a0 e0 63 	cmp  %g3, 0x63
    641c:	04 80 04 61 	ble  75a0 <ee_printf+0x15c0>
    6420:	80 a0 e0 09 	cmp  %g3, 9
    6424:	83 38 e0 1f 	sra  %g3, 0x1f, %g1
    6428:	81 80 60 00 	mov  %g1, %y
    642c:	01 00 00 00 	nop 
    6430:	01 00 00 00 	nop 
    6434:	01 00 00 00 	nop 
    6438:	aa 78 e0 64 	sdiv  %g3, 0x64, %l5
    643c:	a6 07 80 16 	add  %fp, %l6, %l3
    6440:	96 5d 60 64 	smul  %l5, 0x64, %o3
    6444:	03 00 00 81 	sethi  %hi(0x20400), %g1
    6448:	82 10 62 20 	or  %g1, 0x220, %g1	! 20620 <state_known_crc+0x60c>
    644c:	d8 08 40 15 	ldub  [ %g1 + %l5 ], %o4
    6450:	d8 2c fe b0 	stb  %o4, [ %l3 + -336 ]
    6454:	86 20 c0 0b 	sub  %g3, %o3, %g3
    6458:	ac 01 20 03 	add  %g4, 3, %l6
    645c:	97 38 e0 1f 	sra  %g3, 0x1f, %o3
    6460:	81 82 e0 00 	mov  %o3, %y
    6464:	01 00 00 00 	nop 
    6468:	01 00 00 00 	nop 
    646c:	01 00 00 00 	nop 
    6470:	88 78 e0 0a 	sdiv  %g3, 0xa, %g4
    6474:	de 08 40 04 	ldub  [ %g1 + %g4 ], %o7
    6478:	92 01 00 04 	add  %g4, %g4, %o1
    647c:	95 29 20 03 	sll  %g4, 3, %o2
    6480:	de 2d 3e b2 	stb  %o7, [ %l4 + -334 ]
    6484:	a8 02 40 0a 	add  %o1, %o2, %l4
    6488:	86 20 c0 14 	sub  %g3, %l4, %g3
    648c:	90 07 80 16 	add  %fp, %l6, %o0
    6490:	c2 08 40 03 	ldub  [ %g1 + %g3 ], %g1
    6494:	c2 2a 3e b0 	stb  %g1, [ %o0 + -336 ]
    6498:	a6 05 a0 01 	add  %l6, 1, %l3
    649c:	82 10 20 2e 	mov  0x2e, %g1
    64a0:	ac 07 80 13 	add  %fp, %l3, %l6
    64a4:	c2 2d be b0 	stb  %g1, [ %l6 + -336 ]
    64a8:	c4 08 a0 03 	ldub  [ %g2 + 3 ], %g2
    64ac:	80 a0 a0 00 	cmp  %g2, 0
    64b0:	02 80 03 31 	be  7174 <ee_printf+0x1194>
    64b4:	98 04 e0 01 	add  %l3, 1, %o4
    64b8:	80 a0 a0 63 	cmp  %g2, 0x63
    64bc:	04 80 04 43 	ble  75c8 <ee_printf+0x15e8>
    64c0:	80 a0 a0 09 	cmp  %g2, 9
    64c4:	83 38 a0 1f 	sra  %g2, 0x1f, %g1
    64c8:	81 80 60 00 	mov  %g1, %y
    64cc:	01 00 00 00 	nop 
    64d0:	01 00 00 00 	nop 
    64d4:	01 00 00 00 	nop 
    64d8:	a8 78 a0 64 	sdiv  %g2, 0x64, %l4
    64dc:	86 07 80 0c 	add  %fp, %o4, %g3
    64e0:	03 00 00 81 	sethi  %hi(0x20400), %g1
    64e4:	82 10 62 20 	or  %g1, 0x220, %g1	! 20620 <state_known_crc+0x60c>
    64e8:	d0 08 40 14 	ldub  [ %g1 + %l4 ], %o0
    64ec:	d0 28 fe b0 	stb  %o0, [ %g3 + -336 ]
    64f0:	aa 5d 20 64 	smul  %l4, 0x64, %l5
    64f4:	98 04 e0 03 	add  %l3, 3, %o4
    64f8:	84 20 80 15 	sub  %g2, %l5, %g2
    64fc:	97 38 a0 1f 	sra  %g2, 0x1f, %o3
    6500:	81 82 e0 00 	mov  %o3, %y
    6504:	01 00 00 00 	nop 
    6508:	01 00 00 00 	nop 
    650c:	01 00 00 00 	nop 
    6510:	a6 78 a0 0a 	sdiv  %g2, 0xa, %l3
    6514:	c8 08 40 13 	ldub  [ %g1 + %l3 ], %g4
    6518:	92 04 c0 13 	add  %l3, %l3, %o1
    651c:	97 2c e0 03 	sll  %l3, 3, %o3
    6520:	c8 2d be b2 	stb  %g4, [ %l6 + -334 ]
    6524:	ac 02 40 0b 	add  %o1, %o3, %l6
    6528:	84 20 80 16 	sub  %g2, %l6, %g2
    652c:	9e 07 80 0c 	add  %fp, %o4, %o7
    6530:	c2 08 40 02 	ldub  [ %g1 + %g2 ], %g1
    6534:	94 03 20 01 	add  %o4, 1, %o2
    6538:	c2 2b fe b0 	stb  %g1, [ %o7 + -336 ]
    653c:	80 8b 60 10 	btst  0x10, %o5
    6540:	12 80 00 39 	bne  6624 <ee_printf+0x644>
    6544:	90 92 a0 00 	orcc  %o2, 0, %o0
    6548:	80 a7 00 0a 	cmp  %i4, %o2
    654c:	04 80 04 f4 	ble  791c <ee_printf+0x193c>
    6550:	88 07 3f ff 	add  %i4, -1, %g4
    6554:	b8 27 00 0a 	sub  %i4, %o2, %i4
    6558:	82 20 00 1d 	neg  %i5, %g1
    655c:	82 08 60 03 	and  %g1, 3, %g1
    6560:	80 a7 00 01 	cmp  %i4, %g1
    6564:	08 80 00 03 	bleu  6570 <ee_printf+0x590>
    6568:	86 10 00 1c 	mov  %i4, %g3
    656c:	86 10 00 01 	mov  %g1, %g3
    6570:	80 a7 20 03 	cmp  %i4, 3
    6574:	28 80 00 02 	bleu,a   657c <ee_printf+0x59c>
    6578:	86 10 00 1c 	mov  %i4, %g3
    657c:	80 a0 e0 00 	cmp  %g3, 0
    6580:	02 80 00 0c 	be  65b0 <ee_printf+0x5d0>
    6584:	82 10 00 1d 	mov  %i5, %g1
    6588:	9a 10 20 20 	mov  0x20, %o5
    658c:	da 28 40 00 	stb  %o5, [ %g1 ]
    6590:	82 00 60 01 	inc  %g1
    6594:	90 20 40 1d 	sub  %g1, %i5, %o0
    6598:	80 a0 c0 08 	cmp  %g3, %o0
    659c:	18 bf ff fc 	bgu  658c <ee_printf+0x5ac>
    65a0:	88 01 3f ff 	add  %g4, -1, %g4
    65a4:	80 a7 00 03 	cmp  %i4, %g3
    65a8:	22 80 00 1d 	be,a   661c <ee_printf+0x63c>
    65ac:	ba 07 40 1c 	add  %i5, %i4, %i5
    65b0:	aa 27 00 03 	sub  %i4, %g3, %l5
    65b4:	99 35 60 02 	srl  %l5, 2, %o4
    65b8:	a7 2b 20 02 	sll  %o4, 2, %l3
    65bc:	80 a4 e0 00 	cmp  %l3, 0
    65c0:	02 80 00 0e 	be  65f8 <ee_printf+0x618>
    65c4:	84 10 20 00 	clr  %g2
    65c8:	96 07 40 03 	add  %i5, %g3, %o3
    65cc:	92 10 20 00 	clr  %o1
    65d0:	e2 22 c0 00 	st  %l1, [ %o3 ]
    65d4:	92 02 60 01 	inc  %o1
    65d8:	80 a2 40 0c 	cmp  %o1, %o4
    65dc:	0a bf ff fd 	bcs  65d0 <ee_printf+0x5f0>
    65e0:	96 02 e0 04 	add  %o3, 4, %o3
    65e4:	82 00 40 13 	add  %g1, %l3, %g1
    65e8:	80 a5 40 13 	cmp  %l5, %l3
    65ec:	02 80 00 0b 	be  6618 <ee_printf+0x638>
    65f0:	88 21 00 13 	sub  %g4, %l3, %g4
    65f4:	84 10 20 00 	clr  %g2
    65f8:	ac 01 20 01 	add  %g4, 1, %l6
    65fc:	9e 10 20 20 	mov  0x20, %o7
    6600:	de 28 40 02 	stb  %o7, [ %g1 + %g2 ]
    6604:	84 00 a0 01 	inc  %g2
    6608:	a8 25 80 02 	sub  %l6, %g2, %l4
    660c:	80 a5 00 0a 	cmp  %l4, %o2
    6610:	34 bf ff fd 	bg,a   6604 <ee_printf+0x624>
    6614:	de 28 40 02 	stb  %o7, [ %g1 + %g2 ]
    6618:	ba 07 40 1c 	add  %i5, %i4, %i5
    661c:	b8 02 bf ff 	add  %o2, -1, %i4
    6620:	90 92 a0 00 	orcc  %o2, 0, %o0
    6624:	24 80 00 02 	ble,a   662c <ee_printf+0x64c>
    6628:	90 10 20 01 	mov  1, %o0
    662c:	9b 32 20 02 	srl  %o0, 2, %o5
    6630:	80 8f 60 03 	btst  3, %i5
    6634:	12 80 04 df 	bne  79b0 <ee_printf+0x19d0>
    6638:	83 2b 60 02 	sll  %o5, 2, %g1
    663c:	80 a0 60 00 	cmp  %g1, 0
    6640:	22 80 04 dd 	be,a   79b4 <ee_printf+0x19d4>
    6644:	a6 10 00 1d 	mov  %i5, %l3
    6648:	98 10 20 00 	clr  %o4
    664c:	86 10 20 00 	clr  %g3
    6650:	92 07 be b0 	add  %fp, -336, %o1
    6654:	ea 02 40 0c 	ld  [ %o1 + %o4 ], %l5
    6658:	ea 27 40 0c 	st  %l5, [ %i5 + %o4 ]
    665c:	86 00 e0 01 	inc  %g3
    6660:	80 a3 40 03 	cmp  %o5, %g3
    6664:	18 bf ff fc 	bgu  6654 <ee_printf+0x674>
    6668:	98 03 20 04 	add  %o4, 4, %o4
    666c:	80 a2 00 01 	cmp  %o0, %g1
    6670:	02 80 00 09 	be  6694 <ee_printf+0x6b4>
    6674:	a6 07 40 01 	add  %i5, %g1, %l3
    6678:	96 24 c0 01 	sub  %l3, %g1, %o3
    667c:	c8 0a 40 01 	ldub  [ %o1 + %g1 ], %g4
    6680:	c8 2a c0 01 	stb  %g4, [ %o3 + %g1 ]
    6684:	82 00 60 01 	inc  %g1
    6688:	80 a2 80 01 	cmp  %o2, %g1
    668c:	34 bf ff fd 	bg,a   6680 <ee_printf+0x6a0>
    6690:	c8 0a 40 01 	ldub  [ %o1 + %g1 ], %g4
    6694:	ba 07 40 08 	add  %i5, %o0, %i5
    6698:	80 a7 00 0a 	cmp  %i4, %o2
    669c:	04 80 00 33 	ble  6768 <ee_printf+0x788>
    66a0:	a6 07 3f ff 	add  %i4, -1, %l3
    66a4:	b8 27 00 0a 	sub  %i4, %o2, %i4
    66a8:	ac 20 00 1d 	neg  %i5, %l6
    66ac:	a8 0d a0 03 	and  %l6, 3, %l4
    66b0:	80 a5 00 1c 	cmp  %l4, %i4
    66b4:	38 80 00 02 	bgu,a   66bc <ee_printf+0x6dc>
    66b8:	a8 10 00 1c 	mov  %i4, %l4
    66bc:	80 a7 20 03 	cmp  %i4, 3
    66c0:	28 80 00 02 	bleu,a   66c8 <ee_printf+0x6e8>
    66c4:	a8 10 00 1c 	mov  %i4, %l4
    66c8:	80 a5 20 00 	cmp  %l4, 0
    66cc:	02 80 00 0c 	be  66fc <ee_printf+0x71c>
    66d0:	82 10 00 1d 	mov  %i5, %g1
    66d4:	9e 10 20 20 	mov  0x20, %o7
    66d8:	de 28 40 00 	stb  %o7, [ %g1 ]
    66dc:	82 00 60 01 	inc  %g1
    66e0:	84 20 40 1d 	sub  %g1, %i5, %g2
    66e4:	80 a5 00 02 	cmp  %l4, %g2
    66e8:	18 bf ff fc 	bgu  66d8 <ee_printf+0x6f8>
    66ec:	a6 04 ff ff 	add  %l3, -1, %l3
    66f0:	80 a7 00 14 	cmp  %i4, %l4
    66f4:	22 80 00 1d 	be,a   6768 <ee_printf+0x788>
    66f8:	ba 07 40 1c 	add  %i5, %i4, %i5
    66fc:	90 27 00 14 	sub  %i4, %l4, %o0
    6700:	ab 32 20 02 	srl  %o0, 2, %l5
    6704:	9b 2d 60 02 	sll  %l5, 2, %o5
    6708:	80 a3 60 00 	cmp  %o5, 0
    670c:	02 80 00 0e 	be  6744 <ee_printf+0x764>
    6710:	88 10 20 00 	clr  %g4
    6714:	86 07 40 14 	add  %i5, %l4, %g3
    6718:	98 10 20 00 	clr  %o4
    671c:	e2 20 c0 00 	st  %l1, [ %g3 ]
    6720:	98 03 20 01 	inc  %o4
    6724:	80 a3 00 15 	cmp  %o4, %l5
    6728:	0a bf ff fd 	bcs  671c <ee_printf+0x73c>
    672c:	86 00 e0 04 	add  %g3, 4, %g3
    6730:	82 00 40 0d 	add  %g1, %o5, %g1
    6734:	80 a2 00 0d 	cmp  %o0, %o5
    6738:	02 80 00 0b 	be  6764 <ee_printf+0x784>
    673c:	a6 24 c0 0d 	sub  %l3, %o5, %l3
    6740:	88 10 20 00 	clr  %g4
    6744:	92 04 e0 01 	add  %l3, 1, %o1
    6748:	96 10 20 20 	mov  0x20, %o3
    674c:	d6 28 40 04 	stb  %o3, [ %g1 + %g4 ]
    6750:	88 01 20 01 	inc  %g4
    6754:	ac 22 40 04 	sub  %o1, %g4, %l6
    6758:	80 a2 80 16 	cmp  %o2, %l6
    675c:	26 bf ff fd 	bl,a   6750 <ee_printf+0x770>
    6760:	d6 28 40 04 	stb  %o3, [ %g1 + %g4 ]
    6764:	ba 07 40 1c 	add  %i5, %i4, %i5
    6768:	10 bf fe 37 	b  6044 <ee_printf+0x64>
    676c:	d8 0e 20 01 	ldub  [ %i0 + 1 ], %o4
    6770:	9a 13 60 40 	or  %o5, 0x40, %o5
    6774:	94 10 20 10 	mov  0x10, %o2
    6778:	d2 04 80 00 	ld  [ %l2 ], %o1
    677c:	90 10 00 1d 	mov  %i5, %o0
    6780:	98 10 00 13 	mov  %l3, %o4
    6784:	7f ff fc 80 	call  5984 <number>
    6788:	96 10 00 1c 	mov  %i4, %o3
    678c:	a4 04 a0 04 	add  %l2, 4, %l2
    6790:	ba 10 00 08 	mov  %o0, %i5
    6794:	10 bf fe 2c 	b  6044 <ee_printf+0x64>
    6798:	d8 0e 20 01 	ldub  [ %i0 + 1 ], %o4
    679c:	ec 04 80 00 	ld  [ %l2 ], %l6
    67a0:	80 a5 a0 00 	cmp  %l6, 0
    67a4:	02 80 04 5b 	be  7910 <ee_printf+0x1930>
    67a8:	a4 04 a0 04 	add  %l2, 4, %l2
    67ac:	c2 4d 80 00 	ldsb  [ %l6 ], %g1
    67b0:	80 a0 60 00 	cmp  %g1, 0
    67b4:	02 80 04 5c 	be  7924 <ee_printf+0x1944>
    67b8:	80 a4 e0 00 	cmp  %l3, 0
    67bc:	02 80 04 5a 	be  7924 <ee_printf+0x1944>
    67c0:	90 10 00 16 	mov  %l6, %o0
    67c4:	10 80 00 05 	b  67d8 <ee_printf+0x7f8>
    67c8:	90 02 20 01 	inc  %o0
    67cc:	22 80 00 08 	be,a   67ec <ee_printf+0x80c>
    67d0:	a6 22 00 16 	sub  %o0, %l6, %l3
    67d4:	90 02 20 01 	inc  %o0
    67d8:	c2 4a 00 00 	ldsb  [ %o0 ], %g1
    67dc:	80 a0 60 00 	cmp  %g1, 0
    67e0:	12 bf ff fb 	bne  67cc <ee_printf+0x7ec>
    67e4:	a6 84 ff ff 	addcc  %l3, -1, %l3
    67e8:	a6 22 00 16 	sub  %o0, %l6, %l3
    67ec:	80 8b 60 10 	btst  0x10, %o5
    67f0:	12 80 00 39 	bne  68d4 <ee_printf+0x8f4>
    67f4:	80 a4 e0 00 	cmp  %l3, 0
    67f8:	80 a7 00 13 	cmp  %i4, %l3
    67fc:	04 80 04 4e 	ble  7934 <ee_printf+0x1954>
    6800:	9a 07 3f ff 	add  %i4, -1, %o5
    6804:	b8 27 00 13 	sub  %i4, %l3, %i4
    6808:	82 20 00 1d 	neg  %i5, %g1
    680c:	82 08 60 03 	and  %g1, 3, %g1
    6810:	80 a7 00 01 	cmp  %i4, %g1
    6814:	08 80 00 03 	bleu  6820 <ee_printf+0x840>
    6818:	88 10 00 1c 	mov  %i4, %g4
    681c:	88 10 00 01 	mov  %g1, %g4
    6820:	80 a7 20 03 	cmp  %i4, 3
    6824:	28 80 00 02 	bleu,a   682c <ee_printf+0x84c>
    6828:	88 10 00 1c 	mov  %i4, %g4
    682c:	80 a1 20 00 	cmp  %g4, 0
    6830:	02 80 00 0c 	be  6860 <ee_printf+0x880>
    6834:	82 10 00 1d 	mov  %i5, %g1
    6838:	92 10 20 20 	mov  0x20, %o1
    683c:	d2 28 40 00 	stb  %o1, [ %g1 ]
    6840:	82 00 60 01 	inc  %g1
    6844:	86 20 40 1d 	sub  %g1, %i5, %g3
    6848:	80 a1 00 03 	cmp  %g4, %g3
    684c:	18 bf ff fc 	bgu  683c <ee_printf+0x85c>
    6850:	9a 03 7f ff 	add  %o5, -1, %o5
    6854:	80 a7 00 04 	cmp  %i4, %g4
    6858:	22 80 00 1d 	be,a   68cc <ee_printf+0x8ec>
    685c:	ba 07 40 1c 	add  %i5, %i4, %i5
    6860:	94 27 00 04 	sub  %i4, %g4, %o2
    6864:	99 32 a0 02 	srl  %o2, 2, %o4
    6868:	97 2b 20 02 	sll  %o4, 2, %o3
    686c:	80 a2 e0 00 	cmp  %o3, 0
    6870:	02 80 00 0e 	be  68a8 <ee_printf+0x8c8>
    6874:	90 10 20 00 	clr  %o0
    6878:	9e 07 40 04 	add  %i5, %g4, %o7
    687c:	84 10 20 00 	clr  %g2
    6880:	e2 23 c0 00 	st  %l1, [ %o7 ]
    6884:	84 00 a0 01 	inc  %g2
    6888:	80 a0 80 0c 	cmp  %g2, %o4
    688c:	0a bf ff fd 	bcs  6880 <ee_printf+0x8a0>
    6890:	9e 03 e0 04 	add  %o7, 4, %o7
    6894:	82 00 40 0b 	add  %g1, %o3, %g1
    6898:	80 a2 80 0b 	cmp  %o2, %o3
    689c:	02 80 00 0b 	be  68c8 <ee_printf+0x8e8>
    68a0:	9a 23 40 0b 	sub  %o5, %o3, %o5
    68a4:	90 10 20 00 	clr  %o0
    68a8:	a8 03 60 01 	add  %o5, 1, %l4
    68ac:	aa 10 20 20 	mov  0x20, %l5
    68b0:	ea 28 40 08 	stb  %l5, [ %g1 + %o0 ]
    68b4:	90 02 20 01 	inc  %o0
    68b8:	88 25 00 08 	sub  %l4, %o0, %g4
    68bc:	80 a4 c0 04 	cmp  %l3, %g4
    68c0:	26 bf ff fd 	bl,a   68b4 <ee_printf+0x8d4>
    68c4:	ea 28 40 08 	stb  %l5, [ %g1 + %o0 ]
    68c8:	ba 07 40 1c 	add  %i5, %i4, %i5
    68cc:	b8 04 ff ff 	add  %l3, -1, %i4
    68d0:	80 a4 e0 00 	cmp  %l3, 0
    68d4:	04 80 00 2e 	ble  698c <ee_printf+0x9ac>
    68d8:	87 34 e0 02 	srl  %l3, 2, %g3
    68dc:	82 07 60 04 	add  %i5, 4, %g1
    68e0:	80 a5 80 01 	cmp  %l6, %g1
    68e4:	82 05 a0 04 	add  %l6, 4, %g1
    68e8:	92 60 3f ff 	subx  %g0, -1, %o1
    68ec:	80 a7 40 01 	cmp  %i5, %g1
    68f0:	82 60 3f ff 	subx  %g0, -1, %g1
    68f4:	98 12 40 01 	or  %o1, %g1, %o4
    68f8:	95 28 e0 02 	sll  %g3, 2, %o2
    68fc:	80 a4 e0 03 	cmp  %l3, 3
    6900:	08 80 02 59 	bleu  7264 <ee_printf+0x1284>
    6904:	82 10 20 01 	mov  1, %g1
    6908:	96 17 40 16 	or  %i5, %l6, %o3
    690c:	84 0a e0 03 	and  %o3, 3, %g2
    6910:	80 a0 00 02 	cmp  %g0, %g2
    6914:	82 0b 00 01 	and  %o4, %g1, %g1
    6918:	9e 60 3f ff 	subx  %g0, -1, %o7
    691c:	80 88 40 0f 	btst  %g1, %o7
    6920:	02 80 04 33 	be  79ec <ee_printf+0x1a0c>
    6924:	80 a2 a0 00 	cmp  %o2, 0
    6928:	22 80 04 32 	be,a   79f0 <ee_printf+0x1a10>
    692c:	aa 10 00 1d 	mov  %i5, %l5
    6930:	82 10 20 00 	clr  %g1
    6934:	a8 10 20 00 	clr  %l4
    6938:	da 05 80 01 	ld  [ %l6 + %g1 ], %o5
    693c:	da 27 40 01 	st  %o5, [ %i5 + %g1 ]
    6940:	a8 05 20 01 	inc  %l4
    6944:	80 a0 c0 14 	cmp  %g3, %l4
    6948:	18 bf ff fc 	bgu  6938 <ee_printf+0x958>
    694c:	82 00 60 04 	add  %g1, 4, %g1
    6950:	82 10 00 0a 	mov  %o2, %g1
    6954:	ac 05 80 0a 	add  %l6, %o2, %l6
    6958:	80 a4 c0 0a 	cmp  %l3, %o2
    695c:	02 80 00 0b 	be  6988 <ee_printf+0x9a8>
    6960:	aa 07 40 0a 	add  %i5, %o2, %l5
    6964:	90 20 00 01 	neg  %g1, %o0
    6968:	88 05 80 08 	add  %l6, %o0, %g4
    696c:	92 05 40 08 	add  %l5, %o0, %o1
    6970:	c6 09 00 01 	ldub  [ %g4 + %g1 ], %g3
    6974:	c6 2a 40 01 	stb  %g3, [ %o1 + %g1 ]
    6978:	82 00 60 01 	inc  %g1
    697c:	80 a4 c0 01 	cmp  %l3, %g1
    6980:	34 bf ff fd 	bg,a   6974 <ee_printf+0x994>
    6984:	c6 09 00 01 	ldub  [ %g4 + %g1 ], %g3
    6988:	ba 07 40 13 	add  %i5, %l3, %i5
    698c:	80 a7 00 13 	cmp  %i4, %l3
    6990:	04 bf ff 76 	ble  6768 <ee_printf+0x788>
    6994:	9e 07 3f ff 	add  %i4, -1, %o7
    6998:	b8 27 00 13 	sub  %i4, %l3, %i4
    699c:	ac 20 00 1d 	neg  %i5, %l6
    69a0:	94 0d a0 03 	and  %l6, 3, %o2
    69a4:	80 a2 80 1c 	cmp  %o2, %i4
    69a8:	38 80 00 02 	bgu,a   69b0 <ee_printf+0x9d0>
    69ac:	94 10 00 1c 	mov  %i4, %o2
    69b0:	80 a7 20 03 	cmp  %i4, 3
    69b4:	28 80 00 02 	bleu,a   69bc <ee_printf+0x9dc>
    69b8:	94 10 00 1c 	mov  %i4, %o2
    69bc:	80 a2 a0 00 	cmp  %o2, 0
    69c0:	02 80 00 0c 	be  69f0 <ee_printf+0xa10>
    69c4:	82 10 00 1d 	mov  %i5, %g1
    69c8:	98 10 20 20 	mov  0x20, %o4
    69cc:	d8 28 40 00 	stb  %o4, [ %g1 ]
    69d0:	82 00 60 01 	inc  %g1
    69d4:	96 20 40 1d 	sub  %g1, %i5, %o3
    69d8:	80 a2 80 0b 	cmp  %o2, %o3
    69dc:	18 bf ff fc 	bgu  69cc <ee_printf+0x9ec>
    69e0:	9e 03 ff ff 	add  %o7, -1, %o7
    69e4:	80 a7 00 0a 	cmp  %i4, %o2
    69e8:	22 bf ff 60 	be,a   6768 <ee_printf+0x788>
    69ec:	ba 07 40 1c 	add  %i5, %i4, %i5
    69f0:	a8 27 00 0a 	sub  %i4, %o2, %l4
    69f4:	9b 35 20 02 	srl  %l4, 2, %o5
    69f8:	ab 2b 60 02 	sll  %o5, 2, %l5
    69fc:	80 a5 60 00 	cmp  %l5, 0
    6a00:	02 80 00 0e 	be  6a38 <ee_printf+0xa58>
    6a04:	ac 10 20 00 	clr  %l6
    6a08:	90 07 40 0a 	add  %i5, %o2, %o0
    6a0c:	84 10 20 00 	clr  %g2
    6a10:	e2 22 00 00 	st  %l1, [ %o0 ]
    6a14:	84 00 a0 01 	inc  %g2
    6a18:	80 a0 80 0d 	cmp  %g2, %o5
    6a1c:	0a bf ff fd 	bcs  6a10 <ee_printf+0xa30>
    6a20:	90 02 20 04 	add  %o0, 4, %o0
    6a24:	82 00 40 15 	add  %g1, %l5, %g1
    6a28:	80 a5 00 15 	cmp  %l4, %l5
    6a2c:	02 bf ff 4e 	be  6764 <ee_printf+0x784>
    6a30:	9e 23 c0 15 	sub  %o7, %l5, %o7
    6a34:	ac 10 20 00 	clr  %l6
    6a38:	92 03 e0 01 	add  %o7, 1, %o1
    6a3c:	86 10 20 20 	mov  0x20, %g3
    6a40:	c6 28 40 16 	stb  %g3, [ %g1 + %l6 ]
    6a44:	ac 05 a0 01 	inc  %l6
    6a48:	88 22 40 16 	sub  %o1, %l6, %g4
    6a4c:	80 a4 c0 04 	cmp  %l3, %g4
    6a50:	26 bf ff fd 	bl,a   6a44 <ee_printf+0xa64>
    6a54:	c6 28 40 16 	stb  %g3, [ %g1 + %l6 ]
    6a58:	10 bf ff 44 	b  6768 <ee_printf+0x788>
    6a5c:	ba 07 40 1c 	add  %i5, %i4, %i5
    6a60:	80 a7 3f ff 	cmp  %i4, -1
    6a64:	22 80 02 02 	be,a   726c <ee_printf+0x128c>
    6a68:	9a 13 60 01 	or  %o5, 1, %o5
    6a6c:	d2 04 80 00 	ld  [ %l2 ], %o1
    6a70:	90 10 00 1d 	mov  %i5, %o0
    6a74:	98 10 00 13 	mov  %l3, %o4
    6a78:	94 10 20 10 	mov  0x10, %o2
    6a7c:	7f ff fb c2 	call  5984 <number>
    6a80:	96 10 00 1c 	mov  %i4, %o3
    6a84:	a4 04 a0 04 	add  %l2, 4, %l2
    6a88:	ba 10 00 08 	mov  %o0, %i5
    6a8c:	10 bf fd 6e 	b  6044 <ee_printf+0x64>
    6a90:	d8 0e 20 01 	ldub  [ %i0 + 1 ], %o4
    6a94:	10 bf ff 39 	b  6778 <ee_printf+0x798>
    6a98:	94 10 20 08 	mov  8, %o2
    6a9c:	92 10 00 12 	mov  %l2, %o1
    6aa0:	94 10 20 08 	mov  8, %o2
    6aa4:	90 07 be 58 	add  %fp, -424, %o0
    6aa8:	7f ff fd 15 	call  5efc <memcpy>
    6aac:	da 27 be 44 	st  %o5, [ %fp + -444 ]
    6ab0:	d4 07 be 44 	ld  [ %fp + -444 ], %o2
    6ab4:	a4 04 a0 08 	add  %l2, 8, %l2
    6ab8:	80 8a a0 10 	btst  0x10, %o2
    6abc:	02 80 00 03 	be  6ac8 <ee_printf+0xae8>
    6ac0:	d1 1f be 58 	ldd  [ %fp + -424 ], %f8
    6ac4:	94 0a bf fe 	and  %o2, -2, %o2
    6ac8:	aa 12 a0 02 	or  %o2, 2, %l5
    6acc:	82 0d 60 01 	and  %l5, 1, %g1
    6ad0:	80 a0 00 01 	cmp  %g0, %g1
    6ad4:	03 00 00 81 	sethi  %hi(0x20400), %g1
    6ad8:	98 40 3f ff 	addx  %g0, -1, %o4
    6adc:	d5 18 62 88 	ldd  [ %g1 + 0x288 ], %f10
    6ae0:	96 0b 20 f0 	and  %o4, 0xf0, %o3
    6ae4:	81 aa 0a ca 	fcmped  %f8, %f10
    6ae8:	01 00 00 00 	nop 
    6aec:	09 80 03 0d 	fbl  7720 <ee_printf+0x1740>
    6af0:	a8 02 e0 30 	add  %o3, 0x30, %l4
    6af4:	80 8d 60 04 	btst  4, %l5
    6af8:	02 80 02 d0 	be  7638 <ee_printf+0x1658>
    6afc:	80 8d 60 08 	btst  8, %l5
    6b00:	b8 07 3f ff 	add  %i4, -1, %i4
    6b04:	ac 10 20 2b 	mov  0x2b, %l6
    6b08:	80 a4 ff ff 	cmp  %l3, -1
    6b0c:	22 80 00 02 	be,a   6b14 <ee_printf+0xb34>
    6b10:	a6 10 20 06 	mov  6, %l3
    6b14:	d1 3f be 38 	std  %f8, [ %fp + -456 ]
    6b18:	9a 07 be b0 	add  %fp, -336, %o5
    6b1c:	d0 1f be 38 	ldd  [ %fp + -456 ], %o0
    6b20:	94 10 00 13 	mov  %l3, %o2
    6b24:	96 07 be 50 	add  %fp, -432, %o3
    6b28:	7f ff fb 43 	call  5834 <fcvtbuf>
    6b2c:	98 07 be 54 	add  %fp, -428, %o4
    6b30:	da 07 be 54 	ld  [ %fp + -428 ], %o5
    6b34:	80 a3 60 00 	cmp  %o5, 0
    6b38:	02 80 00 05 	be  6b4c <ee_printf+0xb6c>
    6b3c:	82 07 be 60 	add  %fp, -416, %g1
    6b40:	84 10 20 2d 	mov  0x2d, %g2
    6b44:	82 07 be 61 	add  %fp, -415, %g1
    6b48:	c4 2f be 60 	stb  %g2, [ %fp + -416 ]
    6b4c:	de 4a 00 00 	ldsb  [ %o0 ], %o7
    6b50:	80 a3 e0 00 	cmp  %o7, 0
    6b54:	12 80 02 f9 	bne  7738 <ee_printf+0x1758>
    6b58:	da 0a 00 00 	ldub  [ %o0 ], %o5
    6b5c:	90 10 20 30 	mov  0x30, %o0
    6b60:	80 a4 e0 00 	cmp  %l3, 0
    6b64:	02 80 03 a7 	be  7a00 <ee_printf+0x1a20>
    6b68:	d0 28 40 00 	stb  %o0, [ %g1 ]
    6b6c:	92 10 20 2e 	mov  0x2e, %o1
    6b70:	d2 28 60 01 	stb  %o1, [ %g1 + 1 ]
    6b74:	88 94 e0 00 	orcc  %l3, 0, %g4
    6b78:	04 80 03 a0 	ble  79f8 <ee_printf+0x1a18>
    6b7c:	82 00 60 02 	add  %g1, 2, %g1
    6b80:	86 20 00 01 	neg  %g1, %g3
    6b84:	94 08 e0 03 	and  %g3, 3, %o2
    6b88:	80 a1 00 0a 	cmp  %g4, %o2
    6b8c:	08 80 00 03 	bleu  6b98 <ee_printf+0xbb8>
    6b90:	9e 10 00 04 	mov  %g4, %o7
    6b94:	9e 10 00 0a 	mov  %o2, %o7
    6b98:	80 a1 20 03 	cmp  %g4, 3
    6b9c:	28 80 00 02 	bleu,a   6ba4 <ee_printf+0xbc4>
    6ba0:	9e 10 00 04 	mov  %g4, %o7
    6ba4:	84 10 00 01 	mov  %g1, %g2
    6ba8:	80 a3 e0 00 	cmp  %o7, 0
    6bac:	02 80 00 0b 	be  6bd8 <ee_printf+0xbf8>
    6bb0:	86 10 20 00 	clr  %g3
    6bb4:	98 10 20 30 	mov  0x30, %o4
    6bb8:	d8 28 80 00 	stb  %o4, [ %g2 ]
    6bbc:	86 00 e0 01 	inc  %g3
    6bc0:	80 a3 c0 03 	cmp  %o7, %g3
    6bc4:	18 bf ff fd 	bgu  6bb8 <ee_printf+0xbd8>
    6bc8:	84 00 a0 01 	inc  %g2
    6bcc:	80 a1 00 0f 	cmp  %g4, %o7
    6bd0:	22 80 00 1b 	be,a   6c3c <ee_printf+0xc5c>
    6bd4:	c0 28 40 04 	clrb  [ %g1 + %g4 ]
    6bd8:	90 21 00 0f 	sub  %g4, %o7, %o0
    6bdc:	97 32 20 02 	srl  %o0, 2, %o3
    6be0:	93 2a e0 02 	sll  %o3, 2, %o1
    6be4:	80 a2 60 00 	cmp  %o1, 0
    6be8:	22 80 00 0e 	be,a   6c20 <ee_printf+0xc40>
    6bec:	9e 10 20 30 	mov  0x30, %o7
    6bf0:	94 00 40 0f 	add  %g1, %o7, %o2
    6bf4:	9a 10 20 00 	clr  %o5
    6bf8:	f4 22 80 00 	st  %i2, [ %o2 ]
    6bfc:	9a 03 60 01 	inc  %o5
    6c00:	80 a3 40 0b 	cmp  %o5, %o3
    6c04:	0a bf ff fd 	bcs  6bf8 <ee_printf+0xc18>
    6c08:	94 02 a0 04 	add  %o2, 4, %o2
    6c0c:	84 00 80 09 	add  %g2, %o1, %g2
    6c10:	80 a2 00 09 	cmp  %o0, %o1
    6c14:	02 80 00 09 	be  6c38 <ee_printf+0xc58>
    6c18:	86 00 c0 09 	add  %g3, %o1, %g3
    6c1c:	9e 10 20 30 	mov  0x30, %o7
    6c20:	98 20 80 03 	sub  %g2, %g3, %o4
    6c24:	de 2b 00 03 	stb  %o7, [ %o4 + %g3 ]
    6c28:	86 00 e0 01 	inc  %g3
    6c2c:	80 a4 c0 03 	cmp  %l3, %g3
    6c30:	34 bf ff fe 	bg,a   6c28 <ee_printf+0xc48>
    6c34:	de 2b 00 03 	stb  %o7, [ %o4 + %g3 ]
    6c38:	c0 28 40 04 	clrb  [ %g1 + %g4 ]
    6c3c:	c2 0f be 60 	ldub  [ %fp + -416 ], %g1
    6c40:	83 28 60 18 	sll  %g1, 0x18, %g1
    6c44:	80 a0 60 00 	cmp  %g1, 0
    6c48:	22 80 00 0e 	be,a   6c80 <ee_printf+0xca0>
    6c4c:	a6 10 20 00 	clr  %l3
    6c50:	90 07 be 60 	add  %fp, -416, %o0
    6c54:	9a 07 bf 60 	add  %fp, -160, %o5
    6c58:	10 80 00 04 	b  6c68 <ee_printf+0xc88>
    6c5c:	98 10 00 08 	mov  %o0, %o4
    6c60:	02 80 00 08 	be  6c80 <ee_printf+0xca0>
    6c64:	a6 23 00 08 	sub  %o4, %o0, %l3
    6c68:	98 03 20 01 	inc  %o4
    6c6c:	c2 4b 00 00 	ldsb  [ %o4 ], %g1
    6c70:	80 a0 60 00 	cmp  %g1, 0
    6c74:	12 bf ff fb 	bne  6c60 <ee_printf+0xc80>
    6c78:	80 a3 00 0d 	cmp  %o4, %o5
    6c7c:	a6 23 00 08 	sub  %o4, %o0, %l3
    6c80:	80 8d 60 11 	btst  0x11, %l5
    6c84:	12 80 00 37 	bne  6d60 <ee_printf+0xd80>
    6c88:	b8 27 00 13 	sub  %i4, %l3, %i4
    6c8c:	80 a7 20 00 	cmp  %i4, 0
    6c90:	04 80 03 27 	ble  792c <ee_printf+0x194c>
    6c94:	88 07 3f ff 	add  %i4, -1, %g4
    6c98:	82 20 00 1d 	neg  %i5, %g1
    6c9c:	82 08 60 03 	and  %g1, 3, %g1
    6ca0:	80 a7 00 01 	cmp  %i4, %g1
    6ca4:	08 80 00 03 	bleu  6cb0 <ee_printf+0xcd0>
    6ca8:	86 10 00 1c 	mov  %i4, %g3
    6cac:	86 10 00 01 	mov  %g1, %g3
    6cb0:	80 a7 20 03 	cmp  %i4, 3
    6cb4:	28 80 00 02 	bleu,a   6cbc <ee_printf+0xcdc>
    6cb8:	86 10 00 1c 	mov  %i4, %g3
    6cbc:	80 a0 e0 00 	cmp  %g3, 0
    6cc0:	02 80 00 0c 	be  6cf0 <ee_printf+0xd10>
    6cc4:	82 10 00 1d 	mov  %i5, %g1
    6cc8:	96 10 20 20 	mov  0x20, %o3
    6ccc:	d6 28 40 00 	stb  %o3, [ %g1 ]
    6cd0:	82 00 60 01 	inc  %g1
    6cd4:	94 20 40 1d 	sub  %g1, %i5, %o2
    6cd8:	80 a0 c0 0a 	cmp  %g3, %o2
    6cdc:	18 bf ff fc 	bgu  6ccc <ee_printf+0xcec>
    6ce0:	88 01 3f ff 	add  %g4, -1, %g4
    6ce4:	80 a7 00 03 	cmp  %i4, %g3
    6ce8:	22 80 00 1d 	be,a   6d5c <ee_printf+0xd7c>
    6cec:	ba 07 40 1c 	add  %i5, %i4, %i5
    6cf0:	92 27 00 03 	sub  %i4, %g3, %o1
    6cf4:	9f 32 60 02 	srl  %o1, 2, %o7
    6cf8:	91 2b e0 02 	sll  %o7, 2, %o0
    6cfc:	80 a2 20 00 	cmp  %o0, 0
    6d00:	02 80 00 0e 	be  6d38 <ee_printf+0xd58>
    6d04:	94 10 20 00 	clr  %o2
    6d08:	9a 07 40 03 	add  %i5, %g3, %o5
    6d0c:	84 10 20 00 	clr  %g2
    6d10:	e2 23 40 00 	st  %l1, [ %o5 ]
    6d14:	84 00 a0 01 	inc  %g2
    6d18:	80 a0 80 0f 	cmp  %g2, %o7
    6d1c:	0a bf ff fd 	bcs  6d10 <ee_printf+0xd30>
    6d20:	9a 03 60 04 	add  %o5, 4, %o5
    6d24:	82 00 40 08 	add  %g1, %o0, %g1
    6d28:	80 a2 40 08 	cmp  %o1, %o0
    6d2c:	02 80 00 0b 	be  6d58 <ee_printf+0xd78>
    6d30:	88 21 00 08 	sub  %g4, %o0, %g4
    6d34:	94 10 20 00 	clr  %o2
    6d38:	98 01 20 01 	add  %g4, 1, %o4
    6d3c:	96 10 20 20 	mov  0x20, %o3
    6d40:	d6 28 40 0a 	stb  %o3, [ %g1 + %o2 ]
    6d44:	94 02 a0 01 	inc  %o2
    6d48:	86 23 00 0a 	sub  %o4, %o2, %g3
    6d4c:	80 a0 e0 00 	cmp  %g3, 0
    6d50:	34 bf ff fd 	bg,a   6d44 <ee_printf+0xd64>
    6d54:	d6 28 40 0a 	stb  %o3, [ %g1 + %o2 ]
    6d58:	ba 07 40 1c 	add  %i5, %i4, %i5
    6d5c:	b8 10 3f ff 	mov  -1, %i4
    6d60:	80 8d a0 ff 	btst  0xff, %l6
    6d64:	02 80 00 04 	be  6d74 <ee_printf+0xd94>
    6d68:	80 8d 60 10 	btst  0x10, %l5
    6d6c:	ec 2f 40 00 	stb  %l6, [ %i5 ]
    6d70:	ba 07 60 01 	inc  %i5
    6d74:	12 80 00 3e 	bne  6e6c <ee_printf+0xe8c>
    6d78:	80 a4 e0 00 	cmp  %l3, 0
    6d7c:	80 a7 20 00 	cmp  %i4, 0
    6d80:	04 80 02 f2 	ble  7948 <ee_printf+0x1968>
    6d84:	88 07 3f ff 	add  %i4, -1, %g4
    6d88:	aa 20 00 1d 	neg  %i5, %l5
    6d8c:	ac 0d 60 03 	and  %l5, 3, %l6
    6d90:	80 a5 80 1c 	cmp  %l6, %i4
    6d94:	38 80 00 02 	bgu,a   6d9c <ee_printf+0xdbc>
    6d98:	ac 10 00 1c 	mov  %i4, %l6
    6d9c:	80 a7 20 03 	cmp  %i4, 3
    6da0:	28 80 00 02 	bleu,a   6da8 <ee_printf+0xdc8>
    6da4:	ac 10 00 1c 	mov  %i4, %l6
    6da8:	80 a5 a0 00 	cmp  %l6, 0
    6dac:	02 80 00 0b 	be  6dd8 <ee_printf+0xdf8>
    6db0:	82 10 00 1d 	mov  %i5, %g1
    6db4:	e8 28 40 00 	stb  %l4, [ %g1 ]
    6db8:	82 00 60 01 	inc  %g1
    6dbc:	92 20 40 1d 	sub  %g1, %i5, %o1
    6dc0:	80 a5 80 09 	cmp  %l6, %o1
    6dc4:	18 bf ff fc 	bgu  6db4 <ee_printf+0xdd4>
    6dc8:	88 01 3f ff 	add  %g4, -1, %g4
    6dcc:	80 a7 00 16 	cmp  %i4, %l6
    6dd0:	22 80 00 25 	be,a   6e64 <ee_printf+0xe84>
    6dd4:	ba 07 40 1c 	add  %i5, %i4, %i5
    6dd8:	98 27 00 16 	sub  %i4, %l6, %o4
    6ddc:	9f 33 20 02 	srl  %o4, 2, %o7
    6de0:	97 2b e0 02 	sll  %o7, 2, %o3
    6de4:	80 a2 e0 00 	cmp  %o3, 0
    6de8:	22 80 00 17 	be,a   6e44 <ee_printf+0xe64>
    6dec:	9e 10 20 00 	clr  %o7
    6df0:	9a 0d 20 ff 	and  %l4, 0xff, %o5
    6df4:	91 2b 60 18 	sll  %o5, 0x18, %o0
    6df8:	85 2b 60 10 	sll  %o5, 0x10, %g2
    6dfc:	94 0a 00 10 	and  %o0, %l0, %o2
    6e00:	ab 2b 60 08 	sll  %o5, 8, %l5
    6e04:	86 07 40 16 	add  %i5, %l6, %g3
    6e08:	ac 12 80 02 	or  %o2, %g2, %l6
    6e0c:	84 10 20 00 	clr  %g2
    6e10:	92 0d 80 19 	and  %l6, %i1, %o1
    6e14:	90 12 40 15 	or  %o1, %l5, %o0
    6e18:	9a 12 00 0d 	or  %o0, %o5, %o5
    6e1c:	da 20 c0 00 	st  %o5, [ %g3 ]
    6e20:	84 00 a0 01 	inc  %g2
    6e24:	80 a0 80 0f 	cmp  %g2, %o7
    6e28:	0a bf ff fd 	bcs  6e1c <ee_printf+0xe3c>
    6e2c:	86 00 e0 04 	add  %g3, 4, %g3
    6e30:	82 00 40 0b 	add  %g1, %o3, %g1
    6e34:	80 a3 00 0b 	cmp  %o4, %o3
    6e38:	02 80 00 0a 	be  6e60 <ee_printf+0xe80>
    6e3c:	88 21 00 0b 	sub  %g4, %o3, %g4
    6e40:	9e 10 20 00 	clr  %o7
    6e44:	98 01 20 01 	add  %g4, 1, %o4
    6e48:	e8 28 40 0f 	stb  %l4, [ %g1 + %o7 ]
    6e4c:	9e 03 e0 01 	inc  %o7
    6e50:	96 23 00 0f 	sub  %o4, %o7, %o3
    6e54:	80 a2 e0 00 	cmp  %o3, 0
    6e58:	34 bf ff fd 	bg,a   6e4c <ee_printf+0xe6c>
    6e5c:	e8 28 40 0f 	stb  %l4, [ %g1 + %o7 ]
    6e60:	ba 07 40 1c 	add  %i5, %i4, %i5
    6e64:	b8 10 3f ff 	mov  -1, %i4
    6e68:	80 a4 e0 00 	cmp  %l3, 0
    6e6c:	04 80 00 25 	ble  6f00 <ee_printf+0xf20>
    6e70:	80 a7 20 00 	cmp  %i4, 0
    6e74:	82 0f 60 03 	and  %i5, 3, %g1
    6e78:	80 a0 00 01 	cmp  %g0, %g1
    6e7c:	a9 34 e0 02 	srl  %l3, 2, %l4
    6e80:	94 60 3f ff 	subx  %g0, -1, %o2
    6e84:	83 2d 20 02 	sll  %l4, 2, %g1
    6e88:	80 a4 e0 03 	cmp  %l3, 3
    6e8c:	18 80 00 03 	bgu  6e98 <ee_printf+0xeb8>
    6e90:	aa 10 20 01 	mov  1, %l5
    6e94:	aa 10 20 00 	clr  %l5
    6e98:	80 8a 80 15 	btst  %o2, %l5
    6e9c:	02 80 02 d0 	be  79dc <ee_printf+0x19fc>
    6ea0:	80 a0 60 00 	cmp  %g1, 0
    6ea4:	22 80 02 cf 	be,a   79e0 <ee_printf+0x1a00>
    6ea8:	9a 10 00 1d 	mov  %i5, %o5
    6eac:	90 10 20 00 	clr  %o0
    6eb0:	92 10 20 00 	clr  %o1
    6eb4:	88 07 be 60 	add  %fp, -416, %g4
    6eb8:	ec 01 00 08 	ld  [ %g4 + %o0 ], %l6
    6ebc:	ec 27 40 08 	st  %l6, [ %i5 + %o0 ]
    6ec0:	92 02 60 01 	inc  %o1
    6ec4:	80 a5 00 09 	cmp  %l4, %o1
    6ec8:	18 bf ff fc 	bgu  6eb8 <ee_printf+0xed8>
    6ecc:	90 02 20 04 	add  %o0, 4, %o0
    6ed0:	80 a4 c0 01 	cmp  %l3, %g1
    6ed4:	02 80 00 09 	be  6ef8 <ee_printf+0xf18>
    6ed8:	9a 07 40 01 	add  %i5, %g1, %o5
    6edc:	86 23 40 01 	sub  %o5, %g1, %g3
    6ee0:	c4 09 00 01 	ldub  [ %g4 + %g1 ], %g2
    6ee4:	c4 28 c0 01 	stb  %g2, [ %g3 + %g1 ]
    6ee8:	82 00 60 01 	inc  %g1
    6eec:	80 a4 c0 01 	cmp  %l3, %g1
    6ef0:	34 bf ff fd 	bg,a   6ee4 <ee_printf+0xf04>
    6ef4:	c4 09 00 01 	ldub  [ %g4 + %g1 ], %g2
    6ef8:	ba 07 40 13 	add  %i5, %l3, %i5
    6efc:	80 a7 20 00 	cmp  %i4, 0
    6f00:	04 bf fe 1a 	ble  6768 <ee_printf+0x788>
    6f04:	90 07 3f ff 	add  %i4, -1, %o0
    6f08:	a6 20 00 1d 	neg  %i5, %l3
    6f0c:	96 0c e0 03 	and  %l3, 3, %o3
    6f10:	80 a2 c0 1c 	cmp  %o3, %i4
    6f14:	38 80 00 02 	bgu,a   6f1c <ee_printf+0xf3c>
    6f18:	96 10 00 1c 	mov  %i4, %o3
    6f1c:	80 a7 20 03 	cmp  %i4, 3
    6f20:	28 80 00 02 	bleu,a   6f28 <ee_printf+0xf48>
    6f24:	96 10 00 1c 	mov  %i4, %o3
    6f28:	80 a2 e0 00 	cmp  %o3, 0
    6f2c:	02 80 00 0c 	be  6f5c <ee_printf+0xf7c>
    6f30:	82 10 00 1d 	mov  %i5, %g1
    6f34:	98 10 20 20 	mov  0x20, %o4
    6f38:	d8 28 40 00 	stb  %o4, [ %g1 ]
    6f3c:	82 00 60 01 	inc  %g1
    6f40:	9e 20 40 1d 	sub  %g1, %i5, %o7
    6f44:	80 a2 c0 0f 	cmp  %o3, %o7
    6f48:	18 bf ff fc 	bgu  6f38 <ee_printf+0xf58>
    6f4c:	90 02 3f ff 	add  %o0, -1, %o0
    6f50:	80 a7 00 0b 	cmp  %i4, %o3
    6f54:	22 bf fe 05 	be,a   6768 <ee_printf+0x788>
    6f58:	ba 07 40 1c 	add  %i5, %i4, %i5
    6f5c:	a8 27 00 0b 	sub  %i4, %o3, %l4
    6f60:	95 35 20 02 	srl  %l4, 2, %o2
    6f64:	ab 2a a0 02 	sll  %o2, 2, %l5
    6f68:	80 a5 60 00 	cmp  %l5, 0
    6f6c:	02 80 00 0e 	be  6fa4 <ee_printf+0xfc4>
    6f70:	84 10 20 00 	clr  %g2
    6f74:	92 07 40 0b 	add  %i5, %o3, %o1
    6f78:	ac 10 20 00 	clr  %l6
    6f7c:	e2 22 40 00 	st  %l1, [ %o1 ]
    6f80:	ac 05 a0 01 	inc  %l6
    6f84:	80 a5 80 0a 	cmp  %l6, %o2
    6f88:	0a bf ff fd 	bcs  6f7c <ee_printf+0xf9c>
    6f8c:	92 02 60 04 	add  %o1, 4, %o1
    6f90:	82 00 40 15 	add  %g1, %l5, %g1
    6f94:	80 a5 00 15 	cmp  %l4, %l5
    6f98:	02 bf fd f3 	be  6764 <ee_printf+0x784>
    6f9c:	90 22 00 15 	sub  %o0, %l5, %o0
    6fa0:	84 10 20 00 	clr  %g2
    6fa4:	9a 02 20 01 	add  %o0, 1, %o5
    6fa8:	88 10 20 20 	mov  0x20, %g4
    6fac:	c8 28 40 02 	stb  %g4, [ %g1 + %g2 ]
    6fb0:	84 00 a0 01 	inc  %g2
    6fb4:	86 23 40 02 	sub  %o5, %g2, %g3
    6fb8:	80 a0 e0 00 	cmp  %g3, 0
    6fbc:	34 bf ff fd 	bg,a   6fb0 <ee_printf+0xfd0>
    6fc0:	c8 28 40 02 	stb  %g4, [ %g1 + %g2 ]
    6fc4:	10 bf fd e9 	b  6768 <ee_printf+0x788>
    6fc8:	ba 07 40 1c 	add  %i5, %i4, %i5
    6fcc:	10 bf fd eb 	b  6778 <ee_printf+0x798>
    6fd0:	94 10 20 10 	mov  0x10, %o2
    6fd4:	10 bf fd e9 	b  6778 <ee_printf+0x798>
    6fd8:	94 10 20 0a 	mov  0xa, %o2
    6fdc:	9a 13 60 02 	or  %o5, 2, %o5
    6fe0:	10 bf fd e6 	b  6778 <ee_printf+0x798>
    6fe4:	94 10 20 0a 	mov  0xa, %o2
    6fe8:	80 8b 60 10 	btst  0x10, %o5
    6fec:	32 80 00 68 	bne,a   718c <ee_printf+0x11ac>
    6ff0:	c2 04 80 00 	ld  [ %l2 ], %g1
    6ff4:	b8 07 3f ff 	add  %i4, -1, %i4
    6ff8:	92 97 20 00 	orcc  %i4, 0, %o1
    6ffc:	04 80 00 63 	ble  7188 <ee_printf+0x11a8>
    7000:	82 20 00 1d 	neg  %i5, %g1
    7004:	82 08 60 03 	and  %g1, 3, %g1
    7008:	80 a7 00 01 	cmp  %i4, %g1
    700c:	08 80 00 03 	bleu  7018 <ee_printf+0x1038>
    7010:	a6 10 00 1c 	mov  %i4, %l3
    7014:	a6 10 00 01 	mov  %g1, %l3
    7018:	80 a7 20 03 	cmp  %i4, 3
    701c:	28 80 00 02 	bleu,a   7024 <ee_printf+0x1044>
    7020:	a6 10 00 1c 	mov  %i4, %l3
    7024:	80 a4 e0 00 	cmp  %l3, 0
    7028:	02 80 00 0c 	be  7058 <ee_printf+0x1078>
    702c:	82 10 00 1d 	mov  %i5, %g1
    7030:	98 10 20 20 	mov  0x20, %o4
    7034:	d8 28 40 00 	stb  %o4, [ %g1 ]
    7038:	82 00 60 01 	inc  %g1
    703c:	86 20 40 1d 	sub  %g1, %i5, %g3
    7040:	80 a4 c0 03 	cmp  %l3, %g3
    7044:	18 bf ff fc 	bgu  7034 <ee_printf+0x1054>
    7048:	92 02 7f ff 	add  %o1, -1, %o1
    704c:	80 a7 00 13 	cmp  %i4, %l3
    7050:	22 80 00 1a 	be,a   70b8 <ee_printf+0x10d8>
    7054:	d0 04 80 00 	ld  [ %l2 ], %o0
    7058:	a8 27 00 13 	sub  %i4, %l3, %l4
    705c:	97 35 20 02 	srl  %l4, 2, %o3
    7060:	9f 2a e0 02 	sll  %o3, 2, %o7
    7064:	80 a3 e0 00 	cmp  %o7, 0
    7068:	02 80 00 0e 	be  70a0 <ee_printf+0x10c0>
    706c:	ac 10 20 20 	mov  0x20, %l6
    7070:	aa 07 40 13 	add  %i5, %l3, %l5
    7074:	94 10 20 00 	clr  %o2
    7078:	e2 25 40 00 	st  %l1, [ %l5 ]
    707c:	94 02 a0 01 	inc  %o2
    7080:	80 a2 80 0b 	cmp  %o2, %o3
    7084:	0a bf ff fd 	bcs  7078 <ee_printf+0x1098>
    7088:	aa 05 60 04 	add  %l5, 4, %l5
    708c:	82 00 40 0f 	add  %g1, %o7, %g1
    7090:	80 a5 00 0f 	cmp  %l4, %o7
    7094:	02 80 00 08 	be  70b4 <ee_printf+0x10d4>
    7098:	92 22 40 0f 	sub  %o1, %o7, %o1
    709c:	ac 10 20 20 	mov  0x20, %l6
    70a0:	ec 28 40 00 	stb  %l6, [ %g1 ]
    70a4:	92 02 7f ff 	add  %o1, -1, %o1
    70a8:	80 a2 60 00 	cmp  %o1, 0
    70ac:	14 bf ff fd 	bg  70a0 <ee_printf+0x10c0>
    70b0:	82 00 60 01 	inc  %g1
    70b4:	d0 04 80 00 	ld  [ %l2 ], %o0
    70b8:	82 07 40 1c 	add  %i5, %i4, %g1
    70bc:	d0 2f 40 1c 	stb  %o0, [ %i5 + %i4 ]
    70c0:	a4 04 a0 04 	add  %l2, 4, %l2
    70c4:	ba 00 60 01 	add  %g1, 1, %i5
    70c8:	10 bf fb df 	b  6044 <ee_printf+0x64>
    70cc:	d8 0e 20 01 	ldub  [ %i0 + 1 ], %o4
    70d0:	f8 04 80 00 	ld  [ %l2 ], %i4
    70d4:	84 06 20 02 	add  %i0, 2, %g2
    70d8:	a4 04 a0 04 	add  %l2, 4, %l2
    70dc:	80 a7 20 00 	cmp  %i4, 0
    70e0:	16 bf fb fc 	bge  60d0 <ee_printf+0xf0>
    70e4:	c2 0e 20 02 	ldub  [ %i0 + 2 ], %g1
    70e8:	b8 20 00 1c 	neg  %i4
    70ec:	10 bf fb f9 	b  60d0 <ee_printf+0xf0>
    70f0:	9a 13 60 10 	or  %o5, 0x10, %o5
    70f4:	82 10 20 30 	mov  0x30, %g1
    70f8:	c2 2f be b0 	stb  %g1, [ %fp + -336 ]
    70fc:	9e 10 20 01 	mov  1, %o7
    7100:	82 10 20 2e 	mov  0x2e, %g1
    7104:	aa 07 80 0f 	add  %fp, %o7, %l5
    7108:	c2 2d 7e b0 	stb  %g1, [ %l5 + -336 ]
    710c:	c6 08 a0 01 	ldub  [ %g2 + 1 ], %g3
    7110:	80 a0 e0 00 	cmp  %g3, 0
    7114:	12 bf fc 99 	bne  6378 <ee_printf+0x398>
    7118:	ac 10 20 02 	mov  2, %l6
    711c:	82 07 80 16 	add  %fp, %l6, %g1
    7120:	98 10 20 30 	mov  0x30, %o4
    7124:	d8 28 7e b0 	stb  %o4, [ %g1 + -336 ]
    7128:	88 03 e0 02 	add  %o7, 2, %g4
    712c:	82 10 20 2e 	mov  0x2e, %g1
    7130:	a8 07 80 04 	add  %fp, %g4, %l4
    7134:	c2 2d 3e b0 	stb  %g1, [ %l4 + -336 ]
    7138:	c6 08 a0 02 	ldub  [ %g2 + 2 ], %g3
    713c:	80 a0 e0 00 	cmp  %g3, 0
    7140:	12 bf fc b6 	bne  6418 <ee_printf+0x438>
    7144:	ac 01 20 01 	add  %g4, 1, %l6
    7148:	aa 07 80 16 	add  %fp, %l6, %l5
    714c:	82 10 20 30 	mov  0x30, %g1
    7150:	c2 2d 7e b0 	stb  %g1, [ %l5 + -336 ]
    7154:	a6 01 20 02 	add  %g4, 2, %l3
    7158:	82 10 20 2e 	mov  0x2e, %g1
    715c:	ac 07 80 13 	add  %fp, %l3, %l6
    7160:	c2 2d be b0 	stb  %g1, [ %l6 + -336 ]
    7164:	c4 08 a0 03 	ldub  [ %g2 + 3 ], %g2
    7168:	80 a0 a0 00 	cmp  %g2, 0
    716c:	12 bf fc d3 	bne  64b8 <ee_printf+0x4d8>
    7170:	98 04 e0 01 	add  %l3, 1, %o4
    7174:	82 07 80 0c 	add  %fp, %o4, %g1
    7178:	a8 10 20 30 	mov  0x30, %l4
    717c:	94 04 e0 02 	add  %l3, 2, %o2
    7180:	10 bf fc ef 	b  653c <ee_printf+0x55c>
    7184:	e8 28 7e b0 	stb  %l4, [ %g1 + -336 ]
    7188:	c2 04 80 00 	ld  [ %l2 ], %g1
    718c:	c2 2f 40 00 	stb  %g1, [ %i5 ]
    7190:	b8 07 3f ff 	add  %i4, -1, %i4
    7194:	98 07 60 01 	add  %i5, 1, %o4
    7198:	84 97 20 00 	orcc  %i4, 0, %g2
    719c:	04 80 01 e8 	ble  793c <ee_printf+0x195c>
    71a0:	a4 04 a0 04 	add  %l2, 4, %l2
    71a4:	a6 20 00 0c 	neg  %o4, %l3
    71a8:	a8 0c e0 03 	and  %l3, 3, %l4
    71ac:	80 a5 00 1c 	cmp  %l4, %i4
    71b0:	38 80 00 02 	bgu,a   71b8 <ee_printf+0x11d8>
    71b4:	a8 10 00 1c 	mov  %i4, %l4
    71b8:	80 a7 20 03 	cmp  %i4, 3
    71bc:	28 80 00 02 	bleu,a   71c4 <ee_printf+0x11e4>
    71c0:	a8 10 00 1c 	mov  %i4, %l4
    71c4:	80 a5 20 00 	cmp  %l4, 0
    71c8:	02 80 00 0d 	be  71fc <ee_printf+0x121c>
    71cc:	82 10 00 0c 	mov  %o4, %g1
    71d0:	96 38 00 1d 	xnor  %g0, %i5, %o3
    71d4:	9e 10 20 20 	mov  0x20, %o7
    71d8:	de 28 40 00 	stb  %o7, [ %g1 ]
    71dc:	82 00 60 01 	inc  %g1
    71e0:	94 00 40 0b 	add  %g1, %o3, %o2
    71e4:	80 a5 00 0a 	cmp  %l4, %o2
    71e8:	18 bf ff fc 	bgu  71d8 <ee_printf+0x11f8>
    71ec:	84 00 bf ff 	add  %g2, -1, %g2
    71f0:	80 a7 00 14 	cmp  %i4, %l4
    71f4:	22 80 00 1a 	be,a   725c <ee_printf+0x127c>
    71f8:	ba 03 00 1c 	add  %o4, %i4, %i5
    71fc:	aa 27 00 14 	sub  %i4, %l4, %l5
    7200:	ad 35 60 02 	srl  %l5, 2, %l6
    7204:	93 2d a0 02 	sll  %l6, 2, %o1
    7208:	80 a2 60 00 	cmp  %o1, 0
    720c:	02 80 00 0d 	be  7240 <ee_printf+0x1260>
    7210:	90 05 20 01 	add  %l4, 1, %o0
    7214:	9a 10 20 00 	clr  %o5
    7218:	ba 07 40 08 	add  %i5, %o0, %i5
    721c:	e2 27 40 00 	st  %l1, [ %i5 ]
    7220:	9a 03 60 01 	inc  %o5
    7224:	80 a3 40 16 	cmp  %o5, %l6
    7228:	0a bf ff fd 	bcs  721c <ee_printf+0x123c>
    722c:	ba 07 60 04 	add  %i5, 4, %i5
    7230:	82 00 40 09 	add  %g1, %o1, %g1
    7234:	80 a5 40 09 	cmp  %l5, %o1
    7238:	02 80 00 08 	be  7258 <ee_printf+0x1278>
    723c:	84 20 80 09 	sub  %g2, %o1, %g2
    7240:	88 10 20 20 	mov  0x20, %g4
    7244:	c8 28 40 00 	stb  %g4, [ %g1 ]
    7248:	84 00 bf ff 	add  %g2, -1, %g2
    724c:	80 a0 a0 00 	cmp  %g2, 0
    7250:	14 bf ff fd 	bg  7244 <ee_printf+0x1264>
    7254:	82 00 60 01 	inc  %g1
    7258:	ba 03 00 1c 	add  %o4, %i4, %i5
    725c:	10 bf fb 7a 	b  6044 <ee_printf+0x64>
    7260:	d8 0e 20 01 	ldub  [ %i0 + 1 ], %o4
    7264:	10 bf fd a9 	b  6908 <ee_printf+0x928>
    7268:	82 10 20 00 	clr  %g1
    726c:	10 bf fe 00 	b  6a6c <ee_printf+0xa8c>
    7270:	b8 10 20 08 	mov  8, %i4
    7274:	80 8b 60 40 	btst  0x40, %o5
    7278:	02 80 00 ed 	be  762c <ee_printf+0x164c>
    727c:	a4 04 a0 04 	add  %l2, 4, %l2
    7280:	03 00 00 81 	sethi  %hi(0x20400), %g1
    7284:	82 10 62 48 	or  %g1, 0x248, %g1	! 20648 <state_known_crc+0x634>
    7288:	d4 08 80 00 	ldub  [ %g2 ], %o2
    728c:	a8 10 20 3a 	mov  0x3a, %l4
    7290:	9e 0a a0 ff 	and  %o2, 0xff, %o7
    7294:	e8 2f be b2 	stb  %l4, [ %fp + -334 ]
    7298:	91 33 e0 04 	srl  %o7, 4, %o0
    729c:	aa 0a a0 0f 	and  %o2, 0xf, %l5
    72a0:	d8 08 40 08 	ldub  [ %g1 + %o0 ], %o4
    72a4:	c6 08 40 15 	ldub  [ %g1 + %l5 ], %g3
    72a8:	d8 2f be b0 	stb  %o4, [ %fp + -336 ]
    72ac:	c6 2f be b1 	stb  %g3, [ %fp + -335 ]
    72b0:	e6 08 a0 01 	ldub  [ %g2 + 1 ], %l3
    72b4:	92 0c e0 ff 	and  %l3, 0xff, %o1
    72b8:	96 0c e0 0f 	and  %l3, 0xf, %o3
    72bc:	89 32 60 04 	srl  %o1, 4, %g4
    72c0:	e8 2f be b5 	stb  %l4, [ %fp + -331 ]
    72c4:	ec 08 40 0b 	ldub  [ %g1 + %o3 ], %l6
    72c8:	d4 08 40 04 	ldub  [ %g1 + %g4 ], %o2
    72cc:	ec 2f be b4 	stb  %l6, [ %fp + -332 ]
    72d0:	d4 2f be b3 	stb  %o2, [ %fp + -333 ]
    72d4:	de 08 a0 02 	ldub  [ %g2 + 2 ], %o7
    72d8:	e8 2f be b8 	stb  %l4, [ %fp + -328 ]
    72dc:	90 0b e0 ff 	and  %o7, 0xff, %o0
    72e0:	aa 0b e0 0f 	and  %o7, 0xf, %l5
    72e4:	99 32 20 04 	srl  %o0, 4, %o4
    72e8:	c6 08 40 15 	ldub  [ %g1 + %l5 ], %g3
    72ec:	e6 08 40 0c 	ldub  [ %g1 + %o4 ], %l3
    72f0:	c6 2f be b7 	stb  %g3, [ %fp + -329 ]
    72f4:	e6 2f be b6 	stb  %l3, [ %fp + -330 ]
    72f8:	d2 08 a0 03 	ldub  [ %g2 + 3 ], %o1
    72fc:	96 0a 60 ff 	and  %o1, 0xff, %o3
    7300:	88 0a 60 0f 	and  %o1, 0xf, %g4
    7304:	e8 2f be bb 	stb  %l4, [ %fp + -325 ]
    7308:	d4 08 40 04 	ldub  [ %g1 + %g4 ], %o2
    730c:	ad 32 e0 04 	srl  %o3, 4, %l6
    7310:	d4 2f be ba 	stb  %o2, [ %fp + -326 ]
    7314:	de 08 40 16 	ldub  [ %g1 + %l6 ], %o7
    7318:	de 2f be b9 	stb  %o7, [ %fp + -327 ]
    731c:	d0 08 a0 04 	ldub  [ %g2 + 4 ], %o0
    7320:	e8 2f be be 	stb  %l4, [ %fp + -322 ]
    7324:	aa 0a 20 0f 	and  %o0, 0xf, %l5
    7328:	a8 0a 20 ff 	and  %o0, 0xff, %l4
    732c:	e6 08 40 15 	ldub  [ %g1 + %l5 ], %l3
    7330:	99 35 20 04 	srl  %l4, 4, %o4
    7334:	e6 2f be bd 	stb  %l3, [ %fp + -323 ]
    7338:	c6 08 40 0c 	ldub  [ %g1 + %o4 ], %g3
    733c:	c6 2f be bc 	stb  %g3, [ %fp + -324 ]
    7340:	c4 08 a0 05 	ldub  [ %g2 + 5 ], %g2
    7344:	92 08 a0 ff 	and  %g2, 0xff, %o1
    7348:	97 32 60 04 	srl  %o1, 4, %o3
    734c:	c8 08 40 0b 	ldub  [ %g1 + %o3 ], %g4
    7350:	c8 2f be bf 	stb  %g4, [ %fp + -321 ]
    7354:	ac 08 a0 0f 	and  %g2, 0xf, %l6
    7358:	80 8b 60 10 	btst  0x10, %o5
    735c:	c2 08 40 16 	ldub  [ %g1 + %l6 ], %g1
    7360:	12 80 00 37 	bne  743c <ee_printf+0x145c>
    7364:	c2 2f be c0 	stb  %g1, [ %fp + -320 ]
    7368:	80 a7 20 11 	cmp  %i4, 0x11
    736c:	04 80 01 79 	ble  7950 <ee_printf+0x1970>
    7370:	86 07 3f ff 	add  %i4, -1, %g3
    7374:	b8 07 3f ef 	add  %i4, -17, %i4
    7378:	82 20 00 1d 	neg  %i5, %g1
    737c:	82 08 60 03 	and  %g1, 3, %g1
    7380:	80 a7 00 01 	cmp  %i4, %g1
    7384:	18 80 00 eb 	bgu  7730 <ee_printf+0x1750>
    7388:	94 10 00 1c 	mov  %i4, %o2
    738c:	80 a7 20 03 	cmp  %i4, 3
    7390:	28 80 00 02 	bleu,a   7398 <ee_printf+0x13b8>
    7394:	94 10 00 1c 	mov  %i4, %o2
    7398:	80 a2 a0 00 	cmp  %o2, 0
    739c:	02 80 00 0c 	be  73cc <ee_printf+0x13ec>
    73a0:	82 10 00 1d 	mov  %i5, %g1
    73a4:	9a 10 20 20 	mov  0x20, %o5
    73a8:	da 28 40 00 	stb  %o5, [ %g1 ]
    73ac:	82 00 60 01 	inc  %g1
    73b0:	9e 20 40 1d 	sub  %g1, %i5, %o7
    73b4:	80 a2 80 0f 	cmp  %o2, %o7
    73b8:	18 bf ff fc 	bgu  73a8 <ee_printf+0x13c8>
    73bc:	86 00 ff ff 	add  %g3, -1, %g3
    73c0:	80 a7 00 0a 	cmp  %i4, %o2
    73c4:	22 80 00 1d 	be,a   7438 <ee_printf+0x1458>
    73c8:	ba 07 40 1c 	add  %i5, %i4, %i5
    73cc:	90 27 00 0a 	sub  %i4, %o2, %o0
    73d0:	a9 32 20 02 	srl  %o0, 2, %l4
    73d4:	ab 2d 20 02 	sll  %l4, 2, %l5
    73d8:	80 a5 60 00 	cmp  %l5, 0
    73dc:	02 80 00 0e 	be  7414 <ee_printf+0x1434>
    73e0:	84 10 20 00 	clr  %g2
    73e4:	a6 07 40 0a 	add  %i5, %o2, %l3
    73e8:	98 10 20 00 	clr  %o4
    73ec:	e2 24 c0 00 	st  %l1, [ %l3 ]
    73f0:	98 03 20 01 	inc  %o4
    73f4:	80 a3 00 14 	cmp  %o4, %l4
    73f8:	0a bf ff fd 	bcs  73ec <ee_printf+0x140c>
    73fc:	a6 04 e0 04 	add  %l3, 4, %l3
    7400:	82 00 40 15 	add  %g1, %l5, %g1
    7404:	80 a2 00 15 	cmp  %o0, %l5
    7408:	02 80 00 0b 	be  7434 <ee_printf+0x1454>
    740c:	86 20 c0 15 	sub  %g3, %l5, %g3
    7410:	84 10 20 00 	clr  %g2
    7414:	92 00 e0 01 	add  %g3, 1, %o1
    7418:	96 10 20 20 	mov  0x20, %o3
    741c:	d6 28 40 02 	stb  %o3, [ %g1 + %g2 ]
