	.file	"dhry_2.c"
	.text
.Ltext0:
	.globl	Proc_6
	.type	Proc_6, @function
Proc_6:
.LFB0:
	.file 1 "dhry_2.c"
	.loc 1 37 0
	.cfi_startproc
	pushq	%rbp
.LCFI0:
	.cfi_def_cfa_offset 16
	.cfi_offset 6, -16
	movq	%rsp, %rbp
.LCFI1:
	.cfi_def_cfa_register 6
	subq	$16, %rsp
	movl	%edi, -4(%rbp)
	movq	%rsi, -16(%rbp)
	.loc 1 38 0
	movq	-16(%rbp), %rax
	movl	-4(%rbp), %edx
	movl	%edx, (%rax)
	.loc 1 39 0
	movl	-4(%rbp), %eax
	movl	%eax, %edi
	call	Func_3
	testl	%eax, %eax
	jne	.L2
	.loc 1 41 0
	movq	-16(%rbp), %rax
	movl	$3, (%rax)
.L2:
	.loc 1 42 0
	cmpl	$4, -4(%rbp)
	ja	.L1
	movl	-4(%rbp), %eax
	movq	.L9(,%rax,8), %rax
	jmp	*%rax
	.section	.rodata
	.align 8
	.align 4
.L9:
	.quad	.L4
	.quad	.L5
	.quad	.L6
	.quad	.L12
	.quad	.L8
	.text
.L4:
	.loc 1 45 0
	movq	-16(%rbp), %rax
	movl	$0, (%rax)
	.loc 1 46 0
	jmp	.L1
.L5:
	.loc 1 48 0
	movl	Int_Glob(%rip), %eax
	cmpl	$100, %eax
	jle	.L10
	.loc 1 50 0
	movq	-16(%rbp), %rax
	movl	$0, (%rax)
	.loc 1 52 0
	jmp	.L1
.L10:
	.loc 1 51 0
	movq	-16(%rbp), %rax
	movl	$3, (%rax)
	.loc 1 52 0
	jmp	.L1
.L6:
	.loc 1 54 0
	movq	-16(%rbp), %rax
	movl	$1, (%rax)
	.loc 1 55 0
	jmp	.L1
.L8:
	.loc 1 58 0
	movq	-16(%rbp), %rax
	movl	$2, (%rax)
	.loc 1 59 0
	nop
	jmp	.L1
.L12:
	.loc 1 56 0
	nop
.L1:
	.loc 1 61 0
	leave
.LCFI2:
	.cfi_def_cfa 7, 8
	ret
	.cfi_endproc
.LFE0:
	.size	Proc_6, .-Proc_6
	.globl	Proc_7
	.type	Proc_7, @function
Proc_7:
.LFB1:
	.loc 1 76 0
	.cfi_startproc
	pushq	%rbp
.LCFI3:
	.cfi_def_cfa_offset 16
	.cfi_offset 6, -16
	movq	%rsp, %rbp
.LCFI4:
	.cfi_def_cfa_register 6
	movl	%edi, -20(%rbp)
	movl	%esi, -24(%rbp)
	movq	%rdx, -32(%rbp)
	.loc 1 79 0
	movl	-20(%rbp), %eax
	addl	$2, %eax
	movl	%eax, -4(%rbp)
	.loc 1 80 0
	movl	-4(%rbp), %eax
	movl	-24(%rbp), %edx
	addl	%eax, %edx
	movq	-32(%rbp), %rax
	movl	%edx, (%rax)
	.loc 1 81 0
	popq	%rbp
.LCFI5:
	.cfi_def_cfa 7, 8
	ret
	.cfi_endproc
.LFE1:
	.size	Proc_7, .-Proc_7
	.globl	Proc_8
	.type	Proc_8, @function
Proc_8:
.LFB2:
	.loc 1 93 0
	.cfi_startproc
	pushq	%rbp
.LCFI6:
	.cfi_def_cfa_offset 16
	.cfi_offset 6, -16
	movq	%rsp, %rbp
.LCFI7:
	.cfi_def_cfa_register 6
	movq	%rdi, -24(%rbp)
	movq	%rsi, -32(%rbp)
	movl	%edx, -36(%rbp)
	movl	%ecx, -40(%rbp)
	.loc 1 97 0
	movl	-36(%rbp), %eax
	addl	$5, %eax
	movl	%eax, -4(%rbp)
	.loc 1 98 0
	movl	-4(%rbp), %eax
	cltq
	salq	$2, %rax
	addq	-24(%rbp), %rax
	movl	-40(%rbp), %edx
	movl	%edx, (%rax)
	.loc 1 99 0
	movl	-4(%rbp), %eax
	cltq
	addq	$1, %rax
	salq	$2, %rax
	addq	-24(%rbp), %rax
	movl	-4(%rbp), %edx
	movslq	%edx, %rdx
	salq	$2, %rdx
	addq	-24(%rbp), %rdx
	movl	(%rdx), %edx
	movl	%edx, (%rax)
	.loc 1 100 0
	movl	-4(%rbp), %eax
	cltq
	addq	$30, %rax
	salq	$2, %rax
	addq	-24(%rbp), %rax
	movl	-4(%rbp), %edx
	movl	%edx, (%rax)
	.loc 1 101 0
	movl	-4(%rbp), %eax
	movl	%eax, -8(%rbp)
	jmp	.L15
.L16:
	.loc 1 102 0 discriminator 2
	movl	-4(%rbp), %eax
	movslq	%eax, %rdx
	movq	%rdx, %rax
	salq	$2, %rax
	addq	%rdx, %rax
	leaq	0(,%rax,4), %rdx
	addq	%rdx, %rax
	salq	$3, %rax
	addq	-32(%rbp), %rax
	movl	-8(%rbp), %edx
	movslq	%edx, %rdx
	movl	-4(%rbp), %ecx
	movl	%ecx, (%rax,%rdx,4)
	.loc 1 101 0 discriminator 2
	addl	$1, -8(%rbp)
.L15:
	.loc 1 101 0 is_stmt 0 discriminator 1
	movl	-4(%rbp), %eax
	addl	$1, %eax
	cmpl	-8(%rbp), %eax
	jge	.L16
	.loc 1 103 0 is_stmt 1
	movl	-4(%rbp), %eax
	movslq	%eax, %rdx
	movq	%rdx, %rax
	salq	$2, %rax
	addq	%rdx, %rax
	leaq	0(,%rax,4), %rdx
	addq	%rdx, %rax
	salq	$3, %rax
	movq	%rax, %rcx
	addq	-32(%rbp), %rcx
	movl	-4(%rbp), %eax
	leal	-1(%rax), %esi
	movl	-4(%rbp), %eax
	movslq	%eax, %rdx
	movq	%rdx, %rax
	salq	$2, %rax
	addq	%rdx, %rax
	leaq	0(,%rax,4), %rdx
	addq	%rdx, %rax
	salq	$3, %rax
	addq	-32(%rbp), %rax
	movl	-4(%rbp), %edx
	subl	$1, %edx
	movslq	%edx, %rdx
	movl	(%rax,%rdx,4), %eax
	leal	1(%rax), %edx
	movslq	%esi, %rax
	movl	%edx, (%rcx,%rax,4)
	.loc 1 104 0
	movl	-4(%rbp), %eax
	movslq	%eax, %rdx
	movq	%rdx, %rax
	salq	$2, %rax
	addq	%rdx, %rax
	leaq	0(,%rax,4), %rdx
	addq	%rdx, %rax
	salq	$3, %rax
	addq	$4000, %rax
	addq	-32(%rbp), %rax
	movl	-4(%rbp), %edx
	movslq	%edx, %rdx
	salq	$2, %rdx
	addq	-24(%rbp), %rdx
	movl	(%rdx), %ecx
	movl	-4(%rbp), %edx
	movslq	%edx, %rdx
	movl	%ecx, (%rax,%rdx,4)
	.loc 1 105 0
	movl	$5, Int_Glob(%rip)
	.loc 1 106 0
	popq	%rbp
.LCFI8:
	.cfi_def_cfa 7, 8
	ret
	.cfi_endproc
.LFE2:
	.size	Proc_8, .-Proc_8
	.globl	Func_1
	.type	Func_1, @function
Func_1:
.LFB3:
	.loc 1 118 0
	.cfi_startproc
	pushq	%rbp
.LCFI9:
	.cfi_def_cfa_offset 16
	.cfi_offset 6, -16
	movq	%rsp, %rbp
.LCFI10:
	.cfi_def_cfa_register 6
	movl	%edi, %edx
	movl	%esi, %eax
	movb	%dl, -20(%rbp)
	movb	%al, -24(%rbp)
	.loc 1 122 0
	movzbl	-20(%rbp), %eax
	movb	%al, -2(%rbp)
	.loc 1 123 0
	movzbl	-2(%rbp), %eax
	movb	%al, -1(%rbp)
	.loc 1 124 0
	movzbl	-1(%rbp), %eax
	cmpb	-24(%rbp), %al
	je	.L18
	.loc 1 126 0
	movl	$0, %eax
	jmp	.L19
.L18:
	.loc 1 129 0
	movzbl	-2(%rbp), %eax
	movb	%al, Ch_1_Glob(%rip)
	.loc 1 130 0
	movl	$1, %eax
.L19:
	.loc 1 132 0
	popq	%rbp
.LCFI11:
	.cfi_def_cfa 7, 8
	ret
	.cfi_endproc
.LFE3:
	.size	Func_1, .-Func_1
	.globl	Func_2
	.type	Func_2, @function
Func_2:
.LFB4:
	.loc 1 143 0
	.cfi_startproc
	pushq	%rbp
.LCFI12:
	.cfi_def_cfa_offset 16
	.cfi_offset 6, -16
	movq	%rsp, %rbp
.LCFI13:
	.cfi_def_cfa_register 6
	subq	$32, %rsp
	movq	%rdi, -24(%rbp)
	movq	%rsi, -32(%rbp)
	.loc 1 147 0
	movl	$2, -8(%rbp)
	.loc 1 148 0
	jmp	.L21
.L22:
	.loc 1 150 0
	movl	-8(%rbp), %eax
	cltq
	addq	$1, %rax
	addq	-32(%rbp), %rax
	movzbl	(%rax), %eax
	.loc 1 149 0
	movsbl	%al, %edx
	movl	-8(%rbp), %eax
	cltq
	addq	-24(%rbp), %rax
	movzbl	(%rax), %eax
	movsbl	%al, %eax
	movl	%edx, %esi
	movl	%eax, %edi
	movl	$0, %eax
	call	Func_1
	testl	%eax, %eax
	jne	.L21
	.loc 1 153 0
	movb	$65, -1(%rbp)
	.loc 1 154 0
	addl	$1, -8(%rbp)
.L21:
	.loc 1 148 0 discriminator 1
	cmpl	$2, -8(%rbp)
	jle	.L22
	.loc 1 156 0
	cmpb	$86, -1(%rbp)
	jle	.L23
	.loc 1 156 0 is_stmt 0 discriminator 1
	cmpb	$89, -1(%rbp)
	jg	.L23
	.loc 1 158 0 is_stmt 1
	movl	$7, -8(%rbp)
.L23:
	.loc 1 159 0
	cmpb	$82, -1(%rbp)
	jne	.L24
	.loc 1 161 0
	movl	$1, %eax
	jmp	.L25
.L24:
	.loc 1 164 0
	movq	-32(%rbp), %rdx
	movq	-24(%rbp), %rax
	movq	%rdx, %rsi
	movq	%rax, %rdi
	call	__strcmp
	testl	%eax, %eax
	jle	.L26
	.loc 1 168 0
	addl	$7, -8(%rbp)
	.loc 1 169 0
	movl	-8(%rbp), %eax
	movl	%eax, Int_Glob(%rip)
	.loc 1 170 0
	movl	$1, %eax
	jmp	.L25
.L26:
	.loc 1 173 0
	movl	$0, %eax
.L25:
	.loc 1 175 0
	leave
.LCFI14:
	.cfi_def_cfa 7, 8
	ret
	.cfi_endproc
.LFE4:
	.size	Func_2, .-Func_2
	.globl	Func_3
	.type	Func_3, @function
Func_3:
.LFB5:
	.loc 1 183 0
	.cfi_startproc
	pushq	%rbp
.LCFI15:
	.cfi_def_cfa_offset 16
	.cfi_offset 6, -16
	movq	%rsp, %rbp
.LCFI16:
	.cfi_def_cfa_register 6
	movl	%edi, -20(%rbp)
	.loc 1 186 0
	movl	-20(%rbp), %eax
	movl	%eax, -4(%rbp)
	.loc 1 187 0
	cmpl	$2, -4(%rbp)
	jne	.L28
	.loc 1 189 0
	movl	$1, %eax
	jmp	.L29
.L28:
	.loc 1 191 0
	movl	$0, %eax
.L29:
	.loc 1 192 0
	popq	%rbp
.LCFI17:
	.cfi_def_cfa 7, 8
	ret
	.cfi_endproc
.LFE5:
	.size	Func_3, .-Func_3
.Letext0:
	.file 2 "dhry.h"
	.section	.note.GNU-stack,"",@progbits
