	.file	"dhry_1.c"
	.text
.Ltext0:
	.comm	Ptr_Glob,8,8
	.comm	Next_Ptr_Glob,8,8
	.comm	Int_Glob,4,4
	.comm	Bool_Glob,4,4
	.comm	Ch_1_Glob,1,1
	.comm	Ch_2_Glob,1,1
	.comm	Arr_1_Glob,200,32
	.comm	Arr_2_Glob,10000,32
	.globl	Reg
	.bss
	.align 4
	.type	Reg, @object
	.size	Reg, 4
Reg:
	.zero	4
	.comm	time_info,32,32
	.comm	Begin_Time,8,8
	.comm	End_Time,8,8
	.comm	User_Time,8,8
	.comm	Microseconds,4,4
	.comm	Dhrystones_Per_Second,4,4
	.comm	g_rec,56,8
	.comm	p_rec,56,8
	.section	.rodata
	.align 8
.LC0:
	.string	"DHRYSTONE PROGRAM, SOME STRING"
	.align 8
.LC1:
	.string	"DHRYSTONE PROGRAM, 1'ST STRING"
	.align 8
.LC2:
	.string	"Dhrystone Benchmark, Version 2.1 (Language: C)"
	.align 8
.LC3:
	.string	"Program compiled with 'register' attribute"
	.align 8
.LC4:
	.string	"Program compiled without 'register' attribute"
	.align 8
.LC5:
	.string	"Execution starts, %d runs through Dhrystone\n"
	.align 8
.LC6:
	.string	"DHRYSTONE PROGRAM, 2'ND STRING"
	.align 8
.LC7:
	.string	"DHRYSTONE PROGRAM, 3'RD STRING"
.LC8:
	.string	"Execution ends"
	.align 8
.LC9:
	.string	"Final values of the variables used in the benchmark:"
.LC10:
	.string	"Int_Glob:            %d\n"
.LC11:
	.string	"        should be:   %d\n"
.LC12:
	.string	"Bool_Glob:           %d\n"
.LC13:
	.string	"Ch_1_Glob:           %d\n"
.LC14:
	.string	"Ch_2_Glob:           %d\n"
.LC15:
	.string	"Arr_1_Glob[8]:       %d\n"
.LC16:
	.string	"Arr_2_Glob[8][7]:    %d\n"
	.align 8
.LC17:
	.string	"        should be:   Number_Of_Runs + 10"
.LC18:
	.string	"Ptr_Glob->"
.LC19:
	.string	"  Ptr_Comp:          %d\n"
	.align 8
.LC20:
	.string	"        should be:   (implementation-dependent)"
.LC21:
	.string	"  Discr:             %d\n"
.LC22:
	.string	"  Enum_Comp:         %d\n"
.LC23:
	.string	"  Int_Comp:          %d\n"
.LC24:
	.string	"  Str_Comp:          %s\n"
	.align 8
.LC25:
	.string	"        should be:   DHRYSTONE PROGRAM, SOME STRING"
.LC26:
	.string	"Next_Ptr_Glob->"
	.align 8
.LC27:
	.string	"        should be:   (implementation-dependent), same as above"
.LC28:
	.string	"Int_1_Loc:           %d\n"
.LC29:
	.string	"Int_2_Loc:           %d\n"
.LC30:
	.string	"Int_3_Loc:           %d\n"
.LC31:
	.string	"Enum_Loc:            %d\n"
.LC32:
	.string	"Str_1_Loc:           %s\n"
	.align 8
.LC33:
	.string	"        should be:   DHRYSTONE PROGRAM, 1'ST STRING"
.LC34:
	.string	"Str_2_Loc:           %s\n"
	.align 8
.LC35:
	.string	"        should be:   DHRYSTONE PROGRAM, 2'ND STRING"
	.align 8
.LC36:
	.string	"Measured time too small to obtain meaningful results"
	.align 8
.LC37:
	.string	"Please increase number of runs"
	.align 8
.LC40:
	.string	"Microseconds for one run through Dhrystone: "
.LC41:
	.string	"%6.1f \n"
	.align 8
.LC42:
	.string	"Dhrystones per Second:                      "
	.text
	.globl	run_dhrystone
	.type	run_dhrystone, @function
run_dhrystone:
.LFB0:
	.file 1 "dhry_1.c"
	.loc 1 114 0
	.cfi_startproc
	pushq	%rbp
.LCFI0:
	.cfi_def_cfa_offset 16
	.cfi_offset 6, -16
	movq	%rsp, %rbp
.LCFI1:
	.cfi_def_cfa_register 6
	addq	$-128, %rsp
	movl	%edi, -116(%rbp)
	.loc 1 114 0
	movq	%fs:40, %rax
	movq	%rax, -8(%rbp)
	xorl	%eax, %eax
	.loc 1 125 0
	movq	$g_rec, Next_Ptr_Glob(%rip)
	.loc 1 126 0
	movq	$p_rec, Ptr_Glob(%rip)
	.loc 1 129 0
	movq	Ptr_Glob(%rip), %rax
	movq	Next_Ptr_Glob(%rip), %rdx
	movq	%rdx, (%rax)
	.loc 1 130 0
	movq	Ptr_Glob(%rip), %rax
	movl	$0, 8(%rax)
	.loc 1 131 0
	movq	Ptr_Glob(%rip), %rax
	movl	$2, 12(%rax)
	.loc 1 132 0
	movq	Ptr_Glob(%rip), %rax
	movl	$40, 16(%rax)
	.loc 1 133 0
	movq	Ptr_Glob(%rip), %rax
	addq	$20, %rax
	movl	$.LC0, %esi
	movq	%rax, %rdi
	call	__strcpy
	.loc 1 135 0
	leaq	-80(%rbp), %rax
	movl	$.LC1, %esi
	movq	%rax, %rdi
	call	__strcpy
	.loc 1 137 0
	movl	$10, Arr_2_Glob+1628(%rip)
	.loc 1 144 0
	movl	$10, %edi
	call	putchar
	.loc 1 145 0
	movl	$.LC2, %edi
	call	puts
	.loc 1 146 0
	movl	$10, %edi
	call	putchar
	.loc 1 147 0
	movl	Reg(%rip), %eax
	testl	%eax, %eax
	je	.L2
	.loc 1 149 0
	movl	$.LC3, %edi
	call	puts
	.loc 1 150 0
	movl	$10, %edi
	call	putchar
	jmp	.L3
.L2:
	.loc 1 154 0
	movl	$.LC4, %edi
	call	puts
	.loc 1 155 0
	movl	$10, %edi
	call	putchar
.L3:
	.loc 1 157 0
	movl	$10, %edi
	call	putchar
	.loc 1 159 0
	movl	$.LC5, %eax
	movl	-116(%rbp), %edx
	movl	%edx, %esi
	movq	%rax, %rdi
	movl	$0, %eax
	call	printf
	.loc 1 163 0
	movl	$time_info, %edi
	call	times
	.loc 1 164 0
	movq	time_info(%rip), %rax
	movq	%rax, Begin_Time(%rip)
	.loc 1 171 0
	movl	$1, -88(%rbp)
	jmp	.L4
.L10:
	.loc 1 174 0
	movl	$0, %eax
	call	Proc_5
	.loc 1 175 0
	movl	$0, %eax
	call	Proc_4
	.loc 1 177 0
	movl	$2, -104(%rbp)
	.loc 1 178 0
	movl	$3, -92(%rbp)
	.loc 1 179 0
	leaq	-48(%rbp), %rax
	movl	$.LC6, %esi
	movq	%rax, %rdi
	call	__strcpy
	.loc 1 180 0
	movl	$1, -96(%rbp)
	.loc 1 181 0
	leaq	-48(%rbp), %rdx
	leaq	-80(%rbp), %rax
	movq	%rdx, %rsi
	movq	%rax, %rdi
	call	Func_2
	testl	%eax, %eax
	sete	%al
	movzbl	%al, %eax
	movl	%eax, Bool_Glob(%rip)
	.loc 1 183 0
	jmp	.L5
.L6:
	.loc 1 185 0
	movl	-104(%rbp), %edx
	movl	%edx, %eax
	sall	$2, %eax
	addl	%edx, %eax
	subl	-92(%rbp), %eax
	movl	%eax, -100(%rbp)
	.loc 1 187 0
	movl	-104(%rbp), %eax
	leaq	-100(%rbp), %rdx
	movl	-92(%rbp), %ecx
	movl	%ecx, %esi
	movl	%eax, %edi
	call	Proc_7
	.loc 1 189 0
	movl	-104(%rbp), %eax
	addl	$1, %eax
	movl	%eax, -104(%rbp)
.L5:
	.loc 1 183 0 discriminator 1
	movl	-104(%rbp), %eax
	cmpl	-92(%rbp), %eax
	jl	.L6
	.loc 1 192 0
	movl	-100(%rbp), %edx
	movl	-104(%rbp), %eax
	movl	%edx, %ecx
	movl	%eax, %edx
	movl	$Arr_2_Glob, %esi
	movl	$Arr_1_Glob, %edi
	call	Proc_8
	.loc 1 194 0
	movq	Ptr_Glob(%rip), %rax
	movq	%rax, %rdi
	call	Proc_1
	.loc 1 195 0
	movb	$65, -81(%rbp)
	jmp	.L7
.L9:
	.loc 1 198 0
	movsbl	-81(%rbp), %eax
	movl	$67, %esi
	movl	%eax, %edi
	movl	$0, %eax
	call	Func_1
	movl	-96(%rbp), %edx
	cmpl	%edx, %eax
	jne	.L8
	.loc 1 201 0
	leaq	-96(%rbp), %rax
	movq	%rax, %rsi
	movl	$0, %edi
	call	Proc_6
	.loc 1 202 0
	leaq	-48(%rbp), %rax
	movl	$.LC7, %esi
	movq	%rax, %rdi
	call	__strcpy
	.loc 1 203 0
	movl	-88(%rbp), %eax
	movl	%eax, -92(%rbp)
	.loc 1 204 0
	movl	-88(%rbp), %eax
	movl	%eax, Int_Glob(%rip)
.L8:
	.loc 1 195 0
	addb	$1, -81(%rbp)
.L7:
	.loc 1 195 0 is_stmt 0 discriminator 1
	movzbl	Ch_2_Glob(%rip), %eax
	cmpb	%al, -81(%rbp)
	jle	.L9
	.loc 1 208 0 is_stmt 1
	movl	-104(%rbp), %eax
	movl	-92(%rbp), %edx
	imull	%edx, %eax
	movl	%eax, -92(%rbp)
	.loc 1 209 0
	movl	-100(%rbp), %edx
	movl	%edx, -120(%rbp)
	movl	-92(%rbp), %eax
	movl	%eax, %edx
	sarl	$31, %edx
	idivl	-120(%rbp)
	movl	%eax, -104(%rbp)
	.loc 1 210 0
	movl	-100(%rbp), %eax
	movl	-92(%rbp), %edx
	subl	%eax, %edx
	movl	%edx, %eax
	sall	$3, %eax
	movl	%eax, %ecx
	subl	%edx, %ecx
	movl	%ecx, %edx
	movl	-104(%rbp), %eax
	movl	%edx, %ecx
	subl	%eax, %ecx
	movl	%ecx, %eax
	movl	%eax, -92(%rbp)
	.loc 1 212 0
	leaq	-104(%rbp), %rax
	movq	%rax, %rdi
	call	Proc_2
	.loc 1 171 0
	addl	$1, -88(%rbp)
.L4:
	.loc 1 171 0 is_stmt 0 discriminator 1
	movl	-88(%rbp), %eax
	cmpl	-116(%rbp), %eax
	jle	.L10
	.loc 1 223 0 is_stmt 1
	movl	$time_info, %edi
	call	times
	.loc 1 224 0
	movq	time_info(%rip), %rax
	movq	%rax, End_Time(%rip)
	.loc 1 230 0
	movl	$.LC8, %edi
	call	puts
	.loc 1 231 0
	movl	$10, %edi
	call	putchar
	.loc 1 232 0
	movl	$.LC9, %edi
	call	puts
	.loc 1 233 0
	movl	$10, %edi
	call	putchar
	.loc 1 234 0
	movl	Int_Glob(%rip), %edx
	movl	$.LC10, %eax
	movl	%edx, %esi
	movq	%rax, %rdi
	movl	$0, %eax
	call	printf
	.loc 1 235 0
	movl	$.LC11, %eax
	movl	$5, %esi
	movq	%rax, %rdi
	movl	$0, %eax
	call	printf
	.loc 1 236 0
	movl	Bool_Glob(%rip), %edx
	movl	$.LC12, %eax
	movl	%edx, %esi
	movq	%rax, %rdi
	movl	$0, %eax
	call	printf
	.loc 1 237 0
	movl	$.LC11, %eax
	movl	$1, %esi
	movq	%rax, %rdi
	movl	$0, %eax
	call	printf
	.loc 1 238 0
	movzbl	Ch_1_Glob(%rip), %eax
	movsbl	%al, %edx
	movl	$.LC13, %eax
	movl	%edx, %esi
	movq	%rax, %rdi
	movl	$0, %eax
	call	printf
	.loc 1 239 0
	movl	$.LC11, %eax
	movl	$65, %esi
	movq	%rax, %rdi
	movl	$0, %eax
	call	printf
	.loc 1 240 0
	movzbl	Ch_2_Glob(%rip), %eax
	movsbl	%al, %edx
	movl	$.LC14, %eax
	movl	%edx, %esi
	movq	%rax, %rdi
	movl	$0, %eax
	call	printf
	.loc 1 241 0
	movl	$.LC11, %eax
	movl	$66, %esi
	movq	%rax, %rdi
	movl	$0, %eax
	call	printf
	.loc 1 242 0
	movl	Arr_1_Glob+32(%rip), %edx
	movl	$.LC15, %eax
	movl	%edx, %esi
	movq	%rax, %rdi
	movl	$0, %eax
	call	printf
	.loc 1 243 0
	movl	$.LC11, %eax
	movl	$7, %esi
	movq	%rax, %rdi
	movl	$0, %eax
	call	printf
	.loc 1 244 0
	movl	Arr_2_Glob+1628(%rip), %edx
	movl	$.LC16, %eax
	movl	%edx, %esi
	movq	%rax, %rdi
	movl	$0, %eax
	call	printf
	.loc 1 245 0
	movl	$.LC17, %edi
	call	puts
	.loc 1 246 0
	movl	$.LC18, %edi
	call	puts
	.loc 1 247 0
	movq	Ptr_Glob(%rip), %rax
	movq	(%rax), %rax
	movl	%eax, %edx
	movl	$.LC19, %eax
	movl	%edx, %esi
	movq	%rax, %rdi
	movl	$0, %eax
	call	printf
	.loc 1 248 0
	movl	$.LC20, %edi
	call	puts
	.loc 1 249 0
	movq	Ptr_Glob(%rip), %rax
	movl	8(%rax), %edx
	movl	$.LC21, %eax
	movl	%edx, %esi
	movq	%rax, %rdi
	movl	$0, %eax
	call	printf
	.loc 1 250 0
	movl	$.LC11, %eax
	movl	$0, %esi
	movq	%rax, %rdi
	movl	$0, %eax
	call	printf
	.loc 1 251 0
	movq	Ptr_Glob(%rip), %rax
	movl	12(%rax), %edx
	movl	$.LC22, %eax
	movl	%edx, %esi
	movq	%rax, %rdi
	movl	$0, %eax
	call	printf
	.loc 1 252 0
	movl	$.LC11, %eax
	movl	$2, %esi
	movq	%rax, %rdi
	movl	$0, %eax
	call	printf
	.loc 1 253 0
	movq	Ptr_Glob(%rip), %rax
	movl	16(%rax), %edx
	movl	$.LC23, %eax
	movl	%edx, %esi
	movq	%rax, %rdi
	movl	$0, %eax
	call	printf
	.loc 1 254 0
	movl	$.LC11, %eax
	movl	$17, %esi
	movq	%rax, %rdi
	movl	$0, %eax
	call	printf
	.loc 1 255 0
	movq	Ptr_Glob(%rip), %rax
	leaq	20(%rax), %rdx
	movl	$.LC24, %eax
	movq	%rdx, %rsi
	movq	%rax, %rdi
	movl	$0, %eax
	call	printf
	.loc 1 256 0
	movl	$.LC25, %edi
	call	puts
	.loc 1 257 0
	movl	$.LC26, %edi
	call	puts
	.loc 1 258 0
	movq	Next_Ptr_Glob(%rip), %rax
	movq	(%rax), %rax
	movl	%eax, %edx
	movl	$.LC19, %eax
	movl	%edx, %esi
	movq	%rax, %rdi
	movl	$0, %eax
	call	printf
	.loc 1 259 0
	movl	$.LC27, %edi
	call	puts
	.loc 1 260 0
	movq	Next_Ptr_Glob(%rip), %rax
	movl	8(%rax), %edx
	movl	$.LC21, %eax
	movl	%edx, %esi
	movq	%rax, %rdi
	movl	$0, %eax
	call	printf
	.loc 1 261 0
	movl	$.LC11, %eax
	movl	$0, %esi
	movq	%rax, %rdi
	movl	$0, %eax
	call	printf
	.loc 1 262 0
	movq	Next_Ptr_Glob(%rip), %rax
	movl	12(%rax), %edx
	movl	$.LC22, %eax
	movl	%edx, %esi
	movq	%rax, %rdi
	movl	$0, %eax
	call	printf
	.loc 1 263 0
	movl	$.LC11, %eax
	movl	$1, %esi
	movq	%rax, %rdi
	movl	$0, %eax
	call	printf
	.loc 1 264 0
	movq	Next_Ptr_Glob(%rip), %rax
	movl	16(%rax), %edx
	movl	$.LC23, %eax
	movl	%edx, %esi
	movq	%rax, %rdi
	movl	$0, %eax
	call	printf
	.loc 1 265 0
	movl	$.LC11, %eax
	movl	$18, %esi
	movq	%rax, %rdi
	movl	$0, %eax
	call	printf
	.loc 1 267 0
	movq	Next_Ptr_Glob(%rip), %rax
	leaq	20(%rax), %rdx
	.loc 1 266 0
	movl	$.LC24, %eax
	movq	%rdx, %rsi
	movq	%rax, %rdi
	movl	$0, %eax
	call	printf
	.loc 1 268 0
	movl	$.LC25, %edi
	call	puts
	.loc 1 269 0
	movl	-104(%rbp), %edx
	movl	$.LC28, %eax
	movl	%edx, %esi
	movq	%rax, %rdi
	movl	$0, %eax
	call	printf
	.loc 1 270 0
	movl	$.LC11, %eax
	movl	$5, %esi
	movq	%rax, %rdi
	movl	$0, %eax
	call	printf
	.loc 1 271 0
	movl	$.LC29, %eax
	movl	-92(%rbp), %edx
	movl	%edx, %esi
	movq	%rax, %rdi
	movl	$0, %eax
	call	printf
	.loc 1 272 0
	movl	$.LC11, %eax
	movl	$13, %esi
	movq	%rax, %rdi
	movl	$0, %eax
	call	printf
	.loc 1 273 0
	movl	-100(%rbp), %edx
	movl	$.LC30, %eax
	movl	%edx, %esi
	movq	%rax, %rdi
	movl	$0, %eax
	call	printf
	.loc 1 274 0
	movl	$.LC11, %eax
	movl	$7, %esi
	movq	%rax, %rdi
	movl	$0, %eax
	call	printf
	.loc 1 275 0
	movl	-96(%rbp), %edx
	movl	$.LC31, %eax
	movl	%edx, %esi
	movq	%rax, %rdi
	movl	$0, %eax
	call	printf
	.loc 1 276 0
	movl	$.LC11, %eax
	movl	$1, %esi
	movq	%rax, %rdi
	movl	$0, %eax
	call	printf
	.loc 1 277 0
	movl	$.LC32, %eax
	leaq	-80(%rbp), %rdx
	movq	%rdx, %rsi
	movq	%rax, %rdi
	movl	$0, %eax
	call	printf
	.loc 1 278 0
	movl	$.LC33, %edi
	call	puts
	.loc 1 279 0
	movl	$.LC34, %eax
	leaq	-48(%rbp), %rdx
	movq	%rdx, %rsi
	movq	%rax, %rdi
	movl	$0, %eax
	call	printf
	.loc 1 280 0
	movl	$.LC35, %edi
	call	puts
	.loc 1 281 0
	movl	$10, %edi
	call	putchar
	.loc 1 283 0
	movq	End_Time(%rip), %rdx
	movq	Begin_Time(%rip), %rax
	movq	%rdx, %rcx
	subq	%rax, %rcx
	movq	%rcx, %rax
	movq	%rax, User_Time(%rip)
	.loc 1 285 0
	movq	User_Time(%rip), %rax
	cmpq	$119, %rax
	jg	.L11
	.loc 1 287 0
	movl	$.LC36, %edi
	call	puts
	.loc 1 288 0
	movl	$.LC37, %edi
	call	puts
	.loc 1 289 0
	movl	$10, %edi
	call	putchar
	jmp	.L1
.L11:
	.loc 1 298 0
	movq	User_Time(%rip), %rax
	cvtsi2ssq	%rax, %xmm0
	unpcklps	%xmm0, %xmm0
	cvtps2pd	%xmm0, %xmm0
	movsd	.LC38(%rip), %xmm1
	mulsd	%xmm1, %xmm0
	.loc 1 299 0
	cvtsi2ss	-116(%rbp), %xmm1
	movss	.LC39(%rip), %xmm2
	mulss	%xmm2, %xmm1
	unpcklps	%xmm1, %xmm1
	cvtps2pd	%xmm1, %xmm1
	divsd	%xmm1, %xmm0
	.loc 1 298 0
	unpcklpd	%xmm0, %xmm0
	cvtpd2ps	%xmm0, %xmm0
	movss	%xmm0, Microseconds(%rip)
	.loc 1 300 0
	cvtsi2ss	-116(%rbp), %xmm0
	movss	.LC39(%rip), %xmm1
	mulss	%xmm1, %xmm0
	.loc 1 301 0
	movq	User_Time(%rip), %rax
	cvtsi2ssq	%rax, %xmm1
	divss	%xmm1, %xmm0
	.loc 1 300 0
	movss	%xmm0, Dhrystones_Per_Second(%rip)
	.loc 1 303 0
	movl	$.LC40, %eax
	movq	%rax, %rdi
	movl	$0, %eax
	call	printf
	.loc 1 304 0
	movss	Microseconds(%rip), %xmm0
	unpcklps	%xmm0, %xmm0
	cvtps2pd	%xmm0, %xmm0
	movl	$.LC41, %eax
	movq	%rax, %rdi
	movl	$1, %eax
	call	printf
	.loc 1 305 0
	movl	$.LC42, %eax
	movq	%rax, %rdi
	movl	$0, %eax
	call	printf
	.loc 1 306 0
	movss	Dhrystones_Per_Second(%rip), %xmm0
	unpcklps	%xmm0, %xmm0
	cvtps2pd	%xmm0, %xmm0
	movl	$.LC41, %eax
	movq	%rax, %rdi
	movl	$1, %eax
	call	printf
	.loc 1 307 0
	movl	$10, %edi
	call	putchar
.L1:
	.loc 1 311 0
	movq	-8(%rbp), %rax
	xorq	%fs:40, %rax
	je	.L13
	call	__stack_chk_fail
.L13:
	leave
.LCFI2:
	.cfi_def_cfa 7, 8
	ret
	.cfi_endproc
.LFE0:
	.size	run_dhrystone, .-run_dhrystone
	.globl	Proc_1
	.type	Proc_1, @function
Proc_1:
.LFB1:
	.loc 1 319 0
	.cfi_startproc
	pushq	%rbp
.LCFI3:
	.cfi_def_cfa_offset 16
	.cfi_offset 6, -16
	movq	%rsp, %rbp
.LCFI4:
	.cfi_def_cfa_register 6
	subq	$32, %rsp
	movq	%rdi, -24(%rbp)
	.loc 1 320 0
	movq	-24(%rbp), %rax
	movq	(%rax), %rax
	movq	%rax, -8(%rbp)
	.loc 1 325 0
	movq	Ptr_Glob(%rip), %rcx
	movq	-24(%rbp), %rax
	movq	(%rax), %rax
	movl	$56, %edx
	movq	%rcx, %rsi
	movq	%rax, %rdi
	call	__memcpy
	.loc 1 326 0
	movq	-24(%rbp), %rax
	movl	$5, 16(%rax)
	.loc 1 328 0
	movq	-24(%rbp), %rax
	movl	16(%rax), %edx
	.loc 1 327 0
	movq	-8(%rbp), %rax
	.loc 1 328 0
	movl	%edx, 16(%rax)
	.loc 1 329 0
	movq	-24(%rbp), %rax
	movq	(%rax), %rdx
	movq	-8(%rbp), %rax
	movq	%rdx, (%rax)
	.loc 1 330 0
	movq	-8(%rbp), %rax
	movq	%rax, %rdi
	call	Proc_3
	.loc 1 333 0
	movq	-8(%rbp), %rax
	movl	8(%rax), %eax
	testl	%eax, %eax
	jne	.L15
	.loc 1 336 0
	movq	-8(%rbp), %rax
	movl	$6, 16(%rax)
	.loc 1 337 0
	movq	-8(%rbp), %rax
	leaq	12(%rax), %rdx
	movq	-24(%rbp), %rax
	movl	12(%rax), %eax
	movq	%rdx, %rsi
	movl	%eax, %edi
	call	Proc_6
	.loc 1 339 0
	movq	Ptr_Glob(%rip), %rax
	movq	(%rax), %rdx
	movq	-8(%rbp), %rax
	movq	%rdx, (%rax)
	.loc 1 341 0
	movq	-8(%rbp), %rax
	leaq	16(%rax), %rdx
	.loc 1 340 0
	movq	-8(%rbp), %rax
	movl	16(%rax), %eax
	movl	$10, %esi
	movl	%eax, %edi
	call	Proc_7
	jmp	.L14
.L15:
	.loc 1 344 0
	movq	-24(%rbp), %rax
	movq	(%rax), %rcx
	movq	-24(%rbp), %rax
	movl	$56, %edx
	movq	%rcx, %rsi
	movq	%rax, %rdi
	call	__memcpy
.L14:
	.loc 1 345 0
	leave
.LCFI5:
	.cfi_def_cfa 7, 8
	ret
	.cfi_endproc
.LFE1:
	.size	Proc_1, .-Proc_1
	.globl	Proc_2
	.type	Proc_2, @function
Proc_2:
.LFB2:
	.loc 1 354 0
	.cfi_startproc
	pushq	%rbp
.LCFI6:
	.cfi_def_cfa_offset 16
	.cfi_offset 6, -16
	movq	%rsp, %rbp
.LCFI7:
	.cfi_def_cfa_register 6
	movq	%rdi, -24(%rbp)
	.loc 1 358 0
	movq	-24(%rbp), %rax
	movl	(%rax), %eax
	addl	$10, %eax
	movl	%eax, -8(%rbp)
.L19:
	.loc 1 360 0
	movzbl	Ch_1_Glob(%rip), %eax
	cmpb	$65, %al
	jne	.L18
	.loc 1 363 0
	subl	$1, -8(%rbp)
	.loc 1 364 0
	movl	Int_Glob(%rip), %eax
	movl	-8(%rbp), %edx
	subl	%eax, %edx
	movq	-24(%rbp), %rax
	movl	%edx, (%rax)
	.loc 1 365 0
	movl	$0, -4(%rbp)
.L18:
	.loc 1 367 0
	cmpl	$0, -4(%rbp)
	jne	.L19
	.loc 1 368 0
	popq	%rbp
.LCFI8:
	.cfi_def_cfa 7, 8
	ret
	.cfi_endproc
.LFE2:
	.size	Proc_2, .-Proc_2
	.globl	Proc_3
	.type	Proc_3, @function
Proc_3:
.LFB3:
	.loc 1 378 0
	.cfi_startproc
	pushq	%rbp
.LCFI9:
	.cfi_def_cfa_offset 16
	.cfi_offset 6, -16
	movq	%rsp, %rbp
.LCFI10:
	.cfi_def_cfa_register 6
	subq	$16, %rsp
	movq	%rdi, -8(%rbp)
	.loc 1 379 0
	movq	Ptr_Glob(%rip), %rax
	testq	%rax, %rax
	je	.L21
	.loc 1 381 0
	movq	Ptr_Glob(%rip), %rax
	movq	(%rax), %rdx
	movq	-8(%rbp), %rax
	movq	%rdx, (%rax)
.L21:
	.loc 1 382 0
	movq	Ptr_Glob(%rip), %rax
	leaq	16(%rax), %rdx
	movl	Int_Glob(%rip), %eax
	movl	%eax, %esi
	movl	$10, %edi
	call	Proc_7
	.loc 1 383 0
	leave
.LCFI11:
	.cfi_def_cfa 7, 8
	ret
	.cfi_endproc
.LFE3:
	.size	Proc_3, .-Proc_3
	.globl	Proc_4
	.type	Proc_4, @function
Proc_4:
.LFB4:
	.loc 1 389 0
	.cfi_startproc
	pushq	%rbp
.LCFI12:
	.cfi_def_cfa_offset 16
	.cfi_offset 6, -16
	movq	%rsp, %rbp
.LCFI13:
	.cfi_def_cfa_register 6
	.loc 1 392 0
	movzbl	Ch_1_Glob(%rip), %eax
	cmpb	$65, %al
	sete	%al
	movzbl	%al, %eax
	movl	%eax, -4(%rbp)
	.loc 1 393 0
	movl	Bool_Glob(%rip), %eax
	orl	-4(%rbp), %eax
	movl	%eax, Bool_Glob(%rip)
	.loc 1 394 0
	movb	$66, Ch_2_Glob(%rip)
	.loc 1 395 0
	popq	%rbp
.LCFI14:
	.cfi_def_cfa 7, 8
	ret
	.cfi_endproc
.LFE4:
	.size	Proc_4, .-Proc_4
	.globl	Proc_5
	.type	Proc_5, @function
Proc_5:
.LFB5:
	.loc 1 401 0
	.cfi_startproc
	pushq	%rbp
.LCFI15:
	.cfi_def_cfa_offset 16
	.cfi_offset 6, -16
	movq	%rsp, %rbp
.LCFI16:
	.cfi_def_cfa_register 6
	.loc 1 402 0
	movb	$65, Ch_1_Glob(%rip)
	.loc 1 403 0
	movl	$0, Bool_Glob(%rip)
	.loc 1 404 0
	popq	%rbp
.LCFI17:
	.cfi_def_cfa 7, 8
	ret
	.cfi_endproc
.LFE5:
	.size	Proc_5, .-Proc_5
	.section	.rodata
.LC43:
	.string	"0x%x\n"
	.text
	.globl	main
	.type	main, @function
main:
.LFB6:
	.loc 1 409 0
	.cfi_startproc
	pushq	%rbp
.LCFI18:
	.cfi_def_cfa_offset 16
	.cfi_offset 6, -16
	movq	%rsp, %rbp
.LCFI19:
	.cfi_def_cfa_register 6
	subq	$32, %rsp
	movl	%edi, -20(%rbp)
	movq	%rsi, -32(%rbp)
	.loc 1 410 0
	movl	$100, -4(%rbp)
	.loc 1 411 0
	cmpl	$1, -20(%rbp)
	jle	.L25
	.loc 1 412 0
	movq	-32(%rbp), %rax
	addq	$8, %rax
	movq	(%rax), %rax
	movq	%rax, %rdi
	call	atoi
	movl	%eax, -4(%rbp)
.L25:
	.loc 1 413 0
	movl	-4(%rbp), %eax
	movl	%eax, %edi
	call	run_dhrystone
	.loc 1 414 0
	movl	Int_Glob(%rip), %eax
	movl	%eax, %edx
	movl	$.LC43, %ecx
	movq	stderr(%rip), %rax
	movq	%rcx, %rsi
	movq	%rax, %rdi
	movl	$0, %eax
	call	fprintf
	.loc 1 415 0
	movl	Bool_Glob(%rip), %eax
	movl	%eax, %edx
	movl	$.LC43, %ecx
	movq	stderr(%rip), %rax
	movq	%rcx, %rsi
	movq	%rax, %rdi
	movl	$0, %eax
	call	fprintf
	.loc 1 416 0
	movzbl	Ch_1_Glob(%rip), %eax
	movsbl	%al, %edx
	movl	$.LC43, %ecx
	movq	stderr(%rip), %rax
	movq	%rcx, %rsi
	movq	%rax, %rdi
	movl	$0, %eax
	call	fprintf
	.loc 1 417 0
	movl	Arr_1_Glob+32(%rip), %eax
	movl	%eax, %edx
	movl	$.LC43, %ecx
	movq	stderr(%rip), %rax
	movq	%rcx, %rsi
	movq	%rax, %rdi
	movl	$0, %eax
	call	fprintf
	.loc 1 418 0
	movl	$0, %eax
	.loc 1 419 0
	leave
.LCFI20:
	.cfi_def_cfa 7, 8
	ret
	.cfi_endproc
.LFE6:
	.size	main, .-main
	.section	.rodata
	.align 8
.LC38:
	.long	0
	.long	1093567616
	.align 4
.LC39:
	.long	1112014848
	.text
.Letext0:
	.file 2 "/usr/include/stdint.h"
	.file 3 "/usr/lib/gcc/x86_64-linux-gnu/4.6/include/stddef.h"
	.file 4 "/usr/include/x86_64-linux-gnu/bits/types.h"
	.file 5 "/usr/include/time.h"
	.file 6 "/usr/include/x86_64-linux-gnu/sys/times.h"
	.file 7 "dhry.h"
	.file 8 "/usr/include/libio.h"
	.file 9 "/usr/include/stdio.h"
	.section	.note.GNU-stack,"",@progbits
