
.//core_mark.elf:     file format elf32-sparc


Disassembly of section .text:

00000000 <_start>:
       0:	90 10 21 00 	mov  0x100, %o0
       4:	d0 a0 00 80 	sta  %o0, [ %g0 ] #ASI_N
       8:	9c 10 30 00 	mov  -4096, %sp
       c:	bc 10 00 00 	mov  %g0, %fp
      10:	a0 10 20 01 	mov  1, %l0
      14:	81 94 20 00 	mov  %l0, %wim
      18:	21 00 00 04 	sethi  %hi(0x1000), %l0
      1c:	a0 14 20 e0 	or  %l0, 0xe0, %l0	! 10e0 <window_underflow_trap_handler+0x7c>
      20:	81 88 00 10 	mov  %l0, %psr
      24:	21 00 00 08 	sethi  %hi(0x2000), %l0
      28:	a0 14 20 00 	mov  %l0, %l0	! 2000 <trap_table_base>
      2c:	81 9c 20 00 	mov  %l0, %tbr
      30:	40 00 17 c5 	call  5f44 <ajit_main>
      34:	01 00 00 00 	nop 
      38:	91 d0 20 00 	ta  0
	...

00001000 <window_overflow_trap_handler>:
    1000:	a7 50 00 00 	rd  %wim, %l3
    1004:	a9 2c e0 07 	sll  %l3, 7, %l4
    1008:	a7 34 e0 01 	srl  %l3, 1, %l3
    100c:	a6 14 c0 14 	or  %l3, %l4, %l3
    1010:	a6 0c e0 ff 	and  %l3, 0xff, %l3
    1014:	81 90 00 00 	mov  %g0, %wim
    1018:	01 00 00 00 	nop 
    101c:	01 00 00 00 	nop 
    1020:	01 00 00 00 	nop 
    1024:	81 e0 00 00 	save 
    1028:	e0 3b a0 00 	std  %l0, [ %sp ]
    102c:	e4 3b a0 08 	std  %l2, [ %sp + 8 ]
    1030:	e8 3b a0 10 	std  %l4, [ %sp + 0x10 ]
    1034:	ec 3b a0 18 	std  %l6, [ %sp + 0x18 ]
    1038:	f0 3b a0 20 	std  %i0, [ %sp + 0x20 ]
    103c:	f4 3b a0 28 	std  %i2, [ %sp + 0x28 ]
    1040:	f8 3b a0 30 	std  %i4, [ %sp + 0x30 ]
    1044:	fc 3b a0 38 	std  %fp, [ %sp + 0x38 ]
    1048:	81 e8 00 00 	restore 
    104c:	81 90 00 13 	mov  %l3, %wim
    1050:	01 00 00 00 	nop 
    1054:	01 00 00 00 	nop 
    1058:	01 00 00 00 	nop 
    105c:	81 c4 40 00 	jmp  %l1
    1060:	81 cc 80 00 	rett  %l2

00001064 <window_underflow_trap_handler>:
    1064:	a7 50 00 00 	rd  %wim, %l3
    1068:	a9 34 e0 07 	srl  %l3, 7, %l4
    106c:	a7 2c e0 01 	sll  %l3, 1, %l3
    1070:	a6 14 c0 14 	or  %l3, %l4, %l3
    1074:	a6 0c e0 ff 	and  %l3, 0xff, %l3
    1078:	81 90 00 00 	mov  %g0, %wim
    107c:	01 00 00 00 	nop 
    1080:	01 00 00 00 	nop 
    1084:	01 00 00 00 	nop 
    1088:	81 e8 00 00 	restore 
    108c:	81 e8 00 00 	restore 
    1090:	e0 1b a0 00 	ldd  [ %sp ], %l0
    1094:	e4 1b a0 08 	ldd  [ %sp + 8 ], %l2
    1098:	e8 1b a0 10 	ldd  [ %sp + 0x10 ], %l4
    109c:	ec 1b a0 18 	ldd  [ %sp + 0x18 ], %l6
    10a0:	f0 1b a0 20 	ldd  [ %sp + 0x20 ], %i0
    10a4:	f4 1b a0 28 	ldd  [ %sp + 0x28 ], %i2
    10a8:	f8 1b a0 30 	ldd  [ %sp + 0x30 ], %i4
    10ac:	fc 1b a0 38 	ldd  [ %sp + 0x38 ], %fp
    10b0:	81 e0 00 00 	save 
    10b4:	81 e0 00 00 	save 
    10b8:	81 90 00 13 	mov  %l3, %wim
    10bc:	01 00 00 00 	nop 
    10c0:	01 00 00 00 	nop 
    10c4:	01 00 00 00 	nop 
    10c8:	81 c4 40 00 	jmp  %l1
    10cc:	81 cc 80 00 	rett  %l2
    10d0:	01 00 00 00 	nop 
    10d4:	01 00 00 00 	nop 
    10d8:	01 00 00 00 	nop 
    10dc:	01 00 00 00 	nop 
    10e0:	01 00 00 00 	nop 
    10e4:	01 00 00 00 	nop 
    10e8:	01 00 00 00 	nop 
    10ec:	01 00 00 00 	nop 
    10f0:	01 00 00 00 	nop 
    10f4:	01 00 00 00 	nop 
    10f8:	01 00 00 00 	nop 
    10fc:	01 00 00 00 	nop 
    1100:	01 00 00 00 	nop 
    1104:	01 00 00 00 	nop 
    1108:	01 00 00 00 	nop 
    110c:	01 00 00 00 	nop 
    1110:	01 00 00 00 	nop 
    1114:	01 00 00 00 	nop 
    1118:	01 00 00 00 	nop 
    111c:	01 00 00 00 	nop 
    1120:	01 00 00 00 	nop 
    1124:	01 00 00 00 	nop 
    1128:	01 00 00 00 	nop 
    112c:	01 00 00 00 	nop 
    1130:	01 00 00 00 	nop 
    1134:	01 00 00 00 	nop 
    1138:	01 00 00 00 	nop 
    113c:	01 00 00 00 	nop 
    1140:	01 00 00 00 	nop 
    1144:	01 00 00 00 	nop 
    1148:	01 00 00 00 	nop 
    114c:	01 00 00 00 	nop 
    1150:	01 00 00 00 	nop 
    1154:	01 00 00 00 	nop 
    1158:	01 00 00 00 	nop 
    115c:	01 00 00 00 	nop 
    1160:	01 00 00 00 	nop 
    1164:	01 00 00 00 	nop 
    1168:	01 00 00 00 	nop 
    116c:	01 00 00 00 	nop 
    1170:	01 00 00 00 	nop 
    1174:	01 00 00 00 	nop 
    1178:	01 00 00 00 	nop 
    117c:	01 00 00 00 	nop 
    1180:	01 00 00 00 	nop 
    1184:	01 00 00 00 	nop 
    1188:	01 00 00 00 	nop 
    118c:	01 00 00 00 	nop 
    1190:	01 00 00 00 	nop 
    1194:	01 00 00 00 	nop 
    1198:	01 00 00 00 	nop 
    119c:	01 00 00 00 	nop 
    11a0:	01 00 00 00 	nop 
    11a4:	01 00 00 00 	nop 
    11a8:	01 00 00 00 	nop 
    11ac:	01 00 00 00 	nop 
    11b0:	01 00 00 00 	nop 
    11b4:	01 00 00 00 	nop 
    11b8:	01 00 00 00 	nop 
    11bc:	01 00 00 00 	nop 
    11c0:	01 00 00 00 	nop 
    11c4:	01 00 00 00 	nop 
    11c8:	01 00 00 00 	nop 
    11cc:	01 00 00 00 	nop 
    11d0:	01 00 00 00 	nop 
    11d4:	01 00 00 00 	nop 
    11d8:	01 00 00 00 	nop 
    11dc:	01 00 00 00 	nop 
    11e0:	01 00 00 00 	nop 
    11e4:	01 00 00 00 	nop 
    11e8:	01 00 00 00 	nop 
    11ec:	01 00 00 00 	nop 
    11f0:	01 00 00 00 	nop 
    11f4:	01 00 00 00 	nop 
    11f8:	01 00 00 00 	nop 
    11fc:	01 00 00 00 	nop 
    1200:	01 00 00 00 	nop 
    1204:	01 00 00 00 	nop 
    1208:	01 00 00 00 	nop 
    120c:	01 00 00 00 	nop 
    1210:	01 00 00 00 	nop 
    1214:	01 00 00 00 	nop 
    1218:	01 00 00 00 	nop 
    121c:	01 00 00 00 	nop 
    1220:	01 00 00 00 	nop 
    1224:	01 00 00 00 	nop 
    1228:	01 00 00 00 	nop 
    122c:	01 00 00 00 	nop 
    1230:	01 00 00 00 	nop 
    1234:	01 00 00 00 	nop 
    1238:	01 00 00 00 	nop 
    123c:	01 00 00 00 	nop 
    1240:	01 00 00 00 	nop 
    1244:	01 00 00 00 	nop 
    1248:	01 00 00 00 	nop 
    124c:	01 00 00 00 	nop 
    1250:	01 00 00 00 	nop 
    1254:	01 00 00 00 	nop 
    1258:	01 00 00 00 	nop 
    125c:	01 00 00 00 	nop 
    1260:	01 00 00 00 	nop 
    1264:	01 00 00 00 	nop 
    1268:	01 00 00 00 	nop 
    126c:	01 00 00 00 	nop 
    1270:	01 00 00 00 	nop 
    1274:	01 00 00 00 	nop 
    1278:	01 00 00 00 	nop 
    127c:	01 00 00 00 	nop 
    1280:	01 00 00 00 	nop 
    1284:	01 00 00 00 	nop 
    1288:	01 00 00 00 	nop 
    128c:	01 00 00 00 	nop 
    1290:	01 00 00 00 	nop 
    1294:	01 00 00 00 	nop 
    1298:	01 00 00 00 	nop 
    129c:	01 00 00 00 	nop 
    12a0:	01 00 00 00 	nop 
    12a4:	01 00 00 00 	nop 
    12a8:	01 00 00 00 	nop 
    12ac:	01 00 00 00 	nop 
    12b0:	01 00 00 00 	nop 
    12b4:	01 00 00 00 	nop 
    12b8:	01 00 00 00 	nop 
    12bc:	01 00 00 00 	nop 
    12c0:	01 00 00 00 	nop 
    12c4:	01 00 00 00 	nop 
    12c8:	01 00 00 00 	nop 
    12cc:	01 00 00 00 	nop 
    12d0:	01 00 00 00 	nop 
    12d4:	01 00 00 00 	nop 
    12d8:	01 00 00 00 	nop 
    12dc:	01 00 00 00 	nop 
    12e0:	01 00 00 00 	nop 
    12e4:	01 00 00 00 	nop 
    12e8:	01 00 00 00 	nop 
    12ec:	01 00 00 00 	nop 
    12f0:	01 00 00 00 	nop 
    12f4:	01 00 00 00 	nop 
    12f8:	01 00 00 00 	nop 
    12fc:	01 00 00 00 	nop 
    1300:	01 00 00 00 	nop 
    1304:	01 00 00 00 	nop 
    1308:	01 00 00 00 	nop 
    130c:	01 00 00 00 	nop 
    1310:	01 00 00 00 	nop 
    1314:	01 00 00 00 	nop 
    1318:	01 00 00 00 	nop 
    131c:	01 00 00 00 	nop 
    1320:	01 00 00 00 	nop 
    1324:	01 00 00 00 	nop 
    1328:	01 00 00 00 	nop 
    132c:	01 00 00 00 	nop 
    1330:	01 00 00 00 	nop 
    1334:	01 00 00 00 	nop 
    1338:	01 00 00 00 	nop 
    133c:	01 00 00 00 	nop 
    1340:	01 00 00 00 	nop 
    1344:	01 00 00 00 	nop 
    1348:	01 00 00 00 	nop 
    134c:	01 00 00 00 	nop 
    1350:	01 00 00 00 	nop 
    1354:	01 00 00 00 	nop 
    1358:	01 00 00 00 	nop 
    135c:	01 00 00 00 	nop 
    1360:	01 00 00 00 	nop 
    1364:	01 00 00 00 	nop 
    1368:	01 00 00 00 	nop 
    136c:	01 00 00 00 	nop 
    1370:	01 00 00 00 	nop 
    1374:	01 00 00 00 	nop 
    1378:	01 00 00 00 	nop 
    137c:	01 00 00 00 	nop 
    1380:	01 00 00 00 	nop 
    1384:	01 00 00 00 	nop 
    1388:	01 00 00 00 	nop 
    138c:	01 00 00 00 	nop 
    1390:	01 00 00 00 	nop 
    1394:	01 00 00 00 	nop 
    1398:	01 00 00 00 	nop 
    139c:	01 00 00 00 	nop 
    13a0:	01 00 00 00 	nop 
    13a4:	01 00 00 00 	nop 
    13a8:	01 00 00 00 	nop 
    13ac:	01 00 00 00 	nop 
    13b0:	01 00 00 00 	nop 
    13b4:	01 00 00 00 	nop 
    13b8:	01 00 00 00 	nop 
    13bc:	01 00 00 00 	nop 
    13c0:	01 00 00 00 	nop 
    13c4:	01 00 00 00 	nop 
    13c8:	01 00 00 00 	nop 
    13cc:	01 00 00 00 	nop 
    13d0:	01 00 00 00 	nop 
    13d4:	01 00 00 00 	nop 
    13d8:	01 00 00 00 	nop 
    13dc:	01 00 00 00 	nop 
    13e0:	01 00 00 00 	nop 
    13e4:	01 00 00 00 	nop 
    13e8:	01 00 00 00 	nop 
    13ec:	01 00 00 00 	nop 
    13f0:	01 00 00 00 	nop 
    13f4:	01 00 00 00 	nop 
    13f8:	01 00 00 00 	nop 
    13fc:	01 00 00 00 	nop 
    1400:	01 00 00 00 	nop 
    1404:	01 00 00 00 	nop 
    1408:	01 00 00 00 	nop 
    140c:	01 00 00 00 	nop 
    1410:	01 00 00 00 	nop 
    1414:	01 00 00 00 	nop 
    1418:	01 00 00 00 	nop 
    141c:	01 00 00 00 	nop 
    1420:	01 00 00 00 	nop 
    1424:	01 00 00 00 	nop 
    1428:	01 00 00 00 	nop 
    142c:	01 00 00 00 	nop 
    1430:	01 00 00 00 	nop 
    1434:	01 00 00 00 	nop 
    1438:	01 00 00 00 	nop 
    143c:	01 00 00 00 	nop 
    1440:	01 00 00 00 	nop 
    1444:	01 00 00 00 	nop 
    1448:	01 00 00 00 	nop 
    144c:	01 00 00 00 	nop 
    1450:	01 00 00 00 	nop 
    1454:	01 00 00 00 	nop 
    1458:	01 00 00 00 	nop 
    145c:	01 00 00 00 	nop 
    1460:	01 00 00 00 	nop 
    1464:	01 00 00 00 	nop 
    1468:	01 00 00 00 	nop 
    146c:	01 00 00 00 	nop 
    1470:	01 00 00 00 	nop 
    1474:	01 00 00 00 	nop 
    1478:	01 00 00 00 	nop 
    147c:	01 00 00 00 	nop 
    1480:	01 00 00 00 	nop 
    1484:	01 00 00 00 	nop 
    1488:	01 00 00 00 	nop 
    148c:	01 00 00 00 	nop 
    1490:	01 00 00 00 	nop 
    1494:	01 00 00 00 	nop 
    1498:	01 00 00 00 	nop 
    149c:	01 00 00 00 	nop 
    14a0:	01 00 00 00 	nop 
    14a4:	01 00 00 00 	nop 
    14a8:	01 00 00 00 	nop 
    14ac:	01 00 00 00 	nop 
    14b0:	01 00 00 00 	nop 
    14b4:	01 00 00 00 	nop 
    14b8:	01 00 00 00 	nop 
    14bc:	01 00 00 00 	nop 
    14c0:	01 00 00 00 	nop 
    14c4:	01 00 00 00 	nop 
    14c8:	01 00 00 00 	nop 
    14cc:	01 00 00 00 	nop 
    14d0:	01 00 00 00 	nop 
    14d4:	01 00 00 00 	nop 
    14d8:	01 00 00 00 	nop 
    14dc:	01 00 00 00 	nop 
    14e0:	01 00 00 00 	nop 
    14e4:	01 00 00 00 	nop 
    14e8:	01 00 00 00 	nop 
    14ec:	01 00 00 00 	nop 
    14f0:	01 00 00 00 	nop 
    14f4:	01 00 00 00 	nop 
    14f8:	01 00 00 00 	nop 
    14fc:	01 00 00 00 	nop 
    1500:	01 00 00 00 	nop 
    1504:	01 00 00 00 	nop 
    1508:	01 00 00 00 	nop 
    150c:	01 00 00 00 	nop 
    1510:	01 00 00 00 	nop 
    1514:	01 00 00 00 	nop 
    1518:	01 00 00 00 	nop 
    151c:	01 00 00 00 	nop 
    1520:	01 00 00 00 	nop 
    1524:	01 00 00 00 	nop 
    1528:	01 00 00 00 	nop 
    152c:	01 00 00 00 	nop 
    1530:	01 00 00 00 	nop 
    1534:	01 00 00 00 	nop 
    1538:	01 00 00 00 	nop 
    153c:	01 00 00 00 	nop 
    1540:	01 00 00 00 	nop 
    1544:	01 00 00 00 	nop 
    1548:	01 00 00 00 	nop 
    154c:	01 00 00 00 	nop 
    1550:	01 00 00 00 	nop 
    1554:	01 00 00 00 	nop 
    1558:	01 00 00 00 	nop 
    155c:	01 00 00 00 	nop 
    1560:	01 00 00 00 	nop 
    1564:	01 00 00 00 	nop 
    1568:	01 00 00 00 	nop 
    156c:	01 00 00 00 	nop 
    1570:	01 00 00 00 	nop 
    1574:	01 00 00 00 	nop 
    1578:	01 00 00 00 	nop 
    157c:	01 00 00 00 	nop 
    1580:	01 00 00 00 	nop 
    1584:	01 00 00 00 	nop 
    1588:	01 00 00 00 	nop 
    158c:	01 00 00 00 	nop 
    1590:	01 00 00 00 	nop 
    1594:	01 00 00 00 	nop 
    1598:	01 00 00 00 	nop 
    159c:	01 00 00 00 	nop 
    15a0:	01 00 00 00 	nop 
    15a4:	01 00 00 00 	nop 
    15a8:	01 00 00 00 	nop 
    15ac:	01 00 00 00 	nop 
    15b0:	01 00 00 00 	nop 
    15b4:	01 00 00 00 	nop 
    15b8:	01 00 00 00 	nop 
    15bc:	01 00 00 00 	nop 
    15c0:	01 00 00 00 	nop 
    15c4:	01 00 00 00 	nop 
    15c8:	01 00 00 00 	nop 
    15cc:	01 00 00 00 	nop 
    15d0:	01 00 00 00 	nop 
    15d4:	01 00 00 00 	nop 
    15d8:	01 00 00 00 	nop 
    15dc:	01 00 00 00 	nop 
    15e0:	01 00 00 00 	nop 
    15e4:	01 00 00 00 	nop 
    15e8:	01 00 00 00 	nop 
    15ec:	01 00 00 00 	nop 
    15f0:	01 00 00 00 	nop 
    15f4:	01 00 00 00 	nop 
    15f8:	01 00 00 00 	nop 
    15fc:	01 00 00 00 	nop 
    1600:	01 00 00 00 	nop 
    1604:	01 00 00 00 	nop 
    1608:	01 00 00 00 	nop 
    160c:	01 00 00 00 	nop 
    1610:	01 00 00 00 	nop 
    1614:	01 00 00 00 	nop 
    1618:	01 00 00 00 	nop 
    161c:	01 00 00 00 	nop 
    1620:	01 00 00 00 	nop 
    1624:	01 00 00 00 	nop 
    1628:	01 00 00 00 	nop 
    162c:	01 00 00 00 	nop 
    1630:	01 00 00 00 	nop 
    1634:	01 00 00 00 	nop 
    1638:	01 00 00 00 	nop 
    163c:	01 00 00 00 	nop 
    1640:	01 00 00 00 	nop 
    1644:	01 00 00 00 	nop 
    1648:	01 00 00 00 	nop 
    164c:	01 00 00 00 	nop 
    1650:	01 00 00 00 	nop 
    1654:	01 00 00 00 	nop 
    1658:	01 00 00 00 	nop 
    165c:	01 00 00 00 	nop 
    1660:	01 00 00 00 	nop 
    1664:	01 00 00 00 	nop 
    1668:	01 00 00 00 	nop 
    166c:	01 00 00 00 	nop 
    1670:	01 00 00 00 	nop 
    1674:	01 00 00 00 	nop 
    1678:	01 00 00 00 	nop 
    167c:	01 00 00 00 	nop 
    1680:	01 00 00 00 	nop 
    1684:	01 00 00 00 	nop 
    1688:	01 00 00 00 	nop 
    168c:	01 00 00 00 	nop 
    1690:	01 00 00 00 	nop 
    1694:	01 00 00 00 	nop 
    1698:	01 00 00 00 	nop 
    169c:	01 00 00 00 	nop 
    16a0:	01 00 00 00 	nop 
    16a4:	01 00 00 00 	nop 
    16a8:	01 00 00 00 	nop 
    16ac:	01 00 00 00 	nop 
    16b0:	01 00 00 00 	nop 
    16b4:	01 00 00 00 	nop 
    16b8:	01 00 00 00 	nop 
    16bc:	01 00 00 00 	nop 
    16c0:	01 00 00 00 	nop 
    16c4:	01 00 00 00 	nop 
    16c8:	01 00 00 00 	nop 
    16cc:	01 00 00 00 	nop 
    16d0:	01 00 00 00 	nop 
    16d4:	01 00 00 00 	nop 
    16d8:	01 00 00 00 	nop 
    16dc:	01 00 00 00 	nop 
    16e0:	01 00 00 00 	nop 
    16e4:	01 00 00 00 	nop 
    16e8:	01 00 00 00 	nop 
    16ec:	01 00 00 00 	nop 
    16f0:	01 00 00 00 	nop 
    16f4:	01 00 00 00 	nop 
    16f8:	01 00 00 00 	nop 
    16fc:	01 00 00 00 	nop 
    1700:	01 00 00 00 	nop 
    1704:	01 00 00 00 	nop 
    1708:	01 00 00 00 	nop 
    170c:	01 00 00 00 	nop 
    1710:	01 00 00 00 	nop 
    1714:	01 00 00 00 	nop 
    1718:	01 00 00 00 	nop 
    171c:	01 00 00 00 	nop 
    1720:	01 00 00 00 	nop 
    1724:	01 00 00 00 	nop 
    1728:	01 00 00 00 	nop 
    172c:	01 00 00 00 	nop 
    1730:	01 00 00 00 	nop 
    1734:	01 00 00 00 	nop 
    1738:	01 00 00 00 	nop 
    173c:	01 00 00 00 	nop 
    1740:	01 00 00 00 	nop 
    1744:	01 00 00 00 	nop 
    1748:	01 00 00 00 	nop 
    174c:	01 00 00 00 	nop 
    1750:	01 00 00 00 	nop 
    1754:	01 00 00 00 	nop 
    1758:	01 00 00 00 	nop 
    175c:	01 00 00 00 	nop 
    1760:	01 00 00 00 	nop 
    1764:	01 00 00 00 	nop 
    1768:	01 00 00 00 	nop 
    176c:	01 00 00 00 	nop 
    1770:	01 00 00 00 	nop 
    1774:	01 00 00 00 	nop 
    1778:	01 00 00 00 	nop 
    177c:	01 00 00 00 	nop 
    1780:	01 00 00 00 	nop 
    1784:	01 00 00 00 	nop 
    1788:	01 00 00 00 	nop 
    178c:	01 00 00 00 	nop 
    1790:	01 00 00 00 	nop 
    1794:	01 00 00 00 	nop 
    1798:	01 00 00 00 	nop 
    179c:	01 00 00 00 	nop 
    17a0:	01 00 00 00 	nop 
    17a4:	01 00 00 00 	nop 
    17a8:	01 00 00 00 	nop 
    17ac:	01 00 00 00 	nop 
    17b0:	01 00 00 00 	nop 
    17b4:	01 00 00 00 	nop 
    17b8:	01 00 00 00 	nop 
    17bc:	01 00 00 00 	nop 
    17c0:	01 00 00 00 	nop 
    17c4:	01 00 00 00 	nop 
    17c8:	01 00 00 00 	nop 
    17cc:	01 00 00 00 	nop 
    17d0:	01 00 00 00 	nop 
    17d4:	01 00 00 00 	nop 
    17d8:	01 00 00 00 	nop 
    17dc:	01 00 00 00 	nop 
    17e0:	01 00 00 00 	nop 
    17e4:	01 00 00 00 	nop 
    17e8:	01 00 00 00 	nop 
    17ec:	01 00 00 00 	nop 
    17f0:	01 00 00 00 	nop 
    17f4:	01 00 00 00 	nop 
    17f8:	01 00 00 00 	nop 
    17fc:	01 00 00 00 	nop 
    1800:	01 00 00 00 	nop 
    1804:	01 00 00 00 	nop 
    1808:	01 00 00 00 	nop 
    180c:	01 00 00 00 	nop 
    1810:	01 00 00 00 	nop 
    1814:	01 00 00 00 	nop 
    1818:	01 00 00 00 	nop 
    181c:	01 00 00 00 	nop 
    1820:	01 00 00 00 	nop 
    1824:	01 00 00 00 	nop 
    1828:	01 00 00 00 	nop 
    182c:	01 00 00 00 	nop 
    1830:	01 00 00 00 	nop 
    1834:	01 00 00 00 	nop 
    1838:	01 00 00 00 	nop 
    183c:	01 00 00 00 	nop 
    1840:	01 00 00 00 	nop 
    1844:	01 00 00 00 	nop 
    1848:	01 00 00 00 	nop 
    184c:	01 00 00 00 	nop 
    1850:	01 00 00 00 	nop 
    1854:	01 00 00 00 	nop 
    1858:	01 00 00 00 	nop 
    185c:	01 00 00 00 	nop 
    1860:	01 00 00 00 	nop 
    1864:	01 00 00 00 	nop 
    1868:	01 00 00 00 	nop 
    186c:	01 00 00 00 	nop 
    1870:	01 00 00 00 	nop 
    1874:	01 00 00 00 	nop 
    1878:	01 00 00 00 	nop 
    187c:	01 00 00 00 	nop 
    1880:	01 00 00 00 	nop 
    1884:	01 00 00 00 	nop 
    1888:	01 00 00 00 	nop 
    188c:	01 00 00 00 	nop 
    1890:	01 00 00 00 	nop 
    1894:	01 00 00 00 	nop 
    1898:	01 00 00 00 	nop 
    189c:	01 00 00 00 	nop 
    18a0:	01 00 00 00 	nop 
    18a4:	01 00 00 00 	nop 
    18a8:	01 00 00 00 	nop 
    18ac:	01 00 00 00 	nop 
    18b0:	01 00 00 00 	nop 
    18b4:	01 00 00 00 	nop 
    18b8:	01 00 00 00 	nop 
    18bc:	01 00 00 00 	nop 
    18c0:	01 00 00 00 	nop 
    18c4:	01 00 00 00 	nop 
    18c8:	01 00 00 00 	nop 
    18cc:	01 00 00 00 	nop 
    18d0:	01 00 00 00 	nop 
    18d4:	01 00 00 00 	nop 
    18d8:	01 00 00 00 	nop 
    18dc:	01 00 00 00 	nop 
    18e0:	01 00 00 00 	nop 
    18e4:	01 00 00 00 	nop 
    18e8:	01 00 00 00 	nop 
    18ec:	01 00 00 00 	nop 
    18f0:	01 00 00 00 	nop 
    18f4:	01 00 00 00 	nop 
    18f8:	01 00 00 00 	nop 
    18fc:	01 00 00 00 	nop 
    1900:	01 00 00 00 	nop 
    1904:	01 00 00 00 	nop 
    1908:	01 00 00 00 	nop 
    190c:	01 00 00 00 	nop 
    1910:	01 00 00 00 	nop 
    1914:	01 00 00 00 	nop 
    1918:	01 00 00 00 	nop 
    191c:	01 00 00 00 	nop 
    1920:	01 00 00 00 	nop 
    1924:	01 00 00 00 	nop 
    1928:	01 00 00 00 	nop 
    192c:	01 00 00 00 	nop 
    1930:	01 00 00 00 	nop 
    1934:	01 00 00 00 	nop 
    1938:	01 00 00 00 	nop 
    193c:	01 00 00 00 	nop 
    1940:	01 00 00 00 	nop 
    1944:	01 00 00 00 	nop 
    1948:	01 00 00 00 	nop 
    194c:	01 00 00 00 	nop 
    1950:	01 00 00 00 	nop 
    1954:	01 00 00 00 	nop 
    1958:	01 00 00 00 	nop 
    195c:	01 00 00 00 	nop 
    1960:	01 00 00 00 	nop 
    1964:	01 00 00 00 	nop 
    1968:	01 00 00 00 	nop 
    196c:	01 00 00 00 	nop 
    1970:	01 00 00 00 	nop 
    1974:	01 00 00 00 	nop 
    1978:	01 00 00 00 	nop 
    197c:	01 00 00 00 	nop 
    1980:	01 00 00 00 	nop 
    1984:	01 00 00 00 	nop 
    1988:	01 00 00 00 	nop 
    198c:	01 00 00 00 	nop 
    1990:	01 00 00 00 	nop 
    1994:	01 00 00 00 	nop 
    1998:	01 00 00 00 	nop 
    199c:	01 00 00 00 	nop 
    19a0:	01 00 00 00 	nop 
    19a4:	01 00 00 00 	nop 
    19a8:	01 00 00 00 	nop 
    19ac:	01 00 00 00 	nop 
    19b0:	01 00 00 00 	nop 
    19b4:	01 00 00 00 	nop 
    19b8:	01 00 00 00 	nop 
    19bc:	01 00 00 00 	nop 
    19c0:	01 00 00 00 	nop 
    19c4:	01 00 00 00 	nop 
    19c8:	01 00 00 00 	nop 
    19cc:	01 00 00 00 	nop 
    19d0:	01 00 00 00 	nop 
    19d4:	01 00 00 00 	nop 
    19d8:	01 00 00 00 	nop 
    19dc:	01 00 00 00 	nop 
    19e0:	01 00 00 00 	nop 
    19e4:	01 00 00 00 	nop 
    19e8:	01 00 00 00 	nop 
    19ec:	01 00 00 00 	nop 
    19f0:	01 00 00 00 	nop 
    19f4:	01 00 00 00 	nop 
    19f8:	01 00 00 00 	nop 
    19fc:	01 00 00 00 	nop 
    1a00:	01 00 00 00 	nop 
    1a04:	01 00 00 00 	nop 
    1a08:	01 00 00 00 	nop 
    1a0c:	01 00 00 00 	nop 
    1a10:	01 00 00 00 	nop 
    1a14:	01 00 00 00 	nop 
    1a18:	01 00 00 00 	nop 
    1a1c:	01 00 00 00 	nop 
    1a20:	01 00 00 00 	nop 
    1a24:	01 00 00 00 	nop 
    1a28:	01 00 00 00 	nop 
    1a2c:	01 00 00 00 	nop 
    1a30:	01 00 00 00 	nop 
    1a34:	01 00 00 00 	nop 
    1a38:	01 00 00 00 	nop 
    1a3c:	01 00 00 00 	nop 
    1a40:	01 00 00 00 	nop 
    1a44:	01 00 00 00 	nop 
    1a48:	01 00 00 00 	nop 
    1a4c:	01 00 00 00 	nop 
    1a50:	01 00 00 00 	nop 
    1a54:	01 00 00 00 	nop 
    1a58:	01 00 00 00 	nop 
    1a5c:	01 00 00 00 	nop 
    1a60:	01 00 00 00 	nop 
    1a64:	01 00 00 00 	nop 
    1a68:	01 00 00 00 	nop 
    1a6c:	01 00 00 00 	nop 
    1a70:	01 00 00 00 	nop 
    1a74:	01 00 00 00 	nop 
    1a78:	01 00 00 00 	nop 
    1a7c:	01 00 00 00 	nop 
    1a80:	01 00 00 00 	nop 
    1a84:	01 00 00 00 	nop 
    1a88:	01 00 00 00 	nop 
    1a8c:	01 00 00 00 	nop 
    1a90:	01 00 00 00 	nop 
    1a94:	01 00 00 00 	nop 
    1a98:	01 00 00 00 	nop 
    1a9c:	01 00 00 00 	nop 
    1aa0:	01 00 00 00 	nop 
    1aa4:	01 00 00 00 	nop 
    1aa8:	01 00 00 00 	nop 
    1aac:	01 00 00 00 	nop 
    1ab0:	01 00 00 00 	nop 
    1ab4:	01 00 00 00 	nop 
    1ab8:	01 00 00 00 	nop 
    1abc:	01 00 00 00 	nop 
    1ac0:	01 00 00 00 	nop 
    1ac4:	01 00 00 00 	nop 
    1ac8:	01 00 00 00 	nop 
    1acc:	01 00 00 00 	nop 
    1ad0:	01 00 00 00 	nop 
    1ad4:	01 00 00 00 	nop 
    1ad8:	01 00 00 00 	nop 
    1adc:	01 00 00 00 	nop 
    1ae0:	01 00 00 00 	nop 
    1ae4:	01 00 00 00 	nop 
    1ae8:	01 00 00 00 	nop 
    1aec:	01 00 00 00 	nop 
    1af0:	01 00 00 00 	nop 
    1af4:	01 00 00 00 	nop 
    1af8:	01 00 00 00 	nop 
    1afc:	01 00 00 00 	nop 
    1b00:	01 00 00 00 	nop 
    1b04:	01 00 00 00 	nop 
    1b08:	01 00 00 00 	nop 
    1b0c:	01 00 00 00 	nop 
    1b10:	01 00 00 00 	nop 
    1b14:	01 00 00 00 	nop 
    1b18:	01 00 00 00 	nop 
    1b1c:	01 00 00 00 	nop 
    1b20:	01 00 00 00 	nop 
    1b24:	01 00 00 00 	nop 
    1b28:	01 00 00 00 	nop 
    1b2c:	01 00 00 00 	nop 
    1b30:	01 00 00 00 	nop 
    1b34:	01 00 00 00 	nop 
    1b38:	01 00 00 00 	nop 
    1b3c:	01 00 00 00 	nop 
    1b40:	01 00 00 00 	nop 
    1b44:	01 00 00 00 	nop 
    1b48:	01 00 00 00 	nop 
    1b4c:	01 00 00 00 	nop 
    1b50:	01 00 00 00 	nop 
    1b54:	01 00 00 00 	nop 
    1b58:	01 00 00 00 	nop 
    1b5c:	01 00 00 00 	nop 
    1b60:	01 00 00 00 	nop 
    1b64:	01 00 00 00 	nop 
    1b68:	01 00 00 00 	nop 
    1b6c:	01 00 00 00 	nop 
    1b70:	01 00 00 00 	nop 
    1b74:	01 00 00 00 	nop 
    1b78:	01 00 00 00 	nop 
    1b7c:	01 00 00 00 	nop 
    1b80:	01 00 00 00 	nop 
    1b84:	01 00 00 00 	nop 
    1b88:	01 00 00 00 	nop 
    1b8c:	01 00 00 00 	nop 
    1b90:	01 00 00 00 	nop 
    1b94:	01 00 00 00 	nop 
    1b98:	01 00 00 00 	nop 
    1b9c:	01 00 00 00 	nop 
    1ba0:	01 00 00 00 	nop 
    1ba4:	01 00 00 00 	nop 
    1ba8:	01 00 00 00 	nop 
    1bac:	01 00 00 00 	nop 
    1bb0:	01 00 00 00 	nop 
    1bb4:	01 00 00 00 	nop 
    1bb8:	01 00 00 00 	nop 
    1bbc:	01 00 00 00 	nop 
    1bc0:	01 00 00 00 	nop 
    1bc4:	01 00 00 00 	nop 
    1bc8:	01 00 00 00 	nop 
    1bcc:	01 00 00 00 	nop 
    1bd0:	01 00 00 00 	nop 
    1bd4:	01 00 00 00 	nop 
    1bd8:	01 00 00 00 	nop 
    1bdc:	01 00 00 00 	nop 
    1be0:	01 00 00 00 	nop 
    1be4:	01 00 00 00 	nop 
    1be8:	01 00 00 00 	nop 
    1bec:	01 00 00 00 	nop 
    1bf0:	01 00 00 00 	nop 
    1bf4:	01 00 00 00 	nop 
    1bf8:	01 00 00 00 	nop 
    1bfc:	01 00 00 00 	nop 
    1c00:	01 00 00 00 	nop 
    1c04:	01 00 00 00 	nop 
    1c08:	01 00 00 00 	nop 
    1c0c:	01 00 00 00 	nop 
    1c10:	01 00 00 00 	nop 
    1c14:	01 00 00 00 	nop 
    1c18:	01 00 00 00 	nop 
    1c1c:	01 00 00 00 	nop 
    1c20:	01 00 00 00 	nop 
    1c24:	01 00 00 00 	nop 
    1c28:	01 00 00 00 	nop 
    1c2c:	01 00 00 00 	nop 
    1c30:	01 00 00 00 	nop 
    1c34:	01 00 00 00 	nop 
    1c38:	01 00 00 00 	nop 
    1c3c:	01 00 00 00 	nop 
    1c40:	01 00 00 00 	nop 
    1c44:	01 00 00 00 	nop 
    1c48:	01 00 00 00 	nop 
    1c4c:	01 00 00 00 	nop 
    1c50:	01 00 00 00 	nop 
    1c54:	01 00 00 00 	nop 
    1c58:	01 00 00 00 	nop 
    1c5c:	01 00 00 00 	nop 
    1c60:	01 00 00 00 	nop 
    1c64:	01 00 00 00 	nop 
    1c68:	01 00 00 00 	nop 
    1c6c:	01 00 00 00 	nop 
    1c70:	01 00 00 00 	nop 
    1c74:	01 00 00 00 	nop 
    1c78:	01 00 00 00 	nop 
    1c7c:	01 00 00 00 	nop 
    1c80:	01 00 00 00 	nop 
    1c84:	01 00 00 00 	nop 
    1c88:	01 00 00 00 	nop 
    1c8c:	01 00 00 00 	nop 
    1c90:	01 00 00 00 	nop 
    1c94:	01 00 00 00 	nop 
    1c98:	01 00 00 00 	nop 
    1c9c:	01 00 00 00 	nop 
    1ca0:	01 00 00 00 	nop 
    1ca4:	01 00 00 00 	nop 
    1ca8:	01 00 00 00 	nop 
    1cac:	01 00 00 00 	nop 
    1cb0:	01 00 00 00 	nop 
    1cb4:	01 00 00 00 	nop 
    1cb8:	01 00 00 00 	nop 
    1cbc:	01 00 00 00 	nop 
    1cc0:	01 00 00 00 	nop 
    1cc4:	01 00 00 00 	nop 
    1cc8:	01 00 00 00 	nop 
    1ccc:	01 00 00 00 	nop 
    1cd0:	01 00 00 00 	nop 
    1cd4:	01 00 00 00 	nop 
    1cd8:	01 00 00 00 	nop 
    1cdc:	01 00 00 00 	nop 
    1ce0:	01 00 00 00 	nop 
    1ce4:	01 00 00 00 	nop 
    1ce8:	01 00 00 00 	nop 
    1cec:	01 00 00 00 	nop 
    1cf0:	01 00 00 00 	nop 
    1cf4:	01 00 00 00 	nop 
    1cf8:	01 00 00 00 	nop 
    1cfc:	01 00 00 00 	nop 
    1d00:	01 00 00 00 	nop 
    1d04:	01 00 00 00 	nop 
    1d08:	01 00 00 00 	nop 
    1d0c:	01 00 00 00 	nop 
    1d10:	01 00 00 00 	nop 
    1d14:	01 00 00 00 	nop 
    1d18:	01 00 00 00 	nop 
    1d1c:	01 00 00 00 	nop 
    1d20:	01 00 00 00 	nop 
    1d24:	01 00 00 00 	nop 
    1d28:	01 00 00 00 	nop 
    1d2c:	01 00 00 00 	nop 
    1d30:	01 00 00 00 	nop 
    1d34:	01 00 00 00 	nop 
    1d38:	01 00 00 00 	nop 
    1d3c:	01 00 00 00 	nop 
    1d40:	01 00 00 00 	nop 
    1d44:	01 00 00 00 	nop 
    1d48:	01 00 00 00 	nop 
    1d4c:	01 00 00 00 	nop 
    1d50:	01 00 00 00 	nop 
    1d54:	01 00 00 00 	nop 
    1d58:	01 00 00 00 	nop 
    1d5c:	01 00 00 00 	nop 
    1d60:	01 00 00 00 	nop 
    1d64:	01 00 00 00 	nop 
    1d68:	01 00 00 00 	nop 
    1d6c:	01 00 00 00 	nop 
    1d70:	01 00 00 00 	nop 
    1d74:	01 00 00 00 	nop 
    1d78:	01 00 00 00 	nop 
    1d7c:	01 00 00 00 	nop 
    1d80:	01 00 00 00 	nop 
    1d84:	01 00 00 00 	nop 
    1d88:	01 00 00 00 	nop 
    1d8c:	01 00 00 00 	nop 
    1d90:	01 00 00 00 	nop 
    1d94:	01 00 00 00 	nop 
    1d98:	01 00 00 00 	nop 
    1d9c:	01 00 00 00 	nop 
    1da0:	01 00 00 00 	nop 
    1da4:	01 00 00 00 	nop 
    1da8:	01 00 00 00 	nop 
    1dac:	01 00 00 00 	nop 
    1db0:	01 00 00 00 	nop 
    1db4:	01 00 00 00 	nop 
    1db8:	01 00 00 00 	nop 
    1dbc:	01 00 00 00 	nop 
    1dc0:	01 00 00 00 	nop 
    1dc4:	01 00 00 00 	nop 
    1dc8:	01 00 00 00 	nop 
    1dcc:	01 00 00 00 	nop 
    1dd0:	01 00 00 00 	nop 
    1dd4:	01 00 00 00 	nop 
    1dd8:	01 00 00 00 	nop 
    1ddc:	01 00 00 00 	nop 
    1de0:	01 00 00 00 	nop 
    1de4:	01 00 00 00 	nop 
    1de8:	01 00 00 00 	nop 
    1dec:	01 00 00 00 	nop 
    1df0:	01 00 00 00 	nop 
    1df4:	01 00 00 00 	nop 
    1df8:	01 00 00 00 	nop 
    1dfc:	01 00 00 00 	nop 
    1e00:	01 00 00 00 	nop 
    1e04:	01 00 00 00 	nop 
    1e08:	01 00 00 00 	nop 
    1e0c:	01 00 00 00 	nop 
    1e10:	01 00 00 00 	nop 
    1e14:	01 00 00 00 	nop 
    1e18:	01 00 00 00 	nop 
    1e1c:	01 00 00 00 	nop 
    1e20:	01 00 00 00 	nop 
    1e24:	01 00 00 00 	nop 
    1e28:	01 00 00 00 	nop 
    1e2c:	01 00 00 00 	nop 
    1e30:	01 00 00 00 	nop 
    1e34:	01 00 00 00 	nop 
    1e38:	01 00 00 00 	nop 
    1e3c:	01 00 00 00 	nop 
    1e40:	01 00 00 00 	nop 
    1e44:	01 00 00 00 	nop 
    1e48:	01 00 00 00 	nop 
    1e4c:	01 00 00 00 	nop 
    1e50:	01 00 00 00 	nop 
    1e54:	01 00 00 00 	nop 
    1e58:	01 00 00 00 	nop 
    1e5c:	01 00 00 00 	nop 
    1e60:	01 00 00 00 	nop 
    1e64:	01 00 00 00 	nop 
    1e68:	01 00 00 00 	nop 
    1e6c:	01 00 00 00 	nop 
    1e70:	01 00 00 00 	nop 
    1e74:	01 00 00 00 	nop 
    1e78:	01 00 00 00 	nop 
    1e7c:	01 00 00 00 	nop 
    1e80:	01 00 00 00 	nop 
    1e84:	01 00 00 00 	nop 
    1e88:	01 00 00 00 	nop 
    1e8c:	01 00 00 00 	nop 
    1e90:	01 00 00 00 	nop 
    1e94:	01 00 00 00 	nop 
    1e98:	01 00 00 00 	nop 
    1e9c:	01 00 00 00 	nop 
    1ea0:	01 00 00 00 	nop 
    1ea4:	01 00 00 00 	nop 
    1ea8:	01 00 00 00 	nop 
    1eac:	01 00 00 00 	nop 
    1eb0:	01 00 00 00 	nop 
    1eb4:	01 00 00 00 	nop 
    1eb8:	01 00 00 00 	nop 
    1ebc:	01 00 00 00 	nop 
    1ec0:	01 00 00 00 	nop 
    1ec4:	01 00 00 00 	nop 
    1ec8:	01 00 00 00 	nop 
    1ecc:	01 00 00 00 	nop 
    1ed0:	01 00 00 00 	nop 
    1ed4:	01 00 00 00 	nop 
    1ed8:	01 00 00 00 	nop 
    1edc:	01 00 00 00 	nop 
    1ee0:	01 00 00 00 	nop 
    1ee4:	01 00 00 00 	nop 
    1ee8:	01 00 00 00 	nop 
    1eec:	01 00 00 00 	nop 
    1ef0:	01 00 00 00 	nop 
    1ef4:	01 00 00 00 	nop 
    1ef8:	01 00 00 00 	nop 
    1efc:	01 00 00 00 	nop 
    1f00:	01 00 00 00 	nop 
    1f04:	01 00 00 00 	nop 
    1f08:	01 00 00 00 	nop 
    1f0c:	01 00 00 00 	nop 
    1f10:	01 00 00 00 	nop 
    1f14:	01 00 00 00 	nop 
    1f18:	01 00 00 00 	nop 
    1f1c:	01 00 00 00 	nop 
    1f20:	01 00 00 00 	nop 
    1f24:	01 00 00 00 	nop 
    1f28:	01 00 00 00 	nop 
    1f2c:	01 00 00 00 	nop 
    1f30:	01 00 00 00 	nop 
    1f34:	01 00 00 00 	nop 
    1f38:	01 00 00 00 	nop 
    1f3c:	01 00 00 00 	nop 
    1f40:	01 00 00 00 	nop 
    1f44:	01 00 00 00 	nop 
    1f48:	01 00 00 00 	nop 
    1f4c:	01 00 00 00 	nop 
    1f50:	01 00 00 00 	nop 
    1f54:	01 00 00 00 	nop 
    1f58:	01 00 00 00 	nop 
    1f5c:	01 00 00 00 	nop 
    1f60:	01 00 00 00 	nop 
    1f64:	01 00 00 00 	nop 
    1f68:	01 00 00 00 	nop 
    1f6c:	01 00 00 00 	nop 
    1f70:	01 00 00 00 	nop 
    1f74:	01 00 00 00 	nop 
    1f78:	01 00 00 00 	nop 
    1f7c:	01 00 00 00 	nop 
    1f80:	01 00 00 00 	nop 
    1f84:	01 00 00 00 	nop 
    1f88:	01 00 00 00 	nop 
    1f8c:	01 00 00 00 	nop 
    1f90:	01 00 00 00 	nop 
    1f94:	01 00 00 00 	nop 
    1f98:	01 00 00 00 	nop 
    1f9c:	01 00 00 00 	nop 
    1fa0:	01 00 00 00 	nop 
    1fa4:	01 00 00 00 	nop 
    1fa8:	01 00 00 00 	nop 
    1fac:	01 00 00 00 	nop 
    1fb0:	01 00 00 00 	nop 
    1fb4:	01 00 00 00 	nop 
    1fb8:	01 00 00 00 	nop 
    1fbc:	01 00 00 00 	nop 
    1fc0:	01 00 00 00 	nop 
    1fc4:	01 00 00 00 	nop 
    1fc8:	01 00 00 00 	nop 
    1fcc:	01 00 00 00 	nop 
    1fd0:	01 00 00 00 	nop 
    1fd4:	01 00 00 00 	nop 
    1fd8:	01 00 00 00 	nop 
    1fdc:	01 00 00 00 	nop 
    1fe0:	01 00 00 00 	nop 
    1fe4:	01 00 00 00 	nop 
    1fe8:	01 00 00 00 	nop 
    1fec:	01 00 00 00 	nop 
    1ff0:	01 00 00 00 	nop 
    1ff4:	01 00 00 00 	nop 
    1ff8:	01 00 00 00 	nop 
    1ffc:	01 00 00 00 	nop 

00002000 <trap_table_base>:
    2000:	91 d0 20 00 	ta  0
    2004:	01 00 00 00 	nop 
    2008:	01 00 00 00 	nop 
    200c:	01 00 00 00 	nop 

00002010 <HW_trap_0x01>:
    2010:	91 d0 20 00 	ta  0
    2014:	01 00 00 00 	nop 
    2018:	01 00 00 00 	nop 
    201c:	01 00 00 00 	nop 

00002020 <HW_trap_0x02>:
    2020:	91 d0 20 00 	ta  0
    2024:	01 00 00 00 	nop 
    2028:	01 00 00 00 	nop 
    202c:	01 00 00 00 	nop 

00002030 <HW_trap_0x03>:
    2030:	91 d0 20 00 	ta  0
    2034:	01 00 00 00 	nop 
    2038:	01 00 00 00 	nop 
    203c:	01 00 00 00 	nop 

00002040 <HW_trap_0x04>:
    2040:	91 d0 20 00 	ta  0
    2044:	01 00 00 00 	nop 
    2048:	01 00 00 00 	nop 
    204c:	01 00 00 00 	nop 

00002050 <HW_trap_0x05>:
    2050:	10 bf fb ec 	b  1000 <window_overflow_trap_handler>
    2054:	01 00 00 00 	nop 
    2058:	01 00 00 00 	nop 
    205c:	01 00 00 00 	nop 

00002060 <HW_trap_0x06>:
    2060:	10 bf fc 01 	b  1064 <window_underflow_trap_handler>
    2064:	01 00 00 00 	nop 
    2068:	01 00 00 00 	nop 
    206c:	01 00 00 00 	nop 

00002070 <HW_trap_0x07>:
    2070:	91 d0 20 00 	ta  0
    2074:	01 00 00 00 	nop 
    2078:	01 00 00 00 	nop 
    207c:	01 00 00 00 	nop 

00002080 <HW_trap_0x08>:
    2080:	91 d0 20 00 	ta  0
    2084:	01 00 00 00 	nop 
    2088:	01 00 00 00 	nop 
    208c:	01 00 00 00 	nop 

00002090 <HW_trap_0x09>:
    2090:	91 d0 20 00 	ta  0
    2094:	01 00 00 00 	nop 
    2098:	01 00 00 00 	nop 
    209c:	01 00 00 00 	nop 

000020a0 <HW_trap_0x0a>:
    20a0:	91 d0 20 00 	ta  0
    20a4:	01 00 00 00 	nop 
    20a8:	01 00 00 00 	nop 
    20ac:	01 00 00 00 	nop 

000020b0 <HW_trap_0x0b>:
    20b0:	91 d0 20 00 	ta  0
    20b4:	01 00 00 00 	nop 
    20b8:	01 00 00 00 	nop 
    20bc:	01 00 00 00 	nop 

000020c0 <HW_trap_0x0c>:
    20c0:	91 d0 20 00 	ta  0
    20c4:	01 00 00 00 	nop 
    20c8:	01 00 00 00 	nop 
    20cc:	01 00 00 00 	nop 

000020d0 <HW_trap_0x0d>:
    20d0:	91 d0 20 00 	ta  0
    20d4:	01 00 00 00 	nop 
    20d8:	01 00 00 00 	nop 
    20dc:	01 00 00 00 	nop 

000020e0 <HW_trap_0x0e>:
    20e0:	91 d0 20 00 	ta  0
    20e4:	01 00 00 00 	nop 
    20e8:	01 00 00 00 	nop 
    20ec:	01 00 00 00 	nop 

000020f0 <HW_trap_0x0f>:
    20f0:	91 d0 20 00 	ta  0
    20f4:	01 00 00 00 	nop 
    20f8:	01 00 00 00 	nop 
    20fc:	01 00 00 00 	nop 

00002100 <HW_trap_0x10>:
    2100:	91 d0 20 00 	ta  0
    2104:	01 00 00 00 	nop 
    2108:	01 00 00 00 	nop 
    210c:	01 00 00 00 	nop 

00002110 <HW_trap_0x11>:
    2110:	91 d0 20 00 	ta  0
    2114:	01 00 00 00 	nop 
    2118:	01 00 00 00 	nop 
    211c:	01 00 00 00 	nop 

00002120 <HW_trap_0x12>:
    2120:	91 d0 20 00 	ta  0
    2124:	01 00 00 00 	nop 
    2128:	01 00 00 00 	nop 
    212c:	01 00 00 00 	nop 

00002130 <HW_trap_0x13>:
    2130:	91 d0 20 00 	ta  0
    2134:	01 00 00 00 	nop 
    2138:	01 00 00 00 	nop 
    213c:	01 00 00 00 	nop 

00002140 <HW_trap_0x14>:
    2140:	91 d0 20 00 	ta  0
    2144:	01 00 00 00 	nop 
    2148:	01 00 00 00 	nop 
    214c:	01 00 00 00 	nop 

00002150 <HW_trap_0x15>:
    2150:	91 d0 20 00 	ta  0
    2154:	01 00 00 00 	nop 
    2158:	01 00 00 00 	nop 
    215c:	01 00 00 00 	nop 

00002160 <HW_trap_0x16>:
    2160:	91 d0 20 00 	ta  0
    2164:	01 00 00 00 	nop 
    2168:	01 00 00 00 	nop 
    216c:	01 00 00 00 	nop 

00002170 <HW_trap_0x17>:
    2170:	91 d0 20 00 	ta  0
    2174:	01 00 00 00 	nop 
    2178:	01 00 00 00 	nop 
    217c:	01 00 00 00 	nop 

00002180 <HW_trap_0x18>:
    2180:	91 d0 20 00 	ta  0
    2184:	01 00 00 00 	nop 
    2188:	01 00 00 00 	nop 
    218c:	01 00 00 00 	nop 

00002190 <HW_trap_0x19>:
    2190:	91 d0 20 00 	ta  0
    2194:	01 00 00 00 	nop 
    2198:	01 00 00 00 	nop 
    219c:	01 00 00 00 	nop 

000021a0 <HW_trap_0x1a>:
    21a0:	91 d0 20 00 	ta  0
    21a4:	01 00 00 00 	nop 
    21a8:	01 00 00 00 	nop 
    21ac:	01 00 00 00 	nop 

000021b0 <HW_trap_0x1b>:
    21b0:	91 d0 20 00 	ta  0
    21b4:	01 00 00 00 	nop 
    21b8:	01 00 00 00 	nop 
    21bc:	01 00 00 00 	nop 

000021c0 <HW_trap_0x1c>:
    21c0:	91 d0 20 00 	ta  0
    21c4:	01 00 00 00 	nop 
    21c8:	01 00 00 00 	nop 
    21cc:	01 00 00 00 	nop 

000021d0 <HW_trap_0x1d>:
    21d0:	91 d0 20 00 	ta  0
    21d4:	01 00 00 00 	nop 
    21d8:	01 00 00 00 	nop 
    21dc:	01 00 00 00 	nop 

000021e0 <HW_trap_0x1e>:
    21e0:	91 d0 20 00 	ta  0
    21e4:	01 00 00 00 	nop 
    21e8:	01 00 00 00 	nop 
    21ec:	01 00 00 00 	nop 

000021f0 <HW_trap_0x1f>:
    21f0:	91 d0 20 00 	ta  0
    21f4:	01 00 00 00 	nop 
    21f8:	01 00 00 00 	nop 
    21fc:	01 00 00 00 	nop 

00002200 <HW_trap_0x20>:
    2200:	91 d0 20 00 	ta  0
    2204:	01 00 00 00 	nop 
    2208:	01 00 00 00 	nop 
    220c:	01 00 00 00 	nop 

00002210 <HW_trap_0x21>:
    2210:	91 d0 20 00 	ta  0
    2214:	01 00 00 00 	nop 
    2218:	01 00 00 00 	nop 
    221c:	01 00 00 00 	nop 

00002220 <HW_trap_0x22>:
    2220:	91 d0 20 00 	ta  0
    2224:	01 00 00 00 	nop 
    2228:	01 00 00 00 	nop 
    222c:	01 00 00 00 	nop 

00002230 <HW_trap_0x23>:
    2230:	91 d0 20 00 	ta  0
    2234:	01 00 00 00 	nop 
    2238:	01 00 00 00 	nop 
    223c:	01 00 00 00 	nop 

00002240 <HW_trap_0x24>:
    2240:	91 d0 20 00 	ta  0
    2244:	01 00 00 00 	nop 
    2248:	01 00 00 00 	nop 
    224c:	01 00 00 00 	nop 

00002250 <HW_trap_0x25>:
    2250:	91 d0 20 00 	ta  0
    2254:	01 00 00 00 	nop 
    2258:	01 00 00 00 	nop 
    225c:	01 00 00 00 	nop 

00002260 <HW_trap_0x26>:
    2260:	91 d0 20 00 	ta  0
    2264:	01 00 00 00 	nop 
    2268:	01 00 00 00 	nop 
    226c:	01 00 00 00 	nop 

00002270 <HW_trap_0x27>:
    2270:	91 d0 20 00 	ta  0
    2274:	01 00 00 00 	nop 
    2278:	01 00 00 00 	nop 
    227c:	01 00 00 00 	nop 

00002280 <HW_trap_0x28>:
    2280:	91 d0 20 00 	ta  0
    2284:	01 00 00 00 	nop 
    2288:	01 00 00 00 	nop 
    228c:	01 00 00 00 	nop 

00002290 <HW_trap_0x29>:
    2290:	91 d0 20 00 	ta  0
    2294:	01 00 00 00 	nop 
    2298:	01 00 00 00 	nop 
    229c:	01 00 00 00 	nop 

000022a0 <HW_trap_0x2a>:
    22a0:	91 d0 20 00 	ta  0
    22a4:	01 00 00 00 	nop 
    22a8:	01 00 00 00 	nop 
    22ac:	01 00 00 00 	nop 

000022b0 <HW_trap_0x2b>:
    22b0:	91 d0 20 00 	ta  0
    22b4:	01 00 00 00 	nop 
    22b8:	01 00 00 00 	nop 
    22bc:	01 00 00 00 	nop 

000022c0 <HW_trap_0x2c>:
    22c0:	91 d0 20 00 	ta  0
    22c4:	01 00 00 00 	nop 
    22c8:	01 00 00 00 	nop 
    22cc:	01 00 00 00 	nop 

000022d0 <HW_trap_0x2d>:
    22d0:	91 d0 20 00 	ta  0
    22d4:	01 00 00 00 	nop 
    22d8:	01 00 00 00 	nop 
    22dc:	01 00 00 00 	nop 

000022e0 <HW_trap_0x2e>:
    22e0:	91 d0 20 00 	ta  0
    22e4:	01 00 00 00 	nop 
    22e8:	01 00 00 00 	nop 
    22ec:	01 00 00 00 	nop 

000022f0 <HW_trap_0x2f>:
    22f0:	91 d0 20 00 	ta  0
    22f4:	01 00 00 00 	nop 
    22f8:	01 00 00 00 	nop 
    22fc:	01 00 00 00 	nop 

00002300 <HW_trap_0x30>:
    2300:	91 d0 20 00 	ta  0
    2304:	01 00 00 00 	nop 
    2308:	01 00 00 00 	nop 
    230c:	01 00 00 00 	nop 

00002310 <HW_trap_0x31>:
    2310:	91 d0 20 00 	ta  0
    2314:	01 00 00 00 	nop 
    2318:	01 00 00 00 	nop 
    231c:	01 00 00 00 	nop 

00002320 <HW_trap_0x32>:
    2320:	91 d0 20 00 	ta  0
    2324:	01 00 00 00 	nop 
    2328:	01 00 00 00 	nop 
    232c:	01 00 00 00 	nop 

00002330 <HW_trap_0x33>:
    2330:	91 d0 20 00 	ta  0
    2334:	01 00 00 00 	nop 
    2338:	01 00 00 00 	nop 
    233c:	01 00 00 00 	nop 

00002340 <HW_trap_0x34>:
    2340:	91 d0 20 00 	ta  0
    2344:	01 00 00 00 	nop 
    2348:	01 00 00 00 	nop 
    234c:	01 00 00 00 	nop 

00002350 <HW_trap_0x35>:
    2350:	91 d0 20 00 	ta  0
    2354:	01 00 00 00 	nop 
    2358:	01 00 00 00 	nop 
    235c:	01 00 00 00 	nop 

00002360 <HW_trap_0x36>:
    2360:	91 d0 20 00 	ta  0
    2364:	01 00 00 00 	nop 
    2368:	01 00 00 00 	nop 
    236c:	01 00 00 00 	nop 

00002370 <HW_trap_0x37>:
    2370:	91 d0 20 00 	ta  0
    2374:	01 00 00 00 	nop 
    2378:	01 00 00 00 	nop 
    237c:	01 00 00 00 	nop 

00002380 <HW_trap_0x38>:
    2380:	91 d0 20 00 	ta  0
    2384:	01 00 00 00 	nop 
    2388:	01 00 00 00 	nop 
    238c:	01 00 00 00 	nop 

00002390 <HW_trap_0x39>:
    2390:	91 d0 20 00 	ta  0
    2394:	01 00 00 00 	nop 
    2398:	01 00 00 00 	nop 
    239c:	01 00 00 00 	nop 

000023a0 <HW_trap_0x3a>:
    23a0:	91 d0 20 00 	ta  0
    23a4:	01 00 00 00 	nop 
    23a8:	01 00 00 00 	nop 
    23ac:	01 00 00 00 	nop 

000023b0 <HW_trap_0x3b>:
    23b0:	91 d0 20 00 	ta  0
    23b4:	01 00 00 00 	nop 
    23b8:	01 00 00 00 	nop 
    23bc:	01 00 00 00 	nop 

000023c0 <HW_trap_0x3c>:
    23c0:	91 d0 20 00 	ta  0
    23c4:	01 00 00 00 	nop 
    23c8:	01 00 00 00 	nop 
    23cc:	01 00 00 00 	nop 

000023d0 <HW_trap_0x3d>:
    23d0:	91 d0 20 00 	ta  0
    23d4:	01 00 00 00 	nop 
    23d8:	01 00 00 00 	nop 
    23dc:	01 00 00 00 	nop 

000023e0 <HW_trap_0x3e>:
    23e0:	91 d0 20 00 	ta  0
    23e4:	01 00 00 00 	nop 
    23e8:	01 00 00 00 	nop 
    23ec:	01 00 00 00 	nop 

000023f0 <HW_trap_0x3f>:
    23f0:	91 d0 20 00 	ta  0
    23f4:	01 00 00 00 	nop 
    23f8:	01 00 00 00 	nop 
    23fc:	01 00 00 00 	nop 

00002400 <HW_trap_0x40>:
    2400:	91 d0 20 00 	ta  0
    2404:	01 00 00 00 	nop 
    2408:	01 00 00 00 	nop 
    240c:	01 00 00 00 	nop 

00002410 <HW_trap_0x41>:
    2410:	91 d0 20 00 	ta  0
    2414:	01 00 00 00 	nop 
    2418:	01 00 00 00 	nop 
    241c:	01 00 00 00 	nop 

00002420 <HW_trap_0x42>:
    2420:	91 d0 20 00 	ta  0
    2424:	01 00 00 00 	nop 
    2428:	01 00 00 00 	nop 
    242c:	01 00 00 00 	nop 

00002430 <HW_trap_0x43>:
    2430:	91 d0 20 00 	ta  0
    2434:	01 00 00 00 	nop 
    2438:	01 00 00 00 	nop 
    243c:	01 00 00 00 	nop 

00002440 <HW_trap_0x44>:
    2440:	91 d0 20 00 	ta  0
    2444:	01 00 00 00 	nop 
    2448:	01 00 00 00 	nop 
    244c:	01 00 00 00 	nop 

00002450 <HW_trap_0x45>:
    2450:	91 d0 20 00 	ta  0
    2454:	01 00 00 00 	nop 
    2458:	01 00 00 00 	nop 
    245c:	01 00 00 00 	nop 

00002460 <HW_trap_0x46>:
    2460:	91 d0 20 00 	ta  0
    2464:	01 00 00 00 	nop 
    2468:	01 00 00 00 	nop 
    246c:	01 00 00 00 	nop 

00002470 <HW_trap_0x47>:
    2470:	91 d0 20 00 	ta  0
    2474:	01 00 00 00 	nop 
    2478:	01 00 00 00 	nop 
    247c:	01 00 00 00 	nop 

00002480 <HW_trap_0x48>:
    2480:	91 d0 20 00 	ta  0
    2484:	01 00 00 00 	nop 
    2488:	01 00 00 00 	nop 
    248c:	01 00 00 00 	nop 

00002490 <HW_trap_0x49>:
    2490:	91 d0 20 00 	ta  0
    2494:	01 00 00 00 	nop 
    2498:	01 00 00 00 	nop 
    249c:	01 00 00 00 	nop 

000024a0 <HW_trap_0x4a>:
    24a0:	91 d0 20 00 	ta  0
    24a4:	01 00 00 00 	nop 
    24a8:	01 00 00 00 	nop 
    24ac:	01 00 00 00 	nop 

000024b0 <HW_trap_0x4b>:
    24b0:	91 d0 20 00 	ta  0
    24b4:	01 00 00 00 	nop 
    24b8:	01 00 00 00 	nop 
    24bc:	01 00 00 00 	nop 

000024c0 <HW_trap_0x4c>:
    24c0:	91 d0 20 00 	ta  0
    24c4:	01 00 00 00 	nop 
    24c8:	01 00 00 00 	nop 
    24cc:	01 00 00 00 	nop 

000024d0 <HW_trap_0x4d>:
    24d0:	91 d0 20 00 	ta  0
    24d4:	01 00 00 00 	nop 
    24d8:	01 00 00 00 	nop 
    24dc:	01 00 00 00 	nop 

000024e0 <HW_trap_0x4e>:
    24e0:	91 d0 20 00 	ta  0
    24e4:	01 00 00 00 	nop 
    24e8:	01 00 00 00 	nop 
    24ec:	01 00 00 00 	nop 

000024f0 <HW_trap_0x4f>:
    24f0:	91 d0 20 00 	ta  0
    24f4:	01 00 00 00 	nop 
    24f8:	01 00 00 00 	nop 
    24fc:	01 00 00 00 	nop 

00002500 <HW_trap_0x50>:
    2500:	91 d0 20 00 	ta  0
    2504:	01 00 00 00 	nop 
    2508:	01 00 00 00 	nop 
    250c:	01 00 00 00 	nop 

00002510 <HW_trap_0x51>:
    2510:	91 d0 20 00 	ta  0
    2514:	01 00 00 00 	nop 
    2518:	01 00 00 00 	nop 
    251c:	01 00 00 00 	nop 

00002520 <HW_trap_0x52>:
    2520:	91 d0 20 00 	ta  0
    2524:	01 00 00 00 	nop 
    2528:	01 00 00 00 	nop 
    252c:	01 00 00 00 	nop 

00002530 <HW_trap_0x53>:
    2530:	91 d0 20 00 	ta  0
    2534:	01 00 00 00 	nop 
    2538:	01 00 00 00 	nop 
    253c:	01 00 00 00 	nop 

00002540 <HW_trap_0x54>:
    2540:	91 d0 20 00 	ta  0
    2544:	01 00 00 00 	nop 
    2548:	01 00 00 00 	nop 
    254c:	01 00 00 00 	nop 

00002550 <HW_trap_0x55>:
    2550:	91 d0 20 00 	ta  0
    2554:	01 00 00 00 	nop 
    2558:	01 00 00 00 	nop 
    255c:	01 00 00 00 	nop 

00002560 <HW_trap_0x56>:
    2560:	91 d0 20 00 	ta  0
    2564:	01 00 00 00 	nop 
    2568:	01 00 00 00 	nop 
    256c:	01 00 00 00 	nop 

00002570 <HW_trap_0x57>:
    2570:	91 d0 20 00 	ta  0
    2574:	01 00 00 00 	nop 
    2578:	01 00 00 00 	nop 
    257c:	01 00 00 00 	nop 

00002580 <HW_trap_0x58>:
    2580:	91 d0 20 00 	ta  0
    2584:	01 00 00 00 	nop 
    2588:	01 00 00 00 	nop 
    258c:	01 00 00 00 	nop 

00002590 <HW_trap_0x59>:
    2590:	91 d0 20 00 	ta  0
    2594:	01 00 00 00 	nop 
    2598:	01 00 00 00 	nop 
    259c:	01 00 00 00 	nop 

000025a0 <HW_trap_0x5a>:
    25a0:	91 d0 20 00 	ta  0
    25a4:	01 00 00 00 	nop 
    25a8:	01 00 00 00 	nop 
    25ac:	01 00 00 00 	nop 

000025b0 <HW_trap_0x5b>:
    25b0:	91 d0 20 00 	ta  0
    25b4:	01 00 00 00 	nop 
    25b8:	01 00 00 00 	nop 
    25bc:	01 00 00 00 	nop 

000025c0 <HW_trap_0x5c>:
    25c0:	91 d0 20 00 	ta  0
    25c4:	01 00 00 00 	nop 
    25c8:	01 00 00 00 	nop 
    25cc:	01 00 00 00 	nop 

000025d0 <HW_trap_0x5d>:
    25d0:	91 d0 20 00 	ta  0
    25d4:	01 00 00 00 	nop 
    25d8:	01 00 00 00 	nop 
    25dc:	01 00 00 00 	nop 

000025e0 <HW_trap_0x5e>:
    25e0:	91 d0 20 00 	ta  0
    25e4:	01 00 00 00 	nop 
    25e8:	01 00 00 00 	nop 
    25ec:	01 00 00 00 	nop 

000025f0 <HW_trap_0x5f>:
    25f0:	91 d0 20 00 	ta  0
    25f4:	01 00 00 00 	nop 
    25f8:	01 00 00 00 	nop 
    25fc:	01 00 00 00 	nop 

00002600 <HW_trap_0x60>:
    2600:	91 d0 20 00 	ta  0
    2604:	01 00 00 00 	nop 
    2608:	01 00 00 00 	nop 
    260c:	01 00 00 00 	nop 

00002610 <HW_trap_0x61>:
    2610:	91 d0 20 00 	ta  0
    2614:	01 00 00 00 	nop 
    2618:	01 00 00 00 	nop 
    261c:	01 00 00 00 	nop 

00002620 <HW_trap_0x62>:
    2620:	91 d0 20 00 	ta  0
    2624:	01 00 00 00 	nop 
    2628:	01 00 00 00 	nop 
    262c:	01 00 00 00 	nop 

00002630 <HW_trap_0x63>:
    2630:	91 d0 20 00 	ta  0
    2634:	01 00 00 00 	nop 
    2638:	01 00 00 00 	nop 
    263c:	01 00 00 00 	nop 

00002640 <HW_trap_0x64>:
    2640:	91 d0 20 00 	ta  0
    2644:	01 00 00 00 	nop 
    2648:	01 00 00 00 	nop 
    264c:	01 00 00 00 	nop 

00002650 <HW_trap_0x65>:
    2650:	91 d0 20 00 	ta  0
    2654:	01 00 00 00 	nop 
    2658:	01 00 00 00 	nop 
    265c:	01 00 00 00 	nop 

00002660 <HW_trap_0x66>:
    2660:	91 d0 20 00 	ta  0
    2664:	01 00 00 00 	nop 
    2668:	01 00 00 00 	nop 
    266c:	01 00 00 00 	nop 

00002670 <HW_trap_0x67>:
    2670:	91 d0 20 00 	ta  0
    2674:	01 00 00 00 	nop 
    2678:	01 00 00 00 	nop 
    267c:	01 00 00 00 	nop 

00002680 <HW_trap_0x68>:
    2680:	91 d0 20 00 	ta  0
    2684:	01 00 00 00 	nop 
    2688:	01 00 00 00 	nop 
    268c:	01 00 00 00 	nop 

00002690 <HW_trap_0x69>:
    2690:	91 d0 20 00 	ta  0
    2694:	01 00 00 00 	nop 
    2698:	01 00 00 00 	nop 
    269c:	01 00 00 00 	nop 

000026a0 <HW_trap_0x6a>:
    26a0:	91 d0 20 00 	ta  0
    26a4:	01 00 00 00 	nop 
    26a8:	01 00 00 00 	nop 
    26ac:	01 00 00 00 	nop 

000026b0 <HW_trap_0x6b>:
    26b0:	91 d0 20 00 	ta  0
    26b4:	01 00 00 00 	nop 
    26b8:	01 00 00 00 	nop 
    26bc:	01 00 00 00 	nop 

000026c0 <HW_trap_0x6c>:
    26c0:	91 d0 20 00 	ta  0
    26c4:	01 00 00 00 	nop 
    26c8:	01 00 00 00 	nop 
    26cc:	01 00 00 00 	nop 

000026d0 <HW_trap_0x6d>:
    26d0:	91 d0 20 00 	ta  0
    26d4:	01 00 00 00 	nop 
    26d8:	01 00 00 00 	nop 
    26dc:	01 00 00 00 	nop 

000026e0 <HW_trap_0x6e>:
    26e0:	91 d0 20 00 	ta  0
    26e4:	01 00 00 00 	nop 
    26e8:	01 00 00 00 	nop 
    26ec:	01 00 00 00 	nop 

000026f0 <HW_trap_0x6f>:
    26f0:	91 d0 20 00 	ta  0
    26f4:	01 00 00 00 	nop 
    26f8:	01 00 00 00 	nop 
    26fc:	01 00 00 00 	nop 

00002700 <HW_trap_0x70>:
    2700:	91 d0 20 00 	ta  0
    2704:	01 00 00 00 	nop 
    2708:	01 00 00 00 	nop 
    270c:	01 00 00 00 	nop 

00002710 <HW_trap_0x71>:
    2710:	91 d0 20 00 	ta  0
    2714:	01 00 00 00 	nop 
    2718:	01 00 00 00 	nop 
    271c:	01 00 00 00 	nop 

00002720 <HW_trap_0x72>:
    2720:	91 d0 20 00 	ta  0
    2724:	01 00 00 00 	nop 
    2728:	01 00 00 00 	nop 
    272c:	01 00 00 00 	nop 

00002730 <HW_trap_0x73>:
    2730:	91 d0 20 00 	ta  0
    2734:	01 00 00 00 	nop 
    2738:	01 00 00 00 	nop 
    273c:	01 00 00 00 	nop 

00002740 <HW_trap_0x74>:
    2740:	91 d0 20 00 	ta  0
    2744:	01 00 00 00 	nop 
    2748:	01 00 00 00 	nop 
    274c:	01 00 00 00 	nop 

00002750 <HW_trap_0x75>:
    2750:	91 d0 20 00 	ta  0
    2754:	01 00 00 00 	nop 
    2758:	01 00 00 00 	nop 
    275c:	01 00 00 00 	nop 

00002760 <HW_trap_0x76>:
    2760:	91 d0 20 00 	ta  0
    2764:	01 00 00 00 	nop 
    2768:	01 00 00 00 	nop 
    276c:	01 00 00 00 	nop 

00002770 <HW_trap_0x77>:
    2770:	91 d0 20 00 	ta  0
    2774:	01 00 00 00 	nop 
    2778:	01 00 00 00 	nop 
    277c:	01 00 00 00 	nop 

00002780 <HW_trap_0x78>:
    2780:	91 d0 20 00 	ta  0
    2784:	01 00 00 00 	nop 
    2788:	01 00 00 00 	nop 
    278c:	01 00 00 00 	nop 

00002790 <HW_trap_0x79>:
    2790:	91 d0 20 00 	ta  0
    2794:	01 00 00 00 	nop 
    2798:	01 00 00 00 	nop 
    279c:	01 00 00 00 	nop 

000027a0 <HW_trap_0x7a>:
    27a0:	91 d0 20 00 	ta  0
    27a4:	01 00 00 00 	nop 
    27a8:	01 00 00 00 	nop 
    27ac:	01 00 00 00 	nop 

000027b0 <HW_trap_0x7b>:
    27b0:	91 d0 20 00 	ta  0
    27b4:	01 00 00 00 	nop 
    27b8:	01 00 00 00 	nop 
    27bc:	01 00 00 00 	nop 

000027c0 <HW_trap_0x7c>:
    27c0:	91 d0 20 00 	ta  0
    27c4:	01 00 00 00 	nop 
    27c8:	01 00 00 00 	nop 
    27cc:	01 00 00 00 	nop 

000027d0 <HW_trap_0x7d>:
    27d0:	91 d0 20 00 	ta  0
    27d4:	01 00 00 00 	nop 
    27d8:	01 00 00 00 	nop 
    27dc:	01 00 00 00 	nop 

000027e0 <HW_trap_0x7e>:
    27e0:	91 d0 20 00 	ta  0
    27e4:	01 00 00 00 	nop 
    27e8:	01 00 00 00 	nop 
    27ec:	01 00 00 00 	nop 

000027f0 <HW_trap_0x7f>:
    27f0:	91 d0 20 00 	ta  0
    27f4:	01 00 00 00 	nop 
    27f8:	01 00 00 00 	nop 
    27fc:	01 00 00 00 	nop 

00002800 <SW_trap_0x80>:
    2800:	91 d0 20 00 	ta  0
    2804:	01 00 00 00 	nop 
    2808:	01 00 00 00 	nop 
    280c:	01 00 00 00 	nop 

00002810 <SW_trap_0x81>:
    2810:	91 d0 20 00 	ta  0
    2814:	01 00 00 00 	nop 
    2818:	01 00 00 00 	nop 
    281c:	01 00 00 00 	nop 

00002820 <SW_trap_0x82>:
    2820:	91 d0 20 00 	ta  0
    2824:	01 00 00 00 	nop 
    2828:	01 00 00 00 	nop 
    282c:	01 00 00 00 	nop 

00002830 <SW_trap_0x83>:
    2830:	91 d0 20 00 	ta  0
    2834:	01 00 00 00 	nop 
    2838:	01 00 00 00 	nop 
    283c:	01 00 00 00 	nop 

00002840 <SW_trap_0x84>:
    2840:	91 d0 20 00 	ta  0
    2844:	01 00 00 00 	nop 
    2848:	01 00 00 00 	nop 
    284c:	01 00 00 00 	nop 

00002850 <SW_trap_0x85>:
    2850:	91 d0 20 00 	ta  0
    2854:	01 00 00 00 	nop 
    2858:	01 00 00 00 	nop 
    285c:	01 00 00 00 	nop 

00002860 <SW_trap_0x86>:
    2860:	91 d0 20 00 	ta  0
    2864:	01 00 00 00 	nop 
    2868:	01 00 00 00 	nop 
    286c:	01 00 00 00 	nop 

00002870 <SW_trap_0x87>:
    2870:	91 d0 20 00 	ta  0
    2874:	01 00 00 00 	nop 
    2878:	01 00 00 00 	nop 
    287c:	01 00 00 00 	nop 

00002880 <SW_trap_0x88>:
    2880:	91 d0 20 00 	ta  0
    2884:	01 00 00 00 	nop 
    2888:	01 00 00 00 	nop 
    288c:	01 00 00 00 	nop 

00002890 <SW_trap_0x89>:
    2890:	91 d0 20 00 	ta  0
    2894:	01 00 00 00 	nop 
    2898:	01 00 00 00 	nop 
    289c:	01 00 00 00 	nop 

000028a0 <SW_trap_0x8a>:
    28a0:	91 d0 20 00 	ta  0
    28a4:	01 00 00 00 	nop 
    28a8:	01 00 00 00 	nop 
    28ac:	01 00 00 00 	nop 

000028b0 <SW_trap_0x8b>:
    28b0:	91 d0 20 00 	ta  0
    28b4:	01 00 00 00 	nop 
    28b8:	01 00 00 00 	nop 
    28bc:	01 00 00 00 	nop 

000028c0 <SW_trap_0x8c>:
    28c0:	91 d0 20 00 	ta  0
    28c4:	01 00 00 00 	nop 
    28c8:	01 00 00 00 	nop 
    28cc:	01 00 00 00 	nop 

000028d0 <SW_trap_0x8d>:
    28d0:	91 d0 20 00 	ta  0
    28d4:	01 00 00 00 	nop 
    28d8:	01 00 00 00 	nop 
    28dc:	01 00 00 00 	nop 

000028e0 <SW_trap_0x8e>:
    28e0:	91 d0 20 00 	ta  0
    28e4:	01 00 00 00 	nop 
    28e8:	01 00 00 00 	nop 
    28ec:	01 00 00 00 	nop 

000028f0 <SW_trap_0x8f>:
    28f0:	91 d0 20 00 	ta  0
    28f4:	01 00 00 00 	nop 
    28f8:	01 00 00 00 	nop 
    28fc:	01 00 00 00 	nop 

00002900 <SW_trap_0x90>:
    2900:	91 d0 20 00 	ta  0
    2904:	01 00 00 00 	nop 
    2908:	01 00 00 00 	nop 
    290c:	01 00 00 00 	nop 

00002910 <SW_trap_0x91>:
    2910:	91 d0 20 00 	ta  0
    2914:	01 00 00 00 	nop 
    2918:	01 00 00 00 	nop 
    291c:	01 00 00 00 	nop 

00002920 <SW_trap_0x92>:
    2920:	91 d0 20 00 	ta  0
    2924:	01 00 00 00 	nop 
    2928:	01 00 00 00 	nop 
    292c:	01 00 00 00 	nop 

00002930 <SW_trap_0x93>:
    2930:	91 d0 20 00 	ta  0
    2934:	01 00 00 00 	nop 
    2938:	01 00 00 00 	nop 
    293c:	01 00 00 00 	nop 

00002940 <SW_trap_0x94>:
    2940:	91 d0 20 00 	ta  0
    2944:	01 00 00 00 	nop 
    2948:	01 00 00 00 	nop 
    294c:	01 00 00 00 	nop 

00002950 <SW_trap_0x95>:
    2950:	91 d0 20 00 	ta  0
    2954:	01 00 00 00 	nop 
    2958:	01 00 00 00 	nop 
    295c:	01 00 00 00 	nop 

00002960 <SW_trap_0x96>:
    2960:	91 d0 20 00 	ta  0
    2964:	01 00 00 00 	nop 
    2968:	01 00 00 00 	nop 
    296c:	01 00 00 00 	nop 

00002970 <SW_trap_0x97>:
    2970:	91 d0 20 00 	ta  0
    2974:	01 00 00 00 	nop 
    2978:	01 00 00 00 	nop 
    297c:	01 00 00 00 	nop 

00002980 <SW_trap_0x98>:
    2980:	91 d0 20 00 	ta  0
    2984:	01 00 00 00 	nop 
    2988:	01 00 00 00 	nop 
    298c:	01 00 00 00 	nop 

00002990 <SW_trap_0x99>:
    2990:	91 d0 20 00 	ta  0
    2994:	01 00 00 00 	nop 
    2998:	01 00 00 00 	nop 
    299c:	01 00 00 00 	nop 

000029a0 <SW_trap_0x9a>:
    29a0:	91 d0 20 00 	ta  0
    29a4:	01 00 00 00 	nop 
    29a8:	01 00 00 00 	nop 
    29ac:	01 00 00 00 	nop 

000029b0 <SW_trap_0x9b>:
    29b0:	91 d0 20 00 	ta  0
    29b4:	01 00 00 00 	nop 
    29b8:	01 00 00 00 	nop 
    29bc:	01 00 00 00 	nop 

000029c0 <SW_trap_0x9c>:
    29c0:	91 d0 20 00 	ta  0
    29c4:	01 00 00 00 	nop 
    29c8:	01 00 00 00 	nop 
    29cc:	01 00 00 00 	nop 

000029d0 <SW_trap_0x9d>:
    29d0:	91 d0 20 00 	ta  0
    29d4:	01 00 00 00 	nop 
    29d8:	01 00 00 00 	nop 
    29dc:	01 00 00 00 	nop 

000029e0 <SW_trap_0x9e>:
    29e0:	91 d0 20 00 	ta  0
    29e4:	01 00 00 00 	nop 
    29e8:	01 00 00 00 	nop 
    29ec:	01 00 00 00 	nop 

000029f0 <SW_trap_0x9f>:
    29f0:	91 d0 20 00 	ta  0
    29f4:	01 00 00 00 	nop 
    29f8:	01 00 00 00 	nop 
    29fc:	01 00 00 00 	nop 

00002a00 <SW_trap_0xa0>:
    2a00:	91 d0 20 00 	ta  0
    2a04:	01 00 00 00 	nop 
    2a08:	01 00 00 00 	nop 
    2a0c:	01 00 00 00 	nop 

00002a10 <SW_trap_0xa1>:
    2a10:	91 d0 20 00 	ta  0
    2a14:	01 00 00 00 	nop 
    2a18:	01 00 00 00 	nop 
    2a1c:	01 00 00 00 	nop 

00002a20 <SW_trap_0xa2>:
    2a20:	91 d0 20 00 	ta  0
    2a24:	01 00 00 00 	nop 
    2a28:	01 00 00 00 	nop 
    2a2c:	01 00 00 00 	nop 

00002a30 <SW_trap_0xa3>:
    2a30:	91 d0 20 00 	ta  0
    2a34:	01 00 00 00 	nop 
    2a38:	01 00 00 00 	nop 
    2a3c:	01 00 00 00 	nop 

00002a40 <SW_trap_0xa4>:
    2a40:	91 d0 20 00 	ta  0
    2a44:	01 00 00 00 	nop 
    2a48:	01 00 00 00 	nop 
    2a4c:	01 00 00 00 	nop 

00002a50 <SW_trap_0xa5>:
    2a50:	91 d0 20 00 	ta  0
    2a54:	01 00 00 00 	nop 
    2a58:	01 00 00 00 	nop 
    2a5c:	01 00 00 00 	nop 

00002a60 <SW_trap_0xa6>:
    2a60:	91 d0 20 00 	ta  0
    2a64:	01 00 00 00 	nop 
    2a68:	01 00 00 00 	nop 
    2a6c:	01 00 00 00 	nop 

00002a70 <SW_trap_0xa7>:
    2a70:	91 d0 20 00 	ta  0
    2a74:	01 00 00 00 	nop 
    2a78:	01 00 00 00 	nop 
    2a7c:	01 00 00 00 	nop 

00002a80 <SW_trap_0xa8>:
    2a80:	91 d0 20 00 	ta  0
    2a84:	01 00 00 00 	nop 
    2a88:	01 00 00 00 	nop 
    2a8c:	01 00 00 00 	nop 

00002a90 <SW_trap_0xa9>:
    2a90:	91 d0 20 00 	ta  0
    2a94:	01 00 00 00 	nop 
    2a98:	01 00 00 00 	nop 
    2a9c:	01 00 00 00 	nop 

00002aa0 <SW_trap_0xaa>:
    2aa0:	91 d0 20 00 	ta  0
    2aa4:	01 00 00 00 	nop 
    2aa8:	01 00 00 00 	nop 
    2aac:	01 00 00 00 	nop 

00002ab0 <SW_trap_0xab>:
    2ab0:	91 d0 20 00 	ta  0
    2ab4:	01 00 00 00 	nop 
    2ab8:	01 00 00 00 	nop 
    2abc:	01 00 00 00 	nop 

00002ac0 <SW_trap_0xac>:
    2ac0:	91 d0 20 00 	ta  0
    2ac4:	01 00 00 00 	nop 
    2ac8:	01 00 00 00 	nop 
    2acc:	01 00 00 00 	nop 

00002ad0 <SW_trap_0xad>:
    2ad0:	91 d0 20 00 	ta  0
    2ad4:	01 00 00 00 	nop 
    2ad8:	01 00 00 00 	nop 
    2adc:	01 00 00 00 	nop 

00002ae0 <SW_trap_0xae>:
    2ae0:	91 d0 20 00 	ta  0
    2ae4:	01 00 00 00 	nop 
    2ae8:	01 00 00 00 	nop 
    2aec:	01 00 00 00 	nop 

00002af0 <SW_trap_0xaf>:
    2af0:	91 d0 20 00 	ta  0
    2af4:	01 00 00 00 	nop 
    2af8:	01 00 00 00 	nop 
    2afc:	01 00 00 00 	nop 

00002b00 <SW_trap_0xb0>:
    2b00:	91 d0 20 00 	ta  0
    2b04:	01 00 00 00 	nop 
    2b08:	01 00 00 00 	nop 
    2b0c:	01 00 00 00 	nop 

00002b10 <SW_trap_0xb1>:
    2b10:	91 d0 20 00 	ta  0
    2b14:	01 00 00 00 	nop 
    2b18:	01 00 00 00 	nop 
    2b1c:	01 00 00 00 	nop 

00002b20 <SW_trap_0xb2>:
    2b20:	91 d0 20 00 	ta  0
    2b24:	01 00 00 00 	nop 
    2b28:	01 00 00 00 	nop 
    2b2c:	01 00 00 00 	nop 

00002b30 <SW_trap_0xb3>:
    2b30:	91 d0 20 00 	ta  0
    2b34:	01 00 00 00 	nop 
    2b38:	01 00 00 00 	nop 
    2b3c:	01 00 00 00 	nop 

00002b40 <SW_trap_0xb4>:
    2b40:	91 d0 20 00 	ta  0
    2b44:	01 00 00 00 	nop 
    2b48:	01 00 00 00 	nop 
    2b4c:	01 00 00 00 	nop 

00002b50 <SW_trap_0xb5>:
    2b50:	91 d0 20 00 	ta  0
    2b54:	01 00 00 00 	nop 
    2b58:	01 00 00 00 	nop 
    2b5c:	01 00 00 00 	nop 

00002b60 <SW_trap_0xb6>:
    2b60:	91 d0 20 00 	ta  0
    2b64:	01 00 00 00 	nop 
    2b68:	01 00 00 00 	nop 
    2b6c:	01 00 00 00 	nop 

00002b70 <SW_trap_0xb7>:
    2b70:	91 d0 20 00 	ta  0
    2b74:	01 00 00 00 	nop 
    2b78:	01 00 00 00 	nop 
    2b7c:	01 00 00 00 	nop 

00002b80 <SW_trap_0xb8>:
    2b80:	91 d0 20 00 	ta  0
    2b84:	01 00 00 00 	nop 
    2b88:	01 00 00 00 	nop 
    2b8c:	01 00 00 00 	nop 

00002b90 <SW_trap_0xb9>:
    2b90:	91 d0 20 00 	ta  0
    2b94:	01 00 00 00 	nop 
    2b98:	01 00 00 00 	nop 
    2b9c:	01 00 00 00 	nop 

00002ba0 <SW_trap_0xba>:
    2ba0:	91 d0 20 00 	ta  0
    2ba4:	01 00 00 00 	nop 
    2ba8:	01 00 00 00 	nop 
    2bac:	01 00 00 00 	nop 

00002bb0 <SW_trap_0xbb>:
    2bb0:	91 d0 20 00 	ta  0
    2bb4:	01 00 00 00 	nop 
    2bb8:	01 00 00 00 	nop 
    2bbc:	01 00 00 00 	nop 

00002bc0 <SW_trap_0xbc>:
    2bc0:	91 d0 20 00 	ta  0
    2bc4:	01 00 00 00 	nop 
    2bc8:	01 00 00 00 	nop 
    2bcc:	01 00 00 00 	nop 

00002bd0 <SW_trap_0xbd>:
    2bd0:	91 d0 20 00 	ta  0
    2bd4:	01 00 00 00 	nop 
    2bd8:	01 00 00 00 	nop 
    2bdc:	01 00 00 00 	nop 

00002be0 <SW_trap_0xbe>:
    2be0:	91 d0 20 00 	ta  0
    2be4:	01 00 00 00 	nop 
    2be8:	01 00 00 00 	nop 
    2bec:	01 00 00 00 	nop 

00002bf0 <SW_trap_0xbf>:
    2bf0:	91 d0 20 00 	ta  0
    2bf4:	01 00 00 00 	nop 
    2bf8:	01 00 00 00 	nop 
    2bfc:	01 00 00 00 	nop 

00002c00 <SW_trap_0xc0>:
    2c00:	91 d0 20 00 	ta  0
    2c04:	01 00 00 00 	nop 
    2c08:	01 00 00 00 	nop 
    2c0c:	01 00 00 00 	nop 

00002c10 <SW_trap_0xc1>:
    2c10:	91 d0 20 00 	ta  0
    2c14:	01 00 00 00 	nop 
    2c18:	01 00 00 00 	nop 
    2c1c:	01 00 00 00 	nop 

00002c20 <SW_trap_0xc2>:
    2c20:	91 d0 20 00 	ta  0
    2c24:	01 00 00 00 	nop 
    2c28:	01 00 00 00 	nop 
    2c2c:	01 00 00 00 	nop 

00002c30 <SW_trap_0xc3>:
    2c30:	91 d0 20 00 	ta  0
    2c34:	01 00 00 00 	nop 
    2c38:	01 00 00 00 	nop 
    2c3c:	01 00 00 00 	nop 

00002c40 <SW_trap_0xc4>:
    2c40:	91 d0 20 00 	ta  0
    2c44:	01 00 00 00 	nop 
    2c48:	01 00 00 00 	nop 
    2c4c:	01 00 00 00 	nop 

00002c50 <SW_trap_0xc5>:
    2c50:	91 d0 20 00 	ta  0
    2c54:	01 00 00 00 	nop 
    2c58:	01 00 00 00 	nop 
    2c5c:	01 00 00 00 	nop 

00002c60 <SW_trap_0xc6>:
    2c60:	91 d0 20 00 	ta  0
    2c64:	01 00 00 00 	nop 
    2c68:	01 00 00 00 	nop 
    2c6c:	01 00 00 00 	nop 

00002c70 <SW_trap_0xc7>:
    2c70:	91 d0 20 00 	ta  0
    2c74:	01 00 00 00 	nop 
    2c78:	01 00 00 00 	nop 
    2c7c:	01 00 00 00 	nop 

00002c80 <SW_trap_0xc8>:
    2c80:	91 d0 20 00 	ta  0
    2c84:	01 00 00 00 	nop 
    2c88:	01 00 00 00 	nop 
    2c8c:	01 00 00 00 	nop 

00002c90 <SW_trap_0xc9>:
    2c90:	91 d0 20 00 	ta  0
    2c94:	01 00 00 00 	nop 
    2c98:	01 00 00 00 	nop 
    2c9c:	01 00 00 00 	nop 

00002ca0 <SW_trap_0xca>:
    2ca0:	91 d0 20 00 	ta  0
    2ca4:	01 00 00 00 	nop 
    2ca8:	01 00 00 00 	nop 
    2cac:	01 00 00 00 	nop 

00002cb0 <SW_trap_0xcb>:
    2cb0:	91 d0 20 00 	ta  0
    2cb4:	01 00 00 00 	nop 
    2cb8:	01 00 00 00 	nop 
    2cbc:	01 00 00 00 	nop 

00002cc0 <SW_trap_0xcc>:
    2cc0:	91 d0 20 00 	ta  0
    2cc4:	01 00 00 00 	nop 
    2cc8:	01 00 00 00 	nop 
    2ccc:	01 00 00 00 	nop 

00002cd0 <SW_trap_0xcd>:
    2cd0:	91 d0 20 00 	ta  0
    2cd4:	01 00 00 00 	nop 
    2cd8:	01 00 00 00 	nop 
    2cdc:	01 00 00 00 	nop 

00002ce0 <SW_trap_0xce>:
    2ce0:	91 d0 20 00 	ta  0
    2ce4:	01 00 00 00 	nop 
    2ce8:	01 00 00 00 	nop 
    2cec:	01 00 00 00 	nop 

00002cf0 <SW_trap_0xcf>:
    2cf0:	91 d0 20 00 	ta  0
    2cf4:	01 00 00 00 	nop 
    2cf8:	01 00 00 00 	nop 
    2cfc:	01 00 00 00 	nop 

00002d00 <SW_trap_0xd0>:
    2d00:	91 d0 20 00 	ta  0
    2d04:	01 00 00 00 	nop 
    2d08:	01 00 00 00 	nop 
    2d0c:	01 00 00 00 	nop 

00002d10 <SW_trap_0xd1>:
    2d10:	91 d0 20 00 	ta  0
    2d14:	01 00 00 00 	nop 
    2d18:	01 00 00 00 	nop 
    2d1c:	01 00 00 00 	nop 

00002d20 <SW_trap_0xd2>:
    2d20:	91 d0 20 00 	ta  0
    2d24:	01 00 00 00 	nop 
    2d28:	01 00 00 00 	nop 
    2d2c:	01 00 00 00 	nop 

00002d30 <SW_trap_0xd3>:
    2d30:	91 d0 20 00 	ta  0
    2d34:	01 00 00 00 	nop 
    2d38:	01 00 00 00 	nop 
    2d3c:	01 00 00 00 	nop 

00002d40 <SW_trap_0xd4>:
    2d40:	91 d0 20 00 	ta  0
    2d44:	01 00 00 00 	nop 
    2d48:	01 00 00 00 	nop 
    2d4c:	01 00 00 00 	nop 

00002d50 <SW_trap_0xd5>:
    2d50:	91 d0 20 00 	ta  0
    2d54:	01 00 00 00 	nop 
    2d58:	01 00 00 00 	nop 
    2d5c:	01 00 00 00 	nop 

00002d60 <SW_trap_0xd6>:
    2d60:	91 d0 20 00 	ta  0
    2d64:	01 00 00 00 	nop 
    2d68:	01 00 00 00 	nop 
    2d6c:	01 00 00 00 	nop 

00002d70 <SW_trap_0xd7>:
    2d70:	91 d0 20 00 	ta  0
    2d74:	01 00 00 00 	nop 
    2d78:	01 00 00 00 	nop 
    2d7c:	01 00 00 00 	nop 

00002d80 <SW_trap_0xd8>:
    2d80:	91 d0 20 00 	ta  0
    2d84:	01 00 00 00 	nop 
    2d88:	01 00 00 00 	nop 
    2d8c:	01 00 00 00 	nop 

00002d90 <SW_trap_0xd9>:
    2d90:	91 d0 20 00 	ta  0
    2d94:	01 00 00 00 	nop 
    2d98:	01 00 00 00 	nop 
    2d9c:	01 00 00 00 	nop 

00002da0 <SW_trap_0xda>:
    2da0:	91 d0 20 00 	ta  0
    2da4:	01 00 00 00 	nop 
    2da8:	01 00 00 00 	nop 
    2dac:	01 00 00 00 	nop 

00002db0 <SW_trap_0xdb>:
    2db0:	91 d0 20 00 	ta  0
    2db4:	01 00 00 00 	nop 
    2db8:	01 00 00 00 	nop 
    2dbc:	01 00 00 00 	nop 

00002dc0 <SW_trap_0xdc>:
    2dc0:	91 d0 20 00 	ta  0
    2dc4:	01 00 00 00 	nop 
    2dc8:	01 00 00 00 	nop 
    2dcc:	01 00 00 00 	nop 

00002dd0 <SW_trap_0xdd>:
    2dd0:	91 d0 20 00 	ta  0
    2dd4:	01 00 00 00 	nop 
    2dd8:	01 00 00 00 	nop 
    2ddc:	01 00 00 00 	nop 

00002de0 <SW_trap_0xde>:
    2de0:	91 d0 20 00 	ta  0
    2de4:	01 00 00 00 	nop 
    2de8:	01 00 00 00 	nop 
    2dec:	01 00 00 00 	nop 

00002df0 <SW_trap_0xdf>:
    2df0:	91 d0 20 00 	ta  0
    2df4:	01 00 00 00 	nop 
    2df8:	01 00 00 00 	nop 
    2dfc:	01 00 00 00 	nop 

00002e00 <SW_trap_0xe0>:
    2e00:	91 d0 20 00 	ta  0
    2e04:	01 00 00 00 	nop 
    2e08:	01 00 00 00 	nop 
    2e0c:	01 00 00 00 	nop 

00002e10 <SW_trap_0xe1>:
    2e10:	91 d0 20 00 	ta  0
    2e14:	01 00 00 00 	nop 
    2e18:	01 00 00 00 	nop 
    2e1c:	01 00 00 00 	nop 

00002e20 <SW_trap_0xe2>:
    2e20:	91 d0 20 00 	ta  0
    2e24:	01 00 00 00 	nop 
    2e28:	01 00 00 00 	nop 
    2e2c:	01 00 00 00 	nop 

00002e30 <SW_trap_0xe3>:
    2e30:	91 d0 20 00 	ta  0
    2e34:	01 00 00 00 	nop 
    2e38:	01 00 00 00 	nop 
    2e3c:	01 00 00 00 	nop 

00002e40 <SW_trap_0xe4>:
    2e40:	91 d0 20 00 	ta  0
    2e44:	01 00 00 00 	nop 
    2e48:	01 00 00 00 	nop 
    2e4c:	01 00 00 00 	nop 

00002e50 <SW_trap_0xe5>:
    2e50:	91 d0 20 00 	ta  0
    2e54:	01 00 00 00 	nop 
    2e58:	01 00 00 00 	nop 
    2e5c:	01 00 00 00 	nop 

00002e60 <SW_trap_0xe6>:
    2e60:	91 d0 20 00 	ta  0
    2e64:	01 00 00 00 	nop 
    2e68:	01 00 00 00 	nop 
    2e6c:	01 00 00 00 	nop 

00002e70 <SW_trap_0xe7>:
    2e70:	91 d0 20 00 	ta  0
    2e74:	01 00 00 00 	nop 
    2e78:	01 00 00 00 	nop 
    2e7c:	01 00 00 00 	nop 

00002e80 <SW_trap_0xe8>:
    2e80:	91 d0 20 00 	ta  0
    2e84:	01 00 00 00 	nop 
    2e88:	01 00 00 00 	nop 
    2e8c:	01 00 00 00 	nop 

00002e90 <SW_trap_0xe9>:
    2e90:	91 d0 20 00 	ta  0
    2e94:	01 00 00 00 	nop 
    2e98:	01 00 00 00 	nop 
    2e9c:	01 00 00 00 	nop 

00002ea0 <SW_trap_0xea>:
    2ea0:	91 d0 20 00 	ta  0
    2ea4:	01 00 00 00 	nop 
    2ea8:	01 00 00 00 	nop 
    2eac:	01 00 00 00 	nop 

00002eb0 <SW_trap_0xeb>:
    2eb0:	91 d0 20 00 	ta  0
    2eb4:	01 00 00 00 	nop 
    2eb8:	01 00 00 00 	nop 
    2ebc:	01 00 00 00 	nop 

00002ec0 <SW_trap_0xec>:
    2ec0:	91 d0 20 00 	ta  0
    2ec4:	01 00 00 00 	nop 
    2ec8:	01 00 00 00 	nop 
    2ecc:	01 00 00 00 	nop 

00002ed0 <SW_trap_0xed>:
    2ed0:	91 d0 20 00 	ta  0
    2ed4:	01 00 00 00 	nop 
    2ed8:	01 00 00 00 	nop 
    2edc:	01 00 00 00 	nop 

00002ee0 <SW_trap_0xee>:
    2ee0:	91 d0 20 00 	ta  0
    2ee4:	01 00 00 00 	nop 
    2ee8:	01 00 00 00 	nop 
    2eec:	01 00 00 00 	nop 

00002ef0 <SW_trap_0xef>:
    2ef0:	91 d0 20 00 	ta  0
    2ef4:	01 00 00 00 	nop 
    2ef8:	01 00 00 00 	nop 
    2efc:	01 00 00 00 	nop 

00002f00 <SW_trap_0xf0>:
    2f00:	91 d0 20 00 	ta  0
    2f04:	01 00 00 00 	nop 
    2f08:	01 00 00 00 	nop 
    2f0c:	01 00 00 00 	nop 

00002f10 <SW_trap_0xf1>:
    2f10:	91 d0 20 00 	ta  0
    2f14:	01 00 00 00 	nop 
    2f18:	01 00 00 00 	nop 
    2f1c:	01 00 00 00 	nop 

00002f20 <SW_trap_0xf2>:
    2f20:	91 d0 20 00 	ta  0
    2f24:	01 00 00 00 	nop 
    2f28:	01 00 00 00 	nop 
    2f2c:	01 00 00 00 	nop 

00002f30 <SW_trap_0xf3>:
    2f30:	91 d0 20 00 	ta  0
    2f34:	01 00 00 00 	nop 
    2f38:	01 00 00 00 	nop 
    2f3c:	01 00 00 00 	nop 

00002f40 <SW_trap_0xf4>:
    2f40:	91 d0 20 00 	ta  0
    2f44:	01 00 00 00 	nop 
    2f48:	01 00 00 00 	nop 
    2f4c:	01 00 00 00 	nop 

00002f50 <SW_trap_0xf5>:
    2f50:	91 d0 20 00 	ta  0
    2f54:	01 00 00 00 	nop 
    2f58:	01 00 00 00 	nop 
    2f5c:	01 00 00 00 	nop 

00002f60 <SW_trap_0xf6>:
    2f60:	91 d0 20 00 	ta  0
    2f64:	01 00 00 00 	nop 
    2f68:	01 00 00 00 	nop 
    2f6c:	01 00 00 00 	nop 

00002f70 <SW_trap_0xf7>:
    2f70:	91 d0 20 00 	ta  0
    2f74:	01 00 00 00 	nop 
    2f78:	01 00 00 00 	nop 
    2f7c:	01 00 00 00 	nop 

00002f80 <SW_trap_0xf8>:
    2f80:	91 d0 20 00 	ta  0
    2f84:	01 00 00 00 	nop 
    2f88:	01 00 00 00 	nop 
    2f8c:	01 00 00 00 	nop 

00002f90 <SW_trap_0xf9>:
    2f90:	91 d0 20 00 	ta  0
    2f94:	01 00 00 00 	nop 
    2f98:	01 00 00 00 	nop 
    2f9c:	01 00 00 00 	nop 

00002fa0 <SW_trap_0xfa>:
    2fa0:	91 d0 20 00 	ta  0
    2fa4:	01 00 00 00 	nop 
    2fa8:	01 00 00 00 	nop 
    2fac:	01 00 00 00 	nop 

00002fb0 <SW_trap_0xfb>:
    2fb0:	91 d0 20 00 	ta  0
    2fb4:	01 00 00 00 	nop 
    2fb8:	01 00 00 00 	nop 
    2fbc:	01 00 00 00 	nop 

00002fc0 <SW_trap_0xfc>:
    2fc0:	91 d0 20 00 	ta  0
    2fc4:	01 00 00 00 	nop 
    2fc8:	01 00 00 00 	nop 
    2fcc:	01 00 00 00 	nop 

00002fd0 <SW_trap_0xfd>:
    2fd0:	91 d0 20 00 	ta  0
    2fd4:	01 00 00 00 	nop 
    2fd8:	01 00 00 00 	nop 
    2fdc:	01 00 00 00 	nop 

00002fe0 <SW_trap_0xfe>:
    2fe0:	91 d0 20 00 	ta  0
    2fe4:	01 00 00 00 	nop 
    2fe8:	01 00 00 00 	nop 
    2fec:	01 00 00 00 	nop 
    2ff0:	01 00 00 00 	nop 
    2ff4:	01 00 00 00 	nop 
    2ff8:	01 00 00 00 	nop 
    2ffc:	01 00 00 00 	nop 
    3000:	00 00 31 34 	unimp  0x3134
    3004:	00 00 31 34 	unimp  0x3134
    3008:	00 00 31 4c 	unimp  0x314c
    300c:	00 00 31 4c 	unimp  0x314c
    3010:	00 00 31 64 	unimp  0x3164
    3014:	00 00 31 bc 	unimp  0x31bc
    3018:	00 00 32 10 	unimp  0x3210
    301c:	00 00 32 e4 	unimp  0x32e4
    3020:	00 00 33 0c 	unimp  0x330c
    3024:	00 00 32 b8 	unimp  0x32b8
    3028:	00 00 32 94 	unimp  0x3294
    302c:	00 00 32 70 	unimp  0x3270
    3030:	00 00 32 48 	unimp  0x3248

00003034 <core_init_state>:
    3034:	9d e3 bf a0 	save  %sp, -96, %sp
    3038:	88 10 20 00 	clr  %g4
    303c:	9e 06 3f ff 	add  %i0, -1, %o7
    3040:	86 10 20 00 	clr  %g3
    3044:	ba 10 20 00 	clr  %i5
    3048:	98 10 20 2c 	mov  0x2c, %o4
    304c:	11 00 00 81 	sethi  %hi(0x20400), %o0
    3050:	1b 00 00 0c 	sethi  %hi(0x3000), %o5
    3054:	13 00 00 81 	sethi  %hi(0x20400), %o1
    3058:	15 00 00 81 	sethi  %hi(0x20400), %o2
    305c:	17 00 00 81 	sethi  %hi(0x20400), %o3
    3060:	b6 07 40 03 	add  %i5, %g3, %i3
    3064:	b8 06 e0 01 	add  %i3, 1, %i4
    3068:	80 a3 c0 1c 	cmp  %o7, %i4
    306c:	08 80 00 24 	bleu  30fc <core_init_state+0xc8>
    3070:	82 06 80 1d 	add  %i2, %i5, %g1
    3074:	80 a0 e0 00 	cmp  %g3, 0
    3078:	22 80 00 0d 	be,a   30ac <core_init_state+0x78>
    307c:	b2 06 60 01 	inc  %i1
    3080:	82 10 20 00 	clr  %g1
    3084:	ba 06 80 1d 	add  %i2, %i5, %i5
    3088:	c4 09 00 01 	ldub  [ %g4 + %g1 ], %g2
    308c:	c4 2f 40 01 	stb  %g2, [ %i5 + %g1 ]
    3090:	82 00 60 01 	inc  %g1
    3094:	80 a0 40 03 	cmp  %g1, %g3
    3098:	32 bf ff fd 	bne,a   308c <core_init_state+0x58>
    309c:	c4 09 00 01 	ldub  [ %g4 + %g1 ], %g2
    30a0:	d8 2e 80 1b 	stb  %o4, [ %i2 + %i3 ]
    30a4:	ba 10 00 1c 	mov  %i4, %i5
    30a8:	b2 06 60 01 	inc  %i1
    30ac:	87 2e 60 10 	sll  %i1, 0x10, %g3
    30b0:	b3 38 e0 10 	sra  %g3, 0x10, %i1
    30b4:	82 0e 60 07 	and  %i1, 7, %g1
    30b8:	82 00 7f fd 	add  %g1, -3, %g1
    30bc:	83 28 60 10 	sll  %g1, 0x10, %g1
    30c0:	83 30 60 10 	srl  %g1, 0x10, %g1
    30c4:	80 a0 60 04 	cmp  %g1, 4
    30c8:	08 80 00 17 	bleu  3124 <core_init_state+0xf0>
    30cc:	88 13 60 00 	mov  %o5, %g4
    30d0:	b7 30 e0 11 	srl  %g3, 0x11, %i3
    30d4:	b8 0e e0 0c 	and  %i3, 0xc, %i4
    30d8:	82 12 22 e0 	or  %o0, 0x2e0, %g1
    30dc:	86 10 20 04 	mov  4, %g3
    30e0:	c8 00 40 1c 	ld  [ %g1 + %i4 ], %g4
    30e4:	b6 07 40 03 	add  %i5, %g3, %i3
    30e8:	b8 06 e0 01 	add  %i3, 1, %i4
    30ec:	80 a3 c0 1c 	cmp  %o7, %i4
    30f0:	18 bf ff e2 	bgu  3078 <core_init_state+0x44>
    30f4:	80 a0 e0 00 	cmp  %g3, 0
    30f8:	82 06 80 1d 	add  %i2, %i5, %g1
    30fc:	80 a6 00 1d 	cmp  %i0, %i5
    3100:	08 80 00 07 	bleu  311c <core_init_state+0xe8>
    3104:	b4 06 80 18 	add  %i2, %i0, %i2
    3108:	c0 28 40 00 	clrb  [ %g1 ]
    310c:	82 00 60 01 	inc  %g1
    3110:	80 a0 40 1a 	cmp  %g1, %i2
    3114:	32 bf ff fe 	bne,a   310c <core_init_state+0xd8>
    3118:	c0 28 40 00 	clrb  [ %g1 ]
    311c:	81 c7 e0 08 	ret 
    3120:	81 e8 00 00 	restore 
    3124:	83 28 60 02 	sll  %g1, 2, %g1
    3128:	c2 01 00 01 	ld  [ %g4 + %g1 ], %g1
    312c:	81 c0 40 00 	jmp  %g1
    3130:	01 00 00 00 	nop 
    3134:	b6 12 e2 d0 	or  %o3, 0x2d0, %i3
    3138:	83 36 60 01 	srl  %i1, 1, %g1
    313c:	86 10 20 08 	mov  8, %g3
    3140:	82 08 60 0c 	and  %g1, 0xc, %g1
    3144:	10 bf ff c7 	b  3060 <core_init_state+0x2c>
    3148:	c8 06 c0 01 	ld  [ %i3 + %g1 ], %g4
    314c:	b8 12 a2 c0 	or  %o2, 0x2c0, %i4
    3150:	83 36 60 01 	srl  %i1, 1, %g1
    3154:	86 10 20 08 	mov  8, %g3
    3158:	82 08 60 0c 	and  %g1, 0xc, %g1
    315c:	10 bf ff c1 	b  3060 <core_init_state+0x2c>
    3160:	c8 07 00 01 	ld  [ %i4 + %g1 ], %g4
    3164:	84 12 62 b0 	or  %o1, 0x2b0, %g2
    3168:	83 36 60 01 	srl  %i1, 1, %g1
    316c:	86 10 20 08 	mov  8, %g3
    3170:	82 08 60 0c 	and  %g1, 0xc, %g1
    3174:	10 bf ff bb 	b  3060 <core_init_state+0x2c>
    3178:	c8 00 80 01 	ld  [ %g2 + %g1 ], %g4

0000317c <core_state_transition>:
    317c:	da 02 00 00 	ld  [ %o0 ], %o5
    3180:	c2 0b 40 00 	ldub  [ %o5 ], %g1
    3184:	88 88 60 ff 	andcc  %g1, 0xff, %g4
    3188:	02 80 00 90 	be  33c8 <core_state_transition+0x24c>
    318c:	94 10 00 08 	mov  %o0, %o2
    3190:	80 a1 20 2c 	cmp  %g4, 0x2c
    3194:	02 80 00 8f 	be  33d0 <core_state_transition+0x254>
    3198:	84 03 60 01 	add  %o5, 1, %g2
    319c:	86 10 00 0d 	mov  %o5, %g3
    31a0:	90 10 20 00 	clr  %o0
    31a4:	17 00 00 0c 	sethi  %hi(0x3000), %o3
    31a8:	98 12 e0 14 	or  %o3, 0x14, %o4	! 3014 <SW_trap_0xfe+0x34>
    31ac:	9b 2a 20 02 	sll  %o0, 2, %o5
    31b0:	d8 03 00 0d 	ld  [ %o4 + %o5 ], %o4
    31b4:	81 c3 00 00 	jmp  %o4
    31b8:	01 00 00 00 	nop 
    31bc:	82 00 7f d0 	add  %g1, -48, %g1
    31c0:	82 08 60 ff 	and  %g1, 0xff, %g1
    31c4:	80 a0 60 09 	cmp  %g1, 9
    31c8:	08 80 00 0f 	bleu  3204 <core_state_transition+0x88>
    31cc:	90 10 20 04 	mov  4, %o0
    31d0:	80 a1 20 2d 	cmp  %g4, 0x2d
    31d4:	22 80 00 70 	be,a   3394 <core_state_transition+0x218>
    31d8:	c2 02 40 00 	ld  [ %o1 ], %g1
    31dc:	80 a1 20 2b 	cmp  %g4, 0x2b
    31e0:	22 80 00 6d 	be,a   3394 <core_state_transition+0x218>
    31e4:	c2 02 40 00 	ld  [ %o1 ], %g1
    31e8:	80 a1 20 2e 	cmp  %g4, 0x2e
    31ec:	02 80 00 06 	be  3204 <core_state_transition+0x88>
    31f0:	90 10 20 05 	mov  5, %o0
    31f4:	c2 02 60 04 	ld  [ %o1 + 4 ], %g1
    31f8:	90 10 20 01 	mov  1, %o0
    31fc:	82 00 60 01 	inc  %g1
    3200:	c2 22 60 04 	st  %g1, [ %o1 + 4 ]
    3204:	c2 02 40 00 	ld  [ %o1 ], %g1
    3208:	82 00 60 01 	inc  %g1
    320c:	c2 22 40 00 	st  %g1, [ %o1 ]
    3210:	c2 08 e0 01 	ldub  [ %g3 + 1 ], %g1
    3214:	88 88 60 ff 	andcc  %g1, 0xff, %g4
    3218:	02 80 00 0a 	be  3240 <core_state_transition+0xc4>
    321c:	9a 10 00 02 	mov  %g2, %o5
    3220:	80 a2 20 01 	cmp  %o0, 1
    3224:	22 80 00 43 	be,a   3330 <core_state_transition+0x1b4>
    3228:	90 10 20 01 	mov  1, %o0
    322c:	84 00 a0 01 	inc  %g2
    3230:	80 a1 20 2c 	cmp  %g4, 0x2c
    3234:	12 bf ff dd 	bne  31a8 <core_state_transition+0x2c>
    3238:	86 00 e0 01 	inc  %g3
    323c:	9a 03 60 01 	inc  %o5
    3240:	81 c3 e0 08 	retl 
    3244:	da 22 80 00 	st  %o5, [ %o2 ]
    3248:	82 00 7f d0 	add  %g1, -48, %g1
    324c:	82 08 60 ff 	and  %g1, 0xff, %g1
    3250:	80 a0 60 09 	cmp  %g1, 9
    3254:	38 80 00 4a 	bgu,a   337c <core_state_transition+0x200>
    3258:	c2 02 60 04 	ld  [ %o1 + 4 ], %g1
    325c:	c2 08 e0 01 	ldub  [ %g3 + 1 ], %g1
    3260:	88 88 60 ff 	andcc  %g1, 0xff, %g4
    3264:	12 bf ff f2 	bne  322c <core_state_transition+0xb0>
    3268:	9a 10 00 02 	mov  %g2, %o5
    326c:	30 bf ff f5 	b,a   3240 <core_state_transition+0xc4>
    3270:	82 00 7f d0 	add  %g1, -48, %g1
    3274:	82 08 60 ff 	and  %g1, 0xff, %g1
    3278:	80 a0 60 09 	cmp  %g1, 9
    327c:	18 80 00 43 	bgu  3388 <core_state_transition+0x20c>
    3280:	c2 02 60 18 	ld  [ %o1 + 0x18 ], %g1
    3284:	90 10 20 07 	mov  7, %o0
    3288:	82 00 60 01 	inc  %g1
    328c:	10 bf ff f4 	b  325c <core_state_transition+0xe0>
    3290:	c2 22 60 18 	st  %g1, [ %o1 + 0x18 ]
    3294:	88 08 60 df 	and  %g1, 0xdf, %g4
    3298:	80 a1 20 45 	cmp  %g4, 0x45
    329c:	12 80 00 2b 	bne  3348 <core_state_transition+0x1cc>
    32a0:	82 00 7f d0 	add  %g1, -48, %g1
    32a4:	c2 02 60 14 	ld  [ %o1 + 0x14 ], %g1
    32a8:	90 10 20 03 	mov  3, %o0
    32ac:	82 00 60 01 	inc  %g1
    32b0:	10 bf ff eb 	b  325c <core_state_transition+0xe0>
    32b4:	c2 22 60 14 	st  %g1, [ %o1 + 0x14 ]
    32b8:	80 a1 20 2e 	cmp  %g4, 0x2e
    32bc:	02 80 00 3a 	be  33a4 <core_state_transition+0x228>
    32c0:	82 00 7f d0 	add  %g1, -48, %g1
    32c4:	82 08 60 ff 	and  %g1, 0xff, %g1
    32c8:	80 a0 60 09 	cmp  %g1, 9
    32cc:	28 bf ff e5 	bleu,a   3260 <core_state_transition+0xe4>
    32d0:	c2 08 e0 01 	ldub  [ %g3 + 1 ], %g1
    32d4:	c2 02 60 10 	ld  [ %o1 + 0x10 ], %g1
    32d8:	82 00 60 01 	inc  %g1
    32dc:	10 80 00 13 	b  3328 <core_state_transition+0x1ac>
    32e0:	c2 22 60 10 	st  %g1, [ %o1 + 0x10 ]
    32e4:	82 00 7f d0 	add  %g1, -48, %g1
    32e8:	82 08 60 ff 	and  %g1, 0xff, %g1
    32ec:	80 a0 60 09 	cmp  %g1, 9
    32f0:	18 80 00 1e 	bgu  3368 <core_state_transition+0x1ec>
    32f4:	80 a1 20 2e 	cmp  %g4, 0x2e
    32f8:	c2 02 60 08 	ld  [ %o1 + 8 ], %g1
    32fc:	90 10 20 04 	mov  4, %o0
    3300:	82 00 60 01 	inc  %g1
    3304:	10 bf ff d6 	b  325c <core_state_transition+0xe0>
    3308:	c2 22 60 08 	st  %g1, [ %o1 + 8 ]
    330c:	80 a1 20 2d 	cmp  %g4, 0x2d
    3310:	02 80 00 0a 	be  3338 <core_state_transition+0x1bc>
    3314:	c2 02 60 0c 	ld  [ %o1 + 0xc ], %g1
    3318:	80 a1 20 2b 	cmp  %g4, 0x2b
    331c:	02 80 00 08 	be  333c <core_state_transition+0x1c0>
    3320:	82 00 60 01 	inc  %g1
    3324:	c2 22 60 0c 	st  %g1, [ %o1 + 0xc ]
    3328:	9a 10 00 02 	mov  %g2, %o5
    332c:	90 10 20 01 	mov  1, %o0
    3330:	81 c3 e0 08 	retl 
    3334:	da 22 80 00 	st  %o5, [ %o2 ]
    3338:	82 00 60 01 	inc  %g1
    333c:	90 10 20 06 	mov  6, %o0
    3340:	10 bf ff c7 	b  325c <core_state_transition+0xe0>
    3344:	c2 22 60 0c 	st  %g1, [ %o1 + 0xc ]
    3348:	82 08 60 ff 	and  %g1, 0xff, %g1
    334c:	80 a0 60 09 	cmp  %g1, 9
    3350:	28 bf ff c4 	bleu,a   3260 <core_state_transition+0xe4>
    3354:	c2 08 e0 01 	ldub  [ %g3 + 1 ], %g1
    3358:	c2 02 60 14 	ld  [ %o1 + 0x14 ], %g1
    335c:	82 00 60 01 	inc  %g1
    3360:	10 bf ff f2 	b  3328 <core_state_transition+0x1ac>
    3364:	c2 22 60 14 	st  %g1, [ %o1 + 0x14 ]
    3368:	02 80 00 14 	be  33b8 <core_state_transition+0x23c>
    336c:	c2 02 60 08 	ld  [ %o1 + 8 ], %g1
    3370:	82 00 60 01 	inc  %g1
    3374:	10 bf ff ed 	b  3328 <core_state_transition+0x1ac>
    3378:	c2 22 60 08 	st  %g1, [ %o1 + 8 ]
    337c:	82 00 60 01 	inc  %g1
    3380:	10 bf ff ea 	b  3328 <core_state_transition+0x1ac>
    3384:	c2 22 60 04 	st  %g1, [ %o1 + 4 ]
    3388:	82 00 60 01 	inc  %g1
    338c:	10 bf ff e7 	b  3328 <core_state_transition+0x1ac>
    3390:	c2 22 60 18 	st  %g1, [ %o1 + 0x18 ]
    3394:	90 10 20 02 	mov  2, %o0
    3398:	82 00 60 01 	inc  %g1
    339c:	10 bf ff 9d 	b  3210 <core_state_transition+0x94>
    33a0:	c2 22 40 00 	st  %g1, [ %o1 ]
    33a4:	c2 02 60 10 	ld  [ %o1 + 0x10 ], %g1
    33a8:	90 10 20 05 	mov  5, %o0
    33ac:	82 00 60 01 	inc  %g1
    33b0:	10 bf ff ab 	b  325c <core_state_transition+0xe0>
    33b4:	c2 22 60 10 	st  %g1, [ %o1 + 0x10 ]
    33b8:	90 10 20 05 	mov  5, %o0
    33bc:	82 00 60 01 	inc  %g1
    33c0:	10 bf ff a7 	b  325c <core_state_transition+0xe0>
    33c4:	c2 22 60 08 	st  %g1, [ %o1 + 8 ]
    33c8:	10 bf ff 9e 	b  3240 <core_state_transition+0xc4>
    33cc:	90 10 20 00 	clr  %o0
    33d0:	90 10 20 00 	clr  %o0
    33d4:	10 bf ff 9b 	b  3240 <core_state_transition+0xc4>
    33d8:	9a 03 60 01 	inc  %o5

000033dc <core_bench_state>:
    33dc:	9d e3 bf 58 	save  %sp, -168, %sp
    33e0:	82 10 20 00 	clr  %g1
    33e4:	f2 27 bf bc 	st  %i1, [ %fp + -68 ]
    33e8:	a0 07 bf e0 	add  %fp, -32, %l0
    33ec:	a2 07 bf c0 	add  %fp, -64, %l1
    33f0:	c0 24 00 01 	clr  [ %l0 + %g1 ]
    33f4:	c0 24 40 01 	clr  [ %l1 + %g1 ]
    33f8:	82 00 60 04 	add  %g1, 4, %g1
    33fc:	80 a0 60 20 	cmp  %g1, 0x20
    3400:	32 bf ff fd 	bne,a   33f4 <core_bench_state+0x18>
    3404:	c0 24 00 01 	clr  [ %l0 + %g1 ]
    3408:	c2 0e 40 00 	ldub  [ %i1 ], %g1
    340c:	80 a0 60 00 	cmp  %g1, 0
    3410:	02 80 00 11 	be  3454 <core_bench_state+0x78>
    3414:	96 10 20 00 	clr  %o3
    3418:	a4 07 bf bc 	add  %fp, -68, %l2
    341c:	90 10 00 12 	mov  %l2, %o0
    3420:	7f ff ff 57 	call  317c <core_state_transition>
    3424:	92 10 00 10 	mov  %l0, %o1
    3428:	91 2a 20 02 	sll  %o0, 2, %o0
    342c:	82 07 80 08 	add  %fp, %o0, %g1
    3430:	c4 00 7f c0 	ld  [ %g1 + -64 ], %g2
    3434:	86 00 a0 01 	add  %g2, 1, %g3
    3438:	c6 20 7f c0 	st  %g3, [ %g1 + -64 ]
    343c:	c2 07 bf bc 	ld  [ %fp + -68 ], %g1
    3440:	c2 08 40 00 	ldub  [ %g1 ], %g1
    3444:	80 a0 60 00 	cmp  %g1, 0
    3448:	12 bf ff f6 	bne  3420 <core_bench_state+0x44>
    344c:	90 10 00 12 	mov  %l2, %o0
    3450:	d6 0e 40 00 	ldub  [ %i1 ], %o3
    3454:	b0 06 40 18 	add  %i1, %i0, %i0
    3458:	80 a6 40 18 	cmp  %i1, %i0
    345c:	1a 80 00 10 	bcc  349c <core_bench_state+0xc0>
    3460:	f2 27 bf bc 	st  %i1, [ %fp + -68 ]
    3464:	10 80 00 03 	b  3470 <core_bench_state+0x94>
    3468:	82 10 00 19 	mov  %i1, %g1
    346c:	d6 0a 80 1c 	ldub  [ %o2 + %i4 ], %o3
    3470:	88 0a e0 ff 	and  %o3, 0xff, %g4
    3474:	80 a1 20 2c 	cmp  %g4, 0x2c
    3478:	02 80 00 03 	be  3484 <core_bench_state+0xa8>
    347c:	92 1a c0 1a 	xor  %o3, %i2, %o1
    3480:	d2 28 40 00 	stb  %o1, [ %g1 ]
    3484:	d4 07 bf bc 	ld  [ %fp + -68 ], %o2
    3488:	82 02 80 1c 	add  %o2, %i4, %g1
    348c:	80 a0 40 18 	cmp  %g1, %i0
    3490:	0a bf ff f7 	bcs  346c <core_bench_state+0x90>
    3494:	c2 27 bf bc 	st  %g1, [ %fp + -68 ]
    3498:	d6 0e 40 00 	ldub  [ %i1 ], %o3
    349c:	f2 27 bf bc 	st  %i1, [ %fp + -68 ]
    34a0:	80 8a e0 ff 	btst  0xff, %o3
    34a4:	02 80 00 0f 	be  34e0 <core_bench_state+0x104>
    34a8:	b4 07 bf bc 	add  %fp, -68, %i2
    34ac:	90 10 00 1a 	mov  %i2, %o0
    34b0:	7f ff ff 33 	call  317c <core_state_transition>
    34b4:	92 10 00 10 	mov  %l0, %o1
    34b8:	99 2a 20 02 	sll  %o0, 2, %o4
    34bc:	82 07 80 0c 	add  %fp, %o4, %g1
    34c0:	da 00 7f c0 	ld  [ %g1 + -64 ], %o5
    34c4:	a4 03 60 01 	add  %o5, 1, %l2
    34c8:	e4 20 7f c0 	st  %l2, [ %g1 + -64 ]
    34cc:	c2 07 bf bc 	ld  [ %fp + -68 ], %g1
    34d0:	c2 08 40 00 	ldub  [ %g1 ], %g1
    34d4:	80 a0 60 00 	cmp  %g1, 0
    34d8:	12 bf ff f6 	bne  34b0 <core_bench_state+0xd4>
    34dc:	90 10 00 1a 	mov  %i2, %o0
    34e0:	80 a6 40 18 	cmp  %i1, %i0
    34e4:	1a 80 00 0d 	bcc  3518 <core_bench_state+0x13c>
    34e8:	f2 27 bf bc 	st  %i1, [ %fp + -68 ]
    34ec:	c2 0e 40 00 	ldub  [ %i1 ], %g1
    34f0:	9e 08 60 ff 	and  %g1, 0xff, %o7
    34f4:	80 a3 e0 2c 	cmp  %o7, 0x2c
    34f8:	02 80 00 03 	be  3504 <core_bench_state+0x128>
    34fc:	82 18 40 1b 	xor  %g1, %i3, %g1
    3500:	c2 2e 40 00 	stb  %g1, [ %i1 ]
    3504:	f2 07 bf bc 	ld  [ %fp + -68 ], %i1
    3508:	b2 06 40 1c 	add  %i1, %i4, %i1
    350c:	80 a6 40 18 	cmp  %i1, %i0
    3510:	0a bf ff f7 	bcs  34ec <core_bench_state+0x110>
    3514:	f2 27 bf bc 	st  %i1, [ %fp + -68 ]
    3518:	b8 10 20 00 	clr  %i4
    351c:	92 10 00 1d 	mov  %i5, %o1
    3520:	40 00 0d a2 	call  6ba8 <crcu32>
    3524:	d0 04 40 1c 	ld  [ %l1 + %i4 ], %o0
    3528:	92 10 00 08 	mov  %o0, %o1
    352c:	40 00 0d 9f 	call  6ba8 <crcu32>
    3530:	d0 04 00 1c 	ld  [ %l0 + %i4 ], %o0
    3534:	b8 07 20 04 	add  %i4, 4, %i4
    3538:	80 a7 20 20 	cmp  %i4, 0x20
    353c:	12 bf ff f8 	bne  351c <core_bench_state+0x140>
    3540:	ba 10 00 08 	mov  %o0, %i5
    3544:	81 c7 e0 08 	ret 
    3548:	91 e8 00 08 	restore  %g0, %o0, %o0

0000354c <cvt>:
    354c:	9d e3 bf 90 	save  %sp, -112, %sp
    3550:	f0 3f bf f8 	std  %i0, [ %fp + -8 ]
    3554:	de 07 a0 5c 	ld  [ %fp + 0x5c ], %o7
    3558:	d5 1f bf f8 	ldd  [ %fp + -8 ], %f10
    355c:	80 a6 a0 00 	cmp  %i2, 0
    3560:	06 80 00 05 	bl  3574 <cvt+0x28>
    3564:	84 10 20 00 	clr  %g2
    3568:	80 a6 a0 4e 	cmp  %i2, 0x4e
    356c:	04 80 00 a5 	ble  3800 <cvt+0x2b4>
    3570:	84 10 20 4e 	mov  0x4e, %g2
    3574:	03 00 00 81 	sethi  %hi(0x20400), %g1
    3578:	d1 18 62 78 	ldd  [ %g1 + 0x278 ], %f8	! 20678 <state_known_crc+0x664>
    357c:	81 aa 8a c8 	fcmped  %f10, %f8
    3580:	01 00 00 00 	nop 
    3584:	09 80 00 99 	fbl  37e8 <cvt+0x29c>
    3588:	86 10 20 01 	mov  1, %g3	! 1 <_start+0x1>
    358c:	c0 27 00 00 	clr  [ %i4 ]
    3590:	81 a0 1a 4a 	fdtoi  %f10, %f0
    3594:	d9 18 62 78 	ldd  [ %g1 + 0x278 ], %f12
    3598:	a9 a0 19 00 	fitod  %f0, %f20
    359c:	81 ad 0a 4c 	fcmpd  %f20, %f12
    35a0:	01 00 00 00 	nop 
    35a4:	13 80 00 65 	fbe  3738 <cvt+0x1ec>
    35a8:	95 a2 88 d4 	fsubd  %f10, %f20, %f10
    35ac:	03 00 00 81 	sethi  %hi(0x20400), %g1
    35b0:	9a 07 60 50 	add  %i5, 0x50, %o5
    35b4:	09 00 00 81 	sethi  %hi(0x20400), %g4
    35b8:	e5 18 62 88 	ldd  [ %g1 + 0x288 ], %f18
    35bc:	b8 10 00 0d 	mov  %o5, %i4
    35c0:	03 00 00 81 	sethi  %hi(0x20400), %g1
    35c4:	86 10 20 00 	clr  %g3
    35c8:	dd 19 22 80 	ldd  [ %g4 + 0x280 ], %f14
    35cc:	c9 18 62 78 	ldd  [ %g1 + 0x278 ], %f4
    35d0:	8d a5 09 ce 	fdivd  %f20, %f14, %f6
    35d4:	83 a0 1a 46 	fdtoi  %f6, %f1
    35d8:	a9 a0 19 01 	fitod  %f1, %f20
    35dc:	ad a1 88 d4 	fsubd  %f6, %f20, %f22
    35e0:	b1 a5 88 52 	faddd  %f22, %f18, %f24
    35e4:	99 a6 09 4e 	fmuld  %f24, %f14, %f12
    35e8:	87 a0 1a 4c 	fdtoi  %f12, %f3
    35ec:	c7 27 bf f4 	st  %f3, [ %fp + -12 ]
    35f0:	b8 07 3f ff 	add  %i4, -1, %i4
    35f4:	c2 07 bf f4 	ld  [ %fp + -12 ], %g1
    35f8:	b0 00 60 30 	add  %g1, 0x30, %i0
    35fc:	f0 2f 00 00 	stb  %i0, [ %i4 ]
    3600:	81 ad 0a 44 	fcmpd  %f20, %f4
    3604:	01 00 00 00 	nop 
    3608:	03 bf ff f2 	fbne  35d0 <cvt+0x84>
    360c:	86 00 e0 01 	inc  %g3
    3610:	80 a3 40 1c 	cmp  %o5, %i4
    3614:	08 80 00 0e 	bleu  364c <cvt+0x100>
    3618:	82 10 00 1d 	mov  %i5, %g1
    361c:	82 07 60 4f 	add  %i5, 0x4f, %g1
    3620:	b2 10 00 1c 	mov  %i4, %i1
    3624:	10 80 00 04 	b  3634 <cvt+0xe8>
    3628:	b4 10 00 1d 	mov  %i5, %i2
    362c:	f0 0e 60 01 	ldub  [ %i1 + 1 ], %i0
    3630:	b2 06 60 01 	inc  %i1
    3634:	f0 2e 80 00 	stb  %i0, [ %i2 ]
    3638:	80 a6 40 01 	cmp  %i1, %g1
    363c:	12 bf ff fc 	bne  362c <cvt+0xe0>
    3640:	b4 06 a0 01 	inc  %i2
    3644:	82 23 40 1c 	sub  %o5, %i4, %g1
    3648:	82 07 40 01 	add  %i5, %g1, %g1
    364c:	80 a3 e0 00 	cmp  %o7, 0
    3650:	12 80 00 03 	bne  365c <cvt+0x110>
    3654:	84 07 40 02 	add  %i5, %g2, %g2
    3658:	84 00 80 03 	add  %g2, %g3, %g2
    365c:	80 a0 80 1d 	cmp  %g2, %i5
    3660:	0a 80 00 5f 	bcs  37dc <cvt+0x290>
    3664:	c6 26 c0 00 	st  %g3, [ %i3 ]
    3668:	80 a0 40 02 	cmp  %g1, %g2
    366c:	18 80 00 17 	bgu  36c8 <cvt+0x17c>
    3670:	b2 07 60 50 	add  %i5, 0x50, %i1
    3674:	07 00 00 81 	sethi  %hi(0x20400), %g3
    3678:	80 a0 40 19 	cmp  %g1, %i1
    367c:	1a 80 00 13 	bcc  36c8 <cvt+0x17c>
    3680:	88 10 e2 80 	or  %g3, 0x280, %g4
    3684:	10 80 00 05 	b  3698 <cvt+0x14c>
    3688:	f5 19 00 00 	ldd  [ %g4 ], %f26
    368c:	80 a0 40 19 	cmp  %g1, %i1
    3690:	02 80 00 0f 	be  36cc <cvt+0x180>
    3694:	80 a0 80 19 	cmp  %g2, %i1
    3698:	b9 a2 89 5a 	fmuld  %f10, %f26, %f28
    369c:	8b a0 1a 5c 	fdtoi  %f28, %f5
    36a0:	bd a0 19 05 	fitod  %f5, %f30
    36a4:	8f a0 1a 5e 	fdtoi  %f30, %f7
    36a8:	cf 27 bf f4 	st  %f7, [ %fp + -12 ]
    36ac:	f8 07 bf f4 	ld  [ %fp + -12 ], %i4
    36b0:	b0 07 20 30 	add  %i4, 0x30, %i0
    36b4:	f0 28 40 00 	stb  %i0, [ %g1 ]
    36b8:	82 00 60 01 	inc  %g1
    36bc:	80 a0 80 01 	cmp  %g2, %g1
    36c0:	1a bf ff f3 	bcc  368c <cvt+0x140>
    36c4:	95 a7 08 de 	fsubd  %f28, %f30, %f10
    36c8:	80 a0 80 19 	cmp  %g2, %i1
    36cc:	1a 80 00 4a 	bcc  37f4 <cvt+0x2a8>
    36d0:	88 10 00 02 	mov  %g2, %g4
    36d4:	f4 08 80 00 	ldub  [ %g2 ], %i2
    36d8:	b2 06 a0 05 	add  %i2, 5, %i1
    36dc:	86 10 20 30 	mov  0x30, %g3
    36e0:	82 10 00 19 	mov  %i1, %g1
    36e4:	f2 28 80 00 	stb  %i1, [ %g2 ]
    36e8:	b8 10 20 31 	mov  0x31, %i4
    36ec:	83 28 60 18 	sll  %g1, 0x18, %g1
    36f0:	83 38 60 18 	sra  %g1, 0x18, %g1
    36f4:	80 a0 60 39 	cmp  %g1, 0x39
    36f8:	24 80 00 0e 	ble,a   3730 <cvt+0x1e4>
    36fc:	c0 29 00 00 	clrb  [ %g4 ]
    3700:	80 a0 80 1d 	cmp  %g2, %i5
    3704:	08 80 00 2a 	bleu  37ac <cvt+0x260>
    3708:	c6 28 80 00 	stb  %g3, [ %g2 ]
    370c:	c2 08 bf ff 	ldub  [ %g2 + -1 ], %g1
    3710:	82 00 60 01 	inc  %g1
    3714:	c2 28 bf ff 	stb  %g1, [ %g2 + -1 ]
    3718:	83 28 60 18 	sll  %g1, 0x18, %g1
    371c:	83 38 60 18 	sra  %g1, 0x18, %g1
    3720:	80 a0 60 39 	cmp  %g1, 0x39
    3724:	14 bf ff f7 	bg  3700 <cvt+0x1b4>
    3728:	84 00 bf ff 	add  %g2, -1, %g2
    372c:	c0 29 00 00 	clrb  [ %g4 ]
    3730:	81 c7 e0 08 	ret 
    3734:	91 e8 00 1d 	restore  %g0, %i5, %o0
    3738:	81 aa 8a cc 	fcmped  %f10, %f12
    373c:	01 00 00 00 	nop 
    3740:	1d 80 00 32 	fbule  3808 <cvt+0x2bc>
    3744:	01 00 00 00 	nop 
    3748:	35 00 00 81 	sethi  %hi(0x20400), %i2
    374c:	03 00 00 81 	sethi  %hi(0x20400), %g1
    3750:	c5 1e a2 80 	ldd  [ %i2 + 0x280 ], %f2
    3754:	d1 18 62 90 	ldd  [ %g1 + 0x290 ], %f8
    3758:	99 a2 89 42 	fmuld  %f10, %f2, %f12
    375c:	86 10 20 00 	clr  %g3
    3760:	e1 1e a2 80 	ldd  [ %i2 + 0x280 ], %f16
    3764:	9d a0 00 28 	fmovs  %f8, %f14
    3768:	81 ab 0a c8 	fcmped  %f12, %f8
    376c:	01 00 00 00 	nop 
    3770:	09 80 00 06 	fbl  3788 <cvt+0x23c>
    3774:	9f a0 00 29 	fmovs  %f9, %f15
    3778:	10 bf ff b5 	b  364c <cvt+0x100>
    377c:	82 10 00 1d 	mov  %i5, %g1
    3780:	99 a0 00 28 	fmovs  %f8, %f12
    3784:	9b a0 00 29 	fmovs  %f9, %f13
    3788:	91 a3 09 50 	fmuld  %f12, %f16, %f8
    378c:	81 aa 0a ce 	fcmped  %f8, %f14
    3790:	01 00 00 00 	nop 
    3794:	09 bf ff fb 	fbl  3780 <cvt+0x234>
    3798:	86 00 ff ff 	add  %g3, -1, %g3
    379c:	82 10 00 1d 	mov  %i5, %g1
    37a0:	95 a0 00 2c 	fmovs  %f12, %f10
    37a4:	10 bf ff aa 	b  364c <cvt+0x100>
    37a8:	97 a0 00 2d 	fmovs  %f13, %f11
    37ac:	f8 28 80 00 	stb  %i4, [ %g2 ]
    37b0:	c2 06 c0 00 	ld  [ %i3 ], %g1
    37b4:	82 00 60 01 	inc  %g1
    37b8:	80 a3 e0 00 	cmp  %o7, 0
    37bc:	12 80 00 06 	bne  37d4 <cvt+0x288>
    37c0:	c2 26 c0 00 	st  %g1, [ %i3 ]
    37c4:	80 a1 00 1d 	cmp  %g4, %i5
    37c8:	38 80 00 02 	bgu,a   37d0 <cvt+0x284>
    37cc:	c6 29 00 00 	stb  %g3, [ %g4 ]
    37d0:	88 01 20 01 	inc  %g4
    37d4:	10 bf ff c6 	b  36ec <cvt+0x1a0>
    37d8:	c2 08 80 00 	ldub  [ %g2 ], %g1
    37dc:	c0 2f 40 00 	clrb  [ %i5 ]
    37e0:	81 c7 e0 08 	ret 
    37e4:	91 e8 00 1d 	restore  %g0, %i5, %o0
    37e8:	95 a0 00 aa 	fnegs  %f10, %f10
    37ec:	10 bf ff 69 	b  3590 <cvt+0x44>
    37f0:	c6 27 00 00 	st  %g3, [ %i4 ]
    37f4:	c0 2f 60 4f 	clrb  [ %i5 + 0x4f ]
    37f8:	81 c7 e0 08 	ret 
    37fc:	91 e8 00 1d 	restore  %g0, %i5, %o0
    3800:	10 bf ff 5d 	b  3574 <cvt+0x28>
    3804:	84 10 00 1a 	mov  %i2, %g2
    3808:	82 10 00 1d 	mov  %i5, %g1
    380c:	10 bf ff 90 	b  364c <cvt+0x100>
    3810:	86 10 20 00 	clr  %g3

00003814 <__modf>:
    3814:	9c 03 bf b0 	add  %sp, -80, %sp
    3818:	d0 3b a0 48 	std  %o0, [ %sp + 0x48 ]
    381c:	c1 1b a0 48 	ldd  [ %sp + 0x48 ], %f0
    3820:	9c 23 bf b0 	sub  %sp, -80, %sp
    3824:	91 a0 1a 40 	fdtoi  %f0, %f8
    3828:	85 a0 19 08 	fitod  %f8, %f2
    382c:	81 a0 08 c2 	fsubd  %f0, %f2, %f0
    3830:	81 c3 e0 08 	retl 
    3834:	c5 3a 80 00 	std  %f2, [ %o2 ]

00003838 <ecvt>:
    3838:	9d e3 bf 98 	save  %sp, -104, %sp
    383c:	82 10 20 01 	mov  1, %g1
    3840:	90 10 00 18 	mov  %i0, %o0
    3844:	92 10 00 19 	mov  %i1, %o1
    3848:	c2 23 a0 5c 	st  %g1, [ %sp + 0x5c ]
    384c:	94 10 00 1a 	mov  %i2, %o2
    3850:	96 10 00 1b 	mov  %i3, %o3
    3854:	98 10 00 1c 	mov  %i4, %o4
    3858:	1b 00 00 81 	sethi  %hi(0x20400), %o5
    385c:	7f ff ff 3c 	call  354c <cvt>
    3860:	9a 13 63 10 	or  %o5, 0x310, %o5	! 20710 <CVTBUF>
    3864:	81 c7 e0 08 	ret 
    3868:	91 e8 00 08 	restore  %g0, %o0, %o0

0000386c <ecvtbuf>:
    386c:	9d e3 bf 98 	save  %sp, -104, %sp
    3870:	82 10 20 01 	mov  1, %g1
    3874:	90 10 00 18 	mov  %i0, %o0
    3878:	92 10 00 19 	mov  %i1, %o1
    387c:	c2 23 a0 5c 	st  %g1, [ %sp + 0x5c ]
    3880:	94 10 00 1a 	mov  %i2, %o2
    3884:	96 10 00 1b 	mov  %i3, %o3
    3888:	98 10 00 1c 	mov  %i4, %o4
    388c:	7f ff ff 30 	call  354c <cvt>
    3890:	9a 10 00 1d 	mov  %i5, %o5
    3894:	81 c7 e0 08 	ret 
    3898:	91 e8 00 08 	restore  %g0, %o0, %o0

0000389c <fcvt>:
    389c:	9d e3 bf 98 	save  %sp, -104, %sp
    38a0:	1b 00 00 81 	sethi  %hi(0x20400), %o5
    38a4:	c0 23 a0 5c 	clr  [ %sp + 0x5c ]
    38a8:	90 10 00 18 	mov  %i0, %o0
    38ac:	92 10 00 19 	mov  %i1, %o1
    38b0:	94 10 00 1a 	mov  %i2, %o2
    38b4:	96 10 00 1b 	mov  %i3, %o3
    38b8:	98 10 00 1c 	mov  %i4, %o4
    38bc:	7f ff ff 24 	call  354c <cvt>
    38c0:	9a 13 63 10 	or  %o5, 0x310, %o5
    38c4:	81 c7 e0 08 	ret 
    38c8:	91 e8 00 08 	restore  %g0, %o0, %o0

000038cc <fcvtbuf>:
    38cc:	9d e3 bf 98 	save  %sp, -104, %sp
    38d0:	c0 23 a0 5c 	clr  [ %sp + 0x5c ]
    38d4:	90 10 00 18 	mov  %i0, %o0
    38d8:	92 10 00 19 	mov  %i1, %o1
    38dc:	94 10 00 1a 	mov  %i2, %o2
    38e0:	96 10 00 1b 	mov  %i3, %o3
    38e4:	98 10 00 1c 	mov  %i4, %o4
    38e8:	7f ff ff 19 	call  354c <cvt>
    38ec:	9a 10 00 1d 	mov  %i5, %o5
    38f0:	81 c7 e0 08 	ret 
    38f4:	91 e8 00 08 	restore  %g0, %o0, %o0
    38f8:	00 00 3f e4 	unimp  0x3fe4
    38fc:	00 00 3e 60 	unimp  0x3e60
    3900:	00 00 3e 60 	unimp  0x3e60
    3904:	00 00 3e 60 	unimp  0x3e60
    3908:	00 00 3e 60 	unimp  0x3e60
    390c:	00 00 3e 60 	unimp  0x3e60
    3910:	00 00 3e 60 	unimp  0x3e60
    3914:	00 00 3e 60 	unimp  0x3e60
    3918:	00 00 3e 60 	unimp  0x3e60
    391c:	00 00 3e 60 	unimp  0x3e60
    3920:	00 00 3e 60 	unimp  0x3e60
    3924:	00 00 3e 60 	unimp  0x3e60
    3928:	00 00 3e 60 	unimp  0x3e60
    392c:	00 00 3e 60 	unimp  0x3e60
    3930:	00 00 3e 60 	unimp  0x3e60
    3934:	00 00 3e 60 	unimp  0x3e60
    3938:	00 00 3e 60 	unimp  0x3e60
    393c:	00 00 3e 60 	unimp  0x3e60
    3940:	00 00 3e 60 	unimp  0x3e60
    3944:	00 00 3e 60 	unimp  0x3e60
    3948:	00 00 3e 60 	unimp  0x3e60
    394c:	00 00 3e 60 	unimp  0x3e60
    3950:	00 00 3e 60 	unimp  0x3e60
    3954:	00 00 41 5c 	unimp  0x415c
    3958:	00 00 3e 60 	unimp  0x3e60
    395c:	00 00 3e 60 	unimp  0x3e60
    3960:	00 00 3e 60 	unimp  0x3e60
    3964:	00 00 3e 60 	unimp  0x3e60
    3968:	00 00 3e 60 	unimp  0x3e60
    396c:	00 00 3e 60 	unimp  0x3e60
    3970:	00 00 3e 60 	unimp  0x3e60
    3974:	00 00 3e 60 	unimp  0x3e60
    3978:	00 00 3f e8 	unimp  0x3fe8
    397c:	00 00 3e 60 	unimp  0x3e60
    3980:	00 00 41 94 	unimp  0x4194
    3984:	00 00 41 88 	unimp  0x4188
    3988:	00 00 3e 60 	unimp  0x3e60
    398c:	00 00 43 10 	unimp  0x4310
    3990:	00 00 3e 60 	unimp  0x3e60
    3994:	00 00 3e 60 	unimp  0x3e60
    3998:	00 00 41 88 	unimp  0x4188
    399c:	00 00 3e 60 	unimp  0x3e60
    39a0:	00 00 3e 60 	unimp  0x3e60
    39a4:	00 00 3e 60 	unimp  0x3e60
    39a8:	00 00 3e 60 	unimp  0x3e60
    39ac:	00 00 3e 60 	unimp  0x3e60
    39b0:	00 00 43 08 	unimp  0x4308
    39b4:	00 00 42 d4 	unimp  0x42d4
    39b8:	00 00 3e 60 	unimp  0x3e60
    39bc:	00 00 3e 60 	unimp  0x3e60
    39c0:	00 00 41 f0 	unimp  0x41f0
    39c4:	00 00 3e 60 	unimp  0x3e60
    39c8:	00 00 41 e8 	unimp  0x41e8
    39cc:	00 00 3e 60 	unimp  0x3e60
    39d0:	00 00 3e 60 	unimp  0x3e60
    39d4:	00 00 41 e0 	unimp  0x41e0
    39d8:	00 00 3f 30 	unimp  0x3f30
    39dc:	00 00 3d c0 	unimp  0x3dc0
    39e0:	00 00 3d c0 	unimp  0x3dc0
    39e4:	00 00 3f 24 	unimp  0x3f24
    39e8:	00 00 3d c0 	unimp  0x3dc0
    39ec:	00 00 3d c0 	unimp  0x3dc0
    39f0:	00 00 3d c0 	unimp  0x3dc0
    39f4:	00 00 3d c0 	unimp  0x3dc0
    39f8:	00 00 3d c0 	unimp  0x3dc0
    39fc:	00 00 3d c0 	unimp  0x3dc0
    3a00:	00 00 3d c0 	unimp  0x3dc0
    3a04:	00 00 3f 18 	unimp  0x3f18
    3a08:	00 00 3d c0 	unimp  0x3dc0
    3a0c:	00 00 3f 0c 	unimp  0x3f0c
    3a10:	00 00 3d c0 	unimp  0x3dc0
    3a14:	00 00 3d c0 	unimp  0x3dc0
    3a18:	00 00 3f 00 	unimp  0x3f00

00003a1c <number>:
    3a1c:	9d e3 bf 58 	save  %sp, -168, %sp
    3a20:	80 8f 60 40 	btst  0x40, %i5
    3a24:	02 80 00 79 	be  3c08 <number+0x1ec>
    3a28:	1f 00 00 80 	sethi  %hi(0x20000), %o7
    3a2c:	03 00 00 80 	sethi  %hi(0x20000), %g1
    3a30:	9e 10 61 28 	or  %g1, 0x128, %o7	! 20128 <state_known_crc+0x114>
    3a34:	80 8f 60 10 	btst  0x10, %i5
    3a38:	32 80 00 02 	bne,a   3a40 <number+0x24>
    3a3c:	ba 0f 7f fe 	and  %i5, -2, %i5
    3a40:	82 06 bf fe 	add  %i2, -2, %g1
    3a44:	80 a0 60 22 	cmp  %g1, 0x22
    3a48:	18 80 00 83 	bgu  3c54 <number+0x238>
    3a4c:	82 0f 60 01 	and  %i5, 1, %g1
    3a50:	80 a0 00 01 	cmp  %g0, %g1
    3a54:	9a 40 3f ff 	addx  %g0, -1, %o5
    3a58:	98 10 20 00 	clr  %o4
    3a5c:	84 0b 60 f0 	and  %o5, 0xf0, %g2
    3a60:	80 8f 60 02 	btst  2, %i5
    3a64:	02 80 00 0c 	be  3a94 <number+0x78>
    3a68:	9a 00 a0 30 	add  %g2, 0x30, %o5
    3a6c:	80 a6 60 00 	cmp  %i1, 0
    3a70:	06 80 00 8a 	bl  3c98 <number+0x27c>
    3a74:	80 8f 60 04 	btst  4, %i5
    3a78:	32 80 00 7a 	bne,a   3c60 <number+0x244>
    3a7c:	b6 06 ff ff 	add  %i3, -1, %i3
    3a80:	80 8f 60 08 	btst  8, %i5
    3a84:	02 80 00 05 	be  3a98 <number+0x7c>
    3a88:	96 8f 60 20 	andcc  %i5, 0x20, %o3
    3a8c:	b6 06 ff ff 	add  %i3, -1, %i3
    3a90:	98 10 20 20 	mov  0x20, %o4
    3a94:	96 8f 60 20 	andcc  %i5, 0x20, %o3
    3a98:	02 80 00 08 	be  3ab8 <number+0x9c>
    3a9c:	80 a6 60 00 	cmp  %i1, 0
    3aa0:	80 a6 a0 10 	cmp  %i2, 0x10
    3aa4:	02 80 00 78 	be  3c84 <number+0x268>
    3aa8:	82 1e a0 08 	xor  %i2, 8, %g1
    3aac:	80 a0 00 01 	cmp  %g0, %g1
    3ab0:	b6 46 ff ff 	addx  %i3, -1, %i3
    3ab4:	80 a6 60 00 	cmp  %i1, 0
    3ab8:	12 80 00 57 	bne  3c14 <number+0x1f8>
    3abc:	82 10 20 00 	clr  %g1
    3ac0:	82 10 20 30 	mov  0x30, %g1
    3ac4:	88 07 bf b8 	add  %fp, -72, %g4
    3ac8:	c2 2f bf b8 	stb  %g1, [ %fp + -72 ]
    3acc:	82 10 20 01 	mov  1, %g1
    3ad0:	80 a0 40 1c 	cmp  %g1, %i4
    3ad4:	16 80 00 03 	bge  3ae0 <number+0xc4>
    3ad8:	86 10 00 01 	mov  %g1, %g3
    3adc:	86 10 00 1c 	mov  %i4, %g3
    3ae0:	80 8f 60 11 	btst  0x11, %i5
    3ae4:	12 80 00 0d 	bne  3b18 <number+0xfc>
    3ae8:	b8 26 c0 03 	sub  %i3, %g3, %i4
    3aec:	80 a7 20 00 	cmp  %i4, 0
    3af0:	04 80 00 76 	ble  3cc8 <number+0x2ac>
    3af4:	b6 07 3f ff 	add  %i4, -1, %i3
    3af8:	b8 06 00 1c 	add  %i0, %i4, %i4
    3afc:	84 10 20 20 	mov  0x20, %g2
    3b00:	c4 2e 00 00 	stb  %g2, [ %i0 ]
    3b04:	b0 06 20 01 	inc  %i0
    3b08:	80 a6 00 1c 	cmp  %i0, %i4
    3b0c:	32 bf ff fe 	bne,a   3b04 <number+0xe8>
    3b10:	c4 2e 00 00 	stb  %g2, [ %i0 ]
    3b14:	b8 10 3f ff 	mov  -1, %i4
    3b18:	80 8b 20 ff 	btst  0xff, %o4
    3b1c:	02 80 00 04 	be  3b2c <number+0x110>
    3b20:	80 a2 e0 00 	cmp  %o3, 0
    3b24:	d8 2e 00 00 	stb  %o4, [ %i0 ]
    3b28:	b0 06 20 01 	inc  %i0
    3b2c:	02 80 00 08 	be  3b4c <number+0x130>
    3b30:	80 8f 60 10 	btst  0x10, %i5
    3b34:	80 a6 a0 08 	cmp  %i2, 8
    3b38:	02 80 00 4f 	be  3c74 <number+0x258>
    3b3c:	80 a6 a0 10 	cmp  %i2, 0x10
    3b40:	22 80 00 5d 	be,a   3cb4 <number+0x298>
    3b44:	b4 10 20 30 	mov  0x30, %i2
    3b48:	80 8f 60 10 	btst  0x10, %i5
    3b4c:	12 80 00 0d 	bne  3b80 <number+0x164>
    3b50:	80 a0 c0 01 	cmp  %g3, %g1
    3b54:	80 a7 20 00 	cmp  %i4, 0
    3b58:	04 80 00 5e 	ble  3cd0 <number+0x2b4>
    3b5c:	ba 07 3f ff 	add  %i4, -1, %i5
    3b60:	b4 06 00 1c 	add  %i0, %i4, %i2
    3b64:	da 2e 00 00 	stb  %o5, [ %i0 ]
    3b68:	b0 06 20 01 	inc  %i0
    3b6c:	80 a6 00 1a 	cmp  %i0, %i2
    3b70:	32 bf ff fe 	bne,a   3b68 <number+0x14c>
    3b74:	da 2e 00 00 	stb  %o5, [ %i0 ]
    3b78:	b8 10 3f ff 	mov  -1, %i4
    3b7c:	80 a0 c0 01 	cmp  %g3, %g1
    3b80:	04 80 00 09 	ble  3ba4 <number+0x188>
    3b84:	82 20 c0 01 	sub  %g3, %g1, %g1
    3b88:	86 10 20 30 	mov  0x30, %g3
    3b8c:	82 06 00 01 	add  %i0, %g1, %g1
    3b90:	c6 2e 00 00 	stb  %g3, [ %i0 ]
    3b94:	b0 06 20 01 	inc  %i0
    3b98:	80 a6 00 01 	cmp  %i0, %g1
    3b9c:	32 bf ff fe 	bne,a   3b94 <number+0x178>
    3ba0:	c6 2e 00 00 	stb  %g3, [ %i0 ]
    3ba4:	82 10 00 19 	mov  %i1, %g1
    3ba8:	84 10 00 18 	mov  %i0, %g2
    3bac:	f6 09 00 01 	ldub  [ %g4 + %g1 ], %i3
    3bb0:	f6 28 80 00 	stb  %i3, [ %g2 ]
    3bb4:	82 00 7f ff 	add  %g1, -1, %g1
    3bb8:	ba 00 60 01 	add  %g1, 1, %i5
    3bbc:	80 a7 60 00 	cmp  %i5, 0
    3bc0:	14 bf ff fb 	bg  3bac <number+0x190>
    3bc4:	84 00 a0 01 	inc  %g2
    3bc8:	82 38 00 19 	xnor  %g0, %i1, %g1
    3bcc:	80 a7 20 00 	cmp  %i4, 0
    3bd0:	83 38 60 1f 	sra  %g1, 0x1f, %g1
    3bd4:	82 0e 40 01 	and  %i1, %g1, %g1
    3bd8:	82 00 60 01 	inc  %g1
    3bdc:	04 80 00 09 	ble  3c00 <number+0x1e4>
    3be0:	b0 06 00 01 	add  %i0, %g1, %i0
    3be4:	88 06 00 1c 	add  %i0, %i4, %g4
    3be8:	82 10 20 20 	mov  0x20, %g1
    3bec:	c2 2e 00 00 	stb  %g1, [ %i0 ]
    3bf0:	b0 06 20 01 	inc  %i0
    3bf4:	80 a6 00 04 	cmp  %i0, %g4
    3bf8:	32 bf ff fe 	bne,a   3bf0 <number+0x1d4>
    3bfc:	c2 2e 00 00 	stb  %g1, [ %i0 ]
    3c00:	81 c7 e0 08 	ret 
    3c04:	81 e8 00 00 	restore 
    3c08:	10 bf ff 8b 	b  3a34 <number+0x18>
    3c0c:	9e 13 e1 00 	or  %o7, 0x100, %o7
    3c10:	82 10 20 00 	clr  %g1
    3c14:	88 07 bf b8 	add  %fp, -72, %g4
    3c18:	81 80 20 00 	mov  %g0, %y
    3c1c:	01 00 00 00 	nop 
    3c20:	01 00 00 00 	nop 
    3c24:	01 00 00 00 	nop 
    3c28:	84 76 40 1a 	udiv  %i1, %i2, %g2
    3c2c:	86 58 80 1a 	smul  %g2, %i2, %g3
    3c30:	b2 26 40 03 	sub  %i1, %g3, %i1
    3c34:	c6 0b c0 19 	ldub  [ %o7 + %i1 ], %g3
    3c38:	c6 29 00 01 	stb  %g3, [ %g4 + %g1 ]
    3c3c:	b2 10 00 02 	mov  %g2, %i1
    3c40:	80 a0 a0 00 	cmp  %g2, 0
    3c44:	12 bf ff f5 	bne  3c18 <number+0x1fc>
    3c48:	82 00 60 01 	inc  %g1
    3c4c:	10 bf ff a1 	b  3ad0 <number+0xb4>
    3c50:	b2 00 7f ff 	add  %g1, -1, %i1
    3c54:	b0 10 20 00 	clr  %i0
    3c58:	81 c7 e0 08 	ret 
    3c5c:	81 e8 00 00 	restore 
    3c60:	96 8f 60 20 	andcc  %i5, 0x20, %o3
    3c64:	02 bf ff 94 	be  3ab4 <number+0x98>
    3c68:	98 10 20 2b 	mov  0x2b, %o4
    3c6c:	10 bf ff 8e 	b  3aa4 <number+0x88>
    3c70:	80 a6 a0 10 	cmp  %i2, 0x10
    3c74:	84 10 20 30 	mov  0x30, %g2
    3c78:	c4 2e 00 00 	stb  %g2, [ %i0 ]
    3c7c:	10 bf ff b3 	b  3b48 <number+0x12c>
    3c80:	b0 06 20 01 	inc  %i0
    3c84:	80 a6 60 00 	cmp  %i1, 0
    3c88:	12 bf ff e2 	bne  3c10 <number+0x1f4>
    3c8c:	b6 06 ff fe 	add  %i3, -2, %i3
    3c90:	10 bf ff 8d 	b  3ac4 <number+0xa8>
    3c94:	82 10 20 30 	mov  0x30, %g1
    3c98:	b2 20 00 19 	neg  %i1
    3c9c:	b6 06 ff ff 	add  %i3, -1, %i3
    3ca0:	96 8f 60 20 	andcc  %i5, 0x20, %o3
    3ca4:	02 bf ff 84 	be  3ab4 <number+0x98>
    3ca8:	98 10 20 2d 	mov  0x2d, %o4
    3cac:	10 bf ff 7e 	b  3aa4 <number+0x88>
    3cb0:	80 a6 a0 10 	cmp  %i2, 0x10
    3cb4:	b6 10 20 78 	mov  0x78, %i3
    3cb8:	f4 2e 00 00 	stb  %i2, [ %i0 ]
    3cbc:	f6 2e 20 01 	stb  %i3, [ %i0 + 1 ]
    3cc0:	10 bf ff a2 	b  3b48 <number+0x12c>
    3cc4:	b0 06 20 02 	add  %i0, 2, %i0
    3cc8:	10 bf ff 94 	b  3b18 <number+0xfc>
    3ccc:	b8 10 00 1b 	mov  %i3, %i4
    3cd0:	10 bf ff ab 	b  3b7c <number+0x160>
    3cd4:	b8 10 00 1d 	mov  %i5, %i4

00003cd8 <memcpy>:
    3cd8:	80 a2 a0 00 	cmp  %o2, 0
    3cdc:	04 80 00 08 	ble  3cfc <memcpy+0x24>
    3ce0:	82 10 20 00 	clr  %g1
    3ce4:	c4 0a 40 01 	ldub  [ %o1 + %g1 ], %g2
    3ce8:	c4 2a 00 01 	stb  %g2, [ %o0 + %g1 ]
    3cec:	82 00 60 01 	inc  %g1
    3cf0:	80 a0 40 0a 	cmp  %g1, %o2
    3cf4:	32 bf ff fd 	bne,a   3ce8 <memcpy+0x10>
    3cf8:	c4 0a 40 01 	ldub  [ %o1 + %g1 ], %g2
    3cfc:	81 c3 e0 08 	retl 
    3d00:	01 00 00 00 	nop 

00003d04 <uart_send_char>:
    3d04:	9d e3 bf a0 	save  %sp, -96, %sp
    3d08:	40 00 06 4b 	call  5634 <__ajit_serial_putchar__>
    3d0c:	90 10 00 18 	mov  %i0, %o0
    3d10:	80 a2 20 00 	cmp  %o0, 0
    3d14:	02 bf ff fd 	be  3d08 <uart_send_char+0x4>
    3d18:	01 00 00 00 	nop 
    3d1c:	81 c7 e0 08 	ret 
    3d20:	81 e8 00 00 	restore 

00003d24 <ee_printf>:
    3d24:	9d e3 bd d0 	save  %sp, -560, %sp
    3d28:	f6 27 a0 50 	st  %i3, [ %fp + 0x50 ]
    3d2c:	a6 07 a0 48 	add  %fp, 0x48, %l3
    3d30:	f2 27 a0 48 	st  %i1, [ %fp + 0x48 ]
    3d34:	f4 27 a0 4c 	st  %i2, [ %fp + 0x4c ]
    3d38:	f8 27 a0 54 	st  %i4, [ %fp + 0x54 ]
    3d3c:	fa 27 a0 58 	st  %i5, [ %fp + 0x58 ]
    3d40:	e6 27 be 4c 	st  %l3, [ %fp + -436 ]
    3d44:	da 0e 00 00 	ldub  [ %i0 ], %o5
    3d48:	83 2b 60 18 	sll  %o5, 0x18, %g1
    3d4c:	80 a0 60 00 	cmp  %g1, 0
    3d50:	02 80 02 1a 	be  45b8 <ee_printf+0x894>
    3d54:	b6 07 bf 00 	add  %fp, -256, %i3
    3d58:	29 00 00 0e 	sethi  %hi(0x3800), %l4
    3d5c:	ba 10 00 1b 	mov  %i3, %i5
    3d60:	35 00 00 0e 	sethi  %hi(0x3800), %i2
    3d64:	21 00 00 81 	sethi  %hi(0x20400), %l0
    3d68:	a4 07 be b0 	add  %fp, -336, %l2
    3d6c:	aa 07 bf 60 	add  %fp, -160, %l5
    3d70:	33 00 00 80 	sethi  %hi(0x20000), %i1
    3d74:	10 80 00 08 	b  3d94 <ee_printf+0x70>
    3d78:	23 00 00 80 	sethi  %hi(0x20000), %l1
    3d7c:	ba 07 60 01 	inc  %i5
    3d80:	da 0e 20 01 	ldub  [ %i0 + 1 ], %o5
    3d84:	83 2b 60 18 	sll  %o5, 0x18, %g1
    3d88:	80 a0 60 00 	cmp  %g1, 0
    3d8c:	02 80 00 48 	be  3eac <ee_printf+0x188>
    3d90:	b0 06 20 01 	inc  %i0
    3d94:	83 38 60 18 	sra  %g1, 0x18, %g1
    3d98:	80 a0 60 25 	cmp  %g1, 0x25
    3d9c:	32 bf ff f8 	bne,a   3d7c <ee_printf+0x58>
    3da0:	da 2f 40 00 	stb  %o5, [ %i5 ]
    3da4:	9a 10 20 00 	clr  %o5
    3da8:	c2 0e 20 01 	ldub  [ %i0 + 1 ], %g1
    3dac:	86 00 7f e0 	add  %g1, -32, %g3
    3db0:	90 08 e0 ff 	and  %g3, 0xff, %o0
    3db4:	80 a2 20 10 	cmp  %o0, 0x10
    3db8:	08 80 00 4d 	bleu  3eec <ee_printf+0x1c8>
    3dbc:	84 06 20 01 	add  %i0, 1, %g2
    3dc0:	96 00 7f d0 	add  %g1, -48, %o3
    3dc4:	98 0a e0 ff 	and  %o3, 0xff, %o4
    3dc8:	80 a3 20 09 	cmp  %o4, 9
    3dcc:	18 80 00 60 	bgu  3f4c <ee_printf+0x228>
    3dd0:	9f 28 60 18 	sll  %g1, 0x18, %o7
    3dd4:	b8 10 20 00 	clr  %i4
    3dd8:	ae 07 00 1c 	add  %i4, %i4, %l7
    3ddc:	83 28 60 18 	sll  %g1, 0x18, %g1
    3de0:	b9 2f 20 03 	sll  %i4, 3, %i4
    3de4:	83 38 60 18 	sra  %g1, 0x18, %g1
    3de8:	b0 05 c0 1c 	add  %l7, %i4, %i0
    3dec:	84 00 a0 01 	inc  %g2
    3df0:	86 06 00 01 	add  %i0, %g1, %g3
    3df4:	c2 08 80 00 	ldub  [ %g2 ], %g1
    3df8:	90 00 7f d0 	add  %g1, -48, %o0
    3dfc:	88 0a 20 ff 	and  %o0, 0xff, %g4
    3e00:	80 a1 20 09 	cmp  %g4, 9
    3e04:	08 bf ff f5 	bleu  3dd8 <ee_printf+0xb4>
    3e08:	b8 00 ff d0 	add  %g3, -48, %i4
    3e0c:	9f 28 60 18 	sll  %g1, 0x18, %o7
    3e10:	b0 10 00 02 	mov  %g2, %i0
    3e14:	93 3b e0 18 	sra  %o7, 0x18, %o1
    3e18:	80 a2 60 2e 	cmp  %o1, 0x2e
    3e1c:	02 80 00 55 	be  3f70 <ee_printf+0x24c>
    3e20:	ac 10 3f ff 	mov  -1, %l6
    3e24:	92 08 7f df 	and  %g1, -33, %o1
    3e28:	95 2a 60 18 	sll  %o1, 0x18, %o2
    3e2c:	97 3a a0 18 	sra  %o2, 0x18, %o3
    3e30:	80 a2 e0 4c 	cmp  %o3, 0x4c
    3e34:	12 80 00 06 	bne  3e4c <ee_printf+0x128>
    3e38:	9e 10 3f ff 	mov  -1, %o7
    3e3c:	99 28 60 18 	sll  %g1, 0x18, %o4
    3e40:	c2 0e 20 01 	ldub  [ %i0 + 1 ], %g1
    3e44:	9f 3b 20 18 	sra  %o4, 0x18, %o7
    3e48:	b0 06 20 01 	inc  %i0
    3e4c:	84 00 7f bf 	add  %g1, -65, %g2
    3e50:	ae 08 a0 ff 	and  %g2, 0xff, %l7
    3e54:	80 a5 e0 37 	cmp  %l7, 0x37
    3e58:	28 80 00 39 	bleu,a   3f3c <ee_printf+0x218>
    3e5c:	86 16 a0 f8 	or  %i2, 0xf8, %g3
    3e60:	91 28 60 18 	sll  %g1, 0x18, %o0
    3e64:	99 3a 20 18 	sra  %o0, 0x18, %o4
    3e68:	80 a3 20 25 	cmp  %o4, 0x25
    3e6c:	22 80 00 0a 	be,a   3e94 <ee_printf+0x170>
    3e70:	c2 2f 40 00 	stb  %g1, [ %i5 ]
    3e74:	82 10 20 25 	mov  0x25, %g1
    3e78:	c2 2f 40 00 	stb  %g1, [ %i5 ]
    3e7c:	ba 07 60 01 	inc  %i5
    3e80:	ee 4e 00 00 	ldsb  [ %i0 ], %l7
    3e84:	80 a5 e0 00 	cmp  %l7, 0
    3e88:	02 80 00 09 	be  3eac <ee_printf+0x188>
    3e8c:	c2 0e 00 00 	ldub  [ %i0 ], %g1
    3e90:	c2 2f 40 00 	stb  %g1, [ %i5 ]
    3e94:	ba 07 60 01 	inc  %i5
    3e98:	da 0e 20 01 	ldub  [ %i0 + 1 ], %o5
    3e9c:	83 2b 60 18 	sll  %o5, 0x18, %g1
    3ea0:	80 a0 60 00 	cmp  %g1, 0
    3ea4:	12 bf ff bc 	bne  3d94 <ee_printf+0x70>
    3ea8:	b0 06 20 01 	inc  %i0
    3eac:	c0 2f 40 00 	clrb  [ %i5 ]
    3eb0:	f0 0f bf 00 	ldub  [ %fp + -256 ], %i0
    3eb4:	a3 2e 20 18 	sll  %i0, 0x18, %l1
    3eb8:	80 a4 60 00 	cmp  %l1, 0
    3ebc:	02 80 00 0a 	be  3ee4 <ee_printf+0x1c0>
    3ec0:	b0 10 20 00 	clr  %i0
    3ec4:	7f ff ff 90 	call  3d04 <uart_send_char>
    3ec8:	91 3c 60 18 	sra  %l1, 0x18, %o0
    3ecc:	b0 06 20 01 	inc  %i0
    3ed0:	e0 0e c0 18 	ldub  [ %i3 + %i0 ], %l0
    3ed4:	a3 2c 20 18 	sll  %l0, 0x18, %l1
    3ed8:	80 a4 60 00 	cmp  %l1, 0
    3edc:	12 bf ff fa 	bne  3ec4 <ee_printf+0x1a0>
    3ee0:	01 00 00 00 	nop 
    3ee4:	81 c7 e0 08 	ret 
    3ee8:	81 e8 00 00 	restore 
    3eec:	88 15 21 d8 	or  %l4, 0x1d8, %g4
    3ef0:	93 2a 20 02 	sll  %o0, 2, %o1
    3ef4:	d4 01 00 09 	ld  [ %g4 + %o1 ], %o2
    3ef8:	81 c2 80 00 	jmp  %o2
    3efc:	01 00 00 00 	nop 
    3f00:	9a 13 60 01 	or  %o5, 1, %o5
    3f04:	10 bf ff a9 	b  3da8 <ee_printf+0x84>
    3f08:	b0 10 00 02 	mov  %g2, %i0
    3f0c:	9a 13 60 10 	or  %o5, 0x10, %o5
    3f10:	10 bf ff a6 	b  3da8 <ee_printf+0x84>
    3f14:	b0 10 00 02 	mov  %g2, %i0
    3f18:	9a 13 60 04 	or  %o5, 4, %o5
    3f1c:	10 bf ff a3 	b  3da8 <ee_printf+0x84>
    3f20:	b0 10 00 02 	mov  %g2, %i0
    3f24:	9a 13 60 20 	or  %o5, 0x20, %o5
    3f28:	10 bf ff a0 	b  3da8 <ee_printf+0x84>
    3f2c:	b0 10 00 02 	mov  %g2, %i0
    3f30:	9a 13 60 08 	or  %o5, 8, %o5
    3f34:	10 bf ff 9d 	b  3da8 <ee_printf+0x84>
    3f38:	b0 10 00 02 	mov  %g2, %i0
    3f3c:	91 2d e0 02 	sll  %l7, 2, %o0
    3f40:	c8 00 c0 08 	ld  [ %g3 + %o0 ], %g4
    3f44:	81 c1 00 00 	jmp  %g4
    3f48:	01 00 00 00 	nop 
    3f4c:	ad 3b e0 18 	sra  %o7, 0x18, %l6
    3f50:	80 a5 a0 2a 	cmp  %l6, 0x2a
    3f54:	02 80 01 0c 	be  4384 <ee_printf+0x660>
    3f58:	93 3b e0 18 	sra  %o7, 0x18, %o1
    3f5c:	b0 10 00 02 	mov  %g2, %i0
    3f60:	b8 10 3f ff 	mov  -1, %i4
    3f64:	80 a2 60 2e 	cmp  %o1, 0x2e
    3f68:	12 bf ff af 	bne  3e24 <ee_printf+0x100>
    3f6c:	ac 10 3f ff 	mov  -1, %l6
    3f70:	c2 0e 20 01 	ldub  [ %i0 + 1 ], %g1
    3f74:	94 00 7f d0 	add  %g1, -48, %o2
    3f78:	96 0a a0 ff 	and  %o2, 0xff, %o3
    3f7c:	80 a2 e0 09 	cmp  %o3, 9
    3f80:	18 80 00 12 	bgu  3fc8 <ee_printf+0x2a4>
    3f84:	84 06 20 01 	add  %i0, 1, %g2
    3f88:	ac 10 20 00 	clr  %l6
    3f8c:	ae 05 80 16 	add  %l6, %l6, %l7
    3f90:	83 28 60 18 	sll  %g1, 0x18, %g1
    3f94:	ad 2d a0 03 	sll  %l6, 3, %l6
    3f98:	83 38 60 18 	sra  %g1, 0x18, %g1
    3f9c:	b0 05 c0 16 	add  %l7, %l6, %i0
    3fa0:	84 00 a0 01 	inc  %g2
    3fa4:	86 06 00 01 	add  %i0, %g1, %g3
    3fa8:	c2 08 80 00 	ldub  [ %g2 ], %g1
    3fac:	90 00 7f d0 	add  %g1, -48, %o0
    3fb0:	88 0a 20 ff 	and  %o0, 0xff, %g4
    3fb4:	80 a1 20 09 	cmp  %g4, 9
    3fb8:	08 bf ff f5 	bleu  3f8c <ee_printf+0x268>
    3fbc:	ac 00 ff d0 	add  %g3, -48, %l6
    3fc0:	10 bf ff 99 	b  3e24 <ee_printf+0x100>
    3fc4:	b0 10 00 02 	mov  %g2, %i0
    3fc8:	99 28 60 18 	sll  %g1, 0x18, %o4
    3fcc:	9f 3b 20 18 	sra  %o4, 0x18, %o7
    3fd0:	80 a3 e0 2a 	cmp  %o7, 0x2a
    3fd4:	02 80 01 70 	be  4594 <ee_printf+0x870>
    3fd8:	ac 10 20 00 	clr  %l6
    3fdc:	10 bf ff 92 	b  3e24 <ee_printf+0x100>
    3fe0:	b0 10 00 02 	mov  %g2, %i0
    3fe4:	9a 13 60 40 	or  %o5, 0x40, %o5
    3fe8:	80 a3 e0 6c 	cmp  %o7, 0x6c
    3fec:	02 80 01 22 	be  4474 <ee_printf+0x750>
    3ff0:	84 10 20 00 	clr  %g2
    3ff4:	de 04 c0 00 	ld  [ %l3 ], %o7
    3ff8:	a6 04 e0 04 	add  %l3, 4, %l3
    3ffc:	c2 0b c0 02 	ldub  [ %o7 + %g2 ], %g1
    4000:	86 10 20 00 	clr  %g3
    4004:	94 10 20 30 	mov  0x30, %o2
    4008:	80 a0 60 00 	cmp  %g1, 0
    400c:	12 80 00 0e 	bne  4044 <ee_printf+0x320>
    4010:	96 10 20 2e 	mov  0x2e, %o3
    4014:	82 07 80 03 	add  %fp, %g3, %g1
    4018:	d4 28 7e b0 	stb  %o2, [ %g1 + -336 ]
    401c:	84 00 a0 01 	inc  %g2
    4020:	80 a0 a0 04 	cmp  %g2, 4
    4024:	02 80 00 2b 	be  40d0 <ee_printf+0x3ac>
    4028:	88 00 e0 01 	add  %g3, 1, %g4
    402c:	82 07 80 04 	add  %fp, %g4, %g1
    4030:	d6 28 7e b0 	stb  %o3, [ %g1 + -336 ]
    4034:	c2 0b c0 02 	ldub  [ %o7 + %g2 ], %g1
    4038:	80 a0 60 00 	cmp  %g1, 0
    403c:	02 bf ff f6 	be  4014 <ee_printf+0x2f0>
    4040:	86 01 20 01 	add  %g4, 1, %g3
    4044:	80 a0 60 63 	cmp  %g1, 0x63
    4048:	04 80 00 d8 	ble  43a8 <ee_printf+0x684>
    404c:	80 a0 60 09 	cmp  %g1, 9
    4050:	89 38 60 1f 	sra  %g1, 0x1f, %g4
    4054:	81 81 20 00 	mov  %g4, %y
    4058:	01 00 00 00 	nop 
    405c:	01 00 00 00 	nop 
    4060:	01 00 00 00 	nop 
    4064:	ac 78 60 64 	sdiv  %g1, 0x64, %l6
    4068:	92 07 80 03 	add  %fp, %g3, %o1
    406c:	90 5d a0 64 	smul  %l6, 0x64, %o0
    4070:	88 16 61 00 	or  %i1, 0x100, %g4
    4074:	d8 09 00 16 	ldub  [ %g4 + %l6 ], %o4
    4078:	82 20 40 08 	sub  %g1, %o0, %g1
    407c:	d8 2a 7e b0 	stb  %o4, [ %o1 + -336 ]
    4080:	91 38 60 1f 	sra  %g1, 0x1f, %o0
    4084:	81 82 20 00 	mov  %o0, %y
    4088:	01 00 00 00 	nop 
    408c:	01 00 00 00 	nop 
    4090:	01 00 00 00 	nop 
    4094:	ae 78 60 0a 	sdiv  %g1, 0xa, %l7
    4098:	86 00 e0 02 	add  %g3, 2, %g3
    409c:	ec 09 00 17 	ldub  [ %g4 + %l7 ], %l6
    40a0:	90 05 c0 17 	add  %l7, %l7, %o0
    40a4:	99 2d e0 03 	sll  %l7, 3, %o4
    40a8:	ec 2a 7e b1 	stb  %l6, [ %o1 + -335 ]
    40ac:	92 02 00 0c 	add  %o0, %o4, %o1
    40b0:	82 20 40 09 	sub  %g1, %o1, %g1
    40b4:	c2 09 00 01 	ldub  [ %g4 + %g1 ], %g1
    40b8:	ae 07 80 03 	add  %fp, %g3, %l7
    40bc:	c2 2d fe b0 	stb  %g1, [ %l7 + -336 ]
    40c0:	84 00 a0 01 	inc  %g2
    40c4:	80 a0 a0 04 	cmp  %g2, 4
    40c8:	12 bf ff d9 	bne  402c <ee_printf+0x308>
    40cc:	88 00 e0 01 	add  %g3, 1, %g4
    40d0:	80 8b 60 10 	btst  0x10, %o5
    40d4:	32 80 00 0f 	bne,a   4110 <ee_printf+0x3ec>
    40d8:	82 10 20 00 	clr  %g1
    40dc:	80 a1 00 1c 	cmp  %g4, %i4
    40e0:	16 80 02 07 	bge  48fc <ee_printf+0xbd8>
    40e4:	82 07 3f ff 	add  %i4, -1, %g1
    40e8:	82 27 00 04 	sub  %i4, %g4, %g1
    40ec:	9e 10 20 20 	mov  0x20, %o7
    40f0:	82 07 40 01 	add  %i5, %g1, %g1
    40f4:	de 2f 40 00 	stb  %o7, [ %i5 ]
    40f8:	ba 07 60 01 	inc  %i5
    40fc:	80 a7 40 01 	cmp  %i5, %g1
    4100:	32 bf ff fe 	bne,a   40f8 <ee_printf+0x3d4>
    4104:	de 2f 40 00 	stb  %o7, [ %i5 ]
    4108:	b8 01 3f ff 	add  %g4, -1, %i4
    410c:	82 10 20 00 	clr  %g1
    4110:	da 0c 80 01 	ldub  [ %l2 + %g1 ], %o5
    4114:	da 2f 40 01 	stb  %o5, [ %i5 + %g1 ]
    4118:	82 00 60 01 	inc  %g1
    411c:	80 a0 40 04 	cmp  %g1, %g4
    4120:	32 bf ff fd 	bne,a   4114 <ee_printf+0x3f0>
    4124:	da 0c 80 01 	ldub  [ %l2 + %g1 ], %o5
    4128:	80 a0 40 1c 	cmp  %g1, %i4
    412c:	16 80 00 0a 	bge  4154 <ee_printf+0x430>
    4130:	ba 07 40 01 	add  %i5, %g1, %i5
    4134:	82 27 00 01 	sub  %i4, %g1, %g1
    4138:	94 10 20 20 	mov  0x20, %o2
    413c:	82 07 40 01 	add  %i5, %g1, %g1
    4140:	d4 2f 40 00 	stb  %o2, [ %i5 ]
    4144:	ba 07 60 01 	inc  %i5
    4148:	80 a7 40 01 	cmp  %i5, %g1
    414c:	32 bf ff fe 	bne,a   4144 <ee_printf+0x420>
    4150:	d4 2f 40 00 	stb  %o2, [ %i5 ]
    4154:	10 bf ff 0c 	b  3d84 <ee_printf+0x60>
    4158:	da 0e 20 01 	ldub  [ %i0 + 1 ], %o5
    415c:	9a 13 60 40 	or  %o5, 0x40, %o5
    4160:	94 10 20 10 	mov  0x10, %o2
    4164:	d2 04 c0 00 	ld  [ %l3 ], %o1
    4168:	90 10 00 1d 	mov  %i5, %o0
    416c:	96 10 00 1c 	mov  %i4, %o3
    4170:	7f ff fe 2b 	call  3a1c <number>
    4174:	98 10 00 16 	mov  %l6, %o4
    4178:	a6 04 e0 04 	add  %l3, 4, %l3
    417c:	ba 10 00 08 	mov  %o0, %i5
    4180:	10 bf ff 01 	b  3d84 <ee_printf+0x60>
    4184:	da 0e 20 01 	ldub  [ %i0 + 1 ], %o5
    4188:	9a 13 60 02 	or  %o5, 2, %o5
    418c:	10 bf ff f6 	b  4164 <ee_printf+0x440>
    4190:	94 10 20 0a 	mov  0xa, %o2
    4194:	80 8b 60 10 	btst  0x10, %o5
    4198:	32 80 00 97 	bne,a   43f4 <ee_printf+0x6d0>
    419c:	c2 04 c0 00 	ld  [ %l3 ], %g1
    41a0:	b8 07 3f ff 	add  %i4, -1, %i4
    41a4:	80 a7 20 00 	cmp  %i4, 0
    41a8:	04 80 00 92 	ble  43f0 <ee_printf+0x6cc>
    41ac:	98 07 40 1c 	add  %i5, %i4, %o4
    41b0:	82 10 20 20 	mov  0x20, %g1
    41b4:	c2 2f 40 00 	stb  %g1, [ %i5 ]
    41b8:	ba 07 60 01 	inc  %i5
    41bc:	80 a7 40 0c 	cmp  %i5, %o4
    41c0:	32 bf ff fe 	bne,a   41b8 <ee_printf+0x494>
    41c4:	c2 2f 40 00 	stb  %g1, [ %i5 ]
    41c8:	c2 04 c0 00 	ld  [ %l3 ], %g1
    41cc:	a6 04 e0 04 	add  %l3, 4, %l3
    41d0:	c2 2f 40 00 	stb  %g1, [ %i5 ]
    41d4:	ba 07 60 01 	inc  %i5
    41d8:	10 bf fe eb 	b  3d84 <ee_printf+0x60>
    41dc:	da 0e 20 01 	ldub  [ %i0 + 1 ], %o5
    41e0:	10 bf ff e1 	b  4164 <ee_printf+0x440>
    41e4:	94 10 20 10 	mov  0x10, %o2
    41e8:	10 bf ff df 	b  4164 <ee_printf+0x440>
    41ec:	94 10 20 0a 	mov  0xa, %o2
    41f0:	d2 04 c0 00 	ld  [ %l3 ], %o1
    41f4:	80 a2 60 00 	cmp  %o1, 0
    41f8:	02 80 01 a9 	be  489c <ee_printf+0xb78>
    41fc:	a6 04 e0 04 	add  %l3, 4, %l3
    4200:	c2 4a 40 00 	ldsb  [ %o1 ], %g1
    4204:	80 a0 60 00 	cmp  %g1, 0
    4208:	02 80 01 a8 	be  48a8 <ee_printf+0xb84>
    420c:	80 a5 a0 00 	cmp  %l6, 0
    4210:	02 80 01 a6 	be  48a8 <ee_printf+0xb84>
    4214:	82 10 00 09 	mov  %o1, %g1
    4218:	10 80 00 05 	b  422c <ee_printf+0x508>
    421c:	82 00 60 01 	inc  %g1
    4220:	22 80 00 08 	be,a   4240 <ee_printf+0x51c>
    4224:	ac 20 40 09 	sub  %g1, %o1, %l6
    4228:	82 00 60 01 	inc  %g1
    422c:	d4 48 40 00 	ldsb  [ %g1 ], %o2
    4230:	80 a2 a0 00 	cmp  %o2, 0
    4234:	12 bf ff fb 	bne  4220 <ee_printf+0x4fc>
    4238:	ac 85 bf ff 	addcc  %l6, -1, %l6
    423c:	ac 20 40 09 	sub  %g1, %o1, %l6
    4240:	80 8b 60 10 	btst  0x10, %o5
    4244:	12 80 00 0f 	bne  4280 <ee_printf+0x55c>
    4248:	80 a5 a0 00 	cmp  %l6, 0
    424c:	80 a7 00 16 	cmp  %i4, %l6
    4250:	04 80 01 c4 	ble  4960 <ee_printf+0xc3c>
    4254:	82 07 3f ff 	add  %i4, -1, %g1
    4258:	82 27 00 16 	sub  %i4, %l6, %g1
    425c:	9a 10 20 20 	mov  0x20, %o5
    4260:	82 07 40 01 	add  %i5, %g1, %g1
    4264:	da 2f 40 00 	stb  %o5, [ %i5 ]
    4268:	ba 07 60 01 	inc  %i5
    426c:	80 a7 40 01 	cmp  %i5, %g1
    4270:	32 bf ff fe 	bne,a   4268 <ee_printf+0x544>
    4274:	da 2f 40 00 	stb  %o5, [ %i5 ]
    4278:	b8 05 bf ff 	add  %l6, -1, %i4
    427c:	80 a5 a0 00 	cmp  %l6, 0
    4280:	04 80 00 09 	ble  42a4 <ee_printf+0x580>
    4284:	82 10 20 00 	clr  %g1
    4288:	d6 0a 40 01 	ldub  [ %o1 + %g1 ], %o3
    428c:	d6 2f 40 01 	stb  %o3, [ %i5 + %g1 ]
    4290:	82 00 60 01 	inc  %g1
    4294:	80 a0 40 16 	cmp  %g1, %l6
    4298:	32 bf ff fd 	bne,a   428c <ee_printf+0x568>
    429c:	d6 0a 40 01 	ldub  [ %o1 + %g1 ], %o3
    42a0:	ba 07 40 16 	add  %i5, %l6, %i5
    42a4:	82 27 00 16 	sub  %i4, %l6, %g1
    42a8:	98 10 20 20 	mov  0x20, %o4
    42ac:	80 a7 00 16 	cmp  %i4, %l6
    42b0:	04 bf ff a9 	ble  4154 <ee_printf+0x430>
    42b4:	82 07 40 01 	add  %i5, %g1, %g1
    42b8:	d8 2f 40 00 	stb  %o4, [ %i5 ]
    42bc:	ba 07 60 01 	inc  %i5
    42c0:	80 a7 40 01 	cmp  %i5, %g1
    42c4:	32 bf ff fe 	bne,a   42bc <ee_printf+0x598>
    42c8:	d8 2f 40 00 	stb  %o4, [ %i5 ]
    42cc:	10 bf fe ae 	b  3d84 <ee_printf+0x60>
    42d0:	da 0e 20 01 	ldub  [ %i0 + 1 ], %o5
    42d4:	80 a7 3f ff 	cmp  %i4, -1
    42d8:	22 80 00 65 	be,a   446c <ee_printf+0x748>
    42dc:	9a 13 60 01 	or  %o5, 1, %o5
    42e0:	d2 04 c0 00 	ld  [ %l3 ], %o1
    42e4:	90 10 00 1d 	mov  %i5, %o0
    42e8:	94 10 20 10 	mov  0x10, %o2
    42ec:	96 10 00 1c 	mov  %i4, %o3
    42f0:	7f ff fd cb 	call  3a1c <number>
    42f4:	98 10 00 16 	mov  %l6, %o4
    42f8:	a6 04 e0 04 	add  %l3, 4, %l3
    42fc:	ba 10 00 08 	mov  %o0, %i5
    4300:	10 bf fe a1 	b  3d84 <ee_printf+0x60>
    4304:	da 0e 20 01 	ldub  [ %i0 + 1 ], %o5
    4308:	10 bf ff 97 	b  4164 <ee_printf+0x440>
    430c:	94 10 20 08 	mov  8, %o2
    4310:	92 10 00 13 	mov  %l3, %o1
    4314:	90 07 be 58 	add  %fp, -424, %o0
    4318:	94 10 20 08 	mov  8, %o2
    431c:	7f ff fe 6f 	call  3cd8 <memcpy>
    4320:	da 27 be 3c 	st  %o5, [ %fp + -452 ]
    4324:	c4 07 be 3c 	ld  [ %fp + -452 ], %g2
    4328:	a6 04 e0 08 	add  %l3, 8, %l3
    432c:	d1 1f be 58 	ldd  [ %fp + -424 ], %f8
    4330:	80 88 a0 10 	btst  0x10, %g2
    4334:	12 80 00 41 	bne  4438 <ee_printf+0x714>
    4338:	82 10 a0 02 	or  %g2, 2, %g1
    433c:	9e 08 60 01 	and  %g1, 1, %o7
    4340:	80 a0 00 0f 	cmp  %g0, %o7
    4344:	ae 40 3f ff 	addx  %g0, -1, %l7
    4348:	d5 1c 22 78 	ldd  [ %l0 + 0x278 ], %f10
    434c:	86 0d e0 f0 	and  %l7, 0xf0, %g3
    4350:	81 aa 0a ca 	fcmped  %f8, %f10
    4354:	01 00 00 00 	nop 
    4358:	09 80 00 9c 	fbl  45c8 <ee_printf+0x8a4>
    435c:	ae 00 e0 30 	add  %g3, 0x30, %l7
    4360:	80 88 60 04 	btst  4, %g1
    4364:	32 80 00 ca 	bne,a   468c <ee_printf+0x968>
    4368:	b8 07 3f ff 	add  %i4, -1, %i4
    436c:	80 88 60 08 	btst  8, %g1
    4370:	02 80 00 99 	be  45d4 <ee_printf+0x8b0>
    4374:	88 10 20 00 	clr  %g4
    4378:	b8 07 3f ff 	add  %i4, -1, %i4
    437c:	10 80 00 96 	b  45d4 <ee_printf+0x8b0>
    4380:	88 10 20 20 	mov  0x20, %g4
    4384:	f8 04 c0 00 	ld  [ %l3 ], %i4
    4388:	84 06 20 02 	add  %i0, 2, %g2
    438c:	a6 04 e0 04 	add  %l3, 4, %l3
    4390:	80 a7 20 00 	cmp  %i4, 0
    4394:	16 bf fe 9e 	bge  3e0c <ee_printf+0xe8>
    4398:	c2 0e 20 02 	ldub  [ %i0 + 2 ], %g1
    439c:	b8 20 00 1c 	neg  %i4
    43a0:	10 bf fe 9b 	b  3e0c <ee_printf+0xe8>
    43a4:	9a 13 60 10 	or  %o5, 0x10, %o5
    43a8:	24 bf ff 43 	ble,a   40b4 <ee_printf+0x390>
    43ac:	88 16 61 00 	or  %i1, 0x100, %g4
    43b0:	89 38 60 1f 	sra  %g1, 0x1f, %g4
    43b4:	81 81 20 00 	mov  %g4, %y
    43b8:	01 00 00 00 	nop 
    43bc:	01 00 00 00 	nop 
    43c0:	01 00 00 00 	nop 
    43c4:	ae 78 60 0a 	sdiv  %g1, 0xa, %l7
    43c8:	90 07 80 03 	add  %fp, %g3, %o0
    43cc:	88 16 61 00 	or  %i1, 0x100, %g4
    43d0:	92 05 c0 17 	add  %l7, %l7, %o1
    43d4:	ec 09 00 17 	ldub  [ %g4 + %l7 ], %l6
    43d8:	99 2d e0 03 	sll  %l7, 3, %o4
    43dc:	ec 2a 3e b0 	stb  %l6, [ %o0 + -336 ]
    43e0:	ae 02 40 0c 	add  %o1, %o4, %l7
    43e4:	86 00 e0 01 	inc  %g3
    43e8:	10 bf ff 33 	b  40b4 <ee_printf+0x390>
    43ec:	82 20 40 17 	sub  %g1, %l7, %g1
    43f0:	c2 04 c0 00 	ld  [ %l3 ], %g1
    43f4:	c2 2f 40 00 	stb  %g1, [ %i5 ]
    43f8:	90 07 60 01 	add  %i5, 1, %o0
    43fc:	a6 04 e0 04 	add  %l3, 4, %l3
    4400:	ba 07 40 1c 	add  %i5, %i4, %i5
    4404:	82 10 00 08 	mov  %o0, %g1
    4408:	80 a7 20 01 	cmp  %i4, 1
    440c:	04 80 01 60 	ble  498c <ee_printf+0xc68>
    4410:	ac 10 20 20 	mov  0x20, %l6
    4414:	ec 28 40 00 	stb  %l6, [ %g1 ]
    4418:	82 00 60 01 	inc  %g1
    441c:	80 a0 40 1d 	cmp  %g1, %i5
    4420:	32 bf ff fe 	bne,a   4418 <ee_printf+0x6f4>
    4424:	ec 28 40 00 	stb  %l6, [ %g1 ]
    4428:	b8 07 3f ff 	add  %i4, -1, %i4
    442c:	da 0e 20 01 	ldub  [ %i0 + 1 ], %o5
    4430:	10 bf fe 55 	b  3d84 <ee_printf+0x60>
    4434:	ba 02 00 1c 	add  %o0, %i4, %i5
    4438:	82 08 bf fe 	and  %g2, -2, %g1
    443c:	82 10 60 02 	or  %g1, 2, %g1
    4440:	9e 08 60 01 	and  %g1, 1, %o7
    4444:	80 a0 00 0f 	cmp  %g0, %o7
    4448:	ae 40 3f ff 	addx  %g0, -1, %l7
    444c:	d5 1c 22 78 	ldd  [ %l0 + 0x278 ], %f10
    4450:	86 0d e0 f0 	and  %l7, 0xf0, %g3
    4454:	81 aa 0a ca 	fcmped  %f8, %f10
    4458:	01 00 00 00 	nop 
    445c:	19 bf ff c1 	fbuge  4360 <ee_printf+0x63c>
    4460:	ae 00 e0 30 	add  %g3, 0x30, %l7
    4464:	10 80 00 5a 	b  45cc <ee_printf+0x8a8>
    4468:	91 a0 00 a8 	fnegs  %f8, %f8
    446c:	10 bf ff 9d 	b  42e0 <ee_printf+0x5bc>
    4470:	b8 10 20 08 	mov  8, %i4
    4474:	d4 04 c0 00 	ld  [ %l3 ], %o2
    4478:	80 8b 60 40 	btst  0x40, %o5
    447c:	02 80 00 51 	be  45c0 <ee_printf+0x89c>
    4480:	a6 04 e0 04 	add  %l3, 4, %l3
    4484:	9e 14 61 28 	or  %l1, 0x128, %o7
    4488:	82 10 20 00 	clr  %g1
    448c:	84 10 20 00 	clr  %g2
    4490:	ec 0a 80 01 	ldub  [ %o2 + %g1 ], %l6
    4494:	86 07 80 02 	add  %fp, %g2, %g3
    4498:	90 0d a0 ff 	and  %l6, 0xff, %o0
    449c:	98 0d a0 0f 	and  %l6, 0xf, %o4
    44a0:	af 32 20 04 	srl  %o0, 4, %l7
    44a4:	d6 0b c0 0c 	ldub  [ %o7 + %o4 ], %o3
    44a8:	c8 0b c0 17 	ldub  [ %o7 + %l7 ], %g4
    44ac:	d6 28 fe b1 	stb  %o3, [ %g3 + -335 ]
    44b0:	c8 28 fe b0 	stb  %g4, [ %g3 + -336 ]
    44b4:	82 00 60 01 	inc  %g1
    44b8:	92 10 20 3a 	mov  0x3a, %o1
    44bc:	80 a0 60 06 	cmp  %g1, 6
    44c0:	02 80 00 12 	be  4508 <ee_printf+0x7e4>
    44c4:	ac 00 a0 02 	add  %g2, 2, %l6
    44c8:	86 07 80 16 	add  %fp, %l6, %g3
    44cc:	d2 28 fe b0 	stb  %o1, [ %g3 + -336 ]
    44d0:	84 00 a0 03 	add  %g2, 3, %g2
    44d4:	ec 0a 80 01 	ldub  [ %o2 + %g1 ], %l6
    44d8:	86 07 80 02 	add  %fp, %g2, %g3
    44dc:	90 0d a0 ff 	and  %l6, 0xff, %o0
    44e0:	98 0d a0 0f 	and  %l6, 0xf, %o4
    44e4:	af 32 20 04 	srl  %o0, 4, %l7
    44e8:	d6 0b c0 0c 	ldub  [ %o7 + %o4 ], %o3
    44ec:	c8 0b c0 17 	ldub  [ %o7 + %l7 ], %g4
    44f0:	d6 28 fe b1 	stb  %o3, [ %g3 + -335 ]
    44f4:	c8 28 fe b0 	stb  %g4, [ %g3 + -336 ]
    44f8:	82 00 60 01 	inc  %g1
    44fc:	80 a0 60 06 	cmp  %g1, 6
    4500:	12 bf ff f2 	bne  44c8 <ee_printf+0x7a4>
    4504:	ac 00 a0 02 	add  %g2, 2, %l6
    4508:	80 8b 60 10 	btst  0x10, %o5
    450c:	32 80 00 0f 	bne,a   4548 <ee_printf+0x824>
    4510:	82 10 20 00 	clr  %g1
    4514:	80 a7 00 16 	cmp  %i4, %l6
    4518:	04 80 01 18 	ble  4978 <ee_printf+0xc54>
    451c:	82 07 3f ff 	add  %i4, -1, %g1
    4520:	82 27 00 16 	sub  %i4, %l6, %g1
    4524:	b8 10 20 20 	mov  0x20, %i4
    4528:	82 07 40 01 	add  %i5, %g1, %g1
    452c:	f8 2f 40 00 	stb  %i4, [ %i5 ]
    4530:	ba 07 60 01 	inc  %i5
    4534:	80 a7 40 01 	cmp  %i5, %g1
    4538:	32 bf ff fe 	bne,a   4530 <ee_printf+0x80c>
    453c:	f8 2f 40 00 	stb  %i4, [ %i5 ]
    4540:	b8 05 bf ff 	add  %l6, -1, %i4
    4544:	82 10 20 00 	clr  %g1
    4548:	d2 0c 80 01 	ldub  [ %l2 + %g1 ], %o1
    454c:	d2 2f 40 01 	stb  %o1, [ %i5 + %g1 ]
    4550:	82 00 60 01 	inc  %g1
    4554:	80 a0 40 16 	cmp  %g1, %l6
    4558:	32 bf ff fd 	bne,a   454c <ee_printf+0x828>
    455c:	d2 0c 80 01 	ldub  [ %l2 + %g1 ], %o1
    4560:	80 a7 00 01 	cmp  %i4, %g1
    4564:	04 bf fe fc 	ble  4154 <ee_printf+0x430>
    4568:	ba 07 40 01 	add  %i5, %g1, %i5
    456c:	82 27 00 01 	sub  %i4, %g1, %g1
    4570:	84 10 20 20 	mov  0x20, %g2
    4574:	82 07 40 01 	add  %i5, %g1, %g1
    4578:	c4 2f 40 00 	stb  %g2, [ %i5 ]
    457c:	ba 07 60 01 	inc  %i5
    4580:	80 a7 40 01 	cmp  %i5, %g1
    4584:	32 bf ff fe 	bne,a   457c <ee_printf+0x858>
    4588:	c4 2f 40 00 	stb  %g2, [ %i5 ]
    458c:	10 bf fd fe 	b  3d84 <ee_printf+0x60>
    4590:	da 0e 20 01 	ldub  [ %i0 + 1 ], %o5
    4594:	ec 04 c0 00 	ld  [ %l3 ], %l6
    4598:	84 06 20 02 	add  %i0, 2, %g2
    459c:	a6 04 e0 04 	add  %l3, 4, %l3
    45a0:	80 a5 a0 00 	cmp  %l6, 0
    45a4:	16 bf fe 87 	bge  3fc0 <ee_printf+0x29c>
    45a8:	c2 0e 20 02 	ldub  [ %i0 + 2 ], %g1
    45ac:	ac 10 20 00 	clr  %l6
    45b0:	10 bf fe 1d 	b  3e24 <ee_printf+0x100>
    45b4:	b0 10 00 02 	mov  %g2, %i0
    45b8:	10 bf fe 3d 	b  3eac <ee_printf+0x188>
    45bc:	ba 10 00 1b 	mov  %i3, %i5
    45c0:	10 bf ff b2 	b  4488 <ee_printf+0x764>
    45c4:	9e 16 61 00 	or  %i1, 0x100, %o7
    45c8:	91 a0 00 a8 	fnegs  %f8, %f8
    45cc:	b8 07 3f ff 	add  %i4, -1, %i4
    45d0:	88 10 20 2d 	mov  0x2d, %g4
    45d4:	80 a5 bf ff 	cmp  %l6, -1
    45d8:	22 80 00 02 	be,a   45e0 <ee_printf+0x8bc>
    45dc:	ac 10 20 06 	mov  6, %l6
    45e0:	d1 3f be 30 	std  %f8, [ %fp + -464 ]
    45e4:	c2 27 be 44 	st  %g1, [ %fp + -444 ]
    45e8:	d0 1f be 30 	ldd  [ %fp + -464 ], %o0
    45ec:	c8 27 be 40 	st  %g4, [ %fp + -448 ]
    45f0:	94 10 00 16 	mov  %l6, %o2
    45f4:	96 07 be 50 	add  %fp, -432, %o3
    45f8:	98 07 be 54 	add  %fp, -428, %o4
    45fc:	7f ff fc b4 	call  38cc <fcvtbuf>
    4600:	9a 10 00 12 	mov  %l2, %o5
    4604:	d2 07 be 54 	ld  [ %fp + -428 ], %o1
    4608:	84 07 be 60 	add  %fp, -416, %g2
    460c:	80 a2 60 00 	cmp  %o1, 0
    4610:	c2 07 be 44 	ld  [ %fp + -444 ], %g1
    4614:	02 80 00 05 	be  4628 <ee_printf+0x904>
    4618:	c8 07 be 40 	ld  [ %fp + -448 ], %g4
    461c:	94 10 20 2d 	mov  0x2d, %o2
    4620:	84 07 be 61 	add  %fp, -415, %g2
    4624:	d4 2f be 60 	stb  %o2, [ %fp + -416 ]
    4628:	da 4a 00 00 	ldsb  [ %o0 ], %o5
    462c:	80 a3 60 00 	cmp  %o5, 0
    4630:	02 80 00 a0 	be  48b0 <ee_printf+0xb8c>
    4634:	d8 0a 00 00 	ldub  [ %o0 ], %o4
    4638:	d2 07 be 50 	ld  [ %fp + -432 ], %o1
    463c:	86 10 00 08 	mov  %o0, %g3
    4640:	80 a2 60 00 	cmp  %o1, 0
    4644:	14 80 00 0b 	bg  4670 <ee_printf+0x94c>
    4648:	94 10 20 2e 	mov  0x2e, %o2
    464c:	10 80 00 12 	b  4694 <ee_printf+0x970>
    4650:	9e 10 20 30 	mov  0x30, %o7
    4654:	d8 28 80 00 	stb  %o4, [ %g2 ]
    4658:	86 00 e0 01 	inc  %g3
    465c:	84 00 a0 01 	inc  %g2
    4660:	d6 48 c0 00 	ldsb  [ %g3 ], %o3
    4664:	80 a2 e0 00 	cmp  %o3, 0
    4668:	02 80 00 1f 	be  46e4 <ee_printf+0x9c0>
    466c:	d8 08 c0 00 	ldub  [ %g3 ], %o4
    4670:	9a 20 c0 08 	sub  %g3, %o0, %o5
    4674:	80 a2 40 0d 	cmp  %o1, %o5
    4678:	32 bf ff f8 	bne,a   4658 <ee_printf+0x934>
    467c:	d8 28 80 00 	stb  %o4, [ %g2 ]
    4680:	d4 28 80 00 	stb  %o2, [ %g2 ]
    4684:	10 bf ff f4 	b  4654 <ee_printf+0x930>
    4688:	84 00 a0 01 	inc  %g2
    468c:	10 bf ff d2 	b  45d4 <ee_printf+0x8b0>
    4690:	88 10 20 2b 	mov  0x2b, %g4
    4694:	94 10 20 2e 	mov  0x2e, %o2
    4698:	de 28 80 00 	stb  %o7, [ %g2 ]
    469c:	d4 28 a0 01 	stb  %o2, [ %g2 + 1 ]
    46a0:	92 a0 00 09 	subcc  %g0, %o1, %o1
    46a4:	02 80 00 09 	be  46c8 <ee_printf+0x9a4>
    46a8:	84 00 a0 02 	add  %g2, 2, %g2
    46ac:	9a 00 80 09 	add  %g2, %o1, %o5
    46b0:	86 10 20 30 	mov  0x30, %g3
    46b4:	c6 28 80 00 	stb  %g3, [ %g2 ]
    46b8:	84 00 a0 01 	inc  %g2
    46bc:	80 a0 80 0d 	cmp  %g2, %o5
    46c0:	32 bf ff fe 	bne,a   46b8 <ee_printf+0x994>
    46c4:	c6 28 80 00 	stb  %g3, [ %g2 ]
    46c8:	d8 28 80 00 	stb  %o4, [ %g2 ]
    46cc:	90 02 20 01 	inc  %o0
    46d0:	84 00 a0 01 	inc  %g2
    46d4:	d6 4a 00 00 	ldsb  [ %o0 ], %o3
    46d8:	80 a2 e0 00 	cmp  %o3, 0
    46dc:	12 bf ff fb 	bne  46c8 <ee_printf+0x9a4>
    46e0:	d8 0a 00 00 	ldub  [ %o0 ], %o4
    46e4:	80 88 60 20 	btst  0x20, %g1
    46e8:	02 80 00 05 	be  46fc <ee_printf+0x9d8>
    46ec:	c0 28 80 00 	clrb  [ %g2 ]
    46f0:	80 a5 a0 00 	cmp  %l6, 0
    46f4:	02 80 00 4c 	be  4824 <ee_printf+0xb00>
    46f8:	d0 4f be 60 	ldsb  [ %fp + -416 ], %o0
    46fc:	c4 0f be 60 	ldub  [ %fp + -416 ], %g2
    4700:	91 28 a0 18 	sll  %g2, 0x18, %o0
    4704:	80 a2 20 00 	cmp  %o0, 0
    4708:	02 80 00 0d 	be  473c <ee_printf+0xa18>
    470c:	ac 10 20 00 	clr  %l6
    4710:	98 07 be 60 	add  %fp, -416, %o4
    4714:	10 80 00 04 	b  4724 <ee_printf+0xa00>
    4718:	9e 10 00 0c 	mov  %o4, %o7
    471c:	02 80 00 08 	be  473c <ee_printf+0xa18>
    4720:	ac 25 40 0c 	sub  %l5, %o4, %l6
    4724:	9e 03 e0 01 	inc  %o7
    4728:	da 4b c0 00 	ldsb  [ %o7 ], %o5
    472c:	80 a3 60 00 	cmp  %o5, 0
    4730:	12 bf ff fb 	bne  471c <ee_printf+0x9f8>
    4734:	80 a3 c0 15 	cmp  %o7, %l5
    4738:	ac 23 c0 0c 	sub  %o7, %o4, %l6
    473c:	80 88 60 11 	btst  0x11, %g1
    4740:	12 80 00 0d 	bne  4774 <ee_printf+0xa50>
    4744:	86 27 00 16 	sub  %i4, %l6, %g3
    4748:	80 a0 e0 00 	cmp  %g3, 0
    474c:	04 80 00 87 	ble  4968 <ee_printf+0xc44>
    4750:	94 00 ff ff 	add  %g3, -1, %o2
    4754:	92 07 40 03 	add  %i5, %g3, %o1
    4758:	96 10 20 20 	mov  0x20, %o3
    475c:	d6 2f 40 00 	stb  %o3, [ %i5 ]
    4760:	ba 07 60 01 	inc  %i5
    4764:	80 a7 40 09 	cmp  %i5, %o1
    4768:	32 bf ff fe 	bne,a   4760 <ee_printf+0xa3c>
    476c:	d6 2f 40 00 	stb  %o3, [ %i5 ]
    4770:	86 10 3f ff 	mov  -1, %g3
    4774:	80 89 20 ff 	btst  0xff, %g4
    4778:	02 80 00 04 	be  4788 <ee_printf+0xa64>
    477c:	80 88 60 10 	btst  0x10, %g1
    4780:	c8 2f 40 00 	stb  %g4, [ %i5 ]
    4784:	ba 07 60 01 	inc  %i5
    4788:	12 80 00 0d 	bne  47bc <ee_printf+0xa98>
    478c:	80 a5 a0 00 	cmp  %l6, 0
    4790:	80 a0 e0 00 	cmp  %g3, 0
    4794:	04 80 00 77 	ble  4970 <ee_printf+0xc4c>
    4798:	82 00 ff ff 	add  %g3, -1, %g1
    479c:	88 07 40 03 	add  %i5, %g3, %g4
    47a0:	ee 2f 40 00 	stb  %l7, [ %i5 ]
    47a4:	ba 07 60 01 	inc  %i5
    47a8:	80 a7 40 04 	cmp  %i5, %g4
    47ac:	32 bf ff fe 	bne,a   47a4 <ee_printf+0xa80>
    47b0:	ee 2f 40 00 	stb  %l7, [ %i5 ]
    47b4:	86 10 3f ff 	mov  -1, %g3
    47b8:	80 a5 a0 00 	cmp  %l6, 0
    47bc:	04 80 00 0b 	ble  47e8 <ee_printf+0xac4>
    47c0:	82 10 20 00 	clr  %g1
    47c4:	10 80 00 04 	b  47d4 <ee_printf+0xab0>
    47c8:	c4 2f 40 01 	stb  %g2, [ %i5 + %g1 ]
    47cc:	c4 08 40 17 	ldub  [ %g1 + %l7 ], %g2
    47d0:	c4 2f 40 01 	stb  %g2, [ %i5 + %g1 ]
    47d4:	82 00 60 01 	inc  %g1
    47d8:	80 a0 40 16 	cmp  %g1, %l6
    47dc:	12 bf ff fc 	bne  47cc <ee_printf+0xaa8>
    47e0:	ae 07 be 60 	add  %fp, -416, %l7
    47e4:	ba 07 40 01 	add  %i5, %g1, %i5
    47e8:	80 a0 e0 00 	cmp  %g3, 0
    47ec:	04 bf fe 5a 	ble  4154 <ee_printf+0x430>
    47f0:	82 10 20 20 	mov  0x20, %g1
    47f4:	84 07 40 03 	add  %i5, %g3, %g2
    47f8:	c2 2f 40 00 	stb  %g1, [ %i5 ]
    47fc:	ba 07 60 01 	inc  %i5
    4800:	80 a7 40 02 	cmp  %i5, %g2
    4804:	32 bf ff fe 	bne,a   47fc <ee_printf+0xad8>
    4808:	c2 2f 40 00 	stb  %g1, [ %i5 ]
    480c:	10 bf fd 5e 	b  3d84 <ee_printf+0x60>
    4810:	da 0e 20 01 	ldub  [ %i0 + 1 ], %o5
    4814:	80 88 60 20 	btst  0x20, %g1
    4818:	02 bf ff b9 	be  46fc <ee_printf+0x9d8>
    481c:	c0 28 a0 01 	clrb  [ %g2 + 1 ]
    4820:	d0 4f be 60 	ldsb  [ %fp + -416 ], %o0
    4824:	80 a2 20 00 	cmp  %o0, 0
    4828:	02 80 00 56 	be  4980 <ee_printf+0xc5c>
    482c:	c4 0f be 60 	ldub  [ %fp + -416 ], %g2
    4830:	80 a2 20 2e 	cmp  %o0, 0x2e
    4834:	02 bf ff b7 	be  4710 <ee_printf+0x9ec>
    4838:	ac 08 bf df 	and  %g2, -33, %l6
    483c:	99 2d a0 18 	sll  %l6, 0x18, %o4
    4840:	9f 3b 20 18 	sra  %o4, 0x18, %o7
    4844:	80 a3 e0 45 	cmp  %o7, 0x45
    4848:	02 80 00 2f 	be  4904 <ee_printf+0xbe0>
    484c:	86 07 be 61 	add  %fp, -415, %g3
    4850:	10 80 00 0b 	b  487c <ee_printf+0xb58>
    4854:	d4 48 c0 00 	ldsb  [ %g3 ], %o2
    4858:	80 a2 a0 2e 	cmp  %o2, 0x2e
    485c:	02 bf ff ad 	be  4710 <ee_printf+0x9ec>
    4860:	96 0a 7f df 	and  %o1, -33, %o3
    4864:	91 2a e0 18 	sll  %o3, 0x18, %o0
    4868:	ad 3a 20 18 	sra  %o0, 0x18, %l6
    486c:	80 a5 a0 45 	cmp  %l6, 0x45
    4870:	02 80 00 26 	be  4908 <ee_printf+0xbe4>
    4874:	86 00 e0 01 	inc  %g3
    4878:	d4 48 c0 00 	ldsb  [ %g3 ], %o2
    487c:	9a 10 00 03 	mov  %g3, %o5
    4880:	80 a2 a0 00 	cmp  %o2, 0
    4884:	12 bf ff f5 	bne  4858 <ee_printf+0xb34>
    4888:	d2 08 c0 00 	ldub  [ %g3 ], %o1
    488c:	c0 2b 60 01 	clrb  [ %o5 + 1 ]
    4890:	86 10 20 2e 	mov  0x2e, %g3
    4894:	10 bf ff 9a 	b  46fc <ee_printf+0x9d8>
    4898:	c6 2b 40 00 	stb  %g3, [ %o5 ]
    489c:	03 00 00 80 	sethi  %hi(0x20000), %g1
    48a0:	10 bf fe 58 	b  4200 <ee_printf+0x4dc>
    48a4:	92 10 61 50 	or  %g1, 0x150, %o1	! 20150 <state_known_crc+0x13c>
    48a8:	10 bf fe 66 	b  4240 <ee_printf+0x51c>
    48ac:	ac 10 20 00 	clr  %l6
    48b0:	90 10 20 30 	mov  0x30, %o0
    48b4:	80 a5 a0 00 	cmp  %l6, 0
    48b8:	02 bf ff d7 	be  4814 <ee_printf+0xaf0>
    48bc:	d0 28 80 00 	stb  %o0, [ %g2 ]
    48c0:	96 00 a0 02 	add  %g2, 2, %o3
    48c4:	98 10 20 2e 	mov  0x2e, %o4
    48c8:	9e 10 20 30 	mov  0x30, %o7
    48cc:	d8 28 a0 01 	stb  %o4, [ %g2 + 1 ]
    48d0:	84 10 20 00 	clr  %g2
    48d4:	de 2a c0 02 	stb  %o7, [ %o3 + %g2 ]
    48d8:	84 00 a0 01 	inc  %g2
    48dc:	80 a5 80 02 	cmp  %l6, %g2
    48e0:	34 bf ff fe 	bg,a   48d8 <ee_printf+0xbb4>
    48e4:	de 2a c0 02 	stb  %o7, [ %o3 + %g2 ]
    48e8:	80 a5 a0 00 	cmp  %l6, 0
    48ec:	24 80 00 02 	ble,a   48f4 <ee_printf+0xbd0>
    48f0:	ac 10 20 01 	mov  1, %l6
    48f4:	10 bf ff 82 	b  46fc <ee_printf+0x9d8>
    48f8:	c0 2a c0 16 	clrb  [ %o3 + %l6 ]
    48fc:	10 bf fe 04 	b  410c <ee_printf+0x3e8>
    4900:	b8 10 00 01 	mov  %g1, %i4
    4904:	9a 07 be 60 	add  %fp, -416, %o5
    4908:	98 03 61 00 	add  %o5, 0x100, %o4
    490c:	10 80 00 04 	b  491c <ee_printf+0xbf8>
    4910:	84 10 00 0d 	mov  %o5, %g2
    4914:	02 80 00 08 	be  4934 <ee_printf+0xc10>
    4918:	96 20 80 0d 	sub  %g2, %o5, %o3
    491c:	84 00 a0 01 	inc  %g2
    4920:	de 48 80 00 	ldsb  [ %g2 ], %o7
    4924:	80 a3 e0 00 	cmp  %o7, 0
    4928:	12 bf ff fb 	bne  4914 <ee_printf+0xbf0>
    492c:	80 a0 80 0c 	cmp  %g2, %o4
    4930:	96 20 80 0d 	sub  %g2, %o5, %o3
    4934:	80 a2 e0 00 	cmp  %o3, 0
    4938:	04 bf ff d7 	ble  4894 <ee_printf+0xb70>
    493c:	86 10 20 2e 	mov  0x2e, %g3
    4940:	d4 0b 40 0b 	ldub  [ %o5 + %o3 ], %o2
    4944:	92 03 40 0b 	add  %o5, %o3, %o1
    4948:	96 82 ff ff 	addcc  %o3, -1, %o3
    494c:	12 bf ff fd 	bne  4940 <ee_printf+0xc1c>
    4950:	d4 2a 60 01 	stb  %o2, [ %o1 + 1 ]
    4954:	86 10 20 2e 	mov  0x2e, %g3
    4958:	10 bf ff 69 	b  46fc <ee_printf+0x9d8>
    495c:	c6 2b 40 00 	stb  %g3, [ %o5 ]
    4960:	10 bf fe 47 	b  427c <ee_printf+0x558>
    4964:	b8 10 00 01 	mov  %g1, %i4
    4968:	10 bf ff 83 	b  4774 <ee_printf+0xa50>
    496c:	86 10 00 0a 	mov  %o2, %g3
    4970:	10 bf ff 92 	b  47b8 <ee_printf+0xa94>
    4974:	86 10 00 01 	mov  %g1, %g3
    4978:	10 bf fe f3 	b  4544 <ee_printf+0x820>
    497c:	b8 10 00 01 	mov  %g1, %i4
    4980:	9a 07 be 60 	add  %fp, -416, %o5
    4984:	10 bf ff c3 	b  4890 <ee_printf+0xb6c>
    4988:	c0 2b 60 01 	clrb  [ %o5 + 1 ]
    498c:	ba 10 00 08 	mov  %o0, %i5
    4990:	10 bf fc fd 	b  3d84 <ee_printf+0x60>
    4994:	da 0e 20 01 	ldub  [ %i0 + 1 ], %o5

00004998 <cmp_idx>:
    4998:	80 a2 a0 00 	cmp  %o2, 0
    499c:	22 80 00 06 	be,a   49b4 <cmp_idx+0x1c>
    49a0:	c2 12 00 00 	lduh  [ %o0 ], %g1
    49a4:	d0 52 20 02 	ldsh  [ %o0 + 2 ], %o0
    49a8:	c2 52 60 02 	ldsh  [ %o1 + 2 ], %g1
    49ac:	81 c3 e0 08 	retl 
    49b0:	90 22 00 01 	sub  %o0, %g1, %o0
    49b4:	85 28 60 10 	sll  %g1, 0x10, %g2
    49b8:	82 08 7f 00 	and  %g1, -256, %g1
    49bc:	87 30 a0 18 	srl  %g2, 0x18, %g3
    49c0:	82 10 c0 01 	or  %g3, %g1, %g1
    49c4:	c2 32 00 00 	sth  %g1, [ %o0 ]
    49c8:	c2 12 40 00 	lduh  [ %o1 ], %g1
    49cc:	89 28 60 10 	sll  %g1, 0x10, %g4
    49d0:	82 08 7f 00 	and  %g1, -256, %g1
    49d4:	95 31 20 18 	srl  %g4, 0x18, %o2
    49d8:	82 12 80 01 	or  %o2, %g1, %g1
    49dc:	d0 52 20 02 	ldsh  [ %o0 + 2 ], %o0
    49e0:	c2 32 40 00 	sth  %g1, [ %o1 ]
    49e4:	c2 52 60 02 	ldsh  [ %o1 + 2 ], %g1
    49e8:	81 c3 e0 08 	retl 
    49ec:	90 22 00 01 	sub  %o0, %g1, %o0

000049f0 <calc_func>:
    49f0:	9d e3 bf a0 	save  %sp, -96, %sp
    49f4:	fa 16 00 00 	lduh  [ %i0 ], %i5
    49f8:	80 8f 60 80 	btst  0x80, %i5
    49fc:	12 80 00 2e 	bne  4ab4 <calc_func+0xc4>
    4a00:	83 2f 60 10 	sll  %i5, 0x10, %g1
    4a04:	83 38 60 13 	sra  %g1, 0x13, %g1
    4a08:	84 8f 60 07 	andcc  %i5, 7, %g2
    4a0c:	82 08 60 0f 	and  %g1, 0xf, %g1
    4a10:	93 28 60 04 	sll  %g1, 4, %o1
    4a14:	92 12 40 01 	or  %o1, %g1, %o1
    4a18:	02 80 00 17 	be  4a74 <calc_func+0x84>
    4a1c:	98 10 00 09 	mov  %o1, %o4
    4a20:	80 a0 a0 01 	cmp  %g2, 1
    4a24:	02 80 00 28 	be  4ac4 <calc_func+0xd4>
    4a28:	b8 10 00 1d 	mov  %i5, %i4
    4a2c:	d2 16 60 38 	lduh  [ %i1 + 0x38 ], %o1
    4a30:	40 00 07 d5 	call  6984 <crcu8>
    4a34:	90 0f 20 ff 	and  %i4, 0xff, %o0
    4a38:	83 2f 20 10 	sll  %i4, 0x10, %g1
    4a3c:	87 2a 20 10 	sll  %o0, 0x10, %g3
    4a40:	91 30 60 18 	srl  %g1, 0x18, %o0
    4a44:	40 00 07 d0 	call  6984 <crcu8>
    4a48:	93 30 e0 10 	srl  %g3, 0x10, %o1
    4a4c:	d0 36 60 38 	sth  %o0, [ %i1 + 0x38 ]
    4a50:	88 0f 20 7f 	and  %i4, 0x7f, %g4
    4a54:	90 0f 7f 00 	and  %i5, -256, %o0
    4a58:	82 10 00 04 	mov  %g4, %g1
    4a5c:	94 12 20 80 	or  %o0, 0x80, %o2
    4a60:	96 12 80 04 	or  %o2, %g4, %o3
    4a64:	d6 36 00 00 	sth  %o3, [ %i0 ]
    4a68:	b0 08 60 7f 	and  %g1, 0x7f, %i0
    4a6c:	81 c7 e0 08 	ret 
    4a70:	81 e8 00 00 	restore 
    4a74:	80 a2 60 21 	cmp  %o1, 0x21
    4a78:	24 80 00 02 	ble,a   4a80 <calc_func+0x90>
    4a7c:	98 10 20 22 	mov  0x22, %o4
    4a80:	d0 06 60 18 	ld  [ %i1 + 0x18 ], %o0
    4a84:	d2 06 60 14 	ld  [ %i1 + 0x14 ], %o1
    4a88:	d4 56 40 00 	ldsh  [ %i1 ], %o2
    4a8c:	d6 56 60 02 	ldsh  [ %i1 + 2 ], %o3
    4a90:	98 0b 20 ff 	and  %o4, 0xff, %o4
    4a94:	7f ff fa 52 	call  33dc <core_bench_state>
    4a98:	da 16 60 38 	lduh  [ %i1 + 0x38 ], %o5
    4a9c:	c2 16 60 3e 	lduh  [ %i1 + 0x3e ], %g1
    4aa0:	80 a0 60 00 	cmp  %g1, 0
    4aa4:	12 bf ff e2 	bne  4a2c <calc_func+0x3c>
    4aa8:	b8 10 00 08 	mov  %o0, %i4
    4aac:	10 bf ff e0 	b  4a2c <calc_func+0x3c>
    4ab0:	d0 36 60 3e 	sth  %o0, [ %i1 + 0x3e ]
    4ab4:	82 0f 60 7f 	and  %i5, 0x7f, %g1
    4ab8:	b0 08 60 7f 	and  %g1, 0x7f, %i0
    4abc:	81 c7 e0 08 	ret 
    4ac0:	81 e8 00 00 	restore 
    4ac4:	90 06 60 28 	add  %i1, 0x28, %o0
    4ac8:	40 00 04 ed 	call  5e7c <core_bench_matrix>
    4acc:	d4 16 60 38 	lduh  [ %i1 + 0x38 ], %o2
    4ad0:	c2 16 60 3c 	lduh  [ %i1 + 0x3c ], %g1
    4ad4:	80 a0 60 00 	cmp  %g1, 0
    4ad8:	12 bf ff d5 	bne  4a2c <calc_func+0x3c>
    4adc:	b8 10 00 08 	mov  %o0, %i4
    4ae0:	10 bf ff d3 	b  4a2c <calc_func+0x3c>
    4ae4:	d0 36 60 3c 	sth  %o0, [ %i1 + 0x3c ]

00004ae8 <cmp_complex>:
    4ae8:	9d e3 bf a0 	save  %sp, -96, %sp
    4aec:	92 10 00 1a 	mov  %i2, %o1
    4af0:	7f ff ff c0 	call  49f0 <calc_func>
    4af4:	90 10 00 18 	mov  %i0, %o0
    4af8:	92 10 00 1a 	mov  %i2, %o1
    4afc:	ba 10 00 08 	mov  %o0, %i5
    4b00:	7f ff ff bc 	call  49f0 <calc_func>
    4b04:	90 10 00 19 	mov  %i1, %o0
    4b08:	83 2f 60 10 	sll  %i5, 0x10, %g1
    4b0c:	91 2a 20 10 	sll  %o0, 0x10, %o0
    4b10:	85 38 60 10 	sra  %g1, 0x10, %g2
    4b14:	b1 3a 20 10 	sra  %o0, 0x10, %i0
    4b18:	b0 20 80 18 	sub  %g2, %i0, %i0
    4b1c:	81 c7 e0 08 	ret 
    4b20:	81 e8 00 00 	restore 

00004b24 <copy_info>:
    4b24:	c4 12 40 00 	lduh  [ %o1 ], %g2
    4b28:	c2 12 60 02 	lduh  [ %o1 + 2 ], %g1
    4b2c:	c4 32 00 00 	sth  %g2, [ %o0 ]
    4b30:	81 c3 e0 08 	retl 
    4b34:	c2 32 20 02 	sth  %g1, [ %o0 + 2 ]

00004b38 <core_list_insert_new>:
    4b38:	c2 02 80 00 	ld  [ %o2 ], %g1
    4b3c:	84 00 60 08 	add  %g1, 8, %g2
    4b40:	80 a0 80 0c 	cmp  %g2, %o4
    4b44:	3a 80 00 17 	bcc,a   4ba0 <core_list_insert_new+0x68>
    4b48:	82 10 20 00 	clr  %g1
    4b4c:	c6 02 c0 00 	ld  [ %o3 ], %g3
    4b50:	88 00 e0 04 	add  %g3, 4, %g4
    4b54:	80 a3 40 04 	cmp  %o5, %g4
    4b58:	28 80 00 12 	bleu,a   4ba0 <core_list_insert_new+0x68>
    4b5c:	82 10 20 00 	clr  %g1
    4b60:	c4 22 80 00 	st  %g2, [ %o2 ]
    4b64:	d4 02 00 00 	ld  [ %o0 ], %o2
    4b68:	d4 20 40 00 	st  %o2, [ %g1 ]
    4b6c:	c2 22 00 00 	st  %g1, [ %o0 ]
    4b70:	d0 02 c0 00 	ld  [ %o3 ], %o0
    4b74:	d0 20 60 04 	st  %o0, [ %g1 + 4 ]
    4b78:	d8 02 c0 00 	ld  [ %o3 ], %o4
    4b7c:	9a 03 20 04 	add  %o4, 4, %o5
    4b80:	da 22 c0 00 	st  %o5, [ %o3 ]
    4b84:	90 10 00 01 	mov  %g1, %o0
    4b88:	d6 12 40 00 	lduh  [ %o1 ], %o3
    4b8c:	c4 00 60 04 	ld  [ %g1 + 4 ], %g2
    4b90:	d2 12 60 02 	lduh  [ %o1 + 2 ], %o1
    4b94:	d6 30 80 00 	sth  %o3, [ %g2 ]
    4b98:	81 c3 e0 08 	retl 
    4b9c:	d2 30 a0 02 	sth  %o1, [ %g2 + 2 ]
    4ba0:	81 c3 e0 08 	retl 
    4ba4:	90 10 00 01 	mov  %g1, %o0

00004ba8 <core_list_remove>:
    4ba8:	c2 02 00 00 	ld  [ %o0 ], %g1
    4bac:	c4 02 20 04 	ld  [ %o0 + 4 ], %g2
    4bb0:	c8 00 60 04 	ld  [ %g1 + 4 ], %g4
    4bb4:	c6 00 40 00 	ld  [ %g1 ], %g3
    4bb8:	c8 22 20 04 	st  %g4, [ %o0 + 4 ]
    4bbc:	c6 22 00 00 	st  %g3, [ %o0 ]
    4bc0:	c4 20 60 04 	st  %g2, [ %g1 + 4 ]
    4bc4:	c0 20 40 00 	clr  [ %g1 ]
    4bc8:	81 c3 e0 08 	retl 
    4bcc:	90 10 00 01 	mov  %g1, %o0

00004bd0 <core_list_undo_remove>:
    4bd0:	c4 02 20 04 	ld  [ %o0 + 4 ], %g2
    4bd4:	c8 02 60 04 	ld  [ %o1 + 4 ], %g4
    4bd8:	c6 02 40 00 	ld  [ %o1 ], %g3
    4bdc:	c8 22 20 04 	st  %g4, [ %o0 + 4 ]
    4be0:	c6 22 00 00 	st  %g3, [ %o0 ]
    4be4:	c4 22 60 04 	st  %g2, [ %o1 + 4 ]
    4be8:	81 c3 e0 08 	retl 
    4bec:	d0 22 40 00 	st  %o0, [ %o1 ]

00004bf0 <core_list_find>:
    4bf0:	c4 52 60 02 	ldsh  [ %o1 + 2 ], %g2
    4bf4:	80 a0 a0 00 	cmp  %g2, 0
    4bf8:	06 80 00 14 	bl  4c48 <core_list_find+0x58>
    4bfc:	80 a2 20 00 	cmp  %o0, 0
    4c00:	02 80 00 23 	be  4c8c <core_list_find+0x9c>
    4c04:	01 00 00 00 	nop 
    4c08:	c2 02 20 04 	ld  [ %o0 + 4 ], %g1
    4c0c:	c2 50 60 02 	ldsh  [ %g1 + 2 ], %g1
    4c10:	80 a0 80 01 	cmp  %g2, %g1
    4c14:	32 80 00 08 	bne,a   4c34 <core_list_find+0x44>
    4c18:	d0 02 00 00 	ld  [ %o0 ], %o0
    4c1c:	30 80 00 1c 	b,a   4c8c <core_list_find+0x9c>
    4c20:	c2 50 60 02 	ldsh  [ %g1 + 2 ], %g1
    4c24:	80 a0 80 01 	cmp  %g2, %g1
    4c28:	02 80 00 19 	be  4c8c <core_list_find+0x9c>
    4c2c:	01 00 00 00 	nop 
    4c30:	d0 02 00 00 	ld  [ %o0 ], %o0
    4c34:	80 a2 20 00 	cmp  %o0, 0
    4c38:	32 bf ff fa 	bne,a   4c20 <core_list_find+0x30>
    4c3c:	c2 02 20 04 	ld  [ %o0 + 4 ], %g1
    4c40:	81 c3 e0 08 	retl 
    4c44:	01 00 00 00 	nop 
    4c48:	02 80 00 11 	be  4c8c <core_list_find+0x9c>
    4c4c:	01 00 00 00 	nop 
    4c50:	c6 52 40 00 	ldsh  [ %o1 ], %g3
    4c54:	c2 02 20 04 	ld  [ %o0 + 4 ], %g1
    4c58:	c2 08 60 01 	ldub  [ %g1 + 1 ], %g1
    4c5c:	80 a0 40 03 	cmp  %g1, %g3
    4c60:	32 80 00 08 	bne,a   4c80 <core_list_find+0x90>
    4c64:	d0 02 00 00 	ld  [ %o0 ], %o0
    4c68:	30 80 00 09 	b,a   4c8c <core_list_find+0x9c>
    4c6c:	c2 08 60 01 	ldub  [ %g1 + 1 ], %g1
    4c70:	80 a0 40 03 	cmp  %g1, %g3
    4c74:	02 80 00 06 	be  4c8c <core_list_find+0x9c>
    4c78:	01 00 00 00 	nop 
    4c7c:	d0 02 00 00 	ld  [ %o0 ], %o0
    4c80:	80 a2 20 00 	cmp  %o0, 0
    4c84:	32 bf ff fa 	bne,a   4c6c <core_list_find+0x7c>
    4c88:	c2 02 20 04 	ld  [ %o0 + 4 ], %g1
    4c8c:	81 c3 e0 08 	retl 
    4c90:	01 00 00 00 	nop 

00004c94 <core_list_reverse>:
    4c94:	80 a2 20 00 	cmp  %o0, 0
    4c98:	02 80 00 0c 	be  4cc8 <core_list_reverse+0x34>
    4c9c:	84 10 20 00 	clr  %g2
    4ca0:	10 80 00 04 	b  4cb0 <core_list_reverse+0x1c>
    4ca4:	c2 02 00 00 	ld  [ %o0 ], %g1
    4ca8:	90 10 00 01 	mov  %g1, %o0
    4cac:	c2 02 00 00 	ld  [ %o0 ], %g1
    4cb0:	c4 22 00 00 	st  %g2, [ %o0 ]
    4cb4:	80 a0 60 00 	cmp  %g1, 0
    4cb8:	12 bf ff fc 	bne  4ca8 <core_list_reverse+0x14>
    4cbc:	84 10 00 08 	mov  %o0, %g2
    4cc0:	81 c3 e0 08 	retl 
    4cc4:	01 00 00 00 	nop 
    4cc8:	81 c3 e0 08 	retl 
    4ccc:	90 10 20 00 	clr  %o0	! 0 <_start>

00004cd0 <core_list_mergesort>:
    4cd0:	9d e3 bf a0 	save  %sp, -96, %sp
    4cd4:	80 a6 20 00 	cmp  %i0, 0
    4cd8:	02 80 00 2d 	be  4d8c <core_list_mergesort+0xbc>
    4cdc:	b6 10 20 01 	mov  1, %i3
    4ce0:	a2 10 00 18 	mov  %i0, %l1
    4ce4:	a6 10 20 00 	clr  %l3
    4ce8:	a0 10 20 00 	clr  %l0
    4cec:	b0 10 20 00 	clr  %i0
    4cf0:	a6 04 e0 01 	inc  %l3
    4cf4:	ba 10 00 11 	mov  %l1, %i5
    4cf8:	b8 10 20 00 	clr  %i4
    4cfc:	fa 07 40 00 	ld  [ %i5 ], %i5
    4d00:	80 a7 60 00 	cmp  %i5, 0
    4d04:	02 80 00 05 	be  4d18 <core_list_mergesort+0x48>
    4d08:	b8 07 20 01 	inc  %i4
    4d0c:	80 a6 c0 1c 	cmp  %i3, %i4
    4d10:	34 bf ff fc 	bg,a   4d00 <core_list_mergesort+0x30>
    4d14:	fa 07 40 00 	ld  [ %i5 ], %i5
    4d18:	80 a7 20 00 	cmp  %i4, 0
    4d1c:	02 80 00 10 	be  4d5c <core_list_mergesort+0x8c>
    4d20:	a4 10 00 1b 	mov  %i3, %l2
    4d24:	80 a7 60 00 	cmp  %i5, 0
    4d28:	12 80 00 1e 	bne  4da0 <core_list_mergesort+0xd0>
    4d2c:	80 a4 a0 00 	cmp  %l2, 0
    4d30:	82 10 00 11 	mov  %l1, %g1
    4d34:	b8 07 3f ff 	add  %i4, -1, %i4
    4d38:	e2 04 40 00 	ld  [ %l1 ], %l1
    4d3c:	80 a4 20 00 	cmp  %l0, 0
    4d40:	22 80 00 16 	be,a   4d98 <core_list_mergesort+0xc8>
    4d44:	b0 10 00 01 	mov  %g1, %i0
    4d48:	c2 24 00 00 	st  %g1, [ %l0 ]
    4d4c:	a0 10 00 01 	mov  %g1, %l0
    4d50:	80 a7 20 00 	cmp  %i4, 0
    4d54:	12 bf ff f5 	bne  4d28 <core_list_mergesort+0x58>
    4d58:	80 a7 60 00 	cmp  %i5, 0
    4d5c:	80 a7 60 00 	cmp  %i5, 0
    4d60:	12 80 00 1c 	bne  4dd0 <core_list_mergesort+0x100>
    4d64:	80 a4 a0 00 	cmp  %l2, 0
    4d68:	a2 97 60 00 	orcc  %i5, 0, %l1
    4d6c:	32 bf ff e2 	bne,a   4cf4 <core_list_mergesort+0x24>
    4d70:	a6 04 e0 01 	inc  %l3
    4d74:	80 a4 e0 01 	cmp  %l3, 1
    4d78:	02 80 00 06 	be  4d90 <core_list_mergesort+0xc0>
    4d7c:	c0 24 00 00 	clr  [ %l0 ]
    4d80:	80 a6 20 00 	cmp  %i0, 0
    4d84:	12 bf ff d7 	bne  4ce0 <core_list_mergesort+0x10>
    4d88:	b6 06 c0 1b 	add  %i3, %i3, %i3
    4d8c:	c0 20 20 00 	clr  [ %g0 ]
    4d90:	81 c7 e0 08 	ret 
    4d94:	81 e8 00 00 	restore 
    4d98:	10 bf ff ee 	b  4d50 <core_list_mergesort+0x80>
    4d9c:	a0 10 00 01 	mov  %g1, %l0
    4da0:	02 bf ff e5 	be  4d34 <core_list_mergesort+0x64>
    4da4:	82 10 00 11 	mov  %l1, %g1
    4da8:	d0 04 60 04 	ld  [ %l1 + 4 ], %o0
    4dac:	d2 07 60 04 	ld  [ %i5 + 4 ], %o1
    4db0:	9f c6 40 00 	call  %i1
    4db4:	94 10 00 1a 	mov  %i2, %o2
    4db8:	80 a2 20 00 	cmp  %o0, 0
    4dbc:	04 bf ff dd 	ble  4d30 <core_list_mergesort+0x60>
    4dc0:	82 10 00 1d 	mov  %i5, %g1
    4dc4:	a4 04 bf ff 	add  %l2, -1, %l2
    4dc8:	10 bf ff dd 	b  4d3c <core_list_mergesort+0x6c>
    4dcc:	fa 07 40 00 	ld  [ %i5 ], %i5
    4dd0:	24 bf ff e7 	ble,a   4d6c <core_list_mergesort+0x9c>
    4dd4:	a2 97 60 00 	orcc  %i5, 0, %l1
    4dd8:	10 bf ff fb 	b  4dc4 <core_list_mergesort+0xf4>
    4ddc:	82 10 00 1d 	mov  %i5, %g1

00004de0 <core_list_init>:
    4de0:	9d e3 bf a0 	save  %sp, -96, %sp
    4de4:	81 80 20 00 	mov  %g0, %y
    4de8:	01 00 00 00 	nop 
    4dec:	01 00 00 00 	nop 
    4df0:	01 00 00 00 	nop 
    4df4:	b0 76 20 14 	udiv  %i0, 0x14, %i0
    4df8:	c0 26 40 00 	clr  [ %i1 ]
    4dfc:	b6 06 3f fe 	add  %i0, -2, %i3
    4e00:	83 2e e0 03 	sll  %i3, 3, %g1
    4e04:	ba 06 40 01 	add  %i1, %g1, %i5
    4e08:	fa 26 60 04 	st  %i5, [ %i1 + 4 ]
    4e0c:	05 3f ff e0 	sethi  %hi(0xffff8000), %g2
    4e10:	c0 37 60 02 	clrh  [ %i5 + 2 ]
    4e14:	86 10 a0 80 	or  %g2, 0x80, %g3
    4e18:	c6 36 40 01 	sth  %g3, [ %i1 + %g1 ]
    4e1c:	89 2e e0 02 	sll  %i3, 2, %g4
    4e20:	82 06 60 10 	add  %i1, 0x10, %g1
    4e24:	b0 07 40 04 	add  %i5, %g4, %i0
    4e28:	86 06 60 08 	add  %i1, 8, %g3
    4e2c:	b8 07 60 04 	add  %i5, 4, %i4
    4e30:	80 a7 40 01 	cmp  %i5, %g1
    4e34:	08 80 00 06 	bleu  4e4c <core_list_init+0x6c>
    4e38:	84 10 20 00 	clr  %g2
    4e3c:	88 07 60 08 	add  %i5, 8, %g4
    4e40:	80 a6 00 04 	cmp  %i0, %g4
    4e44:	38 80 00 44 	bgu,a   4f54 <core_list_init+0x174>
    4e48:	c6 26 40 00 	st  %g3, [ %i1 ]
    4e4c:	80 a6 e0 00 	cmp  %i3, 0
    4e50:	02 80 00 21 	be  4ed4 <core_list_init+0xf4>
    4e54:	01 00 00 00 	nop 
    4e58:	17 00 00 1f 	sethi  %hi(0x7c00), %o3
    4e5c:	94 10 00 1a 	mov  %i2, %o2
    4e60:	82 10 20 00 	clr  %g1
    4e64:	96 12 e3 ff 	or  %o3, 0x3ff, %o3
    4e68:	88 00 e0 08 	add  %g3, 8, %g4
    4e6c:	80 a7 40 04 	cmp  %i5, %g4
    4e70:	28 80 00 16 	bleu,a   4ec8 <core_list_init+0xe8>
    4e74:	82 00 60 01 	inc  %g1
    4e78:	9e 07 20 04 	add  %i4, 4, %o7
    4e7c:	80 a6 00 0f 	cmp  %i0, %o7
    4e80:	28 80 00 12 	bleu,a   4ec8 <core_list_init+0xe8>
    4e84:	82 00 60 01 	inc  %g1
    4e88:	c4 20 c0 00 	st  %g2, [ %g3 ]
    4e8c:	f8 20 e0 04 	st  %i4, [ %g3 + 4 ]
    4e90:	c6 26 40 00 	st  %g3, [ %i1 ]
    4e94:	9a 08 60 07 	and  %g1, 7, %o5
    4e98:	98 18 40 0a 	xor  %g1, %o2, %o4
    4e9c:	d6 37 20 02 	sth  %o3, [ %i4 + 2 ]
    4ea0:	98 0b 20 0f 	and  %o4, 0xf, %o4
    4ea4:	84 10 00 03 	mov  %g3, %g2
    4ea8:	99 2b 20 03 	sll  %o4, 3, %o4
    4eac:	86 10 00 04 	mov  %g4, %g3
    4eb0:	88 13 00 0d 	or  %o4, %o5, %g4
    4eb4:	9b 29 20 08 	sll  %g4, 8, %o5
    4eb8:	88 13 40 04 	or  %o5, %g4, %g4
    4ebc:	c8 37 00 00 	sth  %g4, [ %i4 ]
    4ec0:	b8 10 00 0f 	mov  %o7, %i4
    4ec4:	82 00 60 01 	inc  %g1
    4ec8:	80 a6 c0 01 	cmp  %i3, %g1
    4ecc:	32 bf ff e8 	bne,a   4e6c <core_list_init+0x8c>
    4ed0:	88 00 e0 08 	add  %g3, 8, %g4
    4ed4:	81 80 20 00 	mov  %g0, %y
    4ed8:	01 00 00 00 	nop 
    4edc:	01 00 00 00 	nop 
    4ee0:	01 00 00 00 	nop 
    4ee4:	ba 76 e0 05 	udiv  %i3, 5, %i5
    4ee8:	82 10 20 01 	mov  1, %g1
    4eec:	37 00 00 0f 	sethi  %hi(0x3c00), %i3
    4ef0:	88 10 20 02 	mov  2, %g4
    4ef4:	10 80 00 06 	b  4f0c <core_list_init+0x12c>
    4ef8:	b0 16 e3 ff 	or  %i3, 0x3ff, %i0
    4efc:	c2 30 a0 02 	sth  %g1, [ %g2 + 2 ]
    4f00:	88 01 20 01 	inc  %g4
    4f04:	82 00 60 01 	inc  %g1
    4f08:	84 10 00 03 	mov  %g3, %g2
    4f0c:	c6 00 80 00 	ld  [ %g2 ], %g3
    4f10:	80 a0 e0 00 	cmp  %g3, 0
    4f14:	02 80 00 0b 	be  4f40 <core_list_init+0x160>
    4f18:	80 a7 40 01 	cmp  %i5, %g1
    4f1c:	18 bf ff f8 	bgu  4efc <core_list_init+0x11c>
    4f20:	c4 00 a0 04 	ld  [ %g2 + 4 ], %g2
    4f24:	b8 09 20 07 	and  %g4, 7, %i4
    4f28:	b9 2f 20 08 	sll  %i4, 8, %i4
    4f2c:	b6 18 40 1a 	xor  %g1, %i2, %i3
    4f30:	b6 17 00 1b 	or  %i4, %i3, %i3
    4f34:	b8 0e c0 18 	and  %i3, %i0, %i4
    4f38:	10 bf ff f2 	b  4f00 <core_list_init+0x120>
    4f3c:	f8 30 a0 02 	sth  %i4, [ %g2 + 2 ]
    4f40:	b0 10 00 19 	mov  %i1, %i0
    4f44:	b4 10 20 00 	clr  %i2
    4f48:	33 00 00 12 	sethi  %hi(0x4800), %i1
    4f4c:	7f ff ff 61 	call  4cd0 <core_list_mergesort>
    4f50:	93 ee 61 98 	restore  %i1, 0x198, %o1
    4f54:	f8 26 60 0c 	st  %i4, [ %i1 + 0xc ]
    4f58:	c0 26 60 08 	clr  [ %i1 + 8 ]
    4f5c:	b8 10 3f ff 	mov  -1, %i4
    4f60:	84 10 00 03 	mov  %g3, %g2
    4f64:	f8 37 60 04 	sth  %i4, [ %i5 + 4 ]
    4f68:	07 00 00 1f 	sethi  %hi(0x7c00), %g3
    4f6c:	b8 10 e3 ff 	or  %g3, 0x3ff, %i4	! 7fff <check_data_types+0x1437>
    4f70:	86 10 00 01 	mov  %g1, %g3
    4f74:	f8 37 60 06 	sth  %i4, [ %i5 + 6 ]
    4f78:	10 bf ff b5 	b  4e4c <core_list_init+0x6c>
    4f7c:	b8 10 00 04 	mov  %g4, %i4

00004f80 <core_bench_list>:
    4f80:	9d e3 bf 98 	save  %sp, -104, %sp
    4f84:	e2 16 20 04 	lduh  [ %i0 + 4 ], %l1
    4f88:	c0 37 bf fc 	clrh  [ %fp + -4 ]
    4f8c:	f2 37 bf fe 	sth  %i1, [ %fp + -2 ]
    4f90:	83 2c 60 10 	sll  %l1, 0x10, %g1
    4f94:	a3 38 60 10 	sra  %g1, 0x10, %l1
    4f98:	80 a4 60 00 	cmp  %l1, 0
    4f9c:	04 80 00 84 	ble  51ac <core_bench_list+0x22c>
    4fa0:	fa 06 20 24 	ld  [ %i0 + 0x24 ], %i5
    4fa4:	a6 10 00 19 	mov  %i1, %l3
    4fa8:	b6 10 20 00 	clr  %i3
    4fac:	a4 10 20 00 	clr  %l2
    4fb0:	b4 10 20 00 	clr  %i2
    4fb4:	b8 10 20 00 	clr  %i4
    4fb8:	a0 07 bf fc 	add  %fp, -4, %l0
    4fbc:	82 0e e0 ff 	and  %i3, 0xff, %g1
    4fc0:	90 10 00 1d 	mov  %i5, %o0
    4fc4:	c2 37 bf fc 	sth  %g1, [ %fp + -4 ]
    4fc8:	7f ff ff 0a 	call  4bf0 <core_list_find>
    4fcc:	92 10 00 10 	mov  %l0, %o1
    4fd0:	80 a7 60 00 	cmp  %i5, 0
    4fd4:	02 80 00 0b 	be  5000 <core_bench_list+0x80>
    4fd8:	80 a2 20 00 	cmp  %o0, 0
    4fdc:	10 80 00 03 	b  4fe8 <core_bench_list+0x68>
    4fe0:	84 10 20 00 	clr  %g2
    4fe4:	ba 10 00 01 	mov  %g1, %i5
    4fe8:	c2 07 40 00 	ld  [ %i5 ], %g1
    4fec:	c4 27 40 00 	st  %g2, [ %i5 ]
    4ff0:	80 a0 60 00 	cmp  %g1, 0
    4ff4:	12 bf ff fc 	bne  4fe4 <core_bench_list+0x64>
    4ff8:	84 10 00 1d 	mov  %i5, %g2
    4ffc:	80 a2 20 00 	cmp  %o0, 0
    5000:	22 80 00 1f 	be,a   507c <core_bench_list+0xfc>
    5004:	c2 07 40 00 	ld  [ %i5 ], %g1
    5008:	c2 02 20 04 	ld  [ %o0 + 4 ], %g1
    500c:	c2 10 40 00 	lduh  [ %g1 ], %g1
    5010:	80 88 60 01 	btst  1, %g1
    5014:	02 80 00 05 	be  5028 <core_bench_list+0xa8>
    5018:	b4 06 a0 01 	inc  %i2
    501c:	83 30 60 09 	srl  %g1, 9, %g1
    5020:	82 08 60 01 	and  %g1, 1, %g1
    5024:	b8 00 40 1c 	add  %g1, %i4, %i4
    5028:	c2 02 00 00 	ld  [ %o0 ], %g1
    502c:	80 a0 60 00 	cmp  %g1, 0
    5030:	02 80 00 08 	be  5050 <core_bench_list+0xd0>
    5034:	80 a4 e0 00 	cmp  %l3, 0
    5038:	c6 00 40 00 	ld  [ %g1 ], %g3
    503c:	c6 22 00 00 	st  %g3, [ %o0 ]
    5040:	c8 07 40 00 	ld  [ %i5 ], %g4
    5044:	c8 20 40 00 	st  %g4, [ %g1 ]
    5048:	c2 27 40 00 	st  %g1, [ %i5 ]
    504c:	80 a4 e0 00 	cmp  %l3, 0
    5050:	06 80 00 03 	bl  505c <core_bench_list+0xdc>
    5054:	a6 04 e0 01 	inc  %l3
    5058:	e6 37 bf fe 	sth  %l3, [ %fp + -2 ]
    505c:	b6 06 e0 01 	inc  %i3
    5060:	83 2e e0 10 	sll  %i3, 0x10, %g1
    5064:	83 38 60 10 	sra  %g1, 0x10, %g1
    5068:	80 a0 40 11 	cmp  %g1, %l1
    506c:	02 80 00 0a 	be  5094 <core_bench_list+0x114>
    5070:	e6 57 bf fe 	ldsh  [ %fp + -2 ], %l3
    5074:	10 bf ff d3 	b  4fc0 <core_bench_list+0x40>
    5078:	82 0e e0 ff 	and  %i3, 0xff, %g1
    507c:	a4 04 a0 01 	inc  %l2
    5080:	c2 00 60 04 	ld  [ %g1 + 4 ], %g1
    5084:	c2 48 40 00 	ldsb  [ %g1 ], %g1
    5088:	82 08 60 01 	and  %g1, 1, %g1
    508c:	10 bf ff f0 	b  504c <core_bench_list+0xcc>
    5090:	b8 00 40 1c 	add  %g1, %i4, %i4
    5094:	91 2e a0 02 	sll  %i2, 2, %o0
    5098:	a4 22 00 12 	sub  %o0, %l2, %l2
    509c:	b8 04 80 1c 	add  %l2, %i4, %i4
    50a0:	80 a6 60 00 	cmp  %i1, 0
    50a4:	04 80 00 07 	ble  50c0 <core_bench_list+0x140>
    50a8:	90 10 00 1d 	mov  %i5, %o0
    50ac:	94 10 00 18 	mov  %i0, %o2
    50b0:	13 00 00 12 	sethi  %hi(0x4800), %o1
    50b4:	7f ff ff 07 	call  4cd0 <core_list_mergesort>
    50b8:	92 12 62 e8 	or  %o1, 0x2e8, %o1	! 4ae8 <cmp_complex>
    50bc:	ba 10 00 08 	mov  %o0, %i5
    50c0:	c2 07 40 00 	ld  [ %i5 ], %g1
    50c4:	f0 00 40 00 	ld  [ %g1 ], %i0
    50c8:	f2 00 60 04 	ld  [ %g1 + 4 ], %i1
    50cc:	d4 06 20 04 	ld  [ %i0 + 4 ], %o2
    50d0:	d6 06 00 00 	ld  [ %i0 ], %o3
    50d4:	d4 20 60 04 	st  %o2, [ %g1 + 4 ]
    50d8:	d6 20 40 00 	st  %o3, [ %g1 ]
    50dc:	f2 26 20 04 	st  %i1, [ %i0 + 4 ]
    50e0:	c0 26 00 00 	clr  [ %i0 ]
    50e4:	90 10 00 1d 	mov  %i5, %o0
    50e8:	7f ff fe c2 	call  4bf0 <core_list_find>
    50ec:	92 10 00 10 	mov  %l0, %o1
    50f0:	a2 92 20 00 	orcc  %o0, 0, %l1
    50f4:	22 80 00 29 	be,a   5198 <core_bench_list+0x218>
    50f8:	e2 07 40 00 	ld  [ %i5 ], %l1
    50fc:	99 2f 20 10 	sll  %i4, 0x10, %o4
    5100:	c2 07 60 04 	ld  [ %i5 + 4 ], %g1
    5104:	93 33 20 10 	srl  %o4, 0x10, %o1
    5108:	40 00 06 71 	call  6acc <crc16>
    510c:	d0 50 40 00 	ldsh  [ %g1 ], %o0
    5110:	e2 04 40 00 	ld  [ %l1 ], %l1
    5114:	80 a4 60 00 	cmp  %l1, 0
    5118:	12 bf ff f9 	bne  50fc <core_bench_list+0x17c>
    511c:	b8 10 00 08 	mov  %o0, %i4
    5120:	c2 07 40 00 	ld  [ %i5 ], %g1
    5124:	f2 06 20 04 	ld  [ %i0 + 4 ], %i1
    5128:	da 00 60 04 	ld  [ %g1 + 4 ], %o5
    512c:	de 00 40 00 	ld  [ %g1 ], %o7
    5130:	da 26 20 04 	st  %o5, [ %i0 + 4 ]
    5134:	de 26 00 00 	st  %o7, [ %i0 ]
    5138:	f2 20 60 04 	st  %i1, [ %g1 + 4 ]
    513c:	f0 20 40 00 	st  %i0, [ %g1 ]
    5140:	90 10 00 1d 	mov  %i5, %o0
    5144:	94 10 20 00 	clr  %o2
    5148:	21 00 00 12 	sethi  %hi(0x4800), %l0
    514c:	7f ff fe e1 	call  4cd0 <core_list_mergesort>
    5150:	92 14 21 98 	or  %l0, 0x198, %o1	! 4998 <cmp_idx>
    5154:	e6 02 00 00 	ld  [ %o0 ], %l3
    5158:	80 a4 e0 00 	cmp  %l3, 0
    515c:	02 80 00 0b 	be  5188 <core_bench_list+0x208>
    5160:	b4 10 00 08 	mov  %o0, %i2
    5164:	85 2f 20 10 	sll  %i4, 0x10, %g2
    5168:	c2 06 a0 04 	ld  [ %i2 + 4 ], %g1
    516c:	93 30 a0 10 	srl  %g2, 0x10, %o1
    5170:	40 00 06 57 	call  6acc <crc16>
    5174:	d0 50 40 00 	ldsh  [ %g1 ], %o0
    5178:	e6 04 c0 00 	ld  [ %l3 ], %l3
    517c:	80 a4 e0 00 	cmp  %l3, 0
    5180:	12 bf ff f9 	bne  5164 <core_bench_list+0x1e4>
    5184:	b8 10 00 08 	mov  %o0, %i4
    5188:	87 2f 20 10 	sll  %i4, 0x10, %g3
    518c:	b1 30 e0 10 	srl  %g3, 0x10, %i0
    5190:	81 c7 e0 08 	ret 
    5194:	81 e8 00 00 	restore 
    5198:	80 a4 60 00 	cmp  %l1, 0
    519c:	02 bf ff e3 	be  5128 <core_bench_list+0x1a8>
    51a0:	82 10 20 00 	clr  %g1
    51a4:	10 bf ff d7 	b  5100 <core_bench_list+0x180>
    51a8:	99 2f 20 10 	sll  %i4, 0x10, %o4
    51ac:	b8 10 20 00 	clr  %i4
    51b0:	10 bf ff bc 	b  50a0 <core_bench_list+0x120>
    51b4:	a0 07 bf fc 	add  %fp, -4, %l0

000051b8 <barebones_clock>:
    51b8:	9d e3 bf a0 	save  %sp, -96, %sp
    51bc:	40 00 00 8c 	call  53ec <__ajit_read_cycle_count_register_high__>
    51c0:	01 00 00 00 	nop 
    51c4:	40 00 00 8d 	call  53f8 <__ajit_read_cycle_count_register_low__>
    51c8:	b0 10 00 08 	mov  %o0, %i0
    51cc:	83 2e 20 18 	sll  %i0, 0x18, %g1
    51d0:	91 32 20 08 	srl  %o0, 8, %o0
    51d4:	b0 12 00 01 	or  %o0, %g1, %i0
    51d8:	81 c7 e0 08 	ret 
    51dc:	81 e8 00 00 	restore 

000051e0 <start_time>:
    51e0:	9d e3 bf a0 	save  %sp, -96, %sp
    51e4:	7f ff ff f5 	call  51b8 <barebones_clock>
    51e8:	01 00 00 00 	nop 
    51ec:	03 00 00 81 	sethi  %hi(0x20400), %g1
    51f0:	d0 20 63 68 	st  %o0, [ %g1 + 0x368 ]	! 20768 <start_time_val>
    51f4:	81 c7 e0 08 	ret 
    51f8:	81 e8 00 00 	restore 

000051fc <stop_time>:
    51fc:	9d e3 bf a0 	save  %sp, -96, %sp
    5200:	7f ff ff ee 	call  51b8 <barebones_clock>
    5204:	01 00 00 00 	nop 
    5208:	03 00 00 81 	sethi  %hi(0x20400), %g1
    520c:	d0 20 63 6c 	st  %o0, [ %g1 + 0x36c ]	! 2076c <stop_time_val>
    5210:	81 c7 e0 08 	ret 
    5214:	81 e8 00 00 	restore 

00005218 <get_time>:
    5218:	03 00 00 81 	sethi  %hi(0x20400), %g1
    521c:	d0 00 63 6c 	ld  [ %g1 + 0x36c ], %o0	! 2076c <stop_time_val>
    5220:	03 00 00 81 	sethi  %hi(0x20400), %g1
    5224:	c2 00 63 68 	ld  [ %g1 + 0x368 ], %g1	! 20768 <start_time_val>
    5228:	81 c3 e0 08 	retl 
    522c:	90 22 00 01 	sub  %o0, %g1, %o0

00005230 <time_in_secs>:
    5230:	9c 03 bf b0 	add  %sp, -80, %sp
    5234:	d0 23 a0 4c 	st  %o0, [ %sp + 0x4c ]
    5238:	80 a2 20 00 	cmp  %o0, 0
    523c:	d5 03 a0 4c 	ld  [ %sp + 0x4c ], %f10
    5240:	06 80 00 07 	bl  525c <time_in_secs+0x2c>
    5244:	91 a0 19 0a 	fitod  %f10, %f8
    5248:	03 00 00 81 	sethi  %hi(0x20400), %g1
    524c:	9c 23 bf b0 	sub  %sp, -80, %sp
    5250:	c5 18 62 a0 	ldd  [ %g1 + 0x2a0 ], %f2
    5254:	81 c3 e0 08 	retl 
    5258:	81 a2 09 c2 	fdivd  %f8, %f2, %f0
    525c:	03 00 00 81 	sethi  %hi(0x20400), %g1
    5260:	c1 18 62 98 	ldd  [ %g1 + 0x298 ], %f0	! 20698 <state_known_crc+0x684>
    5264:	9c 23 bf b0 	sub  %sp, -80, %sp
    5268:	91 a2 08 40 	faddd  %f8, %f0, %f8
    526c:	03 00 00 81 	sethi  %hi(0x20400), %g1
    5270:	c5 18 62 a0 	ldd  [ %g1 + 0x2a0 ], %f2	! 206a0 <state_known_crc+0x68c>
    5274:	81 c3 e0 08 	retl 
    5278:	81 a2 09 c2 	fdivd  %f8, %f2, %f0

0000527c <portable_init>:
    527c:	9d e3 bf a0 	save  %sp, -96, %sp
    5280:	90 10 20 01 	mov  1, %o0
    5284:	92 10 20 00 	clr  %o1
    5288:	40 00 00 c3 	call  5594 <__ajit_serial_configure__>
    528c:	94 10 20 00 	clr  %o2
    5290:	92 10 20 0d 	mov  0xd, %o1
    5294:	11 00 00 80 	sethi  %hi(0x20000), %o0
    5298:	40 00 00 ff 	call  5694 <__ajit_serial_puts__>
    529c:	90 12 21 58 	or  %o0, 0x158, %o0	! 20158 <state_known_crc+0x144>
    52a0:	03 00 00 81 	sethi  %hi(0x20400), %g1
    52a4:	c0 20 63 64 	clr  [ %g1 + 0x364 ]	! 20764 <seed1_volatile>
    52a8:	03 00 00 81 	sethi  %hi(0x20400), %g1
    52ac:	c0 20 63 60 	clr  [ %g1 + 0x360 ]	! 20760 <seed2_volatile>
    52b0:	84 10 20 66 	mov  0x66, %g2
    52b4:	03 00 00 81 	sethi  %hi(0x20400), %g1
    52b8:	c4 20 62 fc 	st  %g2, [ %g1 + 0x2fc ]	! 206fc <seed3_volatile>
    52bc:	86 10 27 d0 	mov  0x7d0, %g3
    52c0:	03 00 00 81 	sethi  %hi(0x20400), %g1
    52c4:	c6 20 62 f8 	st  %g3, [ %g1 + 0x2f8 ]	! 206f8 <seed4_volatile>
    52c8:	03 00 00 81 	sethi  %hi(0x20400), %g1
    52cc:	c0 20 62 f4 	clr  [ %g1 + 0x2f4 ]	! 206f4 <seed5_volatile>
    52d0:	82 10 20 01 	mov  1, %g1
    52d4:	c2 2e 00 00 	stb  %g1, [ %i0 ]
    52d8:	81 c7 e0 08 	ret 
    52dc:	81 e8 00 00 	restore 

000052e0 <portable_fini>:
    52e0:	9d e3 bf a0 	save  %sp, -96, %sp
    52e4:	92 10 20 0e 	mov  0xe, %o1
    52e8:	11 00 00 80 	sethi  %hi(0x20000), %o0
    52ec:	40 00 00 ea 	call  5694 <__ajit_serial_puts__>
    52f0:	90 12 21 68 	or  %o0, 0x168, %o0	! 20168 <state_known_crc+0x154>
    52f4:	c0 2e 00 00 	clrb  [ %i0 ]
    52f8:	81 c7 e0 08 	ret 
    52fc:	81 e8 00 00 	restore 

00005300 <__ajit_clear_all_gp_registers__>:
    5300:	82 10 00 00 	mov  %g0, %g1
    5304:	84 10 00 00 	mov  %g0, %g2
    5308:	86 10 00 00 	mov  %g0, %g3
    530c:	88 10 00 00 	mov  %g0, %g4
    5310:	8a 10 00 00 	mov  %g0, %g5
    5314:	8c 10 00 00 	mov  %g0, %g6
    5318:	8e 10 00 00 	mov  %g0, %g7
    531c:	b0 10 00 00 	mov  %g0, %i0
    5320:	b2 10 00 00 	mov  %g0, %i1
    5324:	b4 10 00 00 	mov  %g0, %i2
    5328:	b6 10 00 00 	mov  %g0, %i3
    532c:	b8 10 00 00 	mov  %g0, %i4
    5330:	ba 10 00 00 	mov  %g0, %i5
    5334:	bc 10 00 00 	mov  %g0, %fp
    5338:	be 10 00 00 	mov  %g0, %i7
    533c:	a0 10 00 00 	mov  %g0, %l0
    5340:	a2 10 00 00 	mov  %g0, %l1
    5344:	a4 10 00 00 	mov  %g0, %l2
    5348:	a6 10 00 00 	mov  %g0, %l3
    534c:	a8 10 00 00 	mov  %g0, %l4
    5350:	aa 10 00 00 	mov  %g0, %l5
    5354:	ac 10 00 00 	mov  %g0, %l6
    5358:	ae 10 00 00 	mov  %g0, %l7
    535c:	90 10 00 00 	mov  %g0, %o0
    5360:	92 10 00 00 	mov  %g0, %o1
    5364:	94 10 00 00 	mov  %g0, %o2
    5368:	96 10 00 00 	mov  %g0, %o3
    536c:	98 10 00 00 	mov  %g0, %o4
    5370:	9a 10 00 00 	mov  %g0, %o5
    5374:	9c 10 00 00 	mov  %g0, %sp
    5378:	9e 10 00 00 	mov  %g0, %o7
    537c:	82 10 20 07 	mov  7, %g1
    5380:	81 e0 00 00 	save 
    5384:	a0 10 00 00 	mov  %g0, %l0
    5388:	a2 10 00 00 	mov  %g0, %l1
    538c:	a4 10 00 00 	mov  %g0, %l2
    5390:	a6 10 00 00 	mov  %g0, %l3
    5394:	a8 10 00 00 	mov  %g0, %l4
    5398:	aa 10 00 00 	mov  %g0, %l5
    539c:	ac 10 00 00 	mov  %g0, %l6
    53a0:	ae 10 00 00 	mov  %g0, %l7
    53a4:	90 10 00 00 	mov  %g0, %o0
    53a8:	92 10 00 00 	mov  %g0, %o1
    53ac:	94 10 00 00 	mov  %g0, %o2
    53b0:	96 10 00 00 	mov  %g0, %o3
    53b4:	98 10 00 00 	mov  %g0, %o4
    53b8:	9a 10 00 00 	mov  %g0, %o5
    53bc:	9c 10 00 00 	mov  %g0, %sp
    53c0:	9e 10 00 00 	mov  %g0, %o7
    53c4:	82 80 7f ff 	addcc  %g1, -1, %g1
    53c8:	12 bf ff ee 	bne  5380 <__ajit_clear_all_gp_registers__+0x80>
    53cc:	01 00 00 00 	nop 
    53d0:	82 10 20 07 	mov  7, %g1	! 7 <_start+0x7>
    53d4:	81 e8 00 00 	restore 
    53d8:	82 80 7f ff 	addcc  %g1, -1, %g1
    53dc:	12 bf ff fe 	bne  53d4 <__ajit_clear_all_gp_registers__+0xd4>
    53e0:	01 00 00 00 	nop 
    53e4:	81 c3 e0 08 	retl 
    53e8:	01 00 00 00 	nop 

000053ec <__ajit_read_cycle_count_register_high__>:
    53ec:	91 47 80 00 	rd  %asr30, %o0
    53f0:	81 c3 e0 08 	retl 
    53f4:	01 00 00 00 	nop 

000053f8 <__ajit_read_cycle_count_register_low__>:
    53f8:	91 47 c0 00 	rd  %asr31, %o0
    53fc:	81 c3 e0 08 	retl 
    5400:	01 00 00 00 	nop 

00005404 <__ajit_get_clock_time>:
    5404:	99 47 c0 00 	rd  %asr31, %o4
    5408:	83 47 80 00 	rd  %asr30, %g1
    540c:	88 10 20 00 	clr  %g4
    5410:	86 10 20 00 	clr  %g3
    5414:	90 10 40 04 	or  %g1, %g4, %o0
    5418:	81 c3 e0 08 	retl 
    541c:	92 10 c0 0c 	or  %g3, %o4, %o1

00005420 <__ajit_set_mmu_default_cacheable_bit__>:
    5420:	80 a0 00 08 	cmp  %g0, %o0
    5424:	84 10 20 00 	clr  %g2
    5428:	82 40 20 00 	addx  %g0, 0, %g1
    542c:	83 28 60 08 	sll  %g1, 8, %g1
    5430:	c2 a0 80 80 	sta  %g1, [ %g2 ] #ASI_N
    5434:	81 c3 e0 08 	retl 
    5438:	01 00 00 00 	nop 

0000543c <__ajit_store_word_mmu_reg__>:
    543c:	d0 a2 40 80 	sta  %o0, [ %o1 ] #ASI_N
    5440:	81 c3 e0 08 	retl 
    5444:	01 00 00 00 	nop 

00005448 <__ajit_store_word_mmu_bypass__>:
    5448:	d0 a2 44 00 	sta  %o0, [ %o1 ] #ASI_SCRATCHPAD
    544c:	81 c3 e0 08 	retl 
    5450:	01 00 00 00 	nop 

00005454 <__ajit_load_word_mmu_reg__>:
    5454:	d0 82 00 80 	lda  [ %o0 ] #ASI_N, %o0
    5458:	81 c3 e0 08 	retl 
    545c:	01 00 00 00 	nop 

00005460 <__ajit_load_word_mmu_bypass__>:
    5460:	d0 82 04 00 	lda  [ %o0 ] #ASI_SCRATCHPAD, %o0
    5464:	81 c3 e0 08 	retl 
    5468:	01 00 00 00 	nop 

0000546c <__ajit_enable_mmu__>:
    546c:	82 10 20 00 	clr  %g1	! 0 <_start>
    5470:	c2 80 40 80 	lda  [ %g1 ] #ASI_N, %g1
    5474:	84 10 20 00 	clr  %g2
    5478:	82 10 60 01 	or  %g1, 1, %g1
    547c:	c2 a0 80 80 	sta  %g1, [ %g2 ] #ASI_N
    5480:	81 c3 e0 08 	retl 
    5484:	01 00 00 00 	nop 

00005488 <__ajit_disable_mmu__>:
    5488:	82 10 20 00 	clr  %g1	! 0 <_start>
    548c:	c2 80 40 80 	lda  [ %g1 ] #ASI_N, %g1
    5490:	84 10 20 00 	clr  %g2
    5494:	82 08 7f fe 	and  %g1, -2, %g1
    5498:	c2 a0 80 80 	sta  %g1, [ %g2 ] #ASI_N
    549c:	81 c3 e0 08 	retl 
    54a0:	01 00 00 00 	nop 

000054a4 <__ajit_mmu_flush__>:
    54a4:	d0 a2 40 60 	sta  %o0, [ %o1 ] (3)
    54a8:	81 c3 e0 08 	retl 
    54ac:	01 00 00 00 	nop 

000054b0 <__ajit_mmu_probe__>:
    54b0:	d0 82 00 60 	lda  [ %o0 ] (3), %o0
    54b4:	81 c3 e0 08 	retl 
    54b8:	01 00 00 00 	nop 

000054bc <__ajit_mmu_context_switch__>:
    54bc:	a0 10 00 08 	mov  %o0, %l0
    54c0:	c0 a0 02 60 	sta  %g0, [ %g0 ] (19)
    54c4:	81 d8 20 00 	flush  %g0
    54c8:	c0 a0 00 60 	sta  %g0, [ %g0 ] (3)
    54cc:	82 10 22 00 	mov  0x200, %g1
    54d0:	e0 a0 40 80 	sta  %l0, [ %g1 ] #ASI_N
    54d4:	c0 a0 02 60 	sta  %g0, [ %g0 ] (19)
    54d8:	81 d8 20 00 	flush  %g0
    54dc:	c0 a0 00 60 	sta  %g0, [ %g0 ] (3)
    54e0:	81 c3 e0 08 	retl 
    54e4:	01 00 00 00 	nop 

000054e8 <_ajit_va_l1_offset>:
    54e8:	81 c3 e0 08 	retl 
    54ec:	91 32 20 18 	srl  %o0, 0x18, %o0

000054f0 <_ajit_va_l2_offset>:
    54f0:	91 32 20 12 	srl  %o0, 0x12, %o0
    54f4:	81 c3 e0 08 	retl 
    54f8:	90 0a 20 1f 	and  %o0, 0x1f, %o0

000054fc <_ajit_va_l3_offset>:
    54fc:	91 32 20 0c 	srl  %o0, 0xc, %o0
    5500:	81 c3 e0 08 	retl 
    5504:	90 0a 20 1f 	and  %o0, 0x1f, %o0

00005508 <__ajit_make_pte__>:
    5508:	93 2a 60 07 	sll  %o1, 7, %o1
    550c:	95 2a a0 06 	sll  %o2, 6, %o2
    5510:	82 12 60 02 	or  %o1, 2, %g1
    5514:	97 2a e0 05 	sll  %o3, 5, %o3
    5518:	84 10 40 0a 	or  %g1, %o2, %g2
    551c:	99 2b 20 02 	sll  %o4, 2, %o4
    5520:	86 10 80 0b 	or  %g2, %o3, %g3
    5524:	91 2a 20 08 	sll  %o0, 8, %o0
    5528:	88 10 c0 0c 	or  %g3, %o4, %g4
    552c:	81 c3 e0 08 	retl 
    5530:	90 11 00 08 	or  %g4, %o0, %o0

00005534 <__ajit_make_ptd__>:
    5534:	91 2a 20 02 	sll  %o0, 2, %o0
    5538:	81 c3 e0 08 	retl 
    553c:	90 12 20 01 	or  %o0, 1, %o0

00005540 <__ajit_flush_icache__>:
    5540:	81 d8 20 00 	flush  %g0
    5544:	81 c3 e0 08 	retl 
    5548:	01 00 00 00 	nop 

0000554c <__ajit_flush_dcache__>:
    554c:	c0 a0 02 60 	sta  %g0, [ %g0 ] (19)
    5550:	81 c3 e0 08 	retl 
    5554:	01 00 00 00 	nop 

00005558 <__ajit_write_timer_control_register__>:
    5558:	03 3f ff cc 	sethi  %hi(0xffff3000), %g1
    555c:	82 10 61 00 	or  %g1, 0x100, %g1	! ffff3100 <static_memblk+0xfffd2990>
    5560:	d0 a0 44 00 	sta  %o0, [ %g1 ] #ASI_SCRATCHPAD
    5564:	81 c3 e0 08 	retl 
    5568:	01 00 00 00 	nop 

0000556c <__ajit_read_timer_control_register__>:
    556c:	11 3f ff cc 	sethi  %hi(0xffff3000), %o0
    5570:	82 12 21 00 	or  %o0, 0x100, %g1	! ffff3100 <static_memblk+0xfffd2990>
    5574:	d0 80 44 00 	lda  [ %g1 ] #ASI_SCRATCHPAD, %o0
    5578:	81 c3 e0 08 	retl 
    557c:	01 00 00 00 	nop 

00005580 <__ajit_write_serial_control_register__>:
    5580:	03 3f ff cc 	sethi  %hi(0xffff3000), %g1
    5584:	82 10 62 00 	or  %g1, 0x200, %g1	! ffff3200 <static_memblk+0xfffd2a90>
    5588:	d0 a0 44 00 	sta  %o0, [ %g1 ] #ASI_SCRATCHPAD
    558c:	81 c3 e0 08 	retl 
    5590:	01 00 00 00 	nop 

00005594 <__ajit_serial_configure__>:
    5594:	05 3f ff cc 	sethi  %hi(0xffff3000), %g2
    5598:	82 10 a2 00 	or  %g2, 0x200, %g1	! ffff3200 <static_memblk+0xfffd2a90>
    559c:	c6 80 44 00 	lda  [ %g1 ] #ASI_SCRATCHPAD, %g3
    55a0:	80 a2 20 00 	cmp  %o0, 0
    55a4:	02 80 00 03 	be  55b0 <__ajit_serial_configure__+0x1c>
    55a8:	82 08 ff fe 	and  %g3, -2, %g1
    55ac:	82 10 e0 01 	or  %g3, 1, %g1
    55b0:	80 a2 60 00 	cmp  %o1, 0
    55b4:	02 80 00 03 	be  55c0 <__ajit_serial_configure__+0x2c>
    55b8:	88 08 7f fd 	and  %g1, -3, %g4
    55bc:	88 10 60 02 	or  %g1, 2, %g4
    55c0:	80 a2 a0 00 	cmp  %o2, 0
    55c4:	02 80 00 03 	be  55d0 <__ajit_serial_configure__+0x3c>
    55c8:	82 09 3f fb 	and  %g4, -5, %g1
    55cc:	82 11 20 04 	or  %g4, 4, %g1
    55d0:	11 3f ff cc 	sethi  %hi(0xffff3000), %o0
    55d4:	92 12 22 00 	or  %o0, 0x200, %o1	! ffff3200 <static_memblk+0xfffd2a90>
    55d8:	c2 a2 44 00 	sta  %g1, [ %o1 ] #ASI_SCRATCHPAD
    55dc:	81 c3 e0 08 	retl 
    55e0:	01 00 00 00 	nop 

000055e4 <__ajit_read_serial_control_register__>:
    55e4:	11 3f ff cc 	sethi  %hi(0xffff3000), %o0
    55e8:	82 12 22 00 	or  %o0, 0x200, %g1	! ffff3200 <static_memblk+0xfffd2a90>
    55ec:	d0 80 44 00 	lda  [ %g1 ] #ASI_SCRATCHPAD, %o0
    55f0:	81 c3 e0 08 	retl 
    55f4:	01 00 00 00 	nop 

000055f8 <__ajit_write_serial_tx_register__>:
    55f8:	03 3f ff cc 	sethi  %hi(0xffff3000), %g1
    55fc:	82 10 62 10 	or  %g1, 0x210, %g1	! ffff3210 <static_memblk+0xfffd2aa0>
    5600:	d0 a0 44 00 	sta  %o0, [ %g1 ] #ASI_SCRATCHPAD
    5604:	81 c3 e0 08 	retl 
    5608:	01 00 00 00 	nop 

0000560c <__ajit_read_serial_tx_register__>:
    560c:	11 3f ff cc 	sethi  %hi(0xffff3000), %o0
    5610:	82 12 22 10 	or  %o0, 0x210, %g1	! ffff3210 <static_memblk+0xfffd2aa0>
    5614:	d0 80 44 00 	lda  [ %g1 ] #ASI_SCRATCHPAD, %o0
    5618:	81 c3 e0 08 	retl 
    561c:	01 00 00 00 	nop 

00005620 <__ajit_read_serial_rx_register__>:
    5620:	11 3f ff cc 	sethi  %hi(0xffff3000), %o0
    5624:	82 12 22 20 	or  %o0, 0x220, %g1	! ffff3220 <static_memblk+0xfffd2ab0>
    5628:	d0 88 44 00 	lduba  [ %g1 ] #ASI_SCRATCHPAD, %o0
    562c:	81 c3 e0 08 	retl 
    5630:	01 00 00 00 	nop 

00005634 <__ajit_serial_putchar__>:
    5634:	05 3f ff cc 	sethi  %hi(0xffff3000), %g2
    5638:	82 10 a2 00 	or  %g2, 0x200, %g1	! ffff3200 <static_memblk+0xfffd2a90>
    563c:	c2 80 44 00 	lda  [ %g1 ] #ASI_SCRATCHPAD, %g1
    5640:	80 88 60 01 	btst  1, %g1
    5644:	02 80 00 07 	be  5660 <__ajit_serial_putchar__+0x2c>
    5648:	88 10 20 00 	clr  %g4
    564c:	80 88 60 08 	btst  8, %g1
    5650:	12 80 00 04 	bne  5660 <__ajit_serial_putchar__+0x2c>
    5654:	86 10 a2 10 	or  %g2, 0x210, %g3
    5658:	d0 a8 c4 00 	stba  %o0, [ %g3 ] #ASI_SCRATCHPAD
    565c:	88 10 00 08 	mov  %o0, %g4
    5660:	81 c3 e0 08 	retl 
    5664:	90 10 00 04 	mov  %g4, %o0

00005668 <__ajit_serial_getchar__>:
    5668:	03 3f ff cc 	sethi  %hi(0xffff3000), %g1
    566c:	84 10 62 00 	or  %g1, 0x200, %g2	! ffff3200 <static_memblk+0xfffd2a90>
    5670:	c6 80 84 00 	lda  [ %g2 ] #ASI_SCRATCHPAD, %g3
    5674:	88 08 e0 12 	and  %g3, 0x12, %g4
    5678:	80 a1 20 12 	cmp  %g4, 0x12
    567c:	12 80 00 04 	bne  568c <__ajit_serial_getchar__+0x24>
    5680:	90 10 20 00 	clr  %o0
    5684:	90 10 62 20 	or  %g1, 0x220, %o0
    5688:	d0 8a 04 00 	lduba  [ %o0 ] #ASI_SCRATCHPAD, %o0
    568c:	81 c3 e0 08 	retl 
    5690:	01 00 00 00 	nop 

00005694 <__ajit_serial_puts__>:
    5694:	19 3f ff cc 	sethi  %hi(0xffff3000), %o4
    5698:	9a 10 20 00 	clr  %o5
    569c:	84 13 22 00 	or  %o4, 0x200, %g2
    56a0:	88 10 20 00 	clr  %g4
    56a4:	80 a2 60 00 	cmp  %o1, 0
    56a8:	02 80 00 12 	be  56f0 <__ajit_serial_puts__+0x5c>
    56ac:	98 13 22 10 	or  %o4, 0x210, %o4
    56b0:	c6 0a 00 0d 	ldub  [ %o0 + %o5 ], %g3
    56b4:	c2 80 84 00 	lda  [ %g2 ] #ASI_SCRATCHPAD, %g1
    56b8:	80 88 60 01 	btst  1, %g1
    56bc:	02 bf ff fe 	be  56b4 <__ajit_serial_puts__+0x20>
    56c0:	80 88 60 08 	btst  8, %g1
    56c4:	12 bf ff fc 	bne  56b4 <__ajit_serial_puts__+0x20>
    56c8:	01 00 00 00 	nop 
    56cc:	c6 ab 04 00 	stba  %g3, [ %o4 ] #ASI_SCRATCHPAD
    56d0:	87 28 e0 18 	sll  %g3, 0x18, %g3
    56d4:	80 a0 e0 00 	cmp  %g3, 0
    56d8:	22 bf ff f7 	be,a   56b4 <__ajit_serial_puts__+0x20>
    56dc:	c6 0a 00 0d 	ldub  [ %o0 + %o5 ], %g3
    56e0:	88 01 20 01 	inc  %g4
    56e4:	80 a1 00 09 	cmp  %g4, %o1
    56e8:	12 bf ff f2 	bne  56b0 <__ajit_serial_puts__+0x1c>
    56ec:	9a 10 00 04 	mov  %g4, %o5
    56f0:	81 c3 e0 08 	retl 
    56f4:	01 00 00 00 	nop 

000056f8 <__ajit_serial_gets__>:
    56f8:	80 a2 60 00 	cmp  %o1, 0
    56fc:	02 80 00 15 	be  5750 <__ajit_serial_gets__+0x58>
    5700:	09 3f ff cc 	sethi  %hi(0xffff3000), %g4
    5704:	9a 10 20 00 	clr  %o5
    5708:	84 11 22 00 	or  %g4, 0x200, %g2
    570c:	86 10 20 00 	clr  %g3
    5710:	88 11 22 20 	or  %g4, 0x220, %g4
    5714:	c2 80 84 00 	lda  [ %g2 ] #ASI_SCRATCHPAD, %g1
    5718:	80 88 60 02 	btst  2, %g1
    571c:	02 bf ff fe 	be  5714 <__ajit_serial_gets__+0x1c>
    5720:	80 88 60 10 	btst  0x10, %g1
    5724:	02 bf ff fc 	be  5714 <__ajit_serial_gets__+0x1c>
    5728:	01 00 00 00 	nop 
    572c:	c2 89 04 00 	lduba  [ %g4 ] #ASI_SCRATCHPAD, %g1
    5730:	80 a0 60 00 	cmp  %g1, 0
    5734:	02 bf ff f8 	be  5714 <__ajit_serial_gets__+0x1c>
    5738:	01 00 00 00 	nop 
    573c:	c2 2a 00 0d 	stb  %g1, [ %o0 + %o5 ]
    5740:	86 00 e0 01 	inc  %g3
    5744:	80 a0 c0 09 	cmp  %g3, %o1
    5748:	12 bf ff f3 	bne  5714 <__ajit_serial_gets__+0x1c>
    574c:	9a 10 00 03 	mov  %g3, %o5
    5750:	81 c3 e0 08 	retl 
    5754:	01 00 00 00 	nop 

00005758 <__ajit_write_irc_control_register__>:
    5758:	03 3f ff cc 	sethi  %hi(0xffff3000), %g1
    575c:	d0 a0 44 00 	sta  %o0, [ %g1 ] #ASI_SCRATCHPAD
    5760:	81 c3 e0 08 	retl 
    5764:	01 00 00 00 	nop 

00005768 <__ajit_read_irc_control_register__>:
    5768:	11 3f ff cc 	sethi  %hi(0xffff3000), %o0
    576c:	d0 82 04 00 	lda  [ %o0 ] #ASI_SCRATCHPAD, %o0
    5770:	81 c3 e0 08 	retl 
    5774:	01 00 00 00 	nop 

00005778 <__ajit_write_spi_master_register__>:
    5778:	91 2a 20 02 	sll  %o0, 2, %o0
    577c:	03 3f ff cc 	sethi  %hi(0xffff3000), %g1
    5780:	82 10 63 00 	or  %g1, 0x300, %g1	! ffff3300 <static_memblk+0xfffd2b90>
    5784:	84 02 00 01 	add  %o0, %g1, %g2
    5788:	d2 a0 84 00 	sta  %o1, [ %g2 ] #ASI_SCRATCHPAD
    578c:	81 c3 e0 08 	retl 
    5790:	01 00 00 00 	nop 

00005794 <__ajit_read_spi_master_register__>:
    5794:	91 2a 20 02 	sll  %o0, 2, %o0
    5798:	03 3f ff cc 	sethi  %hi(0xffff3000), %g1
    579c:	82 10 63 00 	or  %g1, 0x300, %g1	! ffff3300 <static_memblk+0xfffd2b90>
    57a0:	84 02 00 01 	add  %o0, %g1, %g2
    57a4:	d0 80 84 00 	lda  [ %g2 ] #ASI_SCRATCHPAD, %o0
    57a8:	81 c3 e0 08 	retl 
    57ac:	01 00 00 00 	nop 

000057b0 <__ajit_gpio_xfer__>:
    57b0:	09 3f ff cc 	sethi  %hi(0xffff3000), %g4
    57b4:	82 11 23 00 	or  %g4, 0x300, %g1	! ffff3300 <static_memblk+0xfffd2b90>
    57b8:	d0 a0 44 00 	sta  %o0, [ %g1 ] #ASI_SCRATCHPAD
    57bc:	82 10 20 13 	mov  0x13, %g1
    57c0:	90 11 23 08 	or  %g4, 0x308, %o0
    57c4:	c2 a2 04 00 	sta  %g1, [ %o0 ] #ASI_SCRATCHPAD
    57c8:	82 10 21 00 	mov  0x100, %g1
    57cc:	c6 82 04 00 	lda  [ %o0 ] #ASI_SCRATCHPAD, %g3
    57d0:	82 00 7f ff 	add  %g1, -1, %g1
    57d4:	85 38 60 1f 	sra  %g1, 0x1f, %g2
    57d8:	88 20 80 01 	sub  %g2, %g1, %g4
    57dc:	85 31 20 1f 	srl  %g4, 0x1f, %g2
    57e0:	80 88 c0 02 	btst  %g3, %g2
    57e4:	12 bf ff fa 	bne  57cc <__ajit_gpio_xfer__+0x1c>
    57e8:	01 00 00 00 	nop 
    57ec:	11 3f ff cc 	sethi  %hi(0xffff3000), %o0
    57f0:	86 12 23 00 	or  %o0, 0x300, %g3	! ffff3300 <static_memblk+0xfffd2b90>
    57f4:	d0 80 c4 00 	lda  [ %g3 ] #ASI_SCRATCHPAD, %o0
    57f8:	81 c3 e0 08 	retl 
    57fc:	01 00 00 00 	nop 

00005800 <__ajit_ta_0__>:
    5800:	91 d0 20 00 	ta  0
    5804:	01 00 00 00 	nop 
    5808:	01 00 00 00 	nop 
    580c:	81 c3 e0 08 	retl 
    5810:	01 00 00 00 	nop 

00005814 <core_init_matrix>:
    5814:	9d e3 bf a0 	save  %sp, -96, %sp
    5818:	80 a6 a0 00 	cmp  %i2, 0
    581c:	22 80 00 02 	be,a   5824 <core_init_matrix+0x10>
    5820:	b4 10 20 01 	mov  1, %i2
    5824:	80 a6 20 00 	cmp  %i0, 0
    5828:	22 80 00 3a 	be,a   5910 <core_init_matrix+0xfc>
    582c:	b2 06 7f ff 	add  %i1, -1, %i1
    5830:	84 10 20 00 	clr  %g2
    5834:	82 00 a0 01 	add  %g2, 1, %g1
    5838:	86 58 40 01 	smul  %g1, %g1, %g3
    583c:	89 28 e0 03 	sll  %g3, 3, %g4
    5840:	80 a6 00 04 	cmp  %i0, %g4
    5844:	38 bf ff fc 	bgu,a   5834 <core_init_matrix+0x20>
    5848:	84 10 00 01 	mov  %g1, %g2
    584c:	b0 06 7f ff 	add  %i1, -1, %i0
    5850:	b8 58 80 02 	smul  %g2, %g2, %i4
    5854:	ba 0e 3f fc 	and  %i0, -4, %i5
    5858:	96 07 00 1c 	add  %i4, %i4, %o3
    585c:	9a 07 60 04 	add  %i5, 4, %o5
    5860:	b0 10 00 02 	mov  %g2, %i0
    5864:	80 a0 a0 00 	cmp  %g2, 0
    5868:	02 80 00 20 	be  58e8 <core_init_matrix+0xd4>
    586c:	98 03 40 0b 	add  %o5, %o3, %o4
    5870:	05 00 00 3f 	sethi  %hi(0xfc00), %g2
    5874:	9e 10 20 00 	clr  %o7
    5878:	88 10 20 01 	mov  1, %g4
    587c:	b2 10 a3 ff 	or  %g2, 0x3ff, %i1
    5880:	86 5b c0 18 	smul  %o7, %i0, %g3
    5884:	82 10 00 04 	mov  %g4, %g1
    5888:	ba 00 c0 03 	add  %g3, %g3, %i5
    588c:	84 10 20 00 	clr  %g2
    5890:	b8 03 00 1d 	add  %o4, %i5, %i4
    5894:	ba 03 40 1d 	add  %o5, %i5, %i5
    5898:	b4 58 40 1a 	smul  %g1, %i2, %i2
    589c:	87 3e a0 1f 	sra  %i2, 0x1f, %g3
    58a0:	87 30 e0 10 	srl  %g3, 0x10, %g3
    58a4:	b4 06 80 03 	add  %i2, %g3, %i2
    58a8:	b4 0e 80 19 	and  %i2, %i1, %i2
    58ac:	b4 26 80 03 	sub  %i2, %g3, %i2
    58b0:	86 06 80 01 	add  %i2, %g1, %g3
    58b4:	c6 37 00 02 	sth  %g3, [ %i4 + %g2 ]
    58b8:	86 00 c0 01 	add  %g3, %g1, %g3
    58bc:	86 08 e0 ff 	and  %g3, 0xff, %g3
    58c0:	c6 37 40 02 	sth  %g3, [ %i5 + %g2 ]
    58c4:	82 00 60 01 	inc  %g1
    58c8:	86 20 40 04 	sub  %g1, %g4, %g3
    58cc:	80 a0 c0 18 	cmp  %g3, %i0
    58d0:	0a bf ff f2 	bcs  5898 <core_init_matrix+0x84>
    58d4:	84 00 a0 02 	add  %g2, 2, %g2
    58d8:	9e 03 e0 01 	inc  %o7
    58dc:	80 a3 c0 18 	cmp  %o7, %i0
    58e0:	0a bf ff e8 	bcs  5880 <core_init_matrix+0x6c>
    58e4:	88 10 00 01 	mov  %g1, %g4
    58e8:	82 03 00 0b 	add  %o4, %o3, %g1
    58ec:	da 26 e0 04 	st  %o5, [ %i3 + 4 ]
    58f0:	82 00 7f ff 	add  %g1, -1, %g1
    58f4:	d8 26 e0 08 	st  %o4, [ %i3 + 8 ]
    58f8:	82 08 7f fc 	and  %g1, -4, %g1
    58fc:	f0 26 c0 00 	st  %i0, [ %i3 ]
    5900:	82 00 60 04 	add  %g1, 4, %g1
    5904:	c2 26 e0 0c 	st  %g1, [ %i3 + 0xc ]
    5908:	81 c7 e0 08 	ret 
    590c:	81 e8 00 00 	restore 
    5910:	96 10 20 02 	mov  2, %o3
    5914:	98 0e 7f fc 	and  %i1, -4, %o4
    5918:	b0 10 3f ff 	mov  -1, %i0
    591c:	9a 03 20 04 	add  %o4, 4, %o5
    5920:	10 bf ff d4 	b  5870 <core_init_matrix+0x5c>
    5924:	98 03 20 06 	add  %o4, 6, %o4

00005928 <matrix_sum>:
    5928:	9d e3 bf a0 	save  %sp, -96, %sp
    592c:	80 a6 20 00 	cmp  %i0, 0
    5930:	02 80 00 23 	be  59bc <matrix_sum+0x94>
    5934:	b7 2e 20 02 	sll  %i0, 2, %i3
    5938:	9e 10 20 00 	clr  %o7
    593c:	88 10 20 00 	clr  %g4
    5940:	ba 10 20 00 	clr  %i5
    5944:	84 10 20 00 	clr  %g2
    5948:	10 80 00 07 	b  5964 <matrix_sum+0x3c>
    594c:	82 10 20 00 	clr  %g1
    5950:	88 01 20 0a 	add  %g4, 0xa, %g4
    5954:	84 10 20 00 	clr  %g2
    5958:	80 a6 c0 01 	cmp  %i3, %g1
    595c:	02 80 00 10 	be  599c <matrix_sum+0x74>
    5960:	ba 10 00 03 	mov  %g3, %i5
    5964:	c6 06 40 01 	ld  [ %i1 + %g1 ], %g3
    5968:	84 00 80 03 	add  %g2, %g3, %g2
    596c:	80 a0 80 1a 	cmp  %g2, %i2
    5970:	34 bf ff f8 	bg,a   5950 <matrix_sum+0x28>
    5974:	82 00 60 04 	add  %g1, 4, %g1
    5978:	80 a0 c0 1d 	cmp  %g3, %i5
    597c:	14 80 00 03 	bg  5988 <matrix_sum+0x60>
    5980:	b8 10 20 01 	mov  1, %i4
    5984:	b8 10 20 00 	clr  %i4
    5988:	82 00 60 04 	add  %g1, 4, %g1
    598c:	88 07 00 04 	add  %i4, %g4, %g4
    5990:	80 a6 c0 01 	cmp  %i3, %g1
    5994:	12 bf ff f4 	bne  5964 <matrix_sum+0x3c>
    5998:	ba 10 00 03 	mov  %g3, %i5
    599c:	9e 03 e0 01 	inc  %o7
    59a0:	80 a3 c0 18 	cmp  %o7, %i0
    59a4:	12 bf ff e9 	bne  5948 <matrix_sum+0x20>
    59a8:	b2 06 40 1b 	add  %i1, %i3, %i1
    59ac:	b1 29 20 10 	sll  %g4, 0x10, %i0
    59b0:	b1 3e 20 10 	sra  %i0, 0x10, %i0
    59b4:	81 c7 e0 08 	ret 
    59b8:	81 e8 00 00 	restore 
    59bc:	88 10 20 00 	clr  %g4
    59c0:	b1 29 20 10 	sll  %g4, 0x10, %i0
    59c4:	b1 3e 20 10 	sra  %i0, 0x10, %i0
    59c8:	81 c7 e0 08 	ret 
    59cc:	81 e8 00 00 	restore 

000059d0 <matrix_mul_const>:
    59d0:	80 a2 20 00 	cmp  %o0, 0
    59d4:	02 80 00 11 	be  5a18 <matrix_mul_const+0x48>
    59d8:	88 02 00 08 	add  %o0, %o0, %g4
    59dc:	99 2a 20 02 	sll  %o0, 2, %o4
    59e0:	9a 10 20 00 	clr  %o5
    59e4:	82 10 20 00 	clr  %g1
    59e8:	c6 52 80 01 	ldsh  [ %o2 + %g1 ], %g3
    59ec:	84 00 40 01 	add  %g1, %g1, %g2
    59f0:	86 58 c0 0b 	smul  %g3, %o3, %g3
    59f4:	82 00 60 02 	add  %g1, 2, %g1
    59f8:	80 a1 00 01 	cmp  %g4, %g1
    59fc:	12 bf ff fb 	bne  59e8 <matrix_mul_const+0x18>
    5a00:	c6 22 40 02 	st  %g3, [ %o1 + %g2 ]
    5a04:	9a 03 60 01 	inc  %o5
    5a08:	94 02 80 04 	add  %o2, %g4, %o2
    5a0c:	80 a3 40 08 	cmp  %o5, %o0
    5a10:	12 bf ff f5 	bne  59e4 <matrix_mul_const+0x14>
    5a14:	92 02 40 0c 	add  %o1, %o4, %o1
    5a18:	81 c3 e0 08 	retl 
    5a1c:	01 00 00 00 	nop 

00005a20 <matrix_add_const>:
    5a20:	80 a2 20 00 	cmp  %o0, 0
    5a24:	02 80 00 0f 	be  5a60 <matrix_add_const+0x40>
    5a28:	88 02 00 08 	add  %o0, %o0, %g4
    5a2c:	86 10 20 00 	clr  %g3
    5a30:	84 01 00 09 	add  %g4, %o1, %g2
    5a34:	c2 12 40 00 	lduh  [ %o1 ], %g1
    5a38:	82 00 40 0a 	add  %g1, %o2, %g1
    5a3c:	c2 32 40 00 	sth  %g1, [ %o1 ]
    5a40:	92 02 60 02 	add  %o1, 2, %o1
    5a44:	80 a2 40 02 	cmp  %o1, %g2
    5a48:	32 bf ff fc 	bne,a   5a38 <matrix_add_const+0x18>
    5a4c:	c2 12 40 00 	lduh  [ %o1 ], %g1
    5a50:	86 00 e0 01 	inc  %g3
    5a54:	80 a0 c0 08 	cmp  %g3, %o0
    5a58:	12 bf ff f7 	bne  5a34 <matrix_add_const+0x14>
    5a5c:	84 01 00 09 	add  %g4, %o1, %g2
    5a60:	81 c3 e0 08 	retl 
    5a64:	01 00 00 00 	nop 

00005a68 <matrix_mul_vect>:
    5a68:	80 a2 20 00 	cmp  %o0, 0
    5a6c:	02 80 00 13 	be  5ab8 <matrix_mul_vect+0x50>
    5a70:	9a 02 00 08 	add  %o0, %o0, %o5
    5a74:	98 10 20 00 	clr  %o4
    5a78:	91 2a 20 02 	sll  %o0, 2, %o0
    5a7c:	c0 22 40 0c 	clr  [ %o1 + %o4 ]
    5a80:	82 10 20 00 	clr  %g1
    5a84:	84 10 20 00 	clr  %g2
    5a88:	c8 52 80 01 	ldsh  [ %o2 + %g1 ], %g4
    5a8c:	c6 52 c0 01 	ldsh  [ %o3 + %g1 ], %g3
    5a90:	82 00 60 02 	add  %g1, 2, %g1
    5a94:	88 59 00 03 	smul  %g4, %g3, %g4
    5a98:	80 a0 40 0d 	cmp  %g1, %o5
    5a9c:	12 bf ff fb 	bne  5a88 <matrix_mul_vect+0x20>
    5aa0:	84 00 80 04 	add  %g2, %g4, %g2
    5aa4:	c4 22 40 0c 	st  %g2, [ %o1 + %o4 ]
    5aa8:	98 03 20 04 	add  %o4, 4, %o4
    5aac:	80 a3 00 08 	cmp  %o4, %o0
    5ab0:	12 bf ff f3 	bne  5a7c <matrix_mul_vect+0x14>
    5ab4:	94 02 80 0d 	add  %o2, %o5, %o2
    5ab8:	81 c3 e0 08 	retl 
    5abc:	01 00 00 00 	nop 

00005ac0 <matrix_mul_matrix>:
    5ac0:	9d e3 bf a0 	save  %sp, -96, %sp
    5ac4:	80 a6 20 00 	cmp  %i0, 0
    5ac8:	02 80 00 1d 	be  5b3c <matrix_mul_matrix+0x7c>
    5acc:	88 06 00 18 	add  %i0, %i0, %g4
    5ad0:	97 2e 20 02 	sll  %i0, 2, %o3
    5ad4:	98 10 00 19 	mov  %i1, %o4
    5ad8:	9a 10 20 00 	clr  %o5
    5adc:	9e 10 00 0c 	mov  %o4, %o7
    5ae0:	b2 10 20 00 	clr  %i1
    5ae4:	c0 23 c0 00 	clr  [ %o7 ]
    5ae8:	84 06 c0 19 	add  %i3, %i1, %g2
    5aec:	82 10 20 00 	clr  %g1
    5af0:	86 10 20 00 	clr  %g3
    5af4:	f8 56 80 01 	ldsh  [ %i2 + %g1 ], %i4
    5af8:	fa 50 80 00 	ldsh  [ %g2 ], %i5
    5afc:	82 00 60 02 	add  %g1, 2, %g1
    5b00:	b8 5f 00 1d 	smul  %i4, %i5, %i4
    5b04:	84 00 80 04 	add  %g2, %g4, %g2
    5b08:	80 a1 00 01 	cmp  %g4, %g1
    5b0c:	12 bf ff fa 	bne  5af4 <matrix_mul_matrix+0x34>
    5b10:	86 00 c0 1c 	add  %g3, %i4, %g3
    5b14:	c6 23 c0 00 	st  %g3, [ %o7 ]
    5b18:	b2 06 60 02 	add  %i1, 2, %i1
    5b1c:	80 a1 00 19 	cmp  %g4, %i1
    5b20:	12 bf ff f1 	bne  5ae4 <matrix_mul_matrix+0x24>
    5b24:	9e 03 e0 04 	add  %o7, 4, %o7
    5b28:	9a 03 60 01 	inc  %o5
    5b2c:	b4 06 80 04 	add  %i2, %g4, %i2
    5b30:	80 a3 40 18 	cmp  %o5, %i0
    5b34:	12 bf ff ea 	bne  5adc <matrix_mul_matrix+0x1c>
    5b38:	98 03 00 0b 	add  %o4, %o3, %o4
    5b3c:	81 c7 e0 08 	ret 
    5b40:	81 e8 00 00 	restore 

00005b44 <matrix_mul_matrix_bitextract>:
    5b44:	9d e3 bf a0 	save  %sp, -96, %sp
    5b48:	80 a6 20 00 	cmp  %i0, 0
    5b4c:	02 80 00 22 	be  5bd4 <matrix_mul_matrix_bitextract+0x90>
    5b50:	ba 06 00 18 	add  %i0, %i0, %i5
    5b54:	97 2e 20 02 	sll  %i0, 2, %o3
    5b58:	98 10 00 19 	mov  %i1, %o4
    5b5c:	9a 10 20 00 	clr  %o5
    5b60:	9e 10 00 0c 	mov  %o4, %o7
    5b64:	b2 10 20 00 	clr  %i1
    5b68:	c0 23 c0 00 	clr  [ %o7 ]
    5b6c:	84 06 c0 19 	add  %i3, %i1, %g2
    5b70:	82 10 20 00 	clr  %g1
    5b74:	88 10 20 00 	clr  %g4
    5b78:	f8 56 80 01 	ldsh  [ %i2 + %g1 ], %i4
    5b7c:	c6 50 80 00 	ldsh  [ %g2 ], %g3
    5b80:	82 00 60 02 	add  %g1, 2, %g1
    5b84:	86 5f 00 03 	smul  %i4, %g3, %g3
    5b88:	84 00 80 1d 	add  %g2, %i5, %g2
    5b8c:	b9 38 e0 05 	sra  %g3, 5, %i4
    5b90:	80 a7 40 01 	cmp  %i5, %g1
    5b94:	87 38 e0 02 	sra  %g3, 2, %g3
    5b98:	b8 0f 20 7f 	and  %i4, 0x7f, %i4
    5b9c:	86 08 e0 0f 	and  %g3, 0xf, %g3
    5ba0:	b8 5f 00 03 	smul  %i4, %g3, %i4
    5ba4:	12 bf ff f5 	bne  5b78 <matrix_mul_matrix_bitextract+0x34>
    5ba8:	88 07 00 04 	add  %i4, %g4, %g4
    5bac:	c8 23 c0 00 	st  %g4, [ %o7 ]
    5bb0:	b2 06 60 02 	add  %i1, 2, %i1
    5bb4:	80 a7 40 19 	cmp  %i5, %i1
    5bb8:	12 bf ff ec 	bne  5b68 <matrix_mul_matrix_bitextract+0x24>
    5bbc:	9e 03 e0 04 	add  %o7, 4, %o7
    5bc0:	9a 03 60 01 	inc  %o5
    5bc4:	b4 06 80 1d 	add  %i2, %i5, %i2
    5bc8:	80 a3 40 18 	cmp  %o5, %i0
    5bcc:	12 bf ff e5 	bne  5b60 <matrix_mul_matrix_bitextract+0x1c>
    5bd0:	98 03 00 0b 	add  %o4, %o3, %o4
    5bd4:	81 c7 e0 08 	ret 
    5bd8:	81 e8 00 00 	restore 

00005bdc <matrix_test>:
    5bdc:	9d e3 bf a0 	save  %sp, -96, %sp
    5be0:	80 a6 20 00 	cmp  %i0, 0
    5be4:	02 80 00 6c 	be  5d94 <matrix_test+0x1b8>
    5be8:	96 17 30 00 	or  %i4, -4096, %o3
    5bec:	ba 10 00 1c 	mov  %i4, %i5
    5bf0:	a0 06 00 18 	add  %i0, %i0, %l0
    5bf4:	a2 10 00 1a 	mov  %i2, %l1
    5bf8:	a4 10 00 1a 	mov  %i2, %l2
    5bfc:	82 10 20 00 	clr  %g1
    5c00:	98 04 00 12 	add  %l0, %l2, %o4
    5c04:	da 14 80 00 	lduh  [ %l2 ], %o5
    5c08:	9e 03 40 1d 	add  %o5, %i5, %o7
    5c0c:	de 34 80 00 	sth  %o7, [ %l2 ]
    5c10:	a4 04 a0 02 	add  %l2, 2, %l2
    5c14:	80 a4 80 0c 	cmp  %l2, %o4
    5c18:	32 bf ff fc 	bne,a   5c08 <matrix_test+0x2c>
    5c1c:	da 14 80 00 	lduh  [ %l2 ], %o5
    5c20:	82 00 60 01 	inc  %g1
    5c24:	80 a0 40 18 	cmp  %g1, %i0
    5c28:	12 bf ff f7 	bne  5c04 <matrix_test+0x28>
    5c2c:	98 04 00 12 	add  %l0, %l2, %o4
    5c30:	91 2e 20 02 	sll  %i0, 2, %o0
    5c34:	98 10 00 19 	mov  %i1, %o4
    5c38:	88 10 00 1a 	mov  %i2, %g4
    5c3c:	94 10 20 00 	clr  %o2
    5c40:	82 10 20 00 	clr  %g1
    5c44:	d2 51 00 01 	ldsh  [ %g4 + %g1 ], %o1
    5c48:	84 00 40 01 	add  %g1, %g1, %g2
    5c4c:	86 5a 40 1c 	smul  %o1, %i4, %g3
    5c50:	82 00 60 02 	add  %g1, 2, %g1
    5c54:	80 a4 00 01 	cmp  %l0, %g1
    5c58:	12 bf ff fb 	bne  5c44 <matrix_test+0x68>
    5c5c:	c6 23 00 02 	st  %g3, [ %o4 + %g2 ]
    5c60:	94 02 a0 01 	inc  %o2
    5c64:	88 01 00 10 	add  %g4, %l0, %g4
    5c68:	80 a2 80 18 	cmp  %o2, %i0
    5c6c:	12 bf ff f5 	bne  5c40 <matrix_test+0x64>
    5c70:	98 03 00 08 	add  %o4, %o0, %o4
    5c74:	b8 10 00 0b 	mov  %o3, %i4
    5c78:	94 10 00 0b 	mov  %o3, %o2
    5c7c:	92 10 00 19 	mov  %i1, %o1
    5c80:	7f ff ff 2a 	call  5928 <matrix_sum>
    5c84:	90 10 00 18 	mov  %i0, %o0
    5c88:	9b 2a 20 10 	sll  %o0, 0x10, %o5
    5c8c:	92 10 20 00 	clr  %o1
    5c90:	40 00 03 8f 	call  6acc <crc16>
    5c94:	91 3b 60 10 	sra  %o5, 0x10, %o0
    5c98:	96 10 00 1b 	mov  %i3, %o3
    5c9c:	a4 10 00 08 	mov  %o0, %l2
    5ca0:	92 10 00 19 	mov  %i1, %o1
    5ca4:	94 10 00 1a 	mov  %i2, %o2
    5ca8:	7f ff ff 70 	call  5a68 <matrix_mul_vect>
    5cac:	90 10 00 18 	mov  %i0, %o0
    5cb0:	92 10 00 19 	mov  %i1, %o1
    5cb4:	94 10 00 1c 	mov  %i4, %o2
    5cb8:	7f ff ff 1c 	call  5928 <matrix_sum>
    5cbc:	90 10 00 18 	mov  %i0, %o0
    5cc0:	83 2c a0 10 	sll  %l2, 0x10, %g1
    5cc4:	97 2a 20 10 	sll  %o0, 0x10, %o3
    5cc8:	93 30 60 10 	srl  %g1, 0x10, %o1
    5ccc:	40 00 03 80 	call  6acc <crc16>
    5cd0:	91 3a e0 10 	sra  %o3, 0x10, %o0
    5cd4:	96 10 00 1b 	mov  %i3, %o3
    5cd8:	a4 10 00 08 	mov  %o0, %l2
    5cdc:	92 10 00 19 	mov  %i1, %o1
    5ce0:	94 10 00 1a 	mov  %i2, %o2
    5ce4:	7f ff ff 77 	call  5ac0 <matrix_mul_matrix>
    5ce8:	90 10 00 18 	mov  %i0, %o0
    5cec:	92 10 00 19 	mov  %i1, %o1
    5cf0:	94 10 00 1c 	mov  %i4, %o2
    5cf4:	7f ff ff 0d 	call  5928 <matrix_sum>
    5cf8:	90 10 00 18 	mov  %i0, %o0
    5cfc:	93 2c a0 10 	sll  %l2, 0x10, %o1
    5d00:	91 2a 20 10 	sll  %o0, 0x10, %o0
    5d04:	93 32 60 10 	srl  %o1, 0x10, %o1
    5d08:	40 00 03 71 	call  6acc <crc16>
    5d0c:	91 3a 20 10 	sra  %o0, 0x10, %o0
    5d10:	96 10 00 1b 	mov  %i3, %o3
    5d14:	92 10 00 19 	mov  %i1, %o1
    5d18:	94 10 00 1a 	mov  %i2, %o2
    5d1c:	a4 10 00 08 	mov  %o0, %l2
    5d20:	7f ff ff 89 	call  5b44 <matrix_mul_matrix_bitextract>
    5d24:	90 10 00 18 	mov  %i0, %o0
    5d28:	92 10 00 19 	mov  %i1, %o1
    5d2c:	94 10 00 1c 	mov  %i4, %o2
    5d30:	7f ff fe fe 	call  5928 <matrix_sum>
    5d34:	90 10 00 18 	mov  %i0, %o0
    5d38:	b3 2c a0 10 	sll  %l2, 0x10, %i1
    5d3c:	b5 2a 20 10 	sll  %o0, 0x10, %i2
    5d40:	93 36 60 10 	srl  %i1, 0x10, %o1
    5d44:	91 3e a0 10 	sra  %i2, 0x10, %o0
    5d48:	40 00 03 61 	call  6acc <crc16>
    5d4c:	b6 10 20 00 	clr  %i3
    5d50:	9e 04 00 11 	add  %l0, %l1, %o7
    5d54:	82 10 00 11 	mov  %l1, %g1
    5d58:	e2 10 40 00 	lduh  [ %g1 ], %l1
    5d5c:	84 24 40 1d 	sub  %l1, %i5, %g2
    5d60:	c4 30 40 00 	sth  %g2, [ %g1 ]
    5d64:	82 00 60 02 	add  %g1, 2, %g1
    5d68:	80 a0 40 0f 	cmp  %g1, %o7
    5d6c:	32 bf ff fc 	bne,a   5d5c <matrix_test+0x180>
    5d70:	e2 10 40 00 	lduh  [ %g1 ], %l1
    5d74:	b6 06 e0 01 	inc  %i3
    5d78:	80 a6 c0 18 	cmp  %i3, %i0
    5d7c:	12 bf ff f5 	bne  5d50 <matrix_test+0x174>
    5d80:	a2 10 00 01 	mov  %g1, %l1
    5d84:	b1 2a 20 10 	sll  %o0, 0x10, %i0
    5d88:	b1 3e 20 10 	sra  %i0, 0x10, %i0
    5d8c:	81 c7 e0 08 	ret 
    5d90:	81 e8 00 00 	restore 
    5d94:	ba 10 00 0b 	mov  %o3, %i5
    5d98:	94 10 00 0b 	mov  %o3, %o2
    5d9c:	92 10 00 19 	mov  %i1, %o1
    5da0:	7f ff fe e2 	call  5928 <matrix_sum>
    5da4:	90 10 20 00 	clr  %o0
    5da8:	92 10 20 00 	clr  %o1
    5dac:	91 2a 20 10 	sll  %o0, 0x10, %o0
    5db0:	40 00 03 47 	call  6acc <crc16>
    5db4:	91 3a 20 10 	sra  %o0, 0x10, %o0
    5db8:	96 10 00 1b 	mov  %i3, %o3
    5dbc:	b8 10 00 08 	mov  %o0, %i4
    5dc0:	92 10 00 19 	mov  %i1, %o1
    5dc4:	94 10 00 1a 	mov  %i2, %o2
    5dc8:	7f ff ff 28 	call  5a68 <matrix_mul_vect>
    5dcc:	90 10 20 00 	clr  %o0
    5dd0:	94 10 00 1d 	mov  %i5, %o2
    5dd4:	92 10 00 19 	mov  %i1, %o1
    5dd8:	7f ff fe d4 	call  5928 <matrix_sum>
    5ddc:	90 10 20 00 	clr  %o0
    5de0:	83 2a 20 10 	sll  %o0, 0x10, %g1
    5de4:	93 2f 20 10 	sll  %i4, 0x10, %o1
    5de8:	91 38 60 10 	sra  %g1, 0x10, %o0
    5dec:	40 00 03 38 	call  6acc <crc16>
    5df0:	93 32 60 10 	srl  %o1, 0x10, %o1
    5df4:	96 10 00 1b 	mov  %i3, %o3
    5df8:	a0 10 00 08 	mov  %o0, %l0
    5dfc:	92 10 00 19 	mov  %i1, %o1
    5e00:	94 10 00 1a 	mov  %i2, %o2
    5e04:	7f ff ff 2f 	call  5ac0 <matrix_mul_matrix>
    5e08:	90 10 20 00 	clr  %o0
    5e0c:	94 10 00 1d 	mov  %i5, %o2
    5e10:	92 10 00 19 	mov  %i1, %o1
    5e14:	7f ff fe c5 	call  5928 <matrix_sum>
    5e18:	90 10 20 00 	clr  %o0
    5e1c:	85 2c 20 10 	sll  %l0, 0x10, %g2
    5e20:	87 2a 20 10 	sll  %o0, 0x10, %g3
    5e24:	93 30 a0 10 	srl  %g2, 0x10, %o1
    5e28:	40 00 03 29 	call  6acc <crc16>
    5e2c:	91 38 e0 10 	sra  %g3, 0x10, %o0
    5e30:	96 10 00 1b 	mov  %i3, %o3
    5e34:	a2 10 00 08 	mov  %o0, %l1
    5e38:	92 10 00 19 	mov  %i1, %o1
    5e3c:	94 10 00 1a 	mov  %i2, %o2
    5e40:	7f ff ff 41 	call  5b44 <matrix_mul_matrix_bitextract>
    5e44:	90 10 20 00 	clr  %o0
    5e48:	92 10 00 19 	mov  %i1, %o1
    5e4c:	94 10 00 1d 	mov  %i5, %o2
    5e50:	7f ff fe b6 	call  5928 <matrix_sum>
    5e54:	90 10 20 00 	clr  %o0
    5e58:	89 2c 60 10 	sll  %l1, 0x10, %g4
    5e5c:	95 2a 20 10 	sll  %o0, 0x10, %o2
    5e60:	93 31 20 10 	srl  %g4, 0x10, %o1
    5e64:	40 00 03 1a 	call  6acc <crc16>
    5e68:	91 3a a0 10 	sra  %o2, 0x10, %o0
    5e6c:	b1 2a 20 10 	sll  %o0, 0x10, %i0
    5e70:	b1 3e 20 10 	sra  %i0, 0x10, %i0
    5e74:	81 c7 e0 08 	ret 
    5e78:	81 e8 00 00 	restore 

00005e7c <core_bench_matrix>:
    5e7c:	9d e3 bf a0 	save  %sp, -96, %sp
    5e80:	98 10 00 19 	mov  %i1, %o4
    5e84:	d0 06 00 00 	ld  [ %i0 ], %o0
    5e88:	d2 06 20 0c 	ld  [ %i0 + 0xc ], %o1
    5e8c:	d4 06 20 04 	ld  [ %i0 + 4 ], %o2
    5e90:	d6 06 20 08 	ld  [ %i0 + 8 ], %o3
    5e94:	7f ff ff 52 	call  5bdc <matrix_test>
    5e98:	b2 10 00 1a 	mov  %i2, %i1
    5e9c:	b1 2a 20 10 	sll  %o0, 0x10, %i0
    5ea0:	b1 3e 20 10 	sra  %i0, 0x10, %i0
    5ea4:	40 00 03 0a 	call  6acc <crc16>
    5ea8:	81 e8 00 00 	restore 

00005eac <iterate>:
    5eac:	9d e3 bf a0 	save  %sp, -96, %sp
    5eb0:	11 00 00 80 	sethi  %hi(0x20000), %o0
    5eb4:	f8 06 20 1c 	ld  [ %i0 + 0x1c ], %i4
    5eb8:	c0 36 20 38 	clrh  [ %i0 + 0x38 ]
    5ebc:	c0 36 20 3a 	clrh  [ %i0 + 0x3a ]
    5ec0:	c0 36 20 3c 	clrh  [ %i0 + 0x3c ]
    5ec4:	c0 36 20 3e 	clrh  [ %i0 + 0x3e ]
    5ec8:	90 12 21 78 	or  %o0, 0x178, %o0
    5ecc:	7f ff f7 96 	call  3d24 <ee_printf>
    5ed0:	92 10 00 1c 	mov  %i4, %o1
    5ed4:	80 a7 20 00 	cmp  %i4, 0
    5ed8:	02 80 00 19 	be  5f3c <iterate+0x90>
    5edc:	ba 10 20 00 	clr  %i5
    5ee0:	92 10 20 01 	mov  1, %o1
    5ee4:	7f ff fc 27 	call  4f80 <core_bench_list>
    5ee8:	90 10 00 18 	mov  %i0, %o0
    5eec:	83 2a 20 10 	sll  %o0, 0x10, %g1
    5ef0:	d2 16 20 38 	lduh  [ %i0 + 0x38 ], %o1
    5ef4:	40 00 02 c0 	call  69f4 <crcu16>
    5ef8:	91 30 60 10 	srl  %g1, 0x10, %o0
    5efc:	92 10 3f ff 	mov  -1, %o1
    5f00:	d0 36 20 38 	sth  %o0, [ %i0 + 0x38 ]
    5f04:	7f ff fc 1f 	call  4f80 <core_bench_list>
    5f08:	90 10 00 18 	mov  %i0, %o0
    5f0c:	85 2a 20 10 	sll  %o0, 0x10, %g2
    5f10:	d2 16 20 38 	lduh  [ %i0 + 0x38 ], %o1
    5f14:	40 00 02 b8 	call  69f4 <crcu16>
    5f18:	91 30 a0 10 	srl  %g2, 0x10, %o0
    5f1c:	80 a7 60 00 	cmp  %i5, 0
    5f20:	12 80 00 03 	bne  5f2c <iterate+0x80>
    5f24:	d0 36 20 38 	sth  %o0, [ %i0 + 0x38 ]
    5f28:	d0 36 20 3a 	sth  %o0, [ %i0 + 0x3a ]
    5f2c:	ba 07 60 01 	inc  %i5
    5f30:	80 a7 40 1c 	cmp  %i5, %i4
    5f34:	12 bf ff ec 	bne  5ee4 <iterate+0x38>
    5f38:	92 10 20 01 	mov  1, %o1
    5f3c:	81 c7 e0 08 	ret 
    5f40:	91 e8 20 00 	restore  %g0, 0, %o0

00005f44 <ajit_main>:
    5f44:	9d e3 bf 38 	save  %sp, -200, %sp
    5f48:	7f ff fc cd 	call  527c <portable_init>
    5f4c:	90 07 bf fa 	add  %fp, -6, %o0
    5f50:	40 00 02 6f 	call  690c <get_seed_32>
    5f54:	90 10 20 01 	mov  1, %o0
    5f58:	d0 37 bf b8 	sth  %o0, [ %fp + -72 ]
    5f5c:	40 00 02 6c 	call  690c <get_seed_32>
    5f60:	90 10 20 02 	mov  2, %o0
    5f64:	d0 37 bf ba 	sth  %o0, [ %fp + -70 ]
    5f68:	40 00 02 69 	call  690c <get_seed_32>
    5f6c:	90 10 20 03 	mov  3, %o0
    5f70:	d0 37 bf bc 	sth  %o0, [ %fp + -68 ]
    5f74:	40 00 02 66 	call  690c <get_seed_32>
    5f78:	90 10 20 04 	mov  4, %o0
    5f7c:	d0 27 bf d4 	st  %o0, [ %fp + -44 ]
    5f80:	40 00 02 63 	call  690c <get_seed_32>
    5f84:	90 10 20 05 	mov  5, %o0
    5f88:	82 92 20 00 	orcc  %o0, 0, %g1
    5f8c:	22 80 01 8a 	be,a   65b4 <ajit_main+0x670>
    5f90:	82 10 20 07 	mov  7, %g1
    5f94:	ba 08 60 01 	and  %g1, 1, %i5
    5f98:	c2 27 bf d8 	st  %g1, [ %fp + -40 ]
    5f9c:	88 10 00 1d 	mov  %i5, %g4
    5fa0:	d0 07 bf b8 	ld  [ %fp + -72 ], %o0
    5fa4:	80 a2 20 00 	cmp  %o0, 0
    5fa8:	12 80 01 75 	bne  657c <ajit_main+0x638>
    5fac:	13 00 00 40 	sethi  %hi(0x10000), %o1
    5fb0:	c4 57 bf bc 	ldsh  [ %fp + -68 ], %g2
    5fb4:	80 a0 a0 00 	cmp  %g2, 0
    5fb8:	22 80 01 6c 	be,a   6568 <ajit_main+0x624>
    5fbc:	c0 37 bf b8 	clrh  [ %fp + -72 ]
    5fc0:	1f 00 00 81 	sethi  %hi(0x20400), %o7
    5fc4:	c0 37 bf f8 	clrh  [ %fp + -8 ]
    5fc8:	a0 13 e3 70 	or  %o7, 0x370, %l0
    5fcc:	e0 27 bf c0 	st  %l0, [ %fp + -64 ]
    5fd0:	84 88 60 02 	andcc  %g1, 2, %g2
    5fd4:	02 80 00 03 	be  5fe0 <ajit_main+0x9c>
    5fd8:	a2 10 00 1d 	mov  %i5, %l1
    5fdc:	a2 07 60 01 	add  %i5, 1, %l1
    5fe0:	80 88 60 04 	btst  4, %g1
    5fe4:	32 80 00 02 	bne,a   5fec <ajit_main+0xa8>
    5fe8:	a2 04 60 01 	inc  %l1
    5fec:	a5 2c 60 10 	sll  %l1, 0x10, %l2
    5ff0:	b8 10 27 d0 	mov  0x7d0, %i4
    5ff4:	a7 34 a0 10 	srl  %l2, 0x10, %l3
    5ff8:	ba 07 bf c4 	add  %fp, -60, %i5
    5ffc:	81 80 20 00 	mov  %g0, %y
    6000:	01 00 00 00 	nop 
    6004:	01 00 00 00 	nop 
    6008:	01 00 00 00 	nop 
    600c:	90 77 00 13 	udiv  %i4, %l3, %o0
    6010:	86 10 20 00 	clr  %g3
    6014:	d0 27 bf d0 	st  %o0, [ %fp + -48 ]
    6018:	b6 10 20 00 	clr  %i3
    601c:	b4 10 20 01 	mov  1, %i2
    6020:	a9 2e 80 03 	sll  %i2, %g3, %l4
    6024:	80 8d 00 01 	btst  %l4, %g1
    6028:	02 80 00 09 	be  604c <ajit_main+0x108>
    602c:	86 00 e0 01 	inc  %g3
    6030:	ab 2e e0 10 	sll  %i3, 0x10, %l5
    6034:	f2 07 bf c0 	ld  [ %fp + -64 ], %i1
    6038:	ad 35 60 10 	srl  %l5, 0x10, %l6
    603c:	b6 06 e0 01 	inc  %i3
    6040:	ae 5d 80 08 	smul  %l6, %o0, %l7
    6044:	b0 06 40 17 	add  %i1, %l7, %i0
    6048:	f0 27 40 00 	st  %i0, [ %i5 ]
    604c:	80 a0 e0 03 	cmp  %g3, 3
    6050:	12 bf ff f4 	bne  6020 <ajit_main+0xdc>
    6054:	ba 07 60 04 	add  %i5, 4, %i5
    6058:	80 a1 20 00 	cmp  %g4, 0
    605c:	12 80 01 3d 	bne  6550 <ajit_main+0x60c>
    6060:	d2 07 bf c4 	ld  [ %fp + -60 ], %o1
    6064:	80 a0 a0 00 	cmp  %g2, 0
    6068:	32 80 01 31 	bne,a   652c <ajit_main+0x5e8>
    606c:	c2 57 bf b8 	ldsh  [ %fp + -72 ], %g1
    6070:	80 88 60 04 	btst  4, %g1
    6074:	32 80 01 29 	bne,a   6518 <ajit_main+0x5d4>
    6078:	d0 07 bf d0 	ld  [ %fp + -48 ], %o0
    607c:	c2 07 bf d4 	ld  [ %fp + -44 ], %g1
    6080:	80 a0 60 00 	cmp  %g1, 0
    6084:	22 80 00 f7 	be,a   6460 <ajit_main+0x51c>
    6088:	11 00 00 81 	sethi  %hi(0x20400), %o0
    608c:	7f ff fc 55 	call  51e0 <start_time>
    6090:	35 00 00 1e 	sethi  %hi(0x7800), %i2
    6094:	40 00 02 1e 	call  690c <get_seed_32>
    6098:	90 10 20 04 	mov  4, %o0
    609c:	d0 27 bf d4 	st  %o0, [ %fp + -44 ]
    60a0:	7f ff ff 83 	call  5eac <iterate>
    60a4:	90 07 bf b8 	add  %fp, -72, %o0
    60a8:	7f ff fc 55 	call  51fc <stop_time>
    60ac:	a8 16 a3 05 	or  %i2, 0x305, %l4
    60b0:	7f ff fc 5a 	call  5218 <get_time>
    60b4:	01 00 00 00 	nop 
    60b8:	92 10 20 00 	clr  %o1	! 0 <_start>
    60bc:	b2 10 00 08 	mov  %o0, %i1
    60c0:	40 00 02 83 	call  6acc <crc16>
    60c4:	d0 57 bf b8 	ldsh  [ %fp + -72 ], %o0
    60c8:	a5 2a 20 10 	sll  %o0, 0x10, %l2
    60cc:	d0 57 bf ba 	ldsh  [ %fp + -70 ], %o0
    60d0:	40 00 02 7f 	call  6acc <crc16>
    60d4:	93 34 a0 10 	srl  %l2, 0x10, %o1
    60d8:	a7 2a 20 10 	sll  %o0, 0x10, %l3
    60dc:	d0 57 bf bc 	ldsh  [ %fp + -68 ], %o0
    60e0:	40 00 02 7b 	call  6acc <crc16>
    60e4:	93 34 e0 10 	srl  %l3, 0x10, %o1
    60e8:	b9 2a 20 10 	sll  %o0, 0x10, %i4
    60ec:	d0 57 bf d2 	ldsh  [ %fp + -46 ], %o0
    60f0:	40 00 02 77 	call  6acc <crc16>
    60f4:	93 37 20 10 	srl  %i4, 0x10, %o1
    60f8:	a7 2a 20 10 	sll  %o0, 0x10, %l3
    60fc:	83 34 e0 10 	srl  %l3, 0x10, %g1
    6100:	80 a0 40 14 	cmp  %g1, %l4
    6104:	22 80 01 e2 	be,a   688c <ajit_main+0x948>
    6108:	82 10 20 01 	mov  1, %g1
    610c:	08 80 01 2e 	bleu  65c4 <ajit_main+0x680>
    6110:	2b 00 00 06 	sethi  %hi(0x1800), %l5
    6114:	05 00 00 22 	sethi  %hi(0x8800), %g2
    6118:	88 10 a2 02 	or  %g2, 0x202, %g4	! 8a02 <check_data_types+0x1e3a>
    611c:	80 a0 40 04 	cmp  %g1, %g4
    6120:	02 80 01 d5 	be  6874 <ajit_main+0x930>
    6124:	15 00 00 3a 	sethi  %hi(0xe800), %o2
    6128:	90 12 a1 f5 	or  %o2, 0x1f5, %o0	! e9f5 <check_data_types+0x7e2d>
    612c:	80 a0 40 08 	cmp  %g1, %o0
    6130:	02 80 01 92 	be  6778 <ajit_main+0x834>
    6134:	92 10 20 03 	mov  3, %o1
    6138:	a0 10 3f ff 	mov  -1, %l0
    613c:	a2 10 3f ff 	mov  -1, %l1
    6140:	e0 37 bf b6 	sth  %l0, [ %fp + -74 ]
    6144:	31 00 00 81 	sethi  %hi(0x20400), %i0
    6148:	40 00 02 a0 	call  6bc8 <check_data_types>
    614c:	35 00 00 80 	sethi  %hi(0x20000), %i2
    6150:	d2 07 bf d0 	ld  [ %fp + -48 ], %o1
    6154:	ba 0a 20 ff 	and  %o0, 0xff, %i5
    6158:	7f ff f6 f3 	call  3d24 <ee_printf>
    615c:	90 16 a3 40 	or  %i2, 0x340, %o0
    6160:	92 10 00 19 	mov  %i1, %o1
    6164:	21 00 00 80 	sethi  %hi(0x20000), %l0
    6168:	7f ff f6 ef 	call  3d24 <ee_printf>
    616c:	90 14 23 58 	or  %l0, 0x358, %o0	! 20358 <state_known_crc+0x344>
    6170:	7f ff fc 30 	call  5230 <time_in_secs>
    6174:	90 10 00 19 	mov  %i1, %o0
    6178:	17 00 00 80 	sethi  %hi(0x20000), %o3
    617c:	c1 3f bf 98 	std  %f0, [ %fp + -104 ]
    6180:	c4 1f bf 98 	ldd  [ %fp + -104 ], %g2
    6184:	90 12 e3 70 	or  %o3, 0x370, %o0
    6188:	92 10 00 02 	mov  %g2, %o1
    618c:	7f ff f6 e6 	call  3d24 <ee_printf>
    6190:	94 10 00 03 	mov  %g3, %o2
    6194:	7f ff fc 27 	call  5230 <time_in_secs>
    6198:	90 10 00 19 	mov  %i1, %o0
    619c:	a2 07 40 11 	add  %i5, %l1, %l1
    61a0:	03 00 00 81 	sethi  %hi(0x20400), %g1
    61a4:	cd 18 62 78 	ldd  [ %g1 + 0x278 ], %f6	! 20678 <state_known_crc+0x664>
    61a8:	81 a8 0a c6 	fcmped  %f0, %f6
    61ac:	01 00 00 00 	nop 
    61b0:	1d 80 00 16 	fbule  6208 <ajit_main+0x2c4>
    61b4:	b6 10 00 11 	mov  %l1, %i3
    61b8:	d2 06 22 f0 	ld  [ %i0 + 0x2f0 ], %o1
    61bc:	c2 07 bf d4 	ld  [ %fp + -44 ], %g1
    61c0:	82 5a 40 01 	smul  %o1, %g1, %g1
    61c4:	c2 27 bf a4 	st  %g1, [ %fp + -92 ]
    61c8:	80 a0 60 00 	cmp  %g1, 0
    61cc:	c3 07 bf a4 	ld  [ %fp + -92 ], %f1
    61d0:	06 80 01 bc 	bl  68c0 <ajit_main+0x97c>
    61d4:	91 a0 19 01 	fitod  %f1, %f8
    61d8:	90 10 00 19 	mov  %i1, %o0
    61dc:	7f ff fc 15 	call  5230 <time_in_secs>
    61e0:	d1 3f bf a8 	std  %f8, [ %fp + -88 ]
    61e4:	d1 1f bf a8 	ldd  [ %fp + -88 ], %f8
    61e8:	19 00 00 80 	sethi  %hi(0x20000), %o4
    61ec:	9d a2 09 c0 	fdivd  %f8, %f0, %f14
    61f0:	dd 3f bf 98 	std  %f14, [ %fp + -104 ]
    61f4:	c4 1f bf 98 	ldd  [ %fp + -104 ], %g2
    61f8:	90 13 23 88 	or  %o4, 0x388, %o0
    61fc:	92 10 00 02 	mov  %g2, %o1
    6200:	7f ff f6 c9 	call  3d24 <ee_printf>
    6204:	94 10 00 03 	mov  %g3, %o2
    6208:	7f ff fc 0a 	call  5230 <time_in_secs>
    620c:	90 10 00 19 	mov  %i1, %o0
    6210:	03 00 00 81 	sethi  %hi(0x20400), %g1
    6214:	e1 18 62 80 	ldd  [ %g1 + 0x280 ], %f16	! 20680 <state_known_crc+0x66c>
    6218:	81 a8 0a d0 	fcmped  %f0, %f16
    621c:	01 00 00 00 	nop 
    6220:	09 80 01 89 	fbl  6844 <ajit_main+0x900>
    6224:	1b 00 00 80 	sethi  %hi(0x20000), %o5
    6228:	c2 07 bf d4 	ld  [ %fp + -44 ], %g1
    622c:	de 06 22 f0 	ld  [ %i0 + 0x2f0 ], %o7
    6230:	2d 00 00 80 	sethi  %hi(0x20000), %l6
    6234:	92 5b c0 01 	smul  %o7, %g1, %o1
    6238:	7f ff f6 bb 	call  3d24 <ee_printf>
    623c:	90 15 a3 e0 	or  %l6, 0x3e0, %o0
    6240:	2b 00 00 81 	sethi  %hi(0x20400), %l5
    6244:	29 00 00 80 	sethi  %hi(0x20000), %l4
    6248:	92 15 60 10 	or  %l5, 0x10, %o1
    624c:	7f ff f6 b6 	call  3d24 <ee_printf>
    6250:	90 15 23 f8 	or  %l4, 0x3f8, %o0
    6254:	07 00 00 81 	sethi  %hi(0x20400), %g3
    6258:	2f 00 00 81 	sethi  %hi(0x20400), %l7
    625c:	90 10 e0 28 	or  %g3, 0x28, %o0
    6260:	7f ff f6 b1 	call  3d24 <ee_printf>
    6264:	92 15 e0 40 	or  %l7, 0x40, %o1
    6268:	05 00 00 81 	sethi  %hi(0x20400), %g2
    626c:	23 00 00 81 	sethi  %hi(0x20400), %l1
    6270:	90 10 a0 a8 	or  %g2, 0xa8, %o0
    6274:	7f ff f6 ac 	call  3d24 <ee_printf>
    6278:	92 14 60 c0 	or  %l1, 0xc0, %o1
    627c:	93 34 e0 10 	srl  %l3, 0x10, %o1
    6280:	27 00 00 81 	sethi  %hi(0x20400), %l3
    6284:	7f ff f6 a8 	call  3d24 <ee_printf>
    6288:	90 14 e0 c8 	or  %l3, 0xc8, %o0	! 204c8 <state_known_crc+0x4b4>
    628c:	c8 07 bf d8 	ld  [ %fp + -40 ], %g4
    6290:	80 89 20 01 	btst  1, %g4
    6294:	02 80 00 1a 	be  62fc <ajit_main+0x3b8>
    6298:	c2 06 22 f0 	ld  [ %i0 + 0x2f0 ], %g1
    629c:	80 a0 60 00 	cmp  %g1, 0
    62a0:	02 80 01 90 	be  68e0 <ajit_main+0x99c>
    62a4:	15 00 00 81 	sethi  %hi(0x20400), %o2
    62a8:	09 00 00 81 	sethi  %hi(0x20400), %g4
    62ac:	b8 10 20 00 	clr  %i4
    62b0:	a4 11 22 f0 	or  %g4, 0x2f0, %l2
    62b4:	ba 12 a0 e8 	or  %o2, 0xe8, %i5
    62b8:	b5 2f 20 10 	sll  %i4, 0x10, %i2
    62bc:	93 36 a0 10 	srl  %i2, 0x10, %o1
    62c0:	a1 2a 60 02 	sll  %o1, 2, %l0
    62c4:	83 2a 60 06 	sll  %o1, 6, %g1
    62c8:	82 04 00 01 	add  %l0, %g1, %g1
    62cc:	82 07 80 01 	add  %fp, %g1, %g1
    62d0:	90 10 00 1d 	mov  %i5, %o0
    62d4:	7f ff f6 94 	call  3d24 <ee_printf>
    62d8:	d4 10 7f f2 	lduh  [ %g1 + -14 ], %o2
    62dc:	b8 07 20 01 	inc  %i4
    62e0:	c2 04 80 00 	ld  [ %l2 ], %g1
    62e4:	91 2f 20 10 	sll  %i4, 0x10, %o0
    62e8:	97 32 20 10 	srl  %o0, 0x10, %o3
    62ec:	80 a2 c0 01 	cmp  %o3, %g1
    62f0:	0a bf ff f3 	bcs  62bc <ajit_main+0x378>
    62f4:	b5 2f 20 10 	sll  %i4, 0x10, %i2
    62f8:	c8 07 bf d8 	ld  [ %fp + -40 ], %g4
    62fc:	80 89 20 02 	btst  2, %g4
    6300:	02 80 00 1b 	be  636c <ajit_main+0x428>
    6304:	80 89 20 04 	btst  4, %g4
    6308:	80 a0 60 00 	cmp  %g1, 0
    630c:	02 80 00 48 	be  642c <ajit_main+0x4e8>
    6310:	13 00 00 81 	sethi  %hi(0x20400), %o1
    6314:	19 00 00 81 	sethi  %hi(0x20400), %o4
    6318:	a6 10 20 00 	clr  %l3
    631c:	ac 12 62 f0 	or  %o1, 0x2f0, %l6
    6320:	a8 13 21 08 	or  %o4, 0x108, %l4
    6324:	9b 2c e0 10 	sll  %l3, 0x10, %o5
    6328:	93 33 60 10 	srl  %o5, 0x10, %o1
    632c:	9f 2a 60 02 	sll  %o1, 2, %o7
    6330:	83 2a 60 06 	sll  %o1, 6, %g1
    6334:	82 03 c0 01 	add  %o7, %g1, %g1
    6338:	82 07 80 01 	add  %fp, %g1, %g1
    633c:	90 10 00 14 	mov  %l4, %o0
    6340:	7f ff f6 79 	call  3d24 <ee_printf>
    6344:	d4 10 7f f4 	lduh  [ %g1 + -12 ], %o2
    6348:	a6 04 e0 01 	inc  %l3
    634c:	c2 05 80 00 	ld  [ %l6 ], %g1
    6350:	87 2c e0 10 	sll  %l3, 0x10, %g3
    6354:	85 30 e0 10 	srl  %g3, 0x10, %g2
    6358:	80 a0 80 01 	cmp  %g2, %g1
    635c:	0a bf ff f3 	bcs  6328 <ajit_main+0x3e4>
    6360:	9b 2c e0 10 	sll  %l3, 0x10, %o5
    6364:	c8 07 bf d8 	ld  [ %fp + -40 ], %g4
    6368:	80 89 20 04 	btst  4, %g4
    636c:	02 80 00 1a 	be  63d4 <ajit_main+0x490>
    6370:	80 a0 60 00 	cmp  %g1, 0
    6374:	22 80 00 2f 	be,a   6430 <ajit_main+0x4ec>
    6378:	b7 2e e0 10 	sll  %i3, 0x10, %i3
    637c:	25 00 00 81 	sethi  %hi(0x20400), %l2
    6380:	15 00 00 81 	sethi  %hi(0x20400), %o2
    6384:	b8 10 20 00 	clr  %i4
    6388:	ba 14 a2 f0 	or  %l2, 0x2f0, %i5
    638c:	b4 12 a1 28 	or  %o2, 0x128, %i2
    6390:	a1 2f 20 10 	sll  %i4, 0x10, %l0
    6394:	93 34 20 10 	srl  %l0, 0x10, %o1
    6398:	97 2a 60 02 	sll  %o1, 2, %o3
    639c:	83 2a 60 06 	sll  %o1, 6, %g1
    63a0:	82 02 c0 01 	add  %o3, %g1, %g1
    63a4:	82 07 80 01 	add  %fp, %g1, %g1
    63a8:	90 10 00 1a 	mov  %i2, %o0
    63ac:	7f ff f6 5e 	call  3d24 <ee_printf>
    63b0:	d4 10 7f f6 	lduh  [ %g1 + -10 ], %o2
    63b4:	b8 07 20 01 	inc  %i4
    63b8:	c2 07 40 00 	ld  [ %i5 ], %g1
    63bc:	91 2f 20 10 	sll  %i4, 0x10, %o0
    63c0:	93 32 20 10 	srl  %o0, 0x10, %o1
    63c4:	80 a2 40 01 	cmp  %o1, %g1
    63c8:	0a bf ff f3 	bcs  6394 <ajit_main+0x450>
    63cc:	a1 2f 20 10 	sll  %i4, 0x10, %l0
    63d0:	80 a0 60 00 	cmp  %g1, 0
    63d4:	02 80 00 16 	be  642c <ajit_main+0x4e8>
    63d8:	2d 00 00 81 	sethi  %hi(0x20400), %l6
    63dc:	19 00 00 81 	sethi  %hi(0x20400), %o4
    63e0:	a4 10 20 00 	clr  %l2
    63e4:	a8 15 a2 f0 	or  %l6, 0x2f0, %l4
    63e8:	a6 13 21 48 	or  %o4, 0x148, %l3
    63ec:	9b 2c a0 10 	sll  %l2, 0x10, %o5
    63f0:	93 33 60 10 	srl  %o5, 0x10, %o1
    63f4:	9f 2a 60 02 	sll  %o1, 2, %o7
    63f8:	83 2a 60 06 	sll  %o1, 6, %g1
    63fc:	82 03 c0 01 	add  %o7, %g1, %g1
    6400:	82 07 80 01 	add  %fp, %g1, %g1
    6404:	90 10 00 13 	mov  %l3, %o0
    6408:	7f ff f6 47 	call  3d24 <ee_printf>
    640c:	d4 10 7f f0 	lduh  [ %g1 + -16 ], %o2
    6410:	a4 04 a0 01 	inc  %l2
    6414:	c2 05 00 00 	ld  [ %l4 ], %g1
    6418:	87 2c a0 10 	sll  %l2, 0x10, %g3
    641c:	85 30 e0 10 	srl  %g3, 0x10, %g2
    6420:	80 a0 80 01 	cmp  %g2, %g1
    6424:	0a bf ff f3 	bcs  63f0 <ajit_main+0x4ac>
    6428:	9b 2c a0 10 	sll  %l2, 0x10, %o5
    642c:	b7 2e e0 10 	sll  %i3, 0x10, %i3
    6430:	89 3e e0 10 	sra  %i3, 0x10, %g4
    6434:	80 a1 20 00 	cmp  %g4, 0
    6438:	22 80 00 de 	be,a   67b0 <ajit_main+0x86c>
    643c:	3b 00 00 81 	sethi  %hi(0x20400), %i5
    6440:	04 80 01 06 	ble  6858 <ajit_main+0x914>
    6444:	31 00 00 81 	sethi  %hi(0x20400), %i0
    6448:	7f ff f6 37 	call  3d24 <ee_printf>
    644c:	90 16 21 e0 	or  %i0, 0x1e0, %o0	! 205e0 <state_known_crc+0x5cc>
    6450:	7f ff fb a4 	call  52e0 <portable_fini>
    6454:	90 07 bf fa 	add  %fp, -6, %o0
    6458:	81 c7 e0 08 	ret 
    645c:	81 e8 00 00 	restore 
    6460:	82 10 20 01 	mov  1, %g1
    6464:	a0 12 22 90 	or  %o0, 0x290, %l0
    6468:	92 00 40 01 	add  %g1, %g1, %o1
    646c:	83 28 60 03 	sll  %g1, 3, %g1
    6470:	82 02 40 01 	add  %o1, %g1, %g1
    6474:	7f ff fb 5b 	call  51e0 <start_time>
    6478:	c2 27 bf d4 	st  %g1, [ %fp + -44 ]
    647c:	7f ff fe 8c 	call  5eac <iterate>
    6480:	90 07 bf b8 	add  %fp, -72, %o0
    6484:	7f ff fb 5e 	call  51fc <stop_time>
    6488:	01 00 00 00 	nop 
    648c:	7f ff fb 63 	call  5218 <get_time>
    6490:	01 00 00 00 	nop 
    6494:	7f ff fb 67 	call  5230 <time_in_secs>
    6498:	01 00 00 00 	nop 
    649c:	d1 1c 00 00 	ldd  [ %l0 ], %f8
    64a0:	81 a8 0a c8 	fcmped  %f0, %f8
    64a4:	01 00 00 00 	nop 
    64a8:	09 bf ff f0 	fbl  6468 <ajit_main+0x524>
    64ac:	c2 07 bf d4 	ld  [ %fp + -44 ], %g1
    64b0:	03 00 00 81 	sethi  %hi(0x20400), %g1
    64b4:	c5 18 62 a8 	ldd  [ %g1 + 0x2a8 ], %f2	! 206a8 <state_known_crc+0x694>
    64b8:	81 a8 0a c2 	fcmped  %f0, %f2
    64bc:	01 00 00 00 	nop 
    64c0:	37 80 00 a8 	fbge,a   6760 <ajit_main+0x81c>
    64c4:	89 a0 08 c2 	fsubd  %f0, %f2, %f4
    64c8:	81 a0 1a 40 	fdtoi  %f0, %f0
    64cc:	c1 27 bf a4 	st  %f0, [ %fp + -92 ]
    64d0:	c2 07 bf a4 	ld  [ %fp + -92 ], %g1
    64d4:	80 a0 60 00 	cmp  %g1, 0
    64d8:	22 80 00 02 	be,a   64e0 <ajit_main+0x59c>
    64dc:	82 10 20 01 	mov  1, %g1
    64e0:	98 10 20 0a 	mov  0xa, %o4
    64e4:	1f 00 00 80 	sethi  %hi(0x20000), %o7
    64e8:	81 80 20 00 	mov  %g0, %y
    64ec:	01 00 00 00 	nop 
    64f0:	01 00 00 00 	nop 
    64f4:	01 00 00 00 	nop 
    64f8:	9a 73 00 01 	udiv  %o4, %g1, %o5
    64fc:	c2 07 bf d4 	ld  [ %fp + -44 ], %g1
    6500:	a2 03 60 01 	add  %o5, 1, %l1
    6504:	90 13 e1 90 	or  %o7, 0x190, %o0
    6508:	92 5c 40 01 	smul  %l1, %g1, %o1
    650c:	7f ff f6 06 	call  3d24 <ee_printf>
    6510:	d2 27 bf d4 	st  %o1, [ %fp + -44 ]
    6514:	30 bf fe de 	b,a   608c <ajit_main+0x148>
    6518:	d2 57 bf b8 	ldsh  [ %fp + -72 ], %o1
    651c:	7f ff f2 c6 	call  3034 <core_init_state>
    6520:	d4 07 bf cc 	ld  [ %fp + -52 ], %o2
    6524:	10 bf fe d7 	b  6080 <ajit_main+0x13c>
    6528:	c2 07 bf d4 	ld  [ %fp + -44 ], %g1
    652c:	c8 57 bf ba 	ldsh  [ %fp + -70 ], %g4
    6530:	d0 07 bf d0 	ld  [ %fp + -48 ], %o0
    6534:	95 29 20 10 	sll  %g4, 0x10, %o2
    6538:	d2 07 bf c8 	ld  [ %fp + -56 ], %o1
    653c:	94 12 80 01 	or  %o2, %g1, %o2
    6540:	7f ff fc b5 	call  5814 <core_init_matrix>
    6544:	96 07 bf e0 	add  %fp, -32, %o3
    6548:	10 bf fe ca 	b  6070 <ajit_main+0x12c>
    654c:	c2 07 bf d8 	ld  [ %fp + -40 ], %g1
    6550:	7f ff fa 24 	call  4de0 <core_list_init>
    6554:	d4 57 bf b8 	ldsh  [ %fp + -72 ], %o2
    6558:	c2 07 bf d8 	ld  [ %fp + -40 ], %g1
    655c:	d0 27 bf dc 	st  %o0, [ %fp + -36 ]
    6560:	10 bf fe c1 	b  6064 <ajit_main+0x120>
    6564:	84 08 60 02 	and  %g1, 2, %g2
    6568:	c0 37 bf ba 	clrh  [ %fp + -70 ]
    656c:	86 10 20 66 	mov  0x66, %g3
    6570:	d0 07 bf b8 	ld  [ %fp + -72 ], %o0
    6574:	c6 37 bf bc 	sth  %g3, [ %fp + -68 ]
    6578:	13 00 00 40 	sethi  %hi(0x10000), %o1
    657c:	80 a2 00 09 	cmp  %o0, %o1
    6580:	12 bf fe 91 	bne  5fc4 <ajit_main+0x80>
    6584:	1f 00 00 81 	sethi  %hi(0x20400), %o7
    6588:	d4 57 bf bc 	ldsh  [ %fp + -68 ], %o2
    658c:	80 a2 a0 00 	cmp  %o2, 0
    6590:	32 bf fe 8e 	bne,a   5fc8 <ajit_main+0x84>
    6594:	c0 37 bf f8 	clrh  [ %fp + -8 ]
    6598:	17 00 00 0d 	sethi  %hi(0x3400), %o3
    659c:	9a 10 20 66 	mov  0x66, %o5
    65a0:	98 12 e0 15 	or  %o3, 0x15, %o4
    65a4:	da 37 bf bc 	sth  %o5, [ %fp + -68 ]
    65a8:	d8 37 bf b8 	sth  %o4, [ %fp + -72 ]
    65ac:	10 bf fe 86 	b  5fc4 <ajit_main+0x80>
    65b0:	d8 37 bf ba 	sth  %o4, [ %fp + -70 ]
    65b4:	88 10 20 01 	mov  1, %g4
    65b8:	c2 27 bf d8 	st  %g1, [ %fp + -40 ]
    65bc:	10 bf fe 79 	b  5fa0 <ajit_main+0x5c>
    65c0:	ba 10 20 01 	mov  1, %i5
    65c4:	ac 15 60 f2 	or  %l5, 0xf2, %l6
    65c8:	80 a0 40 16 	cmp  %g1, %l6
    65cc:	02 80 00 b6 	be  68a4 <ajit_main+0x960>
    65d0:	37 00 00 13 	sethi  %hi(0x4c00), %i3
    65d4:	ae 16 e2 af 	or  %i3, 0x2af, %l7	! 4eaf <core_list_init+0xcf>
    65d8:	80 a0 40 17 	cmp  %g1, %l7
    65dc:	12 bf fe d8 	bne  613c <ajit_main+0x1f8>
    65e0:	a0 10 3f ff 	mov  -1, %l0
    65e4:	07 00 00 80 	sethi  %hi(0x20000), %g3
    65e8:	b0 10 20 02 	mov  2, %i0
    65ec:	90 10 e2 10 	or  %g3, 0x210, %o0
    65f0:	7f ff f5 cd 	call  3d24 <ee_printf>
    65f4:	f0 37 bf b6 	sth  %i0, [ %fp + -74 ]
    65f8:	31 00 00 81 	sethi  %hi(0x20400), %i0
    65fc:	c2 06 22 f0 	ld  [ %i0 + 0x2f0 ], %g1	! 206f0 <default_num_contexts>
    6600:	80 a0 60 00 	cmp  %g1, 0
    6604:	02 bf fe d1 	be  6148 <ajit_main+0x204>
    6608:	a2 10 20 00 	clr  %l1
    660c:	de 17 bf b6 	lduh  [ %fp + -74 ], %o7
    6610:	a4 10 20 00 	clr  %l2
    6614:	b9 2b e0 10 	sll  %o7, 0x10, %i4
    6618:	ae 10 20 00 	clr  %l7
    661c:	ba 16 22 f0 	or  %i0, 0x2f0, %i5
    6620:	23 00 00 80 	sethi  %hi(0x20000), %l1
    6624:	b5 3f 20 10 	sra  %i4, 0x10, %i2
    6628:	10 80 00 0c 	b  6658 <ajit_main+0x714>
    662c:	21 00 00 80 	sethi  %hi(0x20000), %l0
    6630:	ac 07 80 1b 	add  %fp, %i3, %l6
    6634:	c2 15 bf f8 	lduh  [ %l6 + -8 ], %g1
    6638:	82 00 40 12 	add  %g1, %l2, %g1
    663c:	ae 05 e0 01 	inc  %l7
    6640:	a5 2d e0 10 	sll  %l7, 0x10, %l2
    6644:	d0 07 40 00 	ld  [ %i5 ], %o0
    6648:	b9 34 a0 10 	srl  %l2, 0x10, %i4
    664c:	80 a7 00 08 	cmp  %i4, %o0
    6650:	1a 80 00 42 	bcc  6758 <ajit_main+0x814>
    6654:	a4 10 00 01 	mov  %g1, %l2
    6658:	a9 2d e0 10 	sll  %l7, 0x10, %l4
    665c:	b7 35 20 10 	srl  %l4, 0x10, %i3
    6660:	ad 2e e0 02 	sll  %i3, 2, %l6
    6664:	ab 2e e0 06 	sll  %i3, 6, %l5
    6668:	a8 05 80 15 	add  %l6, %l5, %l4
    666c:	b8 07 80 14 	add  %fp, %l4, %i4
    6670:	c0 37 3f f8 	clrh  [ %i4 + -8 ]
    6674:	c2 07 3f d8 	ld  [ %i4 + -40 ], %g1
    6678:	80 88 60 01 	btst  1, %g1
    667c:	02 80 00 11 	be  66c0 <ajit_main+0x77c>
    6680:	80 88 60 02 	btst  2, %g1
    6684:	86 14 60 00 	mov  %l1, %g3
    6688:	84 06 80 1a 	add  %i2, %i2, %g2
    668c:	d4 17 3f f2 	lduh  [ %i4 + -14 ], %o2
    6690:	d6 10 c0 02 	lduh  [ %g3 + %g2 ], %o3
    6694:	80 a2 80 0b 	cmp  %o2, %o3
    6698:	02 80 00 09 	be  66bc <ajit_main+0x778>
    669c:	09 00 00 80 	sethi  %hi(0x20000), %g4
    66a0:	92 10 00 1b 	mov  %i3, %o1
    66a4:	7f ff f5 a0 	call  3d24 <ee_printf>
    66a8:	90 11 22 a8 	or  %g4, 0x2a8, %o0
    66ac:	d4 17 3f f8 	lduh  [ %i4 + -8 ], %o2
    66b0:	c2 07 3f d8 	ld  [ %i4 + -40 ], %g1
    66b4:	90 02 a0 01 	add  %o2, 1, %o0
    66b8:	d0 37 3f f8 	sth  %o0, [ %i4 + -8 ]
    66bc:	80 88 60 02 	btst  2, %g1
    66c0:	02 80 00 12 	be  6708 <ajit_main+0x7c4>
    66c4:	80 88 60 04 	btst  4, %g1
    66c8:	b8 07 80 14 	add  %fp, %l4, %i4
    66cc:	92 14 20 0a 	or  %l0, 0xa, %o1
    66d0:	96 06 80 1a 	add  %i2, %i2, %o3
    66d4:	d4 17 3f f4 	lduh  [ %i4 + -12 ], %o2
    66d8:	d6 12 40 0b 	lduh  [ %o1 + %o3 ], %o3
    66dc:	80 a2 80 0b 	cmp  %o2, %o3
    66e0:	02 80 00 09 	be  6704 <ajit_main+0x7c0>
    66e4:	19 00 00 80 	sethi  %hi(0x20000), %o4
    66e8:	92 10 00 1b 	mov  %i3, %o1
    66ec:	7f ff f5 8e 	call  3d24 <ee_printf>
    66f0:	90 13 22 d8 	or  %o4, 0x2d8, %o0
    66f4:	da 17 3f f8 	lduh  [ %i4 + -8 ], %o5
    66f8:	c2 07 3f d8 	ld  [ %i4 + -40 ], %g1
    66fc:	9e 03 60 01 	add  %o5, 1, %o7
    6700:	de 37 3f f8 	sth  %o7, [ %i4 + -8 ]
    6704:	80 88 60 04 	btst  4, %g1
    6708:	22 bf ff ca 	be,a   6630 <ajit_main+0x6ec>
    670c:	b6 05 80 15 	add  %l6, %l5, %i3
    6710:	aa 07 80 14 	add  %fp, %l4, %l5
    6714:	82 06 80 1a 	add  %i2, %i2, %g1
    6718:	d4 15 7f f6 	lduh  [ %l5 + -10 ], %o2
    671c:	29 00 00 80 	sethi  %hi(0x20000), %l4
    6720:	86 15 20 14 	or  %l4, 0x14, %g3	! 20014 <state_known_crc>
    6724:	d6 10 c0 01 	lduh  [ %g3 + %g1 ], %o3
    6728:	80 a2 80 0b 	cmp  %o2, %o3
    672c:	12 80 00 19 	bne  6790 <ajit_main+0x84c>
    6730:	05 00 00 80 	sethi  %hi(0x20000), %g2
    6734:	c2 15 7f f8 	lduh  [ %l5 + -8 ], %g1
    6738:	ae 05 e0 01 	inc  %l7
    673c:	82 00 40 12 	add  %g1, %l2, %g1
    6740:	a5 2d e0 10 	sll  %l7, 0x10, %l2
    6744:	d0 07 40 00 	ld  [ %i5 ], %o0
    6748:	b9 34 a0 10 	srl  %l2, 0x10, %i4
    674c:	80 a7 00 08 	cmp  %i4, %o0
    6750:	0a bf ff c2 	bcs  6658 <ajit_main+0x714>
    6754:	a4 10 00 01 	mov  %g1, %l2
    6758:	10 bf fe 7c 	b  6148 <ajit_main+0x204>
    675c:	a2 10 00 01 	mov  %g1, %l1
    6760:	17 20 00 00 	sethi  %hi(0x80000000), %o3
    6764:	95 a0 1a 44 	fdtoi  %f4, %f10
    6768:	d5 27 bf a4 	st  %f10, [ %fp + -92 ]
    676c:	c2 07 bf a4 	ld  [ %fp + -92 ], %g1
    6770:	10 bf ff 59 	b  64d4 <ajit_main+0x590>
    6774:	82 18 40 0b 	xor  %g1, %o3, %g1
    6778:	17 00 00 80 	sethi  %hi(0x20000), %o3
    677c:	d2 37 bf b6 	sth  %o1, [ %fp + -74 ]
    6780:	7f ff f5 69 	call  3d24 <ee_printf>
    6784:	90 12 e2 48 	or  %o3, 0x248, %o0
    6788:	10 bf ff 9d 	b  65fc <ajit_main+0x6b8>
    678c:	31 00 00 81 	sethi  %hi(0x20400), %i0
    6790:	92 10 00 1b 	mov  %i3, %o1
    6794:	7f ff f5 64 	call  3d24 <ee_printf>
    6798:	90 10 a3 10 	or  %g2, 0x310, %o0
    679c:	c8 15 7f f8 	lduh  [ %l5 + -8 ], %g4
    67a0:	94 01 20 01 	add  %g4, 1, %o2
    67a4:	82 10 00 0a 	mov  %o2, %g1
    67a8:	10 bf ff a4 	b  6638 <ajit_main+0x6f4>
    67ac:	d4 35 7f f8 	sth  %o2, [ %l5 + -8 ]
    67b0:	7f ff f5 5d 	call  3d24 <ee_printf>
    67b4:	90 17 61 68 	or  %i5, 0x168, %o0
    67b8:	d4 17 bf b6 	lduh  [ %fp + -74 ], %o2
    67bc:	b5 2a a0 10 	sll  %o2, 0x10, %i2
    67c0:	a1 3e a0 10 	sra  %i2, 0x10, %l0
    67c4:	80 a4 20 03 	cmp  %l0, 3
    67c8:	12 bf ff 22 	bne  6450 <ajit_main+0x50c>
    67cc:	d6 06 22 f0 	ld  [ %i0 + 0x2f0 ], %o3
    67d0:	c2 07 bf d4 	ld  [ %fp + -44 ], %g1
    67d4:	82 5a c0 01 	smul  %o3, %g1, %g1
    67d8:	c2 27 bf a4 	st  %g1, [ %fp + -92 ]
    67dc:	80 a0 60 00 	cmp  %g1, 0
    67e0:	c7 07 bf a4 	ld  [ %fp + -92 ], %f3
    67e4:	06 80 00 3b 	bl  68d0 <ajit_main+0x98c>
    67e8:	91 a0 19 03 	fitod  %f3, %f8
    67ec:	90 10 00 19 	mov  %i1, %o0
    67f0:	7f ff fa 90 	call  5230 <time_in_secs>
    67f4:	d1 3f bf a8 	std  %f8, [ %fp + -88 ]
    67f8:	d1 1f bf a8 	ldd  [ %fp + -88 ], %f8
    67fc:	a9 a2 09 c0 	fdivd  %f8, %f0, %f20
    6800:	e9 3f bf 98 	std  %f20, [ %fp + -104 ]
    6804:	c4 1f bf 98 	ldd  [ %fp + -104 ], %g2
    6808:	96 15 60 10 	or  %l5, 0x10, %o3
    680c:	98 15 e0 40 	or  %l7, 0x40, %o4
    6810:	92 10 00 02 	mov  %g2, %o1
    6814:	94 10 00 03 	mov  %g3, %o2
    6818:	2b 00 00 81 	sethi  %hi(0x20400), %l5
    681c:	7f ff f5 42 	call  3d24 <ee_printf>
    6820:	90 15 61 b8 	or  %l5, 0x1b8, %o0	! 205b8 <state_known_crc+0x5a4>
    6824:	92 14 60 c0 	or  %l1, 0xc0, %o1
    6828:	2f 00 00 81 	sethi  %hi(0x20400), %l7
    682c:	7f ff f5 3e 	call  3d24 <ee_printf>
    6830:	90 15 e1 d8 	or  %l7, 0x1d8, %o0	! 205d8 <state_known_crc+0x5c4>
    6834:	23 00 00 81 	sethi  %hi(0x20400), %l1
    6838:	7f ff f5 3b 	call  3d24 <ee_printf>
    683c:	90 14 61 b0 	or  %l1, 0x1b0, %o0	! 205b0 <state_known_crc+0x59c>
    6840:	30 bf ff 04 	b,a   6450 <ajit_main+0x50c>
    6844:	b6 04 60 01 	add  %l1, 1, %i3
    6848:	7f ff f5 37 	call  3d24 <ee_printf>
    684c:	90 13 63 a0 	or  %o5, 0x3a0, %o0
    6850:	10 bf fe 77 	b  622c <ajit_main+0x2e8>
    6854:	c2 07 bf d4 	ld  [ %fp + -44 ], %g1
    6858:	33 00 00 81 	sethi  %hi(0x20400), %i1
    685c:	7f ff f5 32 	call  3d24 <ee_printf>
    6860:	90 16 61 f8 	or  %i1, 0x1f8, %o0	! 205f8 <state_known_crc+0x5e4>
    6864:	7f ff fa 9f 	call  52e0 <portable_fini>
    6868:	90 07 bf fa 	add  %fp, -6, %o0
    686c:	81 c7 e0 08 	ret 
    6870:	81 e8 00 00 	restore 
    6874:	19 00 00 80 	sethi  %hi(0x20000), %o4
    6878:	c0 37 bf b6 	clrh  [ %fp + -74 ]
    687c:	7f ff f5 2a 	call  3d24 <ee_printf>
    6880:	90 13 21 b0 	or  %o4, 0x1b0, %o0
    6884:	10 bf ff 5e 	b  65fc <ajit_main+0x6b8>
    6888:	31 00 00 81 	sethi  %hi(0x20400), %i0
    688c:	1b 00 00 80 	sethi  %hi(0x20000), %o5
    6890:	c2 37 bf b6 	sth  %g1, [ %fp + -74 ]
    6894:	7f ff f5 24 	call  3d24 <ee_printf>
    6898:	90 13 61 e0 	or  %o5, 0x1e0, %o0
    689c:	10 bf ff 58 	b  65fc <ajit_main+0x6b8>
    68a0:	31 00 00 81 	sethi  %hi(0x20400), %i0
    68a4:	82 10 20 04 	mov  4, %g1
    68a8:	3b 00 00 80 	sethi  %hi(0x20000), %i5
    68ac:	c2 37 bf b6 	sth  %g1, [ %fp + -74 ]
    68b0:	7f ff f5 1d 	call  3d24 <ee_printf>
    68b4:	90 17 62 78 	or  %i5, 0x278, %o0
    68b8:	10 bf ff 51 	b  65fc <ajit_main+0x6b8>
    68bc:	31 00 00 81 	sethi  %hi(0x20400), %i0
    68c0:	03 00 00 81 	sethi  %hi(0x20400), %g1
    68c4:	d9 18 62 98 	ldd  [ %g1 + 0x298 ], %f12	! 20698 <state_known_crc+0x684>
    68c8:	10 bf fe 44 	b  61d8 <ajit_main+0x294>
    68cc:	91 a2 08 4c 	faddd  %f8, %f12, %f8
    68d0:	03 00 00 81 	sethi  %hi(0x20400), %g1
    68d4:	e5 18 62 98 	ldd  [ %g1 + 0x298 ], %f18	! 20698 <state_known_crc+0x684>
    68d8:	10 bf ff c5 	b  67ec <ajit_main+0x8a8>
    68dc:	91 a2 08 52 	faddd  %f8, %f18, %f8
    68e0:	80 89 20 02 	btst  2, %g4
    68e4:	02 bf fe a1 	be  6368 <ajit_main+0x424>
    68e8:	82 10 20 00 	clr  %g1
    68ec:	10 bf fe d1 	b  6430 <ajit_main+0x4ec>
    68f0:	b7 2e e0 10 	sll  %i3, 0x10, %i3
    68f4:	00 00 69 18 	unimp  0x6918
    68f8:	00 00 69 44 	unimp  0x6944
    68fc:	00 00 69 54 	unimp  0x6954
    6900:	00 00 69 64 	unimp  0x6964
    6904:	00 00 69 74 	unimp  0x6974
    6908:	00 00 69 34 	unimp  0x6934

0000690c <get_seed_32>:
    690c:	80 a2 20 05 	cmp  %o0, 5
    6910:	28 80 00 04 	bleu,a   6920 <get_seed_32+0x14>
    6914:	91 2a 20 02 	sll  %o0, 2, %o0
    6918:	81 c3 e0 08 	retl 
    691c:	90 10 20 00 	clr  %o0
    6920:	03 00 00 1a 	sethi  %hi(0x6800), %g1
    6924:	82 10 60 f4 	or  %g1, 0xf4, %g1	! 68f4 <ajit_main+0x9b0>
    6928:	c2 00 40 08 	ld  [ %g1 + %o0 ], %g1
    692c:	81 c0 40 00 	jmp  %g1
    6930:	01 00 00 00 	nop 
    6934:	03 00 00 81 	sethi  %hi(0x20400), %g1
    6938:	d0 00 62 f4 	ld  [ %g1 + 0x2f4 ], %o0	! 206f4 <seed5_volatile>
    693c:	81 c3 e0 08 	retl 
    6940:	01 00 00 00 	nop 
    6944:	03 00 00 81 	sethi  %hi(0x20400), %g1
    6948:	d0 00 63 64 	ld  [ %g1 + 0x364 ], %o0	! 20764 <seed1_volatile>
    694c:	81 c3 e0 08 	retl 
    6950:	01 00 00 00 	nop 
    6954:	03 00 00 81 	sethi  %hi(0x20400), %g1
    6958:	d0 00 63 60 	ld  [ %g1 + 0x360 ], %o0	! 20760 <seed2_volatile>
    695c:	81 c3 e0 08 	retl 
    6960:	01 00 00 00 	nop 
    6964:	03 00 00 81 	sethi  %hi(0x20400), %g1
    6968:	d0 00 62 fc 	ld  [ %g1 + 0x2fc ], %o0	! 206fc <seed3_volatile>
    696c:	81 c3 e0 08 	retl 
    6970:	01 00 00 00 	nop 
    6974:	03 00 00 81 	sethi  %hi(0x20400), %g1
    6978:	d0 00 62 f8 	ld  [ %g1 + 0x2f8 ], %o0	! 206f8 <seed4_volatile>
    697c:	81 c3 e0 08 	retl 
    6980:	01 00 00 00 	nop 

00006984 <crcu8>:
    6984:	09 00 00 1f 	sethi  %hi(0x7c00), %g4
    6988:	82 10 00 08 	mov  %o0, %g1
    698c:	19 00 00 10 	sethi  %hi(0x4000), %o4
    6990:	90 10 00 09 	mov  %o1, %o0
    6994:	84 10 20 08 	mov  8, %g2
    6998:	92 11 23 ff 	or  %g4, 0x3ff, %o1
    699c:	1b 3f ff e0 	sethi  %hi(0xffff8000), %o5
    69a0:	10 80 00 07 	b  69bc <crcu8+0x38>
    69a4:	88 13 20 02 	or  %o4, 2, %g4
    69a8:	91 32 20 01 	srl  %o0, 1, %o0
    69ac:	84 00 bf ff 	add  %g2, -1, %g2
    69b0:	80 88 a0 ff 	btst  0xff, %g2
    69b4:	02 80 00 0e 	be  69ec <crcu8+0x68>
    69b8:	90 0a 00 09 	and  %o0, %o1, %o0
    69bc:	86 18 40 08 	xor  %g1, %o0, %g3
    69c0:	80 88 e0 01 	btst  1, %g3
    69c4:	02 bf ff f9 	be  69a8 <crcu8+0x24>
    69c8:	83 30 60 01 	srl  %g1, 1, %g1
    69cc:	98 1a 00 04 	xor  %o0, %g4, %o4
    69d0:	87 33 20 01 	srl  %o4, 1, %g3
    69d4:	90 10 c0 0d 	or  %g3, %o5, %o0
    69d8:	84 00 bf ff 	add  %g2, -1, %g2
    69dc:	99 2a 20 10 	sll  %o0, 0x10, %o4
    69e0:	80 88 a0 ff 	btst  0xff, %g2
    69e4:	12 bf ff f6 	bne  69bc <crcu8+0x38>
    69e8:	91 33 20 10 	srl  %o4, 0x10, %o0
    69ec:	81 c3 e0 08 	retl 
    69f0:	01 00 00 00 	nop 

000069f4 <crcu16>:
    69f4:	09 00 00 1f 	sethi  %hi(0x7c00), %g4
    69f8:	19 00 00 10 	sethi  %hi(0x4000), %o4
    69fc:	84 10 00 08 	mov  %o0, %g2
    6a00:	82 10 20 08 	mov  8, %g1
    6a04:	88 11 23 ff 	or  %g4, 0x3ff, %g4
    6a08:	98 13 20 02 	or  %o4, 2, %o4
    6a0c:	10 80 00 07 	b  6a28 <crcu16+0x34>
    6a10:	1b 3f ff e0 	sethi  %hi(0xffff8000), %o5
    6a14:	93 32 60 01 	srl  %o1, 1, %o1
    6a18:	82 00 7f ff 	add  %g1, -1, %g1
    6a1c:	80 88 60 ff 	btst  0xff, %g1
    6a20:	02 80 00 0f 	be  6a5c <crcu16+0x68>
    6a24:	92 0a 40 04 	and  %o1, %g4, %o1
    6a28:	86 1a 40 02 	xor  %o1, %g2, %g3
    6a2c:	84 08 a0 ff 	and  %g2, 0xff, %g2
    6a30:	80 88 e0 01 	btst  1, %g3
    6a34:	02 bf ff f8 	be  6a14 <crcu16+0x20>
    6a38:	85 30 a0 01 	srl  %g2, 1, %g2
    6a3c:	86 1a 40 0c 	xor  %o1, %o4, %g3
    6a40:	93 30 e0 01 	srl  %g3, 1, %o1
    6a44:	82 00 7f ff 	add  %g1, -1, %g1
    6a48:	86 12 40 0d 	or  %o1, %o5, %g3
    6a4c:	80 88 60 ff 	btst  0xff, %g1
    6a50:	93 28 e0 10 	sll  %g3, 0x10, %o1
    6a54:	12 bf ff f5 	bne  6a28 <crcu16+0x34>
    6a58:	93 32 60 10 	srl  %o1, 0x10, %o1
    6a5c:	09 00 00 1f 	sethi  %hi(0x7c00), %g4
    6a60:	1b 00 00 10 	sethi  %hi(0x4000), %o5
    6a64:	98 11 23 ff 	or  %g4, 0x3ff, %o4
    6a68:	91 32 20 08 	srl  %o0, 8, %o0
    6a6c:	82 10 20 08 	mov  8, %g1
    6a70:	86 13 60 02 	or  %o5, 2, %g3
    6a74:	10 80 00 07 	b  6a90 <crcu16+0x9c>
    6a78:	09 3f ff e0 	sethi  %hi(0xffff8000), %g4
    6a7c:	93 32 60 01 	srl  %o1, 1, %o1
    6a80:	82 00 7f ff 	add  %g1, -1, %g1
    6a84:	80 88 60 ff 	btst  0xff, %g1
    6a88:	02 80 00 0f 	be  6ac4 <crcu16+0xd0>
    6a8c:	92 0a 40 0c 	and  %o1, %o4, %o1
    6a90:	84 1a 40 08 	xor  %o1, %o0, %g2
    6a94:	90 0a 20 ff 	and  %o0, 0xff, %o0
    6a98:	80 88 a0 01 	btst  1, %g2
    6a9c:	02 bf ff f8 	be  6a7c <crcu16+0x88>
    6aa0:	91 32 20 01 	srl  %o0, 1, %o0
    6aa4:	9a 1a 40 03 	xor  %o1, %g3, %o5
    6aa8:	85 33 60 01 	srl  %o5, 1, %g2
    6aac:	92 10 80 04 	or  %g2, %g4, %o1
    6ab0:	82 00 7f ff 	add  %g1, -1, %g1
    6ab4:	9b 2a 60 10 	sll  %o1, 0x10, %o5
    6ab8:	80 88 60 ff 	btst  0xff, %g1
    6abc:	12 bf ff f5 	bne  6a90 <crcu16+0x9c>
    6ac0:	93 33 60 10 	srl  %o5, 0x10, %o1
    6ac4:	81 c3 e0 08 	retl 
    6ac8:	90 10 00 09 	mov  %o1, %o0

00006acc <crc16>:
    6acc:	09 00 00 1f 	sethi  %hi(0x7c00), %g4
    6ad0:	19 00 00 10 	sethi  %hi(0x4000), %o4
    6ad4:	84 10 00 08 	mov  %o0, %g2
    6ad8:	82 10 20 08 	mov  8, %g1
    6adc:	88 11 23 ff 	or  %g4, 0x3ff, %g4
    6ae0:	98 13 20 02 	or  %o4, 2, %o4
    6ae4:	10 80 00 07 	b  6b00 <crc16+0x34>
    6ae8:	1b 3f ff e0 	sethi  %hi(0xffff8000), %o5
    6aec:	93 32 60 01 	srl  %o1, 1, %o1
    6af0:	82 00 7f ff 	add  %g1, -1, %g1
    6af4:	80 88 60 ff 	btst  0xff, %g1
    6af8:	02 80 00 0f 	be  6b34 <crc16+0x68>
    6afc:	92 0a 40 04 	and  %o1, %g4, %o1
    6b00:	86 1a 40 02 	xor  %o1, %g2, %g3
    6b04:	84 08 a0 ff 	and  %g2, 0xff, %g2
    6b08:	80 88 e0 01 	btst  1, %g3
    6b0c:	02 bf ff f8 	be  6aec <crc16+0x20>
    6b10:	85 30 a0 01 	srl  %g2, 1, %g2
    6b14:	86 1a 40 0c 	xor  %o1, %o4, %g3
    6b18:	93 30 e0 01 	srl  %g3, 1, %o1
    6b1c:	82 00 7f ff 	add  %g1, -1, %g1
    6b20:	86 12 40 0d 	or  %o1, %o5, %g3
    6b24:	80 88 60 ff 	btst  0xff, %g1
    6b28:	93 28 e0 10 	sll  %g3, 0x10, %o1
    6b2c:	12 bf ff f5 	bne  6b00 <crc16+0x34>
    6b30:	93 32 60 10 	srl  %o1, 0x10, %o1
    6b34:	09 00 00 1f 	sethi  %hi(0x7c00), %g4
    6b38:	91 2a 20 10 	sll  %o0, 0x10, %o0
    6b3c:	98 11 23 ff 	or  %g4, 0x3ff, %o4
    6b40:	1b 00 00 10 	sethi  %hi(0x4000), %o5
    6b44:	91 32 20 18 	srl  %o0, 0x18, %o0
    6b48:	82 10 20 08 	mov  8, %g1
    6b4c:	86 13 60 02 	or  %o5, 2, %g3
    6b50:	10 80 00 07 	b  6b6c <crc16+0xa0>
    6b54:	09 3f ff e0 	sethi  %hi(0xffff8000), %g4
    6b58:	93 32 60 01 	srl  %o1, 1, %o1
    6b5c:	82 00 7f ff 	add  %g1, -1, %g1
    6b60:	80 88 60 ff 	btst  0xff, %g1
    6b64:	02 80 00 0f 	be  6ba0 <crc16+0xd4>
    6b68:	92 0a 40 0c 	and  %o1, %o4, %o1
    6b6c:	84 1a 40 08 	xor  %o1, %o0, %g2
    6b70:	90 0a 20 ff 	and  %o0, 0xff, %o0
    6b74:	80 88 a0 01 	btst  1, %g2
    6b78:	02 bf ff f8 	be  6b58 <crc16+0x8c>
    6b7c:	91 32 20 01 	srl  %o0, 1, %o0
    6b80:	9a 1a 40 03 	xor  %o1, %g3, %o5
    6b84:	85 33 60 01 	srl  %o5, 1, %g2
    6b88:	92 10 80 04 	or  %g2, %g4, %o1
    6b8c:	82 00 7f ff 	add  %g1, -1, %g1
    6b90:	9b 2a 60 10 	sll  %o1, 0x10, %o5
    6b94:	80 88 60 ff 	btst  0xff, %g1
    6b98:	12 bf ff f5 	bne  6b6c <crc16+0xa0>
    6b9c:	93 33 60 10 	srl  %o5, 0x10, %o1
    6ba0:	81 c3 e0 08 	retl 
    6ba4:	90 10 00 09 	mov  %o1, %o0

00006ba8 <crcu32>:
    6ba8:	9d e3 bf a0 	save  %sp, -96, %sp
    6bac:	92 10 00 19 	mov  %i1, %o1
    6bb0:	91 2e 20 10 	sll  %i0, 0x10, %o0
    6bb4:	b1 3e 20 10 	sra  %i0, 0x10, %i0
    6bb8:	7f ff ff c5 	call  6acc <crc16>
    6bbc:	91 3a 20 10 	sra  %o0, 0x10, %o0
    6bc0:	7f ff ff c3 	call  6acc <crc16>
    6bc4:	93 e8 00 08 	restore  %g0, %o0, %o1

00006bc8 <check_data_types>:
    6bc8:	81 c3 e0 08 	retl 
    6bcc:	90 10 20 00 	clr  %o0
